(lp1
(lp2
(Vbiological_process
p3
I217237
tp4
a(Vcellular_component
p5
I74515
tp6
a(Vmolecular_function
p7
I59253
tp8
a(Vorganelle
p9
I20719
tp10
a(Vanatomical structure development
p11
I14882
tp12
a(Vtransport
p13
I12662
tp14
a(Vcellular nitrogen compound metabolic process
p15
I11530
tp16
a(Vsignal transduction
p17
I10167
tp18
a(Vresponse to stress
p19
I8503
tp20
a(Vprotein complex
p21
I8283
tp22
a(Vsmall molecule metabolic process
p23
I7307
tp24
a(Vbiosynthetic process
p25
I7165
tp26
a(Vion binding
p27
I6958
tp28
a(Vcellular protein modification process
p29
I6336
tp30
a(Vcatabolic process
p31
I5480
tp32
a(Vimmune system process
p33
I4723
tp34
a(Vcellular component assembly
p35
I3934
tp36
a(Vcytosol
p37
I3552
tp38
a(Vcell differentiation
p39
I3476
tp40
a(Vlipid metabolic process
p41
I3362
tp42
a(Venzyme binding
p43
I3324
tp44
a(VDNA metabolic process
p45
I2867
tp46
a(Vvesicle-mediated transport
p47
I2755
tp48
a(Vnucleolus
p49
I2644
tp50
a(Vnucleus
p51
I2643
tp52
a(Vlocomotion
p53
I2608
tp54
a(Vplasma membrane
p55
I2580
tp56
a(Vchromosome organization
p57
I2530
tp58
a(Vtransmembrane transporter activity
p59
I2247
tp60
a(Vnucleobase-containing compound catabolic process
p61
I2148
tp62
a(Vanatomical structure formation involved in morphogenesis
p63
I2140
tp64
a(Vmacromolecular complex assembly
p65
I2130
tp66
a(Vcarbohydrate metabolic process
p67
I2075
tp68
a(Vhomeostatic process
p69
I2057
tp70
a(VDNA binding
p71
I2032
tp72
a(Vcytoplasm
p73
I2023
tp74
a(Vkinase activity
p75
I2004
tp76
a(Vembryo development
p77
I1908
tp78
a(Vtransmembrane transport
p79
I1781
tp80
a(Voxidoreductase activity
p81
I1756
tp82
a(Vcell motility
p83
I1730
tp84
a(Vcytoskeletal protein binding
p85
I1698
tp86
a(Vcytoskeleton organization
p87
I1698
tp88
a(Vprotein complex assembly
p89
I1664
tp90
a(Vprotein maturation
p91
I1649
tp92
a(VRNA binding
p93
I1598
tp94
a(Vgrowth
p95
I1596
tp96
a(Vmitochondrion
p97
I1428
tp98
a(Vcytoplasmic membrane-bounded vesicle
p99
I1403
tp100
a(Vsignal transducer activity
p101
I1327
tp102
a(Vneurological system process
p103
I1317
tp104
a(VGolgi apparatus
p105
I1307
tp106
a(Vcytoskeleton
p107
I1293
tp108
a(Vcellular amino acid metabolic process
p109
I1266
tp110
a(Vendosome
p111
I1245
tp112
a(Vlipid binding
p113
I1190
tp114
a(VATPase activity
p115
I1169
tp116
a(Vcell death
p117
I1164
tp118
a(Vpeptidase activity
p119
I1108
tp120
a(Vmembrane organization
p121
I1102
tp122
a(Vendoplasmic reticulum
p123
I1090
tp124
a(Vcell adhesion
p125
I1080
tp126
a(Vmicrotubule organizing center
p127
I1039
tp128
a(Venzyme regulator activity
p129
I1000
tp130
a(Vnucleoplasm
p131
I997
tp132
a(Vligase activity
p133
I950
tp134
a(Vcell proliferation
p135
I942
tp136
a(Vcell-cell signaling
p137
I913
tp138
a(Vcell morphogenesis
p139
I883
tp140
a(Vtranscription factor binding
p141
I880
tp142
a(Vprotein targeting
p143
I870
tp144
a(Vprotein binding transcription factor activity
p145
I807
tp146
a(Vstructural molecule activity
p147
I771
tp148
a(VmRNA processing
p149
I725
tp150
a(Vsymbiosis, encompassing mutualism through parasitism
p151
I682
tp152
a(Vsulfur compound metabolic process
p153
I676
tp154
a(Vnucleic acid binding transcription factor activity
p155
I657
tp156
a(Vphosphatase activity
p157
I644
tp158
a(Vvacuole
p159
I634
tp160
a(Vextracellular region
p161
I616
tp162
a(Vtransferase activity, transferring acyl groups
p163
I611
tp164
a(Vcell cycle
p165
I603
tp166
a(Vcofactor metabolic process
p167
I587
tp168
a(Vgeneration of precursor metabolites and energy
p169
I549
tp170
a(Vreproduction
p171
I524
tp172
a(Vtransferase activity, transferring glycosyl groups
p173
I520
tp174
a(Vcilium
p175
I505
tp176
a(Vhelicase activity
p177
I483
tp178
a(Vcell junction organization
p179
I463
tp180
a(Vnucleocytoplasmic transport
p181
I450
tp182
a(Vcell division
p183
I445
tp184
a(Vnuclease activity
p185
I428
tp186
a(Vextracellular matrix organization
p187
I413
tp188
a(VGTPase activity
p189
I407
tp190
a(Vplastid
p191
I390
tp192
a(Vextracellular space
p193
I389
tp194
a(Vribonucleoprotein complex assembly
p195
I379
tp196
a(Vprotein folding
p197
I378
tp198
a(Vaging
p199
I375
tp200
a(Vmethyltransferase activity
p201
I371
tp202
a(Vdevelopmental maturation
p203
I347
tp204
a(Vlyase activity
p205
I346
tp206
a(Vchromosome
p207
I339
tp208
a(Vlysosome
p209
I337
tp210
a(Vcytoskeleton-dependent intracellular transport
p211
I318
tp212
a(Vhistone binding
p213
I311
tp214
a(Vsecondary metabolic process
p215
I308
tp216
a(Vmitochondrion organization
p217
I287
tp218
a(VmRNA binding
p219
I282
tp220
a(Visomerase activity
p221
I271
tp222
a(Vexternal encapsulating structure
p223
I268
tp224
a(Vplasma membrane organization
p225
I267
tp226
a(Vcell wall
p227
I264
tp228
a(Vhydrolase activity, acting on glycosyl bonds
p229
I255
tp230
a(Vvacuolar transport
p231
I252
tp232
a(Vmitosis
p233
I251
tp234
a(Vnuclear envelope
p235
I250
tp236
a(Vnucleotidyltransferase activity
p237
I241
tp238
a(VtRNA metabolic process
p239
I237
tp240
a(Vchromosome segregation
p241
I237
tp242
a(Vcirculatory system process
p243
I232
tp244
a(Vprotein binding, bridging
p245
I215
tp246
a(Vstructural constituent of ribosome
p247
I208
tp248
a(Vcell wall organization or biogenesis
p249
I206
tp250
a(Vhydrolase activity, acting on carbon-nitrogen (but not peptide) bonds
p251
I203
tp252
a(Vperoxisome
p253
I188
tp254
a(Vsmall conjugating protein binding
p255
I186
tp256
a(Vtranslation factor activity, nucleic acid binding
p257
I176
tp258
a(Vlipid particle
p259
I162
tp260
a(Vtranslation
p261
I153
tp262
a(Vunfolded protein binding
p263
I137
tp264
a(Vproteinaceous extracellular matrix
p265
I136
tp266
a(Vprotein transporter activity
p267
I123
tp268
a(Vintracellular
p269
I121
tp270
a(Vtransferase activity, transferring alkyl or aryl (other than methyl) groups
p271
I118
tp272
a(Vribosome
p273
I114
tp274
a(Vribosome biogenesis
p275
I99
tp276
a(Vnuclear chromosome
p277
I98
tp278
a(Vpigmentation
p279
I75
tp280
a(VrRNA binding
p281
I66
tp282
a(Vthylakoid
p283
I30
tp284
a(Vcell
p285
I19
tp286
a(Vnitrogen cycle metabolic process
p287
I14
tp288
a(Vtransposition
p289
I7
tp290
a(Vphotosynthesis
p291
I4
tp292
a(VRNA modification guide activity
p293
I1
tp294
aa(lp295
(g3
L6372L
tp296
a(g5
L4365L
tp297
a(g7
L2787L
tp298
a(g9
L21685L
tp299
a(g11
L26888L
tp300
a(g13
L5491L
tp301
a(g15
L18268L
tp302
a(g17
L5801L
tp303
a(g19
L5613L
tp304
a(g21
L21693L
tp305
a(g23
L22689L
tp306
a(g25
L7192L
tp307
a(g27
L21630L
tp308
a(g29
L5168L
tp309
a(g31
L7190L
tp310
a(g33
L1781L
tp311
a(g35
L13633L
tp312
a(g37
L4599L
tp313
a(g39
L13924L
tp314
a(g41
L5326L
tp315
a(g43
L12968L
tp316
a(g45
L4995L
tp317
a(g47
L10381L
tp318
a(g49
L4507L
tp319
a(g51
L4422L
tp320
a(g53
L20507L
tp321
a(g55
L4644L
tp322
a(g57
L28228L
tp323
a(g59
L13690L
tp324
a(g61
L18282L
tp325
a(g63
L26682L
tp326
a(g65
L31581L
tp327
a(g67
L4725L
tp328
a(g69
L21086L
tp329
a(g71
L2790L
tp330
a(g73
L4514L
tp331
a(g75
L10466L
tp332
a(g77
L7881L
tp333
a(g79
L29927L
tp334
a(g81
L10598L
tp335
a(g83
L26901L
tp336
a(g85
L6320L
tp337
a(g87
L5663L
tp338
a(g89
L5165L
tp339
a(g91
L28535L
tp340
a(g93
L2830L
tp341
a(g95
L20503L
tp342
a(g97
L4515L
tp343
a(g99
L10229L
tp344
a(g101
L3827L
tp345
a(g103
L27837L
tp346
a(g105
L4567L
tp347
a(g107
L4621L
tp348
a(g109
L5218L
tp349
a(g111
L4542L
tp350
a(g113
L6500L
tp351
a(g115
L10963L
tp352
a(g117
L6436L
tp353
a(g119
L6448L
tp354
a(g121
L30984L
tp355
a(g123
L4556L
tp356
a(g125
L5791L
tp357
a(g127
L4586L
tp358
a(g129
L14001L
tp359
a(g131
L4439L
tp360
a(g133
L10950L
tp361
a(g135
L6494L
tp362
a(g137
L5896L
tp363
a(g139
L594L
tp364
a(g141
L6357L
tp365
a(g143
L5302L
tp366
a(g145
L677L
tp367
a(g147
L4118L
tp368
a(g149
L5112L
tp369
a(g151
L22810L
tp370
a(g153
L5471L
tp371
a(g155
L759L
tp372
a(g157
L10870L
tp373
a(g159
L4546L
tp374
a(g161
L4366L
tp375
a(g163
L10829L
tp376
a(g165
L5695L
tp377
a(g167
L28144L
tp378
a(g169
L4838L
tp379
a(g171
L3L
tp380
a(g173
L10840L
tp381
a(g175
L4684L
tp382
a(g177
L3404L
tp383
a(g179
L17965L
tp384
a(g181
L5582L
tp385
a(g183
L28251L
tp386
a(g185
L3518L
tp387
a(g187
L13967L
tp388
a(g189
L2991L
tp389
a(g191
L7644L
tp390
a(g193
L4405L
tp391
a(g195
L13644L
tp392
a(g197
L5161L
tp393
a(g199
L6169L
tp394
a(g201
L6389L
tp395
a(g203
L13274L
tp396
a(g205
L10905L
tp397
a(g207
L4475L
tp398
a(g209
L4538L
tp399
a(g211
L14427L
tp400
a(g213
L20900L
tp401
a(g215
L12827L
tp402
a(g217
L5658L
tp403
a(g219
L2835L
tp404
a(g221
L10929L
tp405
a(g223
L14078L
tp406
a(g225
L5662L
tp407
a(g227
L4408L
tp408
a(g229
L10876L
tp409
a(g231
L5682L
tp410
a(g233
L5712L
tp411
a(g235
L4423L
tp412
a(g237
L10860L
tp413
a(g239
L5114L
tp414
a(g241
L5705L
tp415
a(g243
L2364L
tp416
a(g245
L14396L
tp417
a(g247
L2841L
tp418
a(g249
L33137L
tp419
a(g251
L10886L
tp420
a(g253
L4550L
tp421
a(g255
L15840L
tp422
a(g257
L6358L
tp423
a(g259
L4583L
tp424
a(g261
L5126L
tp425
a(g263
L28040L
tp426
a(g265
L4368L
tp427
a(g267
L6747L
tp428
a(g269
L4411L
tp429
a(g271
L10848L
tp430
a(g273
L4609L
tp431
a(g275
L20770L
tp432
a(g277
L201L
tp433
a(g279
L21900L
tp434
a(g281
L12918L
tp435
a(g283
L7683L
tp436
a(g285
L4412L
tp437
a(g287
L33512L
tp438
a(g289
L15852L
tp439
a(g291
L10192L
tp440
a(g293
L14288L
tp441
aaI599133
a.