(lp1
(lp2
(Vbiological_process
p3
I144531
tp4
a(Vcellular_component
p5
I49049
tp6
a(Vmolecular_function
p7
I38288
tp8
a(Vorganelle
p9
I13897
tp10
a(Vanatomical structure development
p11
I9656
tp12
a(Vtransport
p13
I8443
tp14
a(Vcellular nitrogen compound metabolic process
p15
I7511
tp16
a(Vsignal transduction
p17
I7048
tp18
a(Vresponse to stress
p19
I5667
tp20
a(Vprotein complex
p21
I5201
tp22
a(Vbiosynthetic process
p23
I4845
tp24
a(Vsmall molecule metabolic process
p25
I4765
tp26
a(Vion binding
p27
I4330
tp28
a(Vcellular protein modification process
p29
I4321
tp30
a(Vcatabolic process
p31
I3645
tp32
a(Vimmune system process
p33
I3354
tp34
a(Vcellular component assembly
p35
I2527
tp36
a(Vlipid metabolic process
p37
I2343
tp38
a(Vcell differentiation
p39
I2309
tp40
a(Vcytosol
p41
I2226
tp42
a(Venzyme binding
p43
I2167
tp44
a(VDNA metabolic process
p45
I1918
tp46
a(Vvesicle-mediated transport
p47
I1856
tp48
a(Vlocomotion
p49
I1787
tp50
a(Vnucleus
p51
I1782
tp52
a(Vplasma membrane
p53
I1662
tp54
a(Vnucleolus
p55
I1652
tp56
a(Vchromosome organization
p57
I1606
tp58
a(Vkinase activity
p59
I1458
tp60
a(Vnucleobase-containing compound catabolic process
p61
I1455
tp62
a(Vtransmembrane transporter activity
p63
I1404
tp64
a(Vanatomical structure formation involved in morphogenesis
p65
I1398
tp66
a(Vcytoplasm
p67
I1375
tp68
a(Vhomeostatic process
p69
I1332
tp70
a(Vcarbohydrate metabolic process
p71
I1329
tp72
a(Vmacromolecular complex assembly
p73
I1309
tp74
a(VDNA binding
p75
I1271
tp76
a(Vembryo development
p77
I1228
tp78
a(Voxidoreductase activity
p79
I1201
tp80
a(Vcell motility
p81
I1179
tp82
a(Vtransmembrane transport
p83
I1129
tp84
a(Vprotein complex assembly
p85
I1056
tp86
a(Vcytoskeletal protein binding
p87
I1044
tp88
a(Vprotein maturation
p89
I1039
tp90
a(Vcytoskeleton organization
p91
I1038
tp92
a(Vgrowth
p93
I1020
tp94
a(VRNA binding
p95
I981
tp96
a(Vmitochondrion
p97
I954
tp98
a(Vcytoplasmic membrane-bounded vesicle
p99
I926
tp100
a(Vsignal transducer activity
p101
I907
tp102
a(Vcytoskeleton
p103
I906
tp104
a(Vendosome
p105
I881
tp106
a(VGolgi apparatus
p107
I857
tp108
a(VATPase activity
p109
I793
tp110
a(Vcell death
p111
I757
tp112
a(Vcellular amino acid metabolic process
p113
I756
tp114
a(Vneurological system process
p115
I751
tp116
a(Vlipid binding
p117
I738
tp118
a(Vmembrane organization
p119
I727
tp120
a(Vcell adhesion
p121
I708
tp122
a(Vendoplasmic reticulum
p123
I684
tp124
a(Vmicrotubule organizing center
p125
I656
tp126
a(Vpeptidase activity
p127
I645
tp128
a(Vcell proliferation
p129
I619
tp130
a(Vcell morphogenesis
p131
I618
tp132
a(Venzyme regulator activity
p133
I618
tp134
a(Vnucleoplasm
p135
I612
tp136
a(Vligase activity
p137
I610
tp138
a(Vprotein targeting
p139
I608
tp140
a(Vcell-cell signaling
p141
I577
tp142
a(Vtranscription factor binding
p143
I560
tp144
a(Vprotein binding transcription factor activity
p145
I509
tp146
a(Vphosphatase activity
p147
I483
tp148
a(Vstructural molecule activity
p149
I471
tp150
a(Vsymbiosis, encompassing mutualism through parasitism
p151
I463
tp152
a(VmRNA processing
p153
I437
tp154
a(Vvacuole
p155
I423
tp156
a(Vsulfur compound metabolic process
p157
I420
tp158
a(Vcell cycle
p159
I412
tp160
a(Vcofactor metabolic process
p161
I397
tp162
a(Vnucleic acid binding transcription factor activity
p163
I392
tp164
a(Vtransferase activity, transferring acyl groups
p165
I362
tp166
a(Vgeneration of precursor metabolites and energy
p167
I357
tp168
a(Vreproduction
p169
I346
tp170
a(Vtransferase activity, transferring glycosyl groups
p171
I343
tp172
a(Vextracellular region
p173
I335
tp174
a(Vhelicase activity
p175
I319
tp176
a(Vcilium
p177
I318
tp178
a(Vcell junction organization
p179
I298
tp180
a(VGTPase activity
p181
I294
tp182
a(Vnuclease activity
p183
I286
tp184
a(Vplastid
p185
I285
tp186
a(Vcell division
p187
I270
tp188
a(Vmethyltransferase activity
p189
I260
tp190
a(Vprotein folding
p191
I250
tp192
a(Vaging
p193
I248
tp194
a(Vextracellular space
p195
I237
tp196
a(Vnucleocytoplasmic transport
p197
I236
tp198
a(Vchromosome
p199
I223
tp200
a(Vextracellular matrix organization
p201
I221
tp202
a(Vlyase activity
p203
I220
tp204
a(Vlysosome
p205
I218
tp206
a(Vsecondary metabolic process
p207
I212
tp208
a(Vdevelopmental maturation
p209
I209
tp210
a(Vhistone binding
p211
I206
tp212
a(Vribonucleoprotein complex assembly
p213
I200
tp214
a(Vplasma membrane organization
p215
I197
tp216
a(Vmitochondrion organization
p217
I189
tp218
a(Vcytoskeleton-dependent intracellular transport
p219
I186
tp220
a(Vvacuolar transport
p221
I179
tp222
a(Visomerase activity
p223
I171
tp224
a(Vexternal encapsulating structure
p225
I171
tp226
a(Vcell wall
p227
I170
tp228
a(Vmitosis
p229
I159
tp230
a(VtRNA metabolic process
p231
I156
tp232
a(VmRNA binding
p233
I154
tp234
a(Vnucleotidyltransferase activity
p235
I147
tp236
a(Vhydrolase activity, acting on glycosyl bonds
p237
I145
tp238
a(Vprotein binding, bridging
p239
I144
tp240
a(Vchromosome segregation
p241
I138
tp242
a(Vperoxisome
p243
I137
tp244
a(Vhydrolase activity, acting on carbon-nitrogen (but not peptide) bonds
p245
I136
tp246
a(Vcell wall organization or biogenesis
p247
I136
tp248
a(Vstructural constituent of ribosome
p249
I136
tp250
a(Vnuclear envelope
p251
I133
tp252
a(Vtranslation factor activity, nucleic acid binding
p253
I125
tp254
a(Vcirculatory system process
p255
I123
tp256
a(Vsmall conjugating protein binding
p257
I120
tp258
a(Vlipid particle
p259
I96
tp260
a(Vtransferase activity, transferring alkyl or aryl (other than methyl) groups
p261
I87
tp262
a(Vunfolded protein binding
p263
I83
tp264
a(Vintracellular
p265
I82
tp266
a(Vproteinaceous extracellular matrix
p267
I81
tp268
a(Vtranslation
p269
I79
tp270
a(Vprotein transporter activity
p271
I75
tp272
a(Vribosome
p273
I73
tp274
a(Vribosome biogenesis
p275
I72
tp276
a(Vnuclear chromosome
p277
I64
tp278
a(Vpigmentation
p279
I45
tp280
a(VrRNA binding
p281
I35
tp282
a(Vthylakoid
p283
I16
tp284
a(Vcell
p285
I15
tp286
a(Vnitrogen cycle metabolic process
p287
I7
tp288
a(Vtransposition
p289
I2
tp290
a(Vphotosynthesis
p291
I2
tp292
a(VRNA modification guide activity
p293
I1
tp294
aa(lp295
(g3
L6372L
tp296
a(g5
L4365L
tp297
a(g7
L2787L
tp298
a(g9
L21685L
tp299
a(g11
L26888L
tp300
a(g13
L5491L
tp301
a(g15
L18268L
tp302
a(g17
L5801L
tp303
a(g19
L5613L
tp304
a(g21
L21693L
tp305
a(g23
L7192L
tp306
a(g25
L22689L
tp307
a(g27
L21630L
tp308
a(g29
L5168L
tp309
a(g31
L7190L
tp310
a(g33
L1781L
tp311
a(g35
L13633L
tp312
a(g37
L5326L
tp313
a(g39
L13924L
tp314
a(g41
L4599L
tp315
a(g43
L12968L
tp316
a(g45
L4995L
tp317
a(g47
L10381L
tp318
a(g49
L20507L
tp319
a(g51
L4422L
tp320
a(g53
L4644L
tp321
a(g55
L4507L
tp322
a(g57
L28228L
tp323
a(g59
L10466L
tp324
a(g61
L18282L
tp325
a(g63
L13690L
tp326
a(g65
L26682L
tp327
a(g67
L4514L
tp328
a(g69
L21086L
tp329
a(g71
L4725L
tp330
a(g73
L31581L
tp331
a(g75
L2790L
tp332
a(g77
L7881L
tp333
a(g79
L10598L
tp334
a(g81
L26901L
tp335
a(g83
L29927L
tp336
a(g85
L5165L
tp337
a(g87
L6320L
tp338
a(g89
L28535L
tp339
a(g91
L5663L
tp340
a(g93
L20503L
tp341
a(g95
L2830L
tp342
a(g97
L4515L
tp343
a(g99
L10229L
tp344
a(g101
L3827L
tp345
a(g103
L4621L
tp346
a(g105
L4542L
tp347
a(g107
L4567L
tp348
a(g109
L10963L
tp349
a(g111
L6436L
tp350
a(g113
L5218L
tp351
a(g115
L27837L
tp352
a(g117
L6500L
tp353
a(g119
L30984L
tp354
a(g121
L5791L
tp355
a(g123
L4556L
tp356
a(g125
L4586L
tp357
a(g127
L6448L
tp358
a(g129
L6494L
tp359
a(g131
L594L
tp360
a(g133
L14001L
tp361
a(g135
L4439L
tp362
a(g137
L10950L
tp363
a(g139
L5302L
tp364
a(g141
L5896L
tp365
a(g143
L6357L
tp366
a(g145
L677L
tp367
a(g147
L10870L
tp368
a(g149
L4118L
tp369
a(g151
L22810L
tp370
a(g153
L5112L
tp371
a(g155
L4546L
tp372
a(g157
L5471L
tp373
a(g159
L5695L
tp374
a(g161
L28144L
tp375
a(g163
L759L
tp376
a(g165
L10829L
tp377
a(g167
L4838L
tp378
a(g169
L3L
tp379
a(g171
L10840L
tp380
a(g173
L4366L
tp381
a(g175
L3404L
tp382
a(g177
L4684L
tp383
a(g179
L17965L
tp384
a(g181
L2991L
tp385
a(g183
L3518L
tp386
a(g185
L7644L
tp387
a(g187
L28251L
tp388
a(g189
L6389L
tp389
a(g191
L5161L
tp390
a(g193
L6169L
tp391
a(g195
L4405L
tp392
a(g197
L5582L
tp393
a(g199
L4475L
tp394
a(g201
L13967L
tp395
a(g203
L10905L
tp396
a(g205
L4538L
tp397
a(g207
L12827L
tp398
a(g209
L13274L
tp399
a(g211
L20900L
tp400
a(g213
L13644L
tp401
a(g215
L5662L
tp402
a(g217
L5658L
tp403
a(g219
L14427L
tp404
a(g221
L5682L
tp405
a(g223
L10929L
tp406
a(g225
L14078L
tp407
a(g227
L4408L
tp408
a(g229
L5712L
tp409
a(g231
L5114L
tp410
a(g233
L2835L
tp411
a(g235
L10860L
tp412
a(g237
L10876L
tp413
a(g239
L14396L
tp414
a(g241
L5705L
tp415
a(g243
L4550L
tp416
a(g245
L10886L
tp417
a(g247
L33137L
tp418
a(g249
L2841L
tp419
a(g251
L4423L
tp420
a(g253
L6358L
tp421
a(g255
L2364L
tp422
a(g257
L15840L
tp423
a(g259
L4583L
tp424
a(g261
L10848L
tp425
a(g263
L28040L
tp426
a(g265
L4411L
tp427
a(g267
L4368L
tp428
a(g269
L5126L
tp429
a(g271
L6747L
tp430
a(g273
L4609L
tp431
a(g275
L20770L
tp432
a(g277
L201L
tp433
a(g279
L21900L
tp434
a(g281
L12918L
tp435
a(g283
L7683L
tp436
a(g285
L4412L
tp437
a(g287
L33512L
tp438
a(g289
L15852L
tp439
a(g291
L10192L
tp440
a(g293
L14288L
tp441
aaI394527
a.