(lp1
(lp2
(Vbiological_process
p3
I199860
tp4
a(Vcellular_component
p5
I65279
tp6
a(Vmolecular_function
p7
I53183
tp8
a(Vorganelle
p9
I17689
tp10
a(Vanatomical structure development
p11
I14456
tp12
a(Vtransport
p13
I10975
tp14
a(Vsignal transduction
p15
I9689
tp16
a(Vcellular nitrogen compound metabolic process
p17
I9357
tp18
a(Vresponse to stress
p19
I7398
tp20
a(Vsmall molecule metabolic process
p21
I6740
tp22
a(Vprotein complex
p23
I6738
tp24
a(Vbiosynthetic process
p25
I6492
tp26
a(Vion binding
p27
I6149
tp28
a(Vcellular protein modification process
p29
I5510
tp30
a(Vcatabolic process
p31
I4562
tp32
a(Vimmune system process
p33
I4522
tp34
a(Vcell differentiation
p35
I3625
tp36
a(Vcellular component assembly
p37
I3316
tp38
a(Vlipid metabolic process
p39
I3111
tp40
a(Venzyme binding
p41
I2898
tp42
a(Vcytosol
p43
I2786
tp44
a(Vlocomotion
p45
I2545
tp46
a(VDNA metabolic process
p47
I2424
tp48
a(Vvesicle-mediated transport
p49
I2381
tp50
a(Vplasma membrane
p51
I2244
tp52
a(Vnucleus
p53
I2238
tp54
a(Vanatomical structure formation involved in morphogenesis
p55
I2202
tp56
a(Vkinase activity
p57
I2055
tp58
a(Vnucleolus
p59
I1990
tp60
a(Vtransmembrane transporter activity
p61
I1920
tp62
a(Vcytoplasm
p63
I1917
tp64
a(Vchromosome organization
p65
I1902
tp66
a(Vcarbohydrate metabolic process
p67
I1820
tp68
a(Vcell motility
p69
I1816
tp70
a(Voxidoreductase activity
p71
I1813
tp72
a(Vhomeostatic process
p73
I1777
tp74
a(Vnucleobase-containing compound catabolic process
p75
I1764
tp76
a(VDNA binding
p77
I1727
tp78
a(Vmacromolecular complex assembly
p79
I1663
tp80
a(Vcytoskeletal protein binding
p81
I1482
tp82
a(Vembryo development
p83
I1472
tp84
a(Vgrowth
p85
I1469
tp86
a(Vtransmembrane transport
p87
I1469
tp88
a(Vcytoskeleton organization
p89
I1426
tp90
a(Vsignal transducer activity
p91
I1402
tp92
a(Vprotein complex assembly
p93
I1365
tp94
a(Vprotein maturation
p95
I1355
tp96
a(Vneurological system process
p97
I1262
tp98
a(Vcytoskeleton
p99
I1218
tp100
a(Vmitochondrion
p101
I1203
tp102
a(Vcellular amino acid metabolic process
p103
I1199
tp104
a(VATPase activity
p105
I1187
tp106
a(Vcell adhesion
p107
I1165
tp108
a(Vcytoplasmic membrane-bounded vesicle
p109
I1148
tp110
a(Vendosome
p111
I1111
tp112
a(VRNA binding
p113
I1099
tp114
a(VGolgi apparatus
p115
I1043
tp116
a(Vcell death
p117
I999
tp118
a(Vmembrane organization
p119
I990
tp120
a(Vlipid binding
p121
I970
tp122
a(Vpeptidase activity
p123
I894
tp124
a(Vendoplasmic reticulum
p125
I894
tp126
a(Vcell morphogenesis
p127
I888
tp128
a(Vligase activity
p129
I882
tp130
a(Vcell proliferation
p131
I871
tp132
a(Vcell-cell signaling
p133
I805
tp134
a(Vmicrotubule organizing center
p135
I799
tp136
a(Venzyme regulator activity
p137
I788
tp138
a(Vnucleoplasm
p139
I749
tp140
a(Vtranscription factor binding
p141
I744
tp142
a(Vprotein binding transcription factor activity
p143
I715
tp144
a(Vsulfur compound metabolic process
p145
I687
tp146
a(Vprotein targeting
p147
I636
tp148
a(Vstructural molecule activity
p149
I596
tp150
a(Vphosphatase activity
p151
I578
tp152
a(Vcofactor metabolic process
p153
I564
tp154
a(Vextracellular region
p155
I550
tp156
a(Vnucleic acid binding transcription factor activity
p157
I547
tp158
a(Vvacuole
p159
I542
tp160
a(Vtransferase activity, transferring glycosyl groups
p161
I517
tp162
a(Vcell cycle
p163
I514
tp164
a(Vsymbiosis, encompassing mutualism through parasitism
p165
I511
tp166
a(Vcilium
p167
I507
tp168
a(VmRNA processing
p169
I495
tp170
a(Vtransferase activity, transferring acyl groups
p171
I489
tp172
a(Vhelicase activity
p173
I438
tp174
a(Vcell junction organization
p175
I436
tp176
a(Vgeneration of precursor metabolites and energy
p177
I412
tp178
a(Vextracellular matrix organization
p179
I407
tp180
a(Vextracellular space
p181
I406
tp182
a(Vnuclease activity
p183
I367
tp184
a(Vcell division
p185
I364
tp186
a(Vreproduction
p187
I359
tp188
a(Vlyase activity
p189
I351
tp190
a(Vaging
p191
I338
tp192
a(VGTPase activity
p193
I331
tp194
a(Vmethyltransferase activity
p195
I322
tp196
a(Vplastid
p197
I309
tp198
a(Vlysosome
p199
I292
tp200
a(Vdevelopmental maturation
p201
I288
tp202
a(Vchromosome
p203
I282
tp204
a(Vnucleocytoplasmic transport
p205
I280
tp206
a(Vhistone binding
p207
I259
tp208
a(Vprotein folding
p209
I255
tp210
a(Vsecondary metabolic process
p211
I251
tp212
a(Vplasma membrane organization
p213
I243
tp214
a(Vmitochondrion organization
p215
I242
tp216
a(Vribonucleoprotein complex assembly
p217
I233
tp218
a(Vnucleotidyltransferase activity
p219
I230
tp220
a(Vhydrolase activity, acting on glycosyl bonds
p221
I224
tp222
a(Visomerase activity
p223
I223
tp224
a(Vcytoskeleton-dependent intracellular transport
p225
I221
tp226
a(Vexternal encapsulating structure
p227
I219
tp228
a(Vcell wall
p229
I216
tp230
a(VtRNA metabolic process
p231
I211
tp232
a(Vhydrolase activity, acting on carbon-nitrogen (but not peptide) bonds
p233
I205
tp234
a(Vnuclear envelope
p235
I188
tp236
a(Vproteinaceous extracellular matrix
p237
I185
tp238
a(Vcell wall organization or biogenesis
p239
I184
tp240
a(Vprotein binding, bridging
p241
I183
tp242
a(Vcirculatory system process
p243
I182
tp244
a(Vvacuolar transport
p245
I182
tp246
a(VmRNA binding
p247
I174
tp248
a(Vmitosis
p249
I165
tp250
a(Vperoxisome
p251
I163
tp252
a(Vchromosome segregation
p253
I160
tp254
a(Vsmall conjugating protein binding
p255
I147
tp256
a(Vtranslation factor activity, nucleic acid binding
p257
I132
tp258
a(Vintracellular
p259
I124
tp260
a(Vlipid particle
p261
I124
tp262
a(Vtranslation
p263
I123
tp264
a(Vprotein transporter activity
p265
I118
tp266
a(Vstructural constituent of ribosome
p267
I103
tp268
a(Vtransferase activity, transferring alkyl or aryl (other than methyl) groups
p269
I98
tp270
a(Vunfolded protein binding
p271
I95
tp272
a(Vribosome
p273
I84
tp274
a(Vpigmentation
p275
I72
tp276
a(Vnuclear chromosome
p277
I72
tp278
a(Vribosome biogenesis
p279
I55
tp280
a(VrRNA binding
p281
I46
tp282
a(Vthylakoid
p283
I20
tp284
a(Vcell
p285
I16
tp286
a(Vnitrogen cycle metabolic process
p287
I12
tp288
a(Vtransposition
p289
I4
tp290
a(Vphotosynthesis
p291
I2
tp292
a(VRNA modification guide activity
p293
I1
tp294
aa(lp295
(g3
L6372L
tp296
a(g5
L4365L
tp297
a(g7
L2787L
tp298
a(g9
L21685L
tp299
a(g11
L26888L
tp300
a(g13
L5491L
tp301
a(g15
L5801L
tp302
a(g17
L18268L
tp303
a(g19
L5613L
tp304
a(g21
L22689L
tp305
a(g23
L21693L
tp306
a(g25
L7192L
tp307
a(g27
L21630L
tp308
a(g29
L5168L
tp309
a(g31
L7190L
tp310
a(g33
L1781L
tp311
a(g35
L13924L
tp312
a(g37
L13633L
tp313
a(g39
L5326L
tp314
a(g41
L12968L
tp315
a(g43
L4599L
tp316
a(g45
L20507L
tp317
a(g47
L4995L
tp318
a(g49
L10381L
tp319
a(g51
L4644L
tp320
a(g53
L4422L
tp321
a(g55
L26682L
tp322
a(g57
L10466L
tp323
a(g59
L4507L
tp324
a(g61
L13690L
tp325
a(g63
L4514L
tp326
a(g65
L28228L
tp327
a(g67
L4725L
tp328
a(g69
L26901L
tp329
a(g71
L10598L
tp330
a(g73
L21086L
tp331
a(g75
L18282L
tp332
a(g77
L2790L
tp333
a(g79
L31581L
tp334
a(g81
L6320L
tp335
a(g83
L7881L
tp336
a(g85
L20503L
tp337
a(g87
L29927L
tp338
a(g89
L5663L
tp339
a(g91
L3827L
tp340
a(g93
L5165L
tp341
a(g95
L28535L
tp342
a(g97
L27837L
tp343
a(g99
L4621L
tp344
a(g101
L4515L
tp345
a(g103
L5218L
tp346
a(g105
L10963L
tp347
a(g107
L5791L
tp348
a(g109
L10229L
tp349
a(g111
L4542L
tp350
a(g113
L2830L
tp351
a(g115
L4567L
tp352
a(g117
L6436L
tp353
a(g119
L30984L
tp354
a(g121
L6500L
tp355
a(g123
L6448L
tp356
a(g125
L4556L
tp357
a(g127
L594L
tp358
a(g129
L10950L
tp359
a(g131
L6494L
tp360
a(g133
L5896L
tp361
a(g135
L4586L
tp362
a(g137
L14001L
tp363
a(g139
L4439L
tp364
a(g141
L6357L
tp365
a(g143
L677L
tp366
a(g145
L5471L
tp367
a(g147
L5302L
tp368
a(g149
L4118L
tp369
a(g151
L10870L
tp370
a(g153
L28144L
tp371
a(g155
L4366L
tp372
a(g157
L759L
tp373
a(g159
L4546L
tp374
a(g161
L10840L
tp375
a(g163
L5695L
tp376
a(g165
L22810L
tp377
a(g167
L4684L
tp378
a(g169
L5112L
tp379
a(g171
L10829L
tp380
a(g173
L3404L
tp381
a(g175
L17965L
tp382
a(g177
L4838L
tp383
a(g179
L13967L
tp384
a(g181
L4405L
tp385
a(g183
L3518L
tp386
a(g185
L28251L
tp387
a(g187
L3L
tp388
a(g189
L10905L
tp389
a(g191
L6169L
tp390
a(g193
L2991L
tp391
a(g195
L6389L
tp392
a(g197
L7644L
tp393
a(g199
L4538L
tp394
a(g201
L13274L
tp395
a(g203
L4475L
tp396
a(g205
L5582L
tp397
a(g207
L20900L
tp398
a(g209
L5161L
tp399
a(g211
L12827L
tp400
a(g213
L5662L
tp401
a(g215
L5658L
tp402
a(g217
L13644L
tp403
a(g219
L10860L
tp404
a(g221
L10876L
tp405
a(g223
L10929L
tp406
a(g225
L14427L
tp407
a(g227
L14078L
tp408
a(g229
L4408L
tp409
a(g231
L5114L
tp410
a(g233
L10886L
tp411
a(g235
L4423L
tp412
a(g237
L4368L
tp413
a(g239
L33137L
tp414
a(g241
L14396L
tp415
a(g243
L2364L
tp416
a(g245
L5682L
tp417
a(g247
L2835L
tp418
a(g249
L5712L
tp419
a(g251
L4550L
tp420
a(g253
L5705L
tp421
a(g255
L15840L
tp422
a(g257
L6358L
tp423
a(g259
L4411L
tp424
a(g261
L4583L
tp425
a(g263
L5126L
tp426
a(g265
L6747L
tp427
a(g267
L2841L
tp428
a(g269
L10848L
tp429
a(g271
L28040L
tp430
a(g273
L4609L
tp431
a(g275
L21900L
tp432
a(g277
L201L
tp433
a(g279
L20770L
tp434
a(g281
L12918L
tp435
a(g283
L7683L
tp436
a(g285
L4412L
tp437
a(g287
L33512L
tp438
a(g289
L15852L
tp439
a(g291
L10192L
tp440
a(g293
L14288L
tp441
aaI535757
a.