(lp1
(lp2
(Vbiological_process
p3
I289193
tp4
a(Vcellular_component
p5
I94374
tp6
a(Vmolecular_function
p7
I75335
tp8
a(Vorganelle
p9
I25350
tp10
a(Vanatomical structure development
p11
I21030
tp12
a(Vtransport
p13
I16750
tp14
a(Vsignal transduction
p15
I13285
tp16
a(Vcellular nitrogen compound metabolic process
p17
I12409
tp18
a(Vresponse to stress
p19
I10281
tp20
a(Vprotein complex
p21
I9465
tp22
a(Vion binding
p23
I8876
tp24
a(Vsmall molecule metabolic process
p25
I8876
tp26
a(Vbiosynthetic process
p27
I8482
tp28
a(Vcellular protein modification process
p29
I7288
tp30
a(Vcatabolic process
p31
I6087
tp32
a(Vimmune system process
p33
I5770
tp34
a(Vcell differentiation
p35
I4883
tp36
a(Vcellular component assembly
p37
I4559
tp38
a(Vlipid metabolic process
p39
I4243
tp40
a(Venzyme binding
p41
I3925
tp42
a(Vcytosol
p43
I3912
tp44
a(Vtransmembrane transporter activity
p45
I3454
tp46
a(Vlocomotion
p47
I3410
tp48
a(Vplasma membrane
p49
I3405
tp50
a(Vvesicle-mediated transport
p51
I3356
tp52
a(Vnucleus
p53
I3164
tp54
a(Vanatomical structure formation involved in morphogenesis
p55
I3116
tp56
a(VDNA metabolic process
p57
I3100
tp58
a(Vsignal transducer activity
p59
I2920
tp60
a(Vnucleolus
p61
I2905
tp62
a(Vhomeostatic process
p63
I2721
tp64
a(Vchromosome organization
p65
I2700
tp66
a(Vcytoplasm
p67
I2639
tp68
a(VDNA binding
p69
I2525
tp70
a(Vtransmembrane transport
p71
I2468
tp72
a(Voxidoreductase activity
p73
I2363
tp74
a(Vcell motility
p75
I2362
tp76
a(Vmacromolecular complex assembly
p77
I2349
tp78
a(Vcarbohydrate metabolic process
p79
I2346
tp80
a(Vkinase activity
p81
I2255
tp82
a(Vnucleobase-containing compound catabolic process
p83
I2168
tp84
a(Vneurological system process
p85
I2127
tp86
a(Vembryo development
p87
I2105
tp88
a(Vgrowth
p89
I2081
tp90
a(Vprotein maturation
p91
I1947
tp92
a(Vcytoskeletal protein binding
p93
I1946
tp94
a(Vprotein complex assembly
p95
I1938
tp96
a(Vcytoskeleton organization
p97
I1898
tp98
a(Vcytoplasmic membrane-bounded vesicle
p99
I1824
tp100
a(Vcell-cell signaling
p101
I1768
tp102
a(Vmitochondrion
p103
I1635
tp104
a(Vlipid binding
p105
I1625
tp106
a(Vcytoskeleton
p107
I1580
tp108
a(VRNA binding
p109
I1539
tp110
a(Vcell adhesion
p111
I1499
tp112
a(VGolgi apparatus
p113
I1487
tp114
a(Vcellular amino acid metabolic process
p115
I1486
tp116
a(Vendosome
p117
I1473
tp118
a(Vpeptidase activity
p119
I1420
tp120
a(Vmembrane organization
p121
I1349
tp122
a(Vendoplasmic reticulum
p123
I1338
tp124
a(Vcell death
p125
I1295
tp126
a(Vcell proliferation
p127
I1242
tp128
a(Vcell morphogenesis
p129
I1217
tp130
a(VATPase activity
p131
I1201
tp132
a(Venzyme regulator activity
p133
I1185
tp134
a(Vmicrotubule organizing center
p135
I1166
tp136
a(Vligase activity
p137
I1114
tp138
a(Vtranscription factor binding
p139
I1077
tp140
a(Vnucleoplasm
p141
I1049
tp142
a(Vprotein binding transcription factor activity
p143
I1011
tp144
a(Vextracellular region
p145
I916
tp146
a(Vsulfur compound metabolic process
p147
I902
tp148
a(Vnucleic acid binding transcription factor activity
p149
I854
tp150
a(Vprotein targeting
p151
I844
tp152
a(Vphosphatase activity
p153
I823
tp154
a(Vstructural molecule activity
p155
I800
tp156
a(Vvacuole
p157
I783
tp158
a(Vcofactor metabolic process
p159
I729
tp160
a(Vtransferase activity, transferring acyl groups
p161
I722
tp162
a(Vcilium
p163
I713
tp164
a(Vcirculatory system process
p165
I705
tp166
a(Vextracellular space
p167
I705
tp168
a(Vsymbiosis, encompassing mutualism through parasitism
p169
I699
tp170
a(VmRNA processing
p171
I689
tp172
a(Vcell cycle
p173
I689
tp174
a(Vtransferase activity, transferring glycosyl groups
p175
I673
tp176
a(Vextracellular matrix organization
p177
I659
tp178
a(Vgeneration of precursor metabolites and energy
p179
I567
tp180
a(Vcell junction organization
p181
I563
tp182
a(Vreproduction
p183
I533
tp184
a(Vhelicase activity
p185
I500
tp186
a(Vcell division
p187
I499
tp188
a(Vnuclease activity
p189
I486
tp190
a(Vaging
p191
I476
tp192
a(Vmethyltransferase activity
p193
I474
tp194
a(Vlyase activity
p195
I471
tp196
a(VGTPase activity
p197
I454
tp198
a(Vnucleocytoplasmic transport
p199
I445
tp200
a(Vlysosome
p201
I444
tp202
a(Vplastid
p203
I431
tp204
a(Vdevelopmental maturation
p205
I405
tp206
a(Vchromosome
p207
I367
tp208
a(Vprotein folding
p209
I360
tp210
a(Vcytoskeleton-dependent intracellular transport
p211
I354
tp212
a(Vhistone binding
p213
I346
tp214
a(Vsecondary metabolic process
p215
I338
tp216
a(Vmitochondrion organization
p217
I335
tp218
a(Vplasma membrane organization
p219
I332
tp220
a(Vproteinaceous extracellular matrix
p221
I328
tp222
a(Vribonucleoprotein complex assembly
p223
I322
tp224
a(Visomerase activity
p225
I304
tp226
a(Vnuclear envelope
p227
I286
tp228
a(Vhydrolase activity, acting on glycosyl bonds
p229
I284
tp230
a(Vvacuolar transport
p231
I271
tp232
a(Vexternal encapsulating structure
p233
I270
tp234
a(Vhydrolase activity, acting on carbon-nitrogen (but not peptide) bonds
p235
I267
tp236
a(Vcell wall
p237
I266
tp238
a(Vnucleotidyltransferase activity
p239
I259
tp240
a(Vmitosis
p241
I259
tp242
a(VmRNA binding
p243
I252
tp244
a(Vperoxisome
p245
I249
tp246
a(VtRNA metabolic process
p247
I243
tp248
a(Vchromosome segregation
p249
I227
tp250
a(Vcell wall organization or biogenesis
p251
I225
tp252
a(Vprotein binding, bridging
p253
I215
tp254
a(Vsmall conjugating protein binding
p255
I201
tp256
a(Vlipid particle
p257
I174
tp258
a(Vtranslation factor activity, nucleic acid binding
p259
I171
tp260
a(Vstructural constituent of ribosome
p261
I156
tp262
a(Vprotein transporter activity
p263
I149
tp264
a(Vtranslation
p265
I147
tp266
a(Vintracellular
p267
I141
tp268
a(Vtransferase activity, transferring alkyl or aryl (other than methyl) groups
p269
I132
tp270
a(Vunfolded protein binding
p271
I131
tp272
a(Vribosome
p273
I128
tp274
a(Vnuclear chromosome
p275
I105
tp276
a(Vribosome biogenesis
p277
I91
tp278
a(Vpigmentation
p279
I87
tp280
a(VrRNA binding
p281
I66
tp282
a(Vthylakoid
p283
I35
tp284
a(Vnitrogen cycle metabolic process
p285
I25
tp286
a(Vcell
p287
I23
tp288
a(Vtransposition
p289
I5
tp290
a(Vphotosynthesis
p291
I4
tp292
a(VRNA modification guide activity
p293
I1
tp294
aa(lp295
(g3
L6372L
tp296
a(g5
L4365L
tp297
a(g7
L2787L
tp298
a(g9
L21685L
tp299
a(g11
L26888L
tp300
a(g13
L5491L
tp301
a(g15
L5801L
tp302
a(g17
L18268L
tp303
a(g19
L5613L
tp304
a(g21
L21693L
tp305
a(g23
L21630L
tp306
a(g25
L22689L
tp307
a(g27
L7192L
tp308
a(g29
L5168L
tp309
a(g31
L7190L
tp310
a(g33
L1781L
tp311
a(g35
L13924L
tp312
a(g37
L13633L
tp313
a(g39
L5326L
tp314
a(g41
L12968L
tp315
a(g43
L4599L
tp316
a(g45
L13690L
tp317
a(g47
L20507L
tp318
a(g49
L4644L
tp319
a(g51
L10381L
tp320
a(g53
L4422L
tp321
a(g55
L26682L
tp322
a(g57
L4995L
tp323
a(g59
L3827L
tp324
a(g61
L4507L
tp325
a(g63
L21086L
tp326
a(g65
L28228L
tp327
a(g67
L4514L
tp328
a(g69
L2790L
tp329
a(g71
L29927L
tp330
a(g73
L10598L
tp331
a(g75
L26901L
tp332
a(g77
L31581L
tp333
a(g79
L4725L
tp334
a(g81
L10466L
tp335
a(g83
L18282L
tp336
a(g85
L27837L
tp337
a(g87
L7881L
tp338
a(g89
L20503L
tp339
a(g91
L28535L
tp340
a(g93
L6320L
tp341
a(g95
L5165L
tp342
a(g97
L5663L
tp343
a(g99
L10229L
tp344
a(g101
L5896L
tp345
a(g103
L4515L
tp346
a(g105
L6500L
tp347
a(g107
L4621L
tp348
a(g109
L2830L
tp349
a(g111
L5791L
tp350
a(g113
L4567L
tp351
a(g115
L5218L
tp352
a(g117
L4542L
tp353
a(g119
L6448L
tp354
a(g121
L30984L
tp355
a(g123
L4556L
tp356
a(g125
L6436L
tp357
a(g127
L6494L
tp358
a(g129
L594L
tp359
a(g131
L10963L
tp360
a(g133
L14001L
tp361
a(g135
L4586L
tp362
a(g137
L10950L
tp363
a(g139
L6357L
tp364
a(g141
L4439L
tp365
a(g143
L677L
tp366
a(g145
L4366L
tp367
a(g147
L5471L
tp368
a(g149
L759L
tp369
a(g151
L5302L
tp370
a(g153
L10870L
tp371
a(g155
L4118L
tp372
a(g157
L4546L
tp373
a(g159
L28144L
tp374
a(g161
L10829L
tp375
a(g163
L4684L
tp376
a(g165
L2364L
tp377
a(g167
L4405L
tp378
a(g169
L22810L
tp379
a(g171
L5112L
tp380
a(g173
L5695L
tp381
a(g175
L10840L
tp382
a(g177
L13967L
tp383
a(g179
L4838L
tp384
a(g181
L17965L
tp385
a(g183
L3L
tp386
a(g185
L3404L
tp387
a(g187
L28251L
tp388
a(g189
L3518L
tp389
a(g191
L6169L
tp390
a(g193
L6389L
tp391
a(g195
L10905L
tp392
a(g197
L2991L
tp393
a(g199
L5582L
tp394
a(g201
L4538L
tp395
a(g203
L7644L
tp396
a(g205
L13274L
tp397
a(g207
L4475L
tp398
a(g209
L5161L
tp399
a(g211
L14427L
tp400
a(g213
L20900L
tp401
a(g215
L12827L
tp402
a(g217
L5658L
tp403
a(g219
L5662L
tp404
a(g221
L4368L
tp405
a(g223
L13644L
tp406
a(g225
L10929L
tp407
a(g227
L4423L
tp408
a(g229
L10876L
tp409
a(g231
L5682L
tp410
a(g233
L14078L
tp411
a(g235
L10886L
tp412
a(g237
L4408L
tp413
a(g239
L10860L
tp414
a(g241
L5712L
tp415
a(g243
L2835L
tp416
a(g245
L4550L
tp417
a(g247
L5114L
tp418
a(g249
L5705L
tp419
a(g251
L33137L
tp420
a(g253
L14396L
tp421
a(g255
L15840L
tp422
a(g257
L4583L
tp423
a(g259
L6358L
tp424
a(g261
L2841L
tp425
a(g263
L6747L
tp426
a(g265
L5126L
tp427
a(g267
L4411L
tp428
a(g269
L10848L
tp429
a(g271
L28040L
tp430
a(g273
L4609L
tp431
a(g275
L201L
tp432
a(g277
L20770L
tp433
a(g279
L21900L
tp434
a(g281
L12918L
tp435
a(g283
L7683L
tp436
a(g285
L33512L
tp437
a(g287
L4412L
tp438
a(g289
L15852L
tp439
a(g291
L10192L
tp440
a(g293
L14288L
tp441
aaI764305
a.