(lp1
(lp2
(Vbiological_process
p3
I382324
tp4
a(Vcellular_component
p5
I130625
tp6
a(Vmolecular_function
p7
I104248
tp8
a(Vorganelle
p9
I36392
tp10
a(Vanatomical structure development
p11
I25460
tp12
a(Vtransport
p13
I22943
tp14
a(Vcellular nitrogen compound metabolic process
p15
I19174
tp16
a(Vsignal transduction
p17
I17377
tp18
a(Vresponse to stress
p19
I15459
tp20
a(Vprotein complex
p21
I13955
tp22
a(Vbiosynthetic process
p23
I13727
tp24
a(Vsmall molecule metabolic process
p25
I13325
tp26
a(Vion binding
p27
I12388
tp28
a(Vcellular protein modification process
p29
I11159
tp30
a(Vcatabolic process
p31
I9783
tp32
a(Vimmune system process
p33
I7767
tp34
a(Vcellular component assembly
p35
I6503
tp36
a(Vlipid metabolic process
p37
I6381
tp38
a(Vcytosol
p39
I6026
tp40
a(Vcell differentiation
p41
I5962
tp42
a(Venzyme binding
p43
I5637
tp44
a(VDNA metabolic process
p45
I4874
tp46
a(Vplasma membrane
p47
I4817
tp48
a(Vtransmembrane transporter activity
p49
I4588
tp50
a(Vnucleus
p51
I4568
tp52
a(Vvesicle-mediated transport
p53
I4545
tp54
a(Vlocomotion
p55
I4271
tp56
a(Vcarbohydrate metabolic process
p57
I4245
tp58
a(Vnucleolus
p59
I4188
tp60
a(Vchromosome organization
p61
I3991
tp62
a(Vkinase activity
p63
I3857
tp64
a(Vanatomical structure formation involved in morphogenesis
p65
I3696
tp66
a(Voxidoreductase activity
p67
I3638
tp68
a(Vcytoplasm
p69
I3623
tp70
a(Vmacromolecular complex assembly
p71
I3524
tp72
a(Vhomeostatic process
p73
I3487
tp74
a(Vnucleobase-containing compound catabolic process
p75
I3476
tp76
a(Vtransmembrane transport
p77
I3346
tp78
a(VDNA binding
p79
I3189
tp80
a(Vcytoskeletal protein binding
p81
I3062
tp82
a(Vgrowth
p83
I3055
tp84
a(Vembryo development
p85
I2984
tp86
a(Vcell motility
p87
I2926
tp88
a(Vcytoskeleton organization
p89
I2883
tp90
a(Vprotein complex assembly
p91
I2879
tp92
a(Vprotein maturation
p93
I2799
tp94
a(VRNA binding
p95
I2532
tp96
a(Vmitochondrion
p97
I2520
tp98
a(Vcytoskeleton
p99
I2338
tp100
a(VATPase activity
p101
I2327
tp102
a(VGolgi apparatus
p103
I2309
tp104
a(Vcellular amino acid metabolic process
p105
I2302
tp106
a(Vneurological system process
p107
I2299
tp108
a(Vcytoplasmic membrane-bounded vesicle
p109
I2157
tp110
a(Vsignal transducer activity
p111
I2083
tp112
a(Vendosome
p113
I1979
tp114
a(Vlipid binding
p115
I1945
tp116
a(Vmembrane organization
p117
I1917
tp118
a(Vendoplasmic reticulum
p119
I1901
tp120
a(Vmicrotubule organizing center
p121
I1853
tp122
a(Vpeptidase activity
p123
I1844
tp124
a(Vcell death
p125
I1787
tp126
a(Vligase activity
p127
I1784
tp128
a(Vcell adhesion
p129
I1741
tp130
a(Vcell-cell signaling
p131
I1682
tp132
a(Vcell morphogenesis
p133
I1660
tp134
a(Venzyme regulator activity
p135
I1600
tp136
a(Vnucleoplasm
p137
I1556
tp138
a(Vcell proliferation
p139
I1512
tp140
a(Vprotein targeting
p141
I1480
tp142
a(Vtranscription factor binding
p143
I1372
tp144
a(Vsulfur compound metabolic process
p145
I1335
tp146
a(Vcofactor metabolic process
p147
I1320
tp148
a(Vprotein binding transcription factor activity
p149
I1220
tp150
a(Vstructural molecule activity
p151
I1182
tp152
a(Vextracellular region
p153
I1173
tp154
a(Vvacuole
p155
I1153
tp156
a(Vcell cycle
p157
I1150
tp158
a(Vtransferase activity, transferring acyl groups
p159
I1116
tp160
a(Vcilium
p161
I1116
tp162
a(Vphosphatase activity
p163
I1104
tp164
a(VmRNA processing
p165
I1096
tp166
a(Vplastid
p167
I1043
tp168
a(Vgeneration of precursor metabolites and energy
p169
I1024
tp170
a(Vsymbiosis, encompassing mutualism through parasitism
p171
I992
tp172
a(Vhelicase activity
p173
I972
tp174
a(Vnucleic acid binding transcription factor activity
p175
I968
tp176
a(Vreproduction
p177
I893
tp178
a(Vtransferase activity, transferring glycosyl groups
p179
I872
tp180
a(Vcell division
p181
I781
tp182
a(Vlyase activity
p183
I776
tp184
a(Vnucleocytoplasmic transport
p185
I721
tp186
a(Vmethyltransferase activity
p187
I718
tp188
a(Vextracellular space
p189
I702
tp190
a(Vnuclease activity
p191
I680
tp192
a(Vcell junction organization
p193
I672
tp194
a(Vextracellular matrix organization
p195
I668
tp196
a(Vprotein folding
p197
I664
tp198
a(Vaging
p199
I656
tp200
a(Vcytoskeleton-dependent intracellular transport
p201
I613
tp202
a(Vdevelopmental maturation
p203
I609
tp204
a(Vsecondary metabolic process
p205
I606
tp206
a(Vchromosome
p207
I588
tp208
a(Vexternal encapsulating structure
p209
I570
tp210
a(VGTPase activity
p211
I567
tp212
a(Vcell wall
p213
I564
tp214
a(Visomerase activity
p215
I544
tp216
a(Vlysosome
p217
I530
tp218
a(Vribonucleoprotein complex assembly
p219
I507
tp220
a(Vhydrolase activity, acting on glycosyl bonds
p221
I500
tp222
a(Vcell wall organization or biogenesis
p223
I480
tp224
a(Vmitochondrion organization
p225
I478
tp226
a(Vnuclear envelope
p227
I469
tp228
a(Vcirculatory system process
p229
I466
tp230
a(Vplasma membrane organization
p231
I449
tp232
a(Vnucleotidyltransferase activity
p233
I435
tp234
a(VmRNA binding
p235
I432
tp236
a(Vhistone binding
p237
I432
tp238
a(Vvacuolar transport
p239
I401
tp240
a(Vperoxisome
p241
I400
tp242
a(Vchromosome segregation
p243
I391
tp244
a(Vprotein binding, bridging
p245
I381
tp246
a(Vmitosis
p247
I375
tp248
a(Vhydrolase activity, acting on carbon-nitrogen (but not peptide) bonds
p249
I365
tp250
a(VtRNA metabolic process
p251
I364
tp252
a(Vsmall conjugating protein binding
p253
I315
tp254
a(Vtranslation factor activity, nucleic acid binding
p255
I278
tp256
a(Vproteinaceous extracellular matrix
p257
I250
tp258
a(Vtranslation
p259
I249
tp260
a(Vstructural constituent of ribosome
p261
I241
tp262
a(Vlipid particle
p263
I230
tp264
a(Vunfolded protein binding
p265
I228
tp266
a(Vintracellular
p267
I201
tp268
a(Vribosome
p269
I198
tp270
a(Vprotein transporter activity
p271
I194
tp272
a(Vtransferase activity, transferring alkyl or aryl (other than methyl) groups
p273
I190
tp274
a(Vribosome biogenesis
p275
I157
tp276
a(Vnuclear chromosome
p277
I154
tp278
a(Vpigmentation
p279
I136
tp280
a(Vthylakoid
p281
I132
tp282
a(VrRNA binding
p283
I84
tp284
a(Vnitrogen cycle metabolic process
p285
I45
tp286
a(Vtransposition
p287
I40
tp288
a(Vphotosynthesis
p289
I37
tp290
a(Vcell
p291
I19
tp292
a(Vcytoplasmic chromosome
p293
I6
tp294
a(VRNA modification guide activity
p295
I2
tp296
aa(lp297
(g3
L6372L
tp298
a(g5
L4365L
tp299
a(g7
L2787L
tp300
a(g9
L21685L
tp301
a(g11
L26888L
tp302
a(g13
L5491L
tp303
a(g15
L18268L
tp304
a(g17
L5801L
tp305
a(g19
L5613L
tp306
a(g21
L21693L
tp307
a(g23
L7192L
tp308
a(g25
L22689L
tp309
a(g27
L21630L
tp310
a(g29
L5168L
tp311
a(g31
L7190L
tp312
a(g33
L1781L
tp313
a(g35
L13633L
tp314
a(g37
L5326L
tp315
a(g39
L4599L
tp316
a(g41
L13924L
tp317
a(g43
L12968L
tp318
a(g45
L4995L
tp319
a(g47
L4644L
tp320
a(g49
L13690L
tp321
a(g51
L4422L
tp322
a(g53
L10381L
tp323
a(g55
L20507L
tp324
a(g57
L4725L
tp325
a(g59
L4507L
tp326
a(g61
L28228L
tp327
a(g63
L10466L
tp328
a(g65
L26682L
tp329
a(g67
L10598L
tp330
a(g69
L4514L
tp331
a(g71
L31581L
tp332
a(g73
L21086L
tp333
a(g75
L18282L
tp334
a(g77
L29927L
tp335
a(g79
L2790L
tp336
a(g81
L6320L
tp337
a(g83
L20503L
tp338
a(g85
L7881L
tp339
a(g87
L26901L
tp340
a(g89
L5663L
tp341
a(g91
L5165L
tp342
a(g93
L28535L
tp343
a(g95
L2830L
tp344
a(g97
L4515L
tp345
a(g99
L4621L
tp346
a(g101
L10963L
tp347
a(g103
L4567L
tp348
a(g105
L5218L
tp349
a(g107
L27837L
tp350
a(g109
L10229L
tp351
a(g111
L3827L
tp352
a(g113
L4542L
tp353
a(g115
L6500L
tp354
a(g117
L30984L
tp355
a(g119
L4556L
tp356
a(g121
L4586L
tp357
a(g123
L6448L
tp358
a(g125
L6436L
tp359
a(g127
L10950L
tp360
a(g129
L5791L
tp361
a(g131
L5896L
tp362
a(g133
L594L
tp363
a(g135
L14001L
tp364
a(g137
L4439L
tp365
a(g139
L6494L
tp366
a(g141
L5302L
tp367
a(g143
L6357L
tp368
a(g145
L5471L
tp369
a(g147
L28144L
tp370
a(g149
L677L
tp371
a(g151
L4118L
tp372
a(g153
L4366L
tp373
a(g155
L4546L
tp374
a(g157
L5695L
tp375
a(g159
L10829L
tp376
a(g161
L4684L
tp377
a(g163
L10870L
tp378
a(g165
L5112L
tp379
a(g167
L7644L
tp380
a(g169
L4838L
tp381
a(g171
L22810L
tp382
a(g173
L3404L
tp383
a(g175
L759L
tp384
a(g177
L3L
tp385
a(g179
L10840L
tp386
a(g181
L28251L
tp387
a(g183
L10905L
tp388
a(g185
L5582L
tp389
a(g187
L6389L
tp390
a(g189
L4405L
tp391
a(g191
L3518L
tp392
a(g193
L17965L
tp393
a(g195
L13967L
tp394
a(g197
L5161L
tp395
a(g199
L6169L
tp396
a(g201
L14427L
tp397
a(g203
L13274L
tp398
a(g205
L12827L
tp399
a(g207
L4475L
tp400
a(g209
L14078L
tp401
a(g211
L2991L
tp402
a(g213
L4408L
tp403
a(g215
L10929L
tp404
a(g217
L4538L
tp405
a(g219
L13644L
tp406
a(g221
L10876L
tp407
a(g223
L33137L
tp408
a(g225
L5658L
tp409
a(g227
L4423L
tp410
a(g229
L2364L
tp411
a(g231
L5662L
tp412
a(g233
L10860L
tp413
a(g235
L2835L
tp414
a(g237
L20900L
tp415
a(g239
L5682L
tp416
a(g241
L4550L
tp417
a(g243
L5705L
tp418
a(g245
L14396L
tp419
a(g247
L5712L
tp420
a(g249
L10886L
tp421
a(g251
L5114L
tp422
a(g253
L15840L
tp423
a(g255
L6358L
tp424
a(g257
L4368L
tp425
a(g259
L5126L
tp426
a(g261
L2841L
tp427
a(g263
L4583L
tp428
a(g265
L28040L
tp429
a(g267
L4411L
tp430
a(g269
L4609L
tp431
a(g271
L6747L
tp432
a(g273
L10848L
tp433
a(g275
L20770L
tp434
a(g277
L201L
tp435
a(g279
L21900L
tp436
a(g281
L7683L
tp437
a(g283
L12918L
tp438
a(g285
L33512L
tp439
a(g287
L15852L
tp440
a(g289
L10192L
tp441
a(g291
L4412L
tp442
a(g293
L202L
tp443
a(g295
L14288L
tp444
aaI1050275
a.