(lp1
(lp2
(Vbiological_process
p3
I276945
tp4
a(Vcellular_component
p5
I91581
tp6
a(Vmolecular_function
p7
I73295
tp8
a(Vorganelle
p9
I25023
tp10
a(Vanatomical structure development
p11
I20037
tp12
a(Vtransport
p13
I15606
tp14
a(Vsignal transduction
p15
I13310
tp16
a(Vcellular nitrogen compound metabolic process
p17
I12113
tp18
a(Vresponse to stress
p19
I10194
tp20
a(Vprotein complex
p21
I9698
tp22
a(Vion binding
p23
I8506
tp24
a(Vsmall molecule metabolic process
p25
I8376
tp26
a(Vbiosynthetic process
p27
I7902
tp28
a(Vcellular protein modification process
p29
I7597
tp30
a(Vimmune system process
p31
I6126
tp32
a(Vcatabolic process
p33
I6030
tp34
a(Vcell differentiation
p35
I4891
tp36
a(Vcellular component assembly
p37
I4519
tp38
a(Vlipid metabolic process
p39
I4292
tp40
a(Venzyme binding
p41
I4197
tp42
a(Vcytosol
p43
I3944
tp44
a(Vlocomotion
p45
I3482
tp46
a(Vvesicle-mediated transport
p47
I3332
tp48
a(Vplasma membrane
p49
I3171
tp50
a(Vnucleus
p51
I3166
tp52
a(Vnucleolus
p53
I3029
tp54
a(VDNA metabolic process
p55
I3027
tp56
a(Vtransmembrane transporter activity
p57
I2968
tp58
a(Vanatomical structure formation involved in morphogenesis
p59
I2928
tp60
a(Vchromosome organization
p61
I2699
tp62
a(Vhomeostatic process
p63
I2674
tp64
a(Vcytoplasm
p65
I2585
tp66
a(VDNA binding
p67
I2517
tp68
a(Vcell motility
p69
I2405
tp70
a(Vkinase activity
p71
I2396
tp72
a(Vmacromolecular complex assembly
p73
I2339
tp74
a(Voxidoreductase activity
p75
I2307
tp76
a(Vtransmembrane transport
p77
I2293
tp78
a(Vcarbohydrate metabolic process
p79
I2273
tp80
a(Vnucleobase-containing compound catabolic process
p81
I2220
tp82
a(Vcytoskeletal protein binding
p83
I2135
tp84
a(Vprotein maturation
p85
I2079
tp86
a(Vembryo development
p87
I2022
tp88
a(Vsignal transducer activity
p89
I2013
tp90
a(Vneurological system process
p91
I1998
tp92
a(Vgrowth
p93
I1972
tp94
a(Vprotein complex assembly
p95
I1925
tp96
a(Vcytoskeleton organization
p97
I1915
tp98
a(Vcytoplasmic membrane-bounded vesicle
p99
I1704
tp100
a(Vmitochondrion
p101
I1662
tp102
a(Vcytoskeleton
p103
I1650
tp104
a(Vlipid binding
p105
I1583
tp106
a(VGolgi apparatus
p107
I1581
tp108
a(VRNA binding
p109
I1578
tp110
a(Vendosome
p111
I1557
tp112
a(Vcell adhesion
p113
I1492
tp114
a(Vmembrane organization
p115
I1392
tp116
a(Vcell death
p117
I1351
tp118
a(Vendoplasmic reticulum
p119
I1334
tp120
a(Vcellular amino acid metabolic process
p121
I1327
tp122
a(Vcell-cell signaling
p123
I1320
tp124
a(VATPase activity
p125
I1306
tp126
a(Venzyme regulator activity
p127
I1290
tp128
a(Vpeptidase activity
p129
I1277
tp130
a(Vcell proliferation
p131
I1276
tp132
a(Vligase activity
p133
I1247
tp134
a(Vcell morphogenesis
p135
I1164
tp136
a(Vmicrotubule organizing center
p137
I1164
tp138
a(Vtranscription factor binding
p139
I1114
tp140
a(Vnucleoplasm
p141
I1064
tp142
a(Vprotein binding transcription factor activity
p143
I1050
tp144
a(Vnucleic acid binding transcription factor activity
p145
I899
tp146
a(Vprotein targeting
p147
I888
tp148
a(Vphosphatase activity
p149
I816
tp150
a(Vstructural molecule activity
p151
I784
tp152
a(Vvacuole
p153
I779
tp154
a(Vextracellular region
p155
I774
tp156
a(Vsulfur compound metabolic process
p157
I774
tp158
a(Vsymbiosis, encompassing mutualism through parasitism
p159
I759
tp160
a(VmRNA processing
p161
I701
tp162
a(Vtransferase activity, transferring acyl groups
p163
I695
tp164
a(Vcell cycle
p165
I692
tp166
a(Vcofactor metabolic process
p167
I682
tp168
a(Vcilium
p169
I680
tp170
a(Vextracellular space
p171
I655
tp172
a(Vtransferase activity, transferring glycosyl groups
p173
I616
tp174
a(Vextracellular matrix organization
p175
I594
tp176
a(Vgeneration of precursor metabolites and energy
p177
I594
tp178
a(Vcell junction organization
p179
I559
tp180
a(Vhelicase activity
p181
I526
tp182
a(Vreproduction
p183
I526
tp184
a(Vcell division
p185
I489
tp186
a(Vaging
p187
I474
tp188
a(Vdevelopmental maturation
p189
I469
tp190
a(Vnucleocytoplasmic transport
p191
I468
tp192
a(Vnuclease activity
p193
I463
tp194
a(Vlysosome
p195
I441
tp196
a(Vmethyltransferase activity
p197
I441
tp198
a(VGTPase activity
p199
I420
tp200
a(Vplastid
p201
I412
tp202
a(Vlyase activity
p203
I387
tp204
a(Vmitochondrion organization
p205
I378
tp206
a(Vcirculatory system process
p207
I376
tp208
a(Vcytoskeleton-dependent intracellular transport
p209
I376
tp210
a(Vhistone binding
p211
I370
tp212
a(Vchromosome
p213
I359
tp214
a(Vprotein folding
p215
I358
tp216
a(Vplasma membrane organization
p217
I345
tp218
a(Vsecondary metabolic process
p219
I337
tp220
a(Vribonucleoprotein complex assembly
p221
I322
tp222
a(Vhydrolase activity, acting on glycosyl bonds
p223
I292
tp224
a(Vvacuolar transport
p225
I288
tp226
a(Vnuclear envelope
p227
I283
tp228
a(Visomerase activity
p229
I260
tp230
a(Vprotein binding, bridging
p231
I259
tp232
a(Vproteinaceous extracellular matrix
p233
I257
tp234
a(Vmitosis
p235
I252
tp236
a(VmRNA binding
p237
I251
tp238
a(Vhydrolase activity, acting on carbon-nitrogen (but not peptide) bonds
p239
I251
tp240
a(Vexternal encapsulating structure
p241
I242
tp242
a(Vperoxisome
p243
I237
tp244
a(Vcell wall
p245
I237
tp246
a(Vnucleotidyltransferase activity
p247
I234
tp248
a(Vcell wall organization or biogenesis
p249
I224
tp250
a(Vchromosome segregation
p251
I217
tp252
a(Vsmall conjugating protein binding
p253
I214
tp254
a(VtRNA metabolic process
p255
I213
tp256
a(Vtranslation factor activity, nucleic acid binding
p257
I162
tp258
a(Vlipid particle
p259
I156
tp260
a(Vintracellular
p261
I152
tp262
a(Vprotein transporter activity
p263
I139
tp264
a(Vtranslation
p265
I132
tp266
a(Vstructural constituent of ribosome
p267
I127
tp268
a(Vunfolded protein binding
p269
I124
tp270
a(Vribosome
p271
I121
tp272
a(Vtransferase activity, transferring alkyl or aryl (other than methyl) groups
p273
I120
tp274
a(Vnuclear chromosome
p275
I99
tp276
a(Vpigmentation
p277
I90
tp278
a(Vribosome biogenesis
p279
I86
tp280
a(VrRNA binding
p281
I52
tp282
a(Vthylakoid
p283
I33
tp284
a(Vnitrogen cycle metabolic process
p285
I24
tp286
a(Vcell
p287
I19
tp288
a(Vphotosynthesis
p289
I10
tp290
a(Vtransposition
p291
I7
tp292
aa(lp293
(g3
L6372L
tp294
a(g5
L4365L
tp295
a(g7
L2787L
tp296
a(g9
L21685L
tp297
a(g11
L26888L
tp298
a(g13
L5491L
tp299
a(g15
L5801L
tp300
a(g17
L18268L
tp301
a(g19
L5613L
tp302
a(g21
L21693L
tp303
a(g23
L21630L
tp304
a(g25
L22689L
tp305
a(g27
L7192L
tp306
a(g29
L5168L
tp307
a(g31
L1781L
tp308
a(g33
L7190L
tp309
a(g35
L13924L
tp310
a(g37
L13633L
tp311
a(g39
L5326L
tp312
a(g41
L12968L
tp313
a(g43
L4599L
tp314
a(g45
L20507L
tp315
a(g47
L10381L
tp316
a(g49
L4644L
tp317
a(g51
L4422L
tp318
a(g53
L4507L
tp319
a(g55
L4995L
tp320
a(g57
L13690L
tp321
a(g59
L26682L
tp322
a(g61
L28228L
tp323
a(g63
L21086L
tp324
a(g65
L4514L
tp325
a(g67
L2790L
tp326
a(g69
L26901L
tp327
a(g71
L10466L
tp328
a(g73
L31581L
tp329
a(g75
L10598L
tp330
a(g77
L29927L
tp331
a(g79
L4725L
tp332
a(g81
L18282L
tp333
a(g83
L6320L
tp334
a(g85
L28535L
tp335
a(g87
L7881L
tp336
a(g89
L3827L
tp337
a(g91
L27837L
tp338
a(g93
L20503L
tp339
a(g95
L5165L
tp340
a(g97
L5663L
tp341
a(g99
L10229L
tp342
a(g101
L4515L
tp343
a(g103
L4621L
tp344
a(g105
L6500L
tp345
a(g107
L4567L
tp346
a(g109
L2830L
tp347
a(g111
L4542L
tp348
a(g113
L5791L
tp349
a(g115
L30984L
tp350
a(g117
L6436L
tp351
a(g119
L4556L
tp352
a(g121
L5218L
tp353
a(g123
L5896L
tp354
a(g125
L10963L
tp355
a(g127
L14001L
tp356
a(g129
L6448L
tp357
a(g131
L6494L
tp358
a(g133
L10950L
tp359
a(g135
L594L
tp360
a(g137
L4586L
tp361
a(g139
L6357L
tp362
a(g141
L4439L
tp363
a(g143
L677L
tp364
a(g145
L759L
tp365
a(g147
L5302L
tp366
a(g149
L10870L
tp367
a(g151
L4118L
tp368
a(g153
L4546L
tp369
a(g155
L4366L
tp370
a(g157
L5471L
tp371
a(g159
L22810L
tp372
a(g161
L5112L
tp373
a(g163
L10829L
tp374
a(g165
L5695L
tp375
a(g167
L28144L
tp376
a(g169
L4684L
tp377
a(g171
L4405L
tp378
a(g173
L10840L
tp379
a(g175
L13967L
tp380
a(g177
L4838L
tp381
a(g179
L17965L
tp382
a(g181
L3404L
tp383
a(g183
L3L
tp384
a(g185
L28251L
tp385
a(g187
L6169L
tp386
a(g189
L13274L
tp387
a(g191
L5582L
tp388
a(g193
L3518L
tp389
a(g195
L4538L
tp390
a(g197
L6389L
tp391
a(g199
L2991L
tp392
a(g201
L7644L
tp393
a(g203
L10905L
tp394
a(g205
L5658L
tp395
a(g207
L2364L
tp396
a(g209
L14427L
tp397
a(g211
L20900L
tp398
a(g213
L4475L
tp399
a(g215
L5161L
tp400
a(g217
L5662L
tp401
a(g219
L12827L
tp402
a(g221
L13644L
tp403
a(g223
L10876L
tp404
a(g225
L5682L
tp405
a(g227
L4423L
tp406
a(g229
L10929L
tp407
a(g231
L14396L
tp408
a(g233
L4368L
tp409
a(g235
L5712L
tp410
a(g237
L2835L
tp411
a(g239
L10886L
tp412
a(g241
L14078L
tp413
a(g243
L4550L
tp414
a(g245
L4408L
tp415
a(g247
L10860L
tp416
a(g249
L33137L
tp417
a(g251
L5705L
tp418
a(g253
L15840L
tp419
a(g255
L5114L
tp420
a(g257
L6358L
tp421
a(g259
L4583L
tp422
a(g261
L4411L
tp423
a(g263
L6747L
tp424
a(g265
L5126L
tp425
a(g267
L2841L
tp426
a(g269
L28040L
tp427
a(g271
L4609L
tp428
a(g273
L10848L
tp429
a(g275
L201L
tp430
a(g277
L21900L
tp431
a(g279
L20770L
tp432
a(g281
L12918L
tp433
a(g283
L7683L
tp434
a(g285
L33512L
tp435
a(g287
L4412L
tp436
a(g289
L10192L
tp437
a(g291
L15852L
tp438
aaI741077
a.