(lp1
(lp2
(Vbiological_process
p3
I285924
tp4
a(Vcellular_component
p5
I91035
tp6
a(Vmolecular_function
p7
I71795
tp8
a(Vorganelle
p9
I24589
tp10
a(Vanatomical structure development
p11
I21316
tp12
a(Vtransport
p13
I15922
tp14
a(Vsignal transduction
p15
I13538
tp16
a(Vcellular nitrogen compound metabolic process
p17
I11481
tp18
a(Vresponse to stress
p19
I10191
tp20
a(Vprotein complex
p21
I9035
tp22
a(Vsmall molecule metabolic process
p23
I8059
tp24
a(Vion binding
p25
I8021
tp26
a(Vbiosynthetic process
p27
I7683
tp28
a(Vcellular protein modification process
p29
I7196
tp30
a(Vimmune system process
p31
I5712
tp32
a(Vcatabolic process
p33
I5627
tp34
a(Vcell differentiation
p35
I5070
tp36
a(Vcellular component assembly
p37
I4328
tp38
a(Vlipid metabolic process
p39
I4037
tp40
a(Venzyme binding
p41
I3895
tp42
a(Vcytosol
p43
I3601
tp44
a(Vlocomotion
p45
I3411
tp46
a(Vtransmembrane transporter activity
p47
I3262
tp48
a(Vplasma membrane
p49
I3211
tp50
a(Vvesicle-mediated transport
p51
I3146
tp52
a(Vnucleus
p53
I3105
tp54
a(Vanatomical structure formation involved in morphogenesis
p55
I2981
tp56
a(VDNA metabolic process
p57
I2975
tp58
a(Vnucleolus
p59
I2839
tp60
a(Vhomeostatic process
p61
I2723
tp62
a(Vsignal transducer activity
p63
I2702
tp64
a(Vcytoplasm
p65
I2590
tp66
a(Vchromosome organization
p67
I2590
tp68
a(VDNA binding
p69
I2526
tp70
a(Vcell motility
p71
I2392
tp72
a(Vtransmembrane transport
p73
I2341
tp74
a(Vkinase activity
p75
I2294
tp76
a(Vmacromolecular complex assembly
p77
I2229
tp78
a(Vneurological system process
p79
I2156
tp80
a(Vcarbohydrate metabolic process
p81
I2155
tp82
a(Voxidoreductase activity
p83
I2131
tp84
a(Vnucleobase-containing compound catabolic process
p85
I1994
tp86
a(Vcytoskeletal protein binding
p87
I1993
tp88
a(Vgrowth
p89
I1985
tp90
a(Vembryo development
p91
I1965
tp92
a(Vprotein maturation
p93
I1956
tp94
a(Vprotein complex assembly
p95
I1866
tp96
a(Vcytoskeleton organization
p97
I1781
tp98
a(Vcell-cell signaling
p99
I1730
tp100
a(Vcytoplasmic membrane-bounded vesicle
p101
I1709
tp102
a(Vcytoskeleton
p103
I1601
tp104
a(Vcell adhesion
p105
I1525
tp106
a(VGolgi apparatus
p107
I1525
tp108
a(Vmitochondrion
p109
I1484
tp110
a(Vlipid binding
p111
I1477
tp112
a(Vendosome
p113
I1460
tp114
a(VRNA binding
p115
I1380
tp116
a(Vcell death
p117
I1328
tp118
a(Vmembrane organization
p119
I1324
tp120
a(Vendoplasmic reticulum
p121
I1296
tp122
a(Vpeptidase activity
p123
I1284
tp124
a(Vcell proliferation
p125
I1259
tp126
a(Vcellular amino acid metabolic process
p127
I1258
tp128
a(Vcell morphogenesis
p129
I1198
tp130
a(VATPase activity
p131
I1158
tp132
a(Vmicrotubule organizing center
p133
I1104
tp134
a(Vligase activity
p135
I1101
tp136
a(Venzyme regulator activity
p137
I1099
tp138
a(Vtranscription factor binding
p139
I1061
tp140
a(Vnucleoplasm
p141
I992
tp142
a(Vprotein binding transcription factor activity
p143
I985
tp144
a(Vnucleic acid binding transcription factor activity
p145
I981
tp146
a(Vsulfur compound metabolic process
p147
I827
tp148
a(Vextracellular region
p149
I802
tp150
a(Vvacuole
p151
I767
tp152
a(Vprotein targeting
p153
I762
tp154
a(Vphosphatase activity
p155
I759
tp156
a(Vstructural molecule activity
p157
I719
tp158
a(Vcilium
p159
I695
tp160
a(Vcell cycle
p161
I694
tp162
a(Vextracellular space
p163
I693
tp164
a(Vtransferase activity, transferring acyl groups
p165
I693
tp166
a(Vsymbiosis, encompassing mutualism through parasitism
p167
I662
tp168
a(Vcofactor metabolic process
p169
I649
tp170
a(Vextracellular matrix organization
p171
I629
tp172
a(Vtransferase activity, transferring glycosyl groups
p173
I629
tp174
a(VmRNA processing
p175
I610
tp176
a(Vcirculatory system process
p177
I599
tp178
a(Vcell junction organization
p179
I526
tp180
a(Vreproduction
p181
I517
tp182
a(Vcell division
p183
I513
tp184
a(Vhelicase activity
p185
I496
tp186
a(Vaging
p187
I495
tp188
a(Vgeneration of precursor metabolites and energy
p189
I489
tp190
a(Vnuclease activity
p191
I447
tp192
a(Vlysosome
p193
I437
tp194
a(Vmethyltransferase activity
p195
I436
tp196
a(Vdevelopmental maturation
p197
I432
tp198
a(Vnucleocytoplasmic transport
p199
I408
tp200
a(VGTPase activity
p201
I394
tp202
a(Vplasma membrane organization
p203
I369
tp204
a(Vchromosome
p205
I369
tp206
a(Vlyase activity
p207
I367
tp208
a(Vplastid
p209
I359
tp210
a(Vhistone binding
p211
I338
tp212
a(Vmitochondrion organization
p213
I335
tp214
a(Vcytoskeleton-dependent intracellular transport
p215
I331
tp216
a(Vsecondary metabolic process
p217
I327
tp218
a(Vprotein folding
p219
I322
tp220
a(Vhydrolase activity, acting on glycosyl bonds
p221
I281
tp222
a(Vproteinaceous extracellular matrix
p223
I277
tp224
a(Vribonucleoprotein complex assembly
p225
I276
tp226
a(Vnuclear envelope
p227
I255
tp228
a(Visomerase activity
p229
I251
tp230
a(Vvacuolar transport
p231
I248
tp232
a(Vhydrolase activity, acting on carbon-nitrogen (but not peptide) bonds
p233
I245
tp234
a(Vprotein binding, bridging
p235
I245
tp236
a(Vmitosis
p237
I233
tp238
a(Vnucleotidyltransferase activity
p239
I230
tp240
a(Vexternal encapsulating structure
p241
I226
tp242
a(Vperoxisome
p243
I223
tp244
a(VmRNA binding
p245
I219
tp246
a(Vcell wall
p247
I219
tp248
a(Vchromosome segregation
p249
I217
tp250
a(VtRNA metabolic process
p251
I210
tp252
a(Vcell wall organization or biogenesis
p253
I204
tp254
a(Vsmall conjugating protein binding
p255
I197
tp256
a(Vlipid particle
p257
I155
tp258
a(Vtranslation factor activity, nucleic acid binding
p259
I146
tp260
a(Vintracellular
p261
I144
tp262
a(Vtransferase activity, transferring alkyl or aryl (other than methyl) groups
p263
I131
tp264
a(Vprotein transporter activity
p265
I126
tp266
a(Vunfolded protein binding
p267
I116
tp268
a(Vtranslation
p269
I114
tp270
a(Vribosome
p271
I108
tp272
a(Vnuclear chromosome
p273
I94
tp274
a(Vpigmentation
p275
I92
tp276
a(Vstructural constituent of ribosome
p277
I78
tp278
a(Vribosome biogenesis
p279
I74
tp280
a(VrRNA binding
p281
I44
tp282
a(Vthylakoid
p283
I29
tp284
a(Vcell
p285
I18
tp286
a(Vnitrogen cycle metabolic process
p287
I11
tp288
a(Vtransposition
p289
I6
tp290
a(Vphotosynthesis
p291
I3
tp292
aa(lp293
(g3
L6372L
tp294
a(g5
L4365L
tp295
a(g7
L2787L
tp296
a(g9
L21685L
tp297
a(g11
L26888L
tp298
a(g13
L5491L
tp299
a(g15
L5801L
tp300
a(g17
L18268L
tp301
a(g19
L5613L
tp302
a(g21
L21693L
tp303
a(g23
L22689L
tp304
a(g25
L21630L
tp305
a(g27
L7192L
tp306
a(g29
L5168L
tp307
a(g31
L1781L
tp308
a(g33
L7190L
tp309
a(g35
L13924L
tp310
a(g37
L13633L
tp311
a(g39
L5326L
tp312
a(g41
L12968L
tp313
a(g43
L4599L
tp314
a(g45
L20507L
tp315
a(g47
L13690L
tp316
a(g49
L4644L
tp317
a(g51
L10381L
tp318
a(g53
L4422L
tp319
a(g55
L26682L
tp320
a(g57
L4995L
tp321
a(g59
L4507L
tp322
a(g61
L21086L
tp323
a(g63
L3827L
tp324
a(g65
L4514L
tp325
a(g67
L28228L
tp326
a(g69
L2790L
tp327
a(g71
L26901L
tp328
a(g73
L29927L
tp329
a(g75
L10466L
tp330
a(g77
L31581L
tp331
a(g79
L27837L
tp332
a(g81
L4725L
tp333
a(g83
L10598L
tp334
a(g85
L18282L
tp335
a(g87
L6320L
tp336
a(g89
L20503L
tp337
a(g91
L7881L
tp338
a(g93
L28535L
tp339
a(g95
L5165L
tp340
a(g97
L5663L
tp341
a(g99
L5896L
tp342
a(g101
L10229L
tp343
a(g103
L4621L
tp344
a(g105
L5791L
tp345
a(g107
L4567L
tp346
a(g109
L4515L
tp347
a(g111
L6500L
tp348
a(g113
L4542L
tp349
a(g115
L2830L
tp350
a(g117
L6436L
tp351
a(g119
L30984L
tp352
a(g121
L4556L
tp353
a(g123
L6448L
tp354
a(g125
L6494L
tp355
a(g127
L5218L
tp356
a(g129
L594L
tp357
a(g131
L10963L
tp358
a(g133
L4586L
tp359
a(g135
L10950L
tp360
a(g137
L14001L
tp361
a(g139
L6357L
tp362
a(g141
L4439L
tp363
a(g143
L677L
tp364
a(g145
L759L
tp365
a(g147
L5471L
tp366
a(g149
L4366L
tp367
a(g151
L4546L
tp368
a(g153
L5302L
tp369
a(g155
L10870L
tp370
a(g157
L4118L
tp371
a(g159
L4684L
tp372
a(g161
L5695L
tp373
a(g163
L4405L
tp374
a(g165
L10829L
tp375
a(g167
L22810L
tp376
a(g169
L28144L
tp377
a(g171
L13967L
tp378
a(g173
L10840L
tp379
a(g175
L5112L
tp380
a(g177
L2364L
tp381
a(g179
L17965L
tp382
a(g181
L3L
tp383
a(g183
L28251L
tp384
a(g185
L3404L
tp385
a(g187
L6169L
tp386
a(g189
L4838L
tp387
a(g191
L3518L
tp388
a(g193
L4538L
tp389
a(g195
L6389L
tp390
a(g197
L13274L
tp391
a(g199
L5582L
tp392
a(g201
L2991L
tp393
a(g203
L5662L
tp394
a(g205
L4475L
tp395
a(g207
L10905L
tp396
a(g209
L7644L
tp397
a(g211
L20900L
tp398
a(g213
L5658L
tp399
a(g215
L14427L
tp400
a(g217
L12827L
tp401
a(g219
L5161L
tp402
a(g221
L10876L
tp403
a(g223
L4368L
tp404
a(g225
L13644L
tp405
a(g227
L4423L
tp406
a(g229
L10929L
tp407
a(g231
L5682L
tp408
a(g233
L10886L
tp409
a(g235
L14396L
tp410
a(g237
L5712L
tp411
a(g239
L10860L
tp412
a(g241
L14078L
tp413
a(g243
L4550L
tp414
a(g245
L2835L
tp415
a(g247
L4408L
tp416
a(g249
L5705L
tp417
a(g251
L5114L
tp418
a(g253
L33137L
tp419
a(g255
L15840L
tp420
a(g257
L4583L
tp421
a(g259
L6358L
tp422
a(g261
L4411L
tp423
a(g263
L10848L
tp424
a(g265
L6747L
tp425
a(g267
L28040L
tp426
a(g269
L5126L
tp427
a(g271
L4609L
tp428
a(g273
L201L
tp429
a(g275
L21900L
tp430
a(g277
L2841L
tp431
a(g279
L20770L
tp432
a(g281
L12918L
tp433
a(g283
L7683L
tp434
a(g285
L4412L
tp435
a(g287
L33512L
tp436
a(g289
L15852L
tp437
a(g291
L10192L
tp438
aaI742314
a.