(lp1
(lp2
(Vbiological_process
p3
I220455
tp4
a(Vcellular_component
p5
I73614
tp6
a(Vmolecular_function
p7
I58190
tp8
a(Vorganelle
p9
I20307
tp10
a(Vanatomical structure development
p11
I15293
tp12
a(Vtransport
p13
I12771
tp14
a(Vcellular nitrogen compound metabolic process
p15
I10708
tp16
a(Vsignal transduction
p17
I10256
tp18
a(Vresponse to stress
p19
I8236
tp20
a(Vprotein complex
p21
I7779
tp22
a(Vsmall molecule metabolic process
p23
I7537
tp24
a(Vbiosynthetic process
p25
I7365
tp26
a(Vion binding
p27
I6474
tp28
a(Vcellular protein modification process
p29
I6176
tp30
a(Vcatabolic process
p31
I5301
tp32
a(Vimmune system process
p33
I4476
tp34
a(Vlipid metabolic process
p35
I3823
tp36
a(Vcell differentiation
p37
I3646
tp38
a(Vcellular component assembly
p39
I3628
tp40
a(Vcytosol
p41
I3253
tp42
a(Venzyme binding
p43
I3138
tp44
a(VDNA metabolic process
p45
I2679
tp46
a(Vvesicle-mediated transport
p47
I2646
tp48
a(Vnucleus
p49
I2530
tp50
a(Vlocomotion
p51
I2506
tp52
a(Vplasma membrane
p53
I2495
tp54
a(Vchromosome organization
p55
I2443
tp56
a(Vnucleolus
p57
I2406
tp58
a(Vtransmembrane transporter activity
p59
I2350
tp60
a(Voxidoreductase activity
p61
I2209
tp62
a(Vanatomical structure formation involved in morphogenesis
p63
I2140
tp64
a(Vhomeostatic process
p65
I2061
tp66
a(Vcytoplasm
p67
I2056
tp68
a(Vcarbohydrate metabolic process
p69
I2011
tp70
a(VDNA binding
p71
I1943
tp72
a(Vkinase activity
p73
I1939
tp74
a(Vnucleobase-containing compound catabolic process
p75
I1928
tp76
a(Vmacromolecular complex assembly
p77
I1878
tp78
a(Vsignal transducer activity
p79
I1805
tp80
a(Vtransmembrane transport
p81
I1780
tp82
a(Vembryo development
p83
I1713
tp84
a(Vcell motility
p85
I1646
tp86
a(Vgrowth
p87
I1601
tp88
a(Vcytoskeleton organization
p89
I1584
tp90
a(Vcytoskeletal protein binding
p91
I1583
tp92
a(Vprotein complex assembly
p93
I1521
tp94
a(Vprotein maturation
p95
I1519
tp96
a(Vmitochondrion
p97
I1446
tp98
a(Vneurological system process
p99
I1365
tp100
a(Vcytoplasmic membrane-bounded vesicle
p101
I1357
tp102
a(VRNA binding
p103
I1355
tp104
a(Vcytoskeleton
p105
I1265
tp106
a(Vcellular amino acid metabolic process
p107
I1231
tp108
a(Vendosome
p109
I1214
tp110
a(VGolgi apparatus
p111
I1187
tp112
a(Vlipid binding
p113
I1133
tp114
a(Vcell death
p115
I1107
tp116
a(Vcell-cell signaling
p117
I1102
tp118
a(Vendoplasmic reticulum
p119
I1102
tp120
a(Vmembrane organization
p121
I1066
tp122
a(VATPase activity
p123
I1047
tp124
a(Vcell adhesion
p125
I1003
tp126
a(Vpeptidase activity
p127
I1002
tp128
a(Vmicrotubule organizing center
p129
I977
tp130
a(Venzyme regulator activity
p131
I946
tp132
a(Vligase activity
p133
I899
tp134
a(Vcell proliferation
p135
I892
tp136
a(Vcell morphogenesis
p137
I892
tp138
a(Vnucleoplasm
p139
I890
tp140
a(Vtranscription factor binding
p141
I879
tp142
a(Vprotein binding transcription factor activity
p143
I779
tp144
a(Vprotein targeting
p145
I731
tp146
a(Vphosphatase activity
p147
I697
tp148
a(Vcell cycle
p149
I688
tp150
a(Vnucleic acid binding transcription factor activity
p151
I663
tp152
a(Vtransferase activity, transferring acyl groups
p153
I652
tp154
a(Vsulfur compound metabolic process
p155
I640
tp156
a(Vcofactor metabolic process
p157
I634
tp158
a(Vtransferase activity, transferring glycosyl groups
p159
I619
tp160
a(Vstructural molecule activity
p161
I615
tp162
a(Vsymbiosis, encompassing mutualism through parasitism
p163
I606
tp164
a(Vcilium
p165
I600
tp166
a(Vvacuole
p167
I593
tp168
a(VmRNA processing
p169
I585
tp170
a(Vextracellular region
p171
I580
tp172
a(Vgeneration of precursor metabolites and energy
p173
I520
tp174
a(Vreproduction
p175
I481
tp176
a(Vcell division
p177
I447
tp178
a(Vcell junction organization
p179
I438
tp180
a(Vhelicase activity
p181
I415
tp182
a(Vnuclease activity
p183
I406
tp184
a(Vmethyltransferase activity
p185
I388
tp186
a(VGTPase activity
p187
I385
tp188
a(Vlyase activity
p189
I385
tp190
a(Vaging
p191
I370
tp192
a(Vextracellular space
p193
I366
tp194
a(Vplastid
p195
I360
tp196
a(Vextracellular matrix organization
p197
I344
tp198
a(Vnucleocytoplasmic transport
p199
I336
tp200
a(Vchromosome
p201
I334
tp202
a(Vsecondary metabolic process
p203
I321
tp204
a(Vcytoskeleton-dependent intracellular transport
p205
I319
tp206
a(Vprotein folding
p207
I317
tp208
a(Vcirculatory system process
p209
I309
tp210
a(Vlysosome
p211
I308
tp212
a(Vhistone binding
p213
I300
tp214
a(Vmitochondrion organization
p215
I298
tp216
a(Vdevelopmental maturation
p217
I293
tp218
a(Vplasma membrane organization
p219
I275
tp220
a(Vribonucleoprotein complex assembly
p221
I267
tp222
a(Vnuclear envelope
p223
I257
tp224
a(Visomerase activity
p225
I246
tp226
a(VtRNA metabolic process
p227
I244
tp228
a(Vvacuolar transport
p229
I239
tp230
a(Vexternal encapsulating structure
p231
I226
tp232
a(Vcell wall
p233
I225
tp234
a(Vnucleotidyltransferase activity
p235
I224
tp236
a(Vhydrolase activity, acting on glycosyl bonds
p237
I224
tp238
a(VmRNA binding
p239
I217
tp240
a(Vhydrolase activity, acting on carbon-nitrogen (but not peptide) bonds
p241
I209
tp242
a(Vmitosis
p243
I209
tp244
a(Vcell wall organization or biogenesis
p245
I205
tp246
a(Vperoxisome
p247
I204
tp248
a(Vchromosome segregation
p249
I202
tp250
a(Vprotein binding, bridging
p251
I179
tp252
a(Vsmall conjugating protein binding
p253
I176
tp254
a(Vtranslation factor activity, nucleic acid binding
p255
I157
tp256
a(Vstructural constituent of ribosome
p257
I152
tp258
a(Vlipid particle
p259
I146
tp260
a(Vtranslation
p261
I131
tp262
a(Vtransferase activity, transferring alkyl or aryl (other than methyl) groups
p263
I129
tp264
a(Vintracellular
p265
I121
tp266
a(Vproteinaceous extracellular matrix
p267
I121
tp268
a(Vunfolded protein binding
p269
I110
tp270
a(Vprotein transporter activity
p271
I107
tp272
a(Vribosome
p273
I101
tp274
a(Vnuclear chromosome
p275
I87
tp276
a(Vribosome biogenesis
p277
I85
tp278
a(Vpigmentation
p279
I66
tp280
a(VrRNA binding
p281
I52
tp282
a(Vthylakoid
p283
I30
tp284
a(Vcell
p285
I17
tp286
a(Vnitrogen cycle metabolic process
p287
I13
tp288
a(Vphotosynthesis
p289
I5
tp290
a(Vtransposition
p291
I2
tp292
a(VRNA modification guide activity
p293
I2
tp294
aa(lp295
(g3
L6372L
tp296
a(g5
L4365L
tp297
a(g7
L2787L
tp298
a(g9
L21685L
tp299
a(g11
L26888L
tp300
a(g13
L5491L
tp301
a(g15
L18268L
tp302
a(g17
L5801L
tp303
a(g19
L5613L
tp304
a(g21
L21693L
tp305
a(g23
L22689L
tp306
a(g25
L7192L
tp307
a(g27
L21630L
tp308
a(g29
L5168L
tp309
a(g31
L7190L
tp310
a(g33
L1781L
tp311
a(g35
L5326L
tp312
a(g37
L13924L
tp313
a(g39
L13633L
tp314
a(g41
L4599L
tp315
a(g43
L12968L
tp316
a(g45
L4995L
tp317
a(g47
L10381L
tp318
a(g49
L4422L
tp319
a(g51
L20507L
tp320
a(g53
L4644L
tp321
a(g55
L28228L
tp322
a(g57
L4507L
tp323
a(g59
L13690L
tp324
a(g61
L10598L
tp325
a(g63
L26682L
tp326
a(g65
L21086L
tp327
a(g67
L4514L
tp328
a(g69
L4725L
tp329
a(g71
L2790L
tp330
a(g73
L10466L
tp331
a(g75
L18282L
tp332
a(g77
L31581L
tp333
a(g79
L3827L
tp334
a(g81
L29927L
tp335
a(g83
L7881L
tp336
a(g85
L26901L
tp337
a(g87
L20503L
tp338
a(g89
L5663L
tp339
a(g91
L6320L
tp340
a(g93
L5165L
tp341
a(g95
L28535L
tp342
a(g97
L4515L
tp343
a(g99
L27837L
tp344
a(g101
L10229L
tp345
a(g103
L2830L
tp346
a(g105
L4621L
tp347
a(g107
L5218L
tp348
a(g109
L4542L
tp349
a(g111
L4567L
tp350
a(g113
L6500L
tp351
a(g115
L6436L
tp352
a(g117
L5896L
tp353
a(g119
L4556L
tp354
a(g121
L30984L
tp355
a(g123
L10963L
tp356
a(g125
L5791L
tp357
a(g127
L6448L
tp358
a(g129
L4586L
tp359
a(g131
L14001L
tp360
a(g133
L10950L
tp361
a(g135
L6494L
tp362
a(g137
L594L
tp363
a(g139
L4439L
tp364
a(g141
L6357L
tp365
a(g143
L677L
tp366
a(g145
L5302L
tp367
a(g147
L10870L
tp368
a(g149
L5695L
tp369
a(g151
L759L
tp370
a(g153
L10829L
tp371
a(g155
L5471L
tp372
a(g157
L28144L
tp373
a(g159
L10840L
tp374
a(g161
L4118L
tp375
a(g163
L22810L
tp376
a(g165
L4684L
tp377
a(g167
L4546L
tp378
a(g169
L5112L
tp379
a(g171
L4366L
tp380
a(g173
L4838L
tp381
a(g175
L3L
tp382
a(g177
L28251L
tp383
a(g179
L17965L
tp384
a(g181
L3404L
tp385
a(g183
L3518L
tp386
a(g185
L6389L
tp387
a(g187
L2991L
tp388
a(g189
L10905L
tp389
a(g191
L6169L
tp390
a(g193
L4405L
tp391
a(g195
L7644L
tp392
a(g197
L13967L
tp393
a(g199
L5582L
tp394
a(g201
L4475L
tp395
a(g203
L12827L
tp396
a(g205
L14427L
tp397
a(g207
L5161L
tp398
a(g209
L2364L
tp399
a(g211
L4538L
tp400
a(g213
L20900L
tp401
a(g215
L5658L
tp402
a(g217
L13274L
tp403
a(g219
L5662L
tp404
a(g221
L13644L
tp405
a(g223
L4423L
tp406
a(g225
L10929L
tp407
a(g227
L5114L
tp408
a(g229
L5682L
tp409
a(g231
L14078L
tp410
a(g233
L4408L
tp411
a(g235
L10860L
tp412
a(g237
L10876L
tp413
a(g239
L2835L
tp414
a(g241
L10886L
tp415
a(g243
L5712L
tp416
a(g245
L33137L
tp417
a(g247
L4550L
tp418
a(g249
L5705L
tp419
a(g251
L14396L
tp420
a(g253
L15840L
tp421
a(g255
L6358L
tp422
a(g257
L2841L
tp423
a(g259
L4583L
tp424
a(g261
L5126L
tp425
a(g263
L10848L
tp426
a(g265
L4411L
tp427
a(g267
L4368L
tp428
a(g269
L28040L
tp429
a(g271
L6747L
tp430
a(g273
L4609L
tp431
a(g275
L201L
tp432
a(g277
L20770L
tp433
a(g279
L21900L
tp434
a(g281
L12918L
tp435
a(g283
L7683L
tp436
a(g285
L4412L
tp437
a(g287
L33512L
tp438
a(g289
L10192L
tp439
a(g291
L15852L
tp440
a(g293
L14288L
tp441
aaI594539
a.