(lp1
(lp2
(Vbiological_process
p3
I183703
tp4
a(Vcellular_component
p5
I61281
tp6
a(Vmolecular_function
p7
I50397
tp8
a(Vorganelle
p9
I16280
tp10
a(Vanatomical structure development
p11
I13748
tp12
a(Vtransport
p13
I10601
tp14
a(Vcellular nitrogen compound metabolic process
p15
I8683
tp16
a(Vsignal transduction
p17
I8404
tp18
a(Vprotein complex
p19
I7211
tp20
a(Vresponse to stress
p21
I6914
tp22
a(Vion binding
p23
I6054
tp24
a(Vsmall molecule metabolic process
p25
I5644
tp26
a(Vbiosynthetic process
p27
I5378
tp28
a(Vcellular protein modification process
p29
I4879
tp30
a(Vcatabolic process
p31
I4258
tp32
a(Vimmune system process
p33
I3790
tp34
a(Vcell differentiation
p35
I3299
tp36
a(Vcellular component assembly
p37
I3140
tp38
a(Vcytosol
p39
I2883
tp40
a(Venzyme binding
p41
I2716
tp42
a(Vlipid metabolic process
p43
I2622
tp44
a(Vlocomotion
p45
I2415
tp46
a(Vnucleolus
p47
I2326
tp48
a(Vvesicle-mediated transport
p49
I2266
tp50
a(Vanatomical structure formation involved in morphogenesis
p51
I2211
tp52
a(Vplasma membrane
p53
I2207
tp54
a(VDNA metabolic process
p55
I2205
tp56
a(Vtransmembrane transporter activity
p57
I2129
tp58
a(Vnucleus
p59
I1965
tp60
a(Vchromosome organization
p61
I1882
tp62
a(Vhomeostatic process
p63
I1863
tp64
a(VDNA binding
p65
I1774
tp66
a(Vmacromolecular complex assembly
p67
I1757
tp68
a(Vcell motility
p69
I1688
tp70
a(Vnucleobase-containing compound catabolic process
p71
I1642
tp72
a(Vcytoplasm
p73
I1640
tp74
a(Vtransmembrane transport
p75
I1606
tp76
a(Vcarbohydrate metabolic process
p77
I1604
tp78
a(Vcytoskeletal protein binding
p79
I1595
tp80
a(Vembryo development
p81
I1539
tp82
a(Vsignal transducer activity
p83
I1527
tp84
a(Vcytoskeleton organization
p85
I1526
tp86
a(Vneurological system process
p87
I1478
tp88
a(Vgrowth
p89
I1470
tp90
a(Vprotein maturation
p91
I1462
tp92
a(Vkinase activity
p93
I1456
tp94
a(Voxidoreductase activity
p95
I1402
tp96
a(Vprotein complex assembly
p97
I1390
tp98
a(VRNA binding
p99
I1287
tp100
a(VGolgi apparatus
p101
I1183
tp102
a(Vlipid binding
p103
I1155
tp104
a(Vcytoplasmic membrane-bounded vesicle
p105
I1086
tp106
a(Vcytoskeleton
p107
I1078
tp108
a(Vmitochondrion
p109
I1078
tp110
a(Vcell adhesion
p111
I1022
tp112
a(VATPase activity
p113
I1013
tp114
a(Vcellular amino acid metabolic process
p115
I974
tp116
a(Vendoplasmic reticulum
p117
I963
tp118
a(Vligase activity
p119
I934
tp120
a(Vmembrane organization
p121
I929
tp122
a(Vcell death
p123
I914
tp124
a(Vcell-cell signaling
p125
I912
tp126
a(Vcell proliferation
p127
I900
tp128
a(Vendosome
p129
I899
tp130
a(Vpeptidase activity
p131
I883
tp132
a(Venzyme regulator activity
p133
I830
tp134
a(Vnucleoplasm
p135
I817
tp136
a(Vstructural molecule activity
p137
I772
tp138
a(Vtranscription factor binding
p139
I758
tp140
a(Vmicrotubule organizing center
p141
I756
tp142
a(Vprotein binding transcription factor activity
p143
I735
tp144
a(Vcell morphogenesis
p145
I735
tp146
a(Vprotein targeting
p147
I710
tp148
a(Vnucleic acid binding transcription factor activity
p149
I638
tp150
a(Vsulfur compound metabolic process
p151
I571
tp152
a(Vextracellular region
p153
I561
tp154
a(Vsymbiosis, encompassing mutualism through parasitism
p155
I543
tp156
a(VmRNA processing
p157
I520
tp158
a(Vextracellular space
p159
I484
tp160
a(Vtransferase activity, transferring acyl groups
p161
I479
tp162
a(Vvacuole
p163
I477
tp164
a(Vcofactor metabolic process
p165
I463
tp166
a(Vgeneration of precursor metabolites and energy
p167
I448
tp168
a(Vphosphatase activity
p169
I447
tp170
a(Vcilium
p171
I445
tp172
a(Vextracellular matrix organization
p173
I435
tp174
a(Vhelicase activity
p175
I423
tp176
a(Vtransferase activity, transferring glycosyl groups
p177
I406
tp178
a(Vreproduction
p179
I405
tp180
a(Vnucleocytoplasmic transport
p181
I397
tp182
a(Vcell cycle
p183
I390
tp184
a(Vcell junction organization
p185
I363
tp186
a(Vcell division
p187
I359
tp188
a(Vnuclease activity
p189
I326
tp190
a(Vaging
p191
I323
tp192
a(Vplastid
p193
I323
tp194
a(Vdevelopmental maturation
p195
I309
tp196
a(Vmitochondrion organization
p197
I304
tp198
a(Vcirculatory system process
p199
I303
tp200
a(Vchromosome
p201
I292
tp202
a(Vmethyltransferase activity
p203
I283
tp204
a(Vribonucleoprotein complex assembly
p205
I282
tp206
a(Vlysosome
p207
I269
tp208
a(Vcytoskeleton-dependent intracellular transport
p209
I265
tp210
a(Vhistone binding
p211
I253
tp212
a(Vlyase activity
p213
I248
tp214
a(Vprotein folding
p215
I248
tp216
a(Vnuclear envelope
p217
I233
tp218
a(Vsecondary metabolic process
p219
I221
tp220
a(Vnucleotidyltransferase activity
p221
I217
tp222
a(VmRNA binding
p223
I214
tp224
a(Vplasma membrane organization
p225
I207
tp226
a(Vstructural constituent of ribosome
p227
I204
tp228
a(Vexternal encapsulating structure
p229
I203
tp230
a(Vcell wall
p231
I200
tp232
a(VGTPase activity
p233
I198
tp234
a(Vvacuolar transport
p235
I196
tp236
a(Visomerase activity
p237
I190
tp238
a(Vchromosome segregation
p239
I188
tp240
a(Vmitosis
p241
I187
tp242
a(Vproteinaceous extracellular matrix
p243
I180
tp244
a(Vcell wall organization or biogenesis
p245
I162
tp246
a(Vhydrolase activity, acting on carbon-nitrogen (but not peptide) bonds
p247
I159
tp248
a(Vhydrolase activity, acting on glycosyl bonds
p249
I153
tp250
a(Vprotein transporter activity
p251
I144
tp252
a(Vsmall conjugating protein binding
p253
I144
tp254
a(Vperoxisome
p255
I142
tp256
a(VtRNA metabolic process
p257
I138
tp258
a(Vprotein binding, bridging
p259
I138
tp260
a(Vtranslation factor activity, nucleic acid binding
p261
I132
tp262
a(Vunfolded protein binding
p263
I113
tp264
a(Vtranslation
p265
I100
tp266
a(Vlipid particle
p267
I98
tp268
a(Vribosome
p269
I93
tp270
a(Vnuclear chromosome
p271
I84
tp272
a(Vtransferase activity, transferring alkyl or aryl (other than methyl) groups
p273
I75
tp274
a(Vintracellular
p275
I72
tp276
a(Vribosome biogenesis
p277
I69
tp278
a(Vpigmentation
p279
I60
tp280
a(VrRNA binding
p281
I52
tp282
a(Vtransposition
p283
I33
tp284
a(Vthylakoid
p285
I28
tp286
a(Vnitrogen cycle metabolic process
p287
I13
tp288
a(Vphotosynthesis
p289
I5
tp290
a(Vcell
p291
I4
tp292
a(VRNA modification guide activity
p293
I1
tp294
aa(lp295
(g3
L6372L
tp296
a(g5
L4365L
tp297
a(g7
L2787L
tp298
a(g9
L21685L
tp299
a(g11
L26888L
tp300
a(g13
L5491L
tp301
a(g15
L18268L
tp302
a(g17
L5801L
tp303
a(g19
L21693L
tp304
a(g21
L5613L
tp305
a(g23
L21630L
tp306
a(g25
L22689L
tp307
a(g27
L7192L
tp308
a(g29
L5168L
tp309
a(g31
L7190L
tp310
a(g33
L1781L
tp311
a(g35
L13924L
tp312
a(g37
L13633L
tp313
a(g39
L4599L
tp314
a(g41
L12968L
tp315
a(g43
L5326L
tp316
a(g45
L20507L
tp317
a(g47
L4507L
tp318
a(g49
L10381L
tp319
a(g51
L26682L
tp320
a(g53
L4644L
tp321
a(g55
L4995L
tp322
a(g57
L13690L
tp323
a(g59
L4422L
tp324
a(g61
L28228L
tp325
a(g63
L21086L
tp326
a(g65
L2790L
tp327
a(g67
L31581L
tp328
a(g69
L26901L
tp329
a(g71
L18282L
tp330
a(g73
L4514L
tp331
a(g75
L29927L
tp332
a(g77
L4725L
tp333
a(g79
L6320L
tp334
a(g81
L7881L
tp335
a(g83
L3827L
tp336
a(g85
L5663L
tp337
a(g87
L27837L
tp338
a(g89
L20503L
tp339
a(g91
L28535L
tp340
a(g93
L10466L
tp341
a(g95
L10598L
tp342
a(g97
L5165L
tp343
a(g99
L2830L
tp344
a(g101
L4567L
tp345
a(g103
L6500L
tp346
a(g105
L10229L
tp347
a(g107
L4621L
tp348
a(g109
L4515L
tp349
a(g111
L5791L
tp350
a(g113
L10963L
tp351
a(g115
L5218L
tp352
a(g117
L4556L
tp353
a(g119
L10950L
tp354
a(g121
L30984L
tp355
a(g123
L6436L
tp356
a(g125
L5896L
tp357
a(g127
L6494L
tp358
a(g129
L4542L
tp359
a(g131
L6448L
tp360
a(g133
L14001L
tp361
a(g135
L4439L
tp362
a(g137
L4118L
tp363
a(g139
L6357L
tp364
a(g141
L4586L
tp365
a(g143
L677L
tp366
a(g145
L594L
tp367
a(g147
L5302L
tp368
a(g149
L759L
tp369
a(g151
L5471L
tp370
a(g153
L4366L
tp371
a(g155
L22810L
tp372
a(g157
L5112L
tp373
a(g159
L4405L
tp374
a(g161
L10829L
tp375
a(g163
L4546L
tp376
a(g165
L28144L
tp377
a(g167
L4838L
tp378
a(g169
L10870L
tp379
a(g171
L4684L
tp380
a(g173
L13967L
tp381
a(g175
L3404L
tp382
a(g177
L10840L
tp383
a(g179
L3L
tp384
a(g181
L5582L
tp385
a(g183
L5695L
tp386
a(g185
L17965L
tp387
a(g187
L28251L
tp388
a(g189
L3518L
tp389
a(g191
L6169L
tp390
a(g193
L7644L
tp391
a(g195
L13274L
tp392
a(g197
L5658L
tp393
a(g199
L2364L
tp394
a(g201
L4475L
tp395
a(g203
L6389L
tp396
a(g205
L13644L
tp397
a(g207
L4538L
tp398
a(g209
L14427L
tp399
a(g211
L20900L
tp400
a(g213
L10905L
tp401
a(g215
L5161L
tp402
a(g217
L4423L
tp403
a(g219
L12827L
tp404
a(g221
L10860L
tp405
a(g223
L2835L
tp406
a(g225
L5662L
tp407
a(g227
L2841L
tp408
a(g229
L14078L
tp409
a(g231
L4408L
tp410
a(g233
L2991L
tp411
a(g235
L5682L
tp412
a(g237
L10929L
tp413
a(g239
L5705L
tp414
a(g241
L5712L
tp415
a(g243
L4368L
tp416
a(g245
L33137L
tp417
a(g247
L10886L
tp418
a(g249
L10876L
tp419
a(g251
L6747L
tp420
a(g253
L15840L
tp421
a(g255
L4550L
tp422
a(g257
L5114L
tp423
a(g259
L14396L
tp424
a(g261
L6358L
tp425
a(g263
L28040L
tp426
a(g265
L5126L
tp427
a(g267
L4583L
tp428
a(g269
L4609L
tp429
a(g271
L201L
tp430
a(g273
L10848L
tp431
a(g275
L4411L
tp432
a(g277
L20770L
tp433
a(g279
L21900L
tp434
a(g281
L12918L
tp435
a(g283
L15852L
tp436
a(g285
L7683L
tp437
a(g287
L33512L
tp438
a(g289
L10192L
tp439
a(g291
L4412L
tp440
a(g293
L14288L
tp441
aaI501565
a.