(lp1
(lp2
(Vbiological_process
p3
I197715
tp4
a(Vcellular_component
p5
I66512
tp6
a(Vmolecular_function
p7
I54297
tp8
a(Vorganelle
p9
I17857
tp10
a(Vanatomical structure development
p11
I14613
tp12
a(Vtransport
p13
I11446
tp14
a(Vcellular nitrogen compound metabolic process
p15
I9941
tp16
a(Vsignal transduction
p17
I9102
tp18
a(Vprotein complex
p19
I7996
tp20
a(Vresponse to stress
p21
I7612
tp22
a(Vion binding
p23
I6525
tp24
a(Vsmall molecule metabolic process
p25
I6291
tp26
a(Vbiosynthetic process
p27
I6181
tp28
a(Vcellular protein modification process
p29
I5334
tp30
a(Vcatabolic process
p31
I4843
tp32
a(Vimmune system process
p33
I4225
tp34
a(Vcell differentiation
p35
I3475
tp36
a(Vcellular component assembly
p37
I3412
tp38
a(Vcytosol
p39
I3239
tp40
a(Venzyme binding
p41
I2898
tp42
a(Vlipid metabolic process
p43
I2839
tp44
a(Vlocomotion
p45
I2595
tp46
a(Vnucleolus
p47
I2565
tp48
a(Vvesicle-mediated transport
p49
I2453
tp50
a(VDNA metabolic process
p51
I2442
tp52
a(Vplasma membrane
p53
I2398
tp54
a(Vanatomical structure formation involved in morphogenesis
p55
I2325
tp56
a(Vtransmembrane transporter activity
p57
I2234
tp58
a(Vnucleus
p59
I2206
tp60
a(Vchromosome organization
p61
I2059
tp62
a(Vhomeostatic process
p63
I1989
tp64
a(Vmacromolecular complex assembly
p65
I1953
tp66
a(VDNA binding
p67
I1900
tp68
a(Vnucleobase-containing compound catabolic process
p69
I1891
tp70
a(Vcarbohydrate metabolic process
p71
I1797
tp72
a(Vcytoplasm
p73
I1788
tp74
a(Vcell motility
p75
I1785
tp76
a(Vembryo development
p77
I1782
tp78
a(Vtransmembrane transport
p79
I1722
tp80
a(Vcytoskeletal protein binding
p81
I1680
tp82
a(Vcytoskeleton organization
p83
I1619
tp84
a(Vprotein maturation
p85
I1610
tp86
a(Vgrowth
p87
I1609
tp88
a(Vkinase activity
p89
I1577
tp90
a(Vsignal transducer activity
p91
I1556
tp92
a(Vneurological system process
p93
I1537
tp94
a(Voxidoreductase activity
p95
I1534
tp96
a(Vprotein complex assembly
p97
I1533
tp98
a(VRNA binding
p99
I1507
tp100
a(VGolgi apparatus
p101
I1306
tp102
a(Vlipid binding
p103
I1215
tp104
a(Vmitochondrion
p105
I1212
tp106
a(Vcytoplasmic membrane-bounded vesicle
p107
I1176
tp108
a(Vcytoskeleton
p109
I1154
tp110
a(Vcellular amino acid metabolic process
p111
I1112
tp112
a(VATPase activity
p113
I1106
tp114
a(Vcell adhesion
p115
I1052
tp116
a(Vendoplasmic reticulum
p117
I1046
tp118
a(Vcell death
p119
I1012
tp120
a(Vligase activity
p121
I1006
tp122
a(Vmembrane organization
p123
I984
tp124
a(Vcell proliferation
p125
I962
tp126
a(Vendosome
p127
I962
tp128
a(Vpeptidase activity
p129
I948
tp130
a(Vcell-cell signaling
p131
I945
tp132
a(Vnucleoplasm
p133
I929
tp134
a(Venzyme regulator activity
p135
I893
tp136
a(Vstructural molecule activity
p137
I872
tp138
a(Vprotein targeting
p139
I844
tp140
a(Vmicrotubule organizing center
p141
I828
tp142
a(Vtranscription factor binding
p143
I821
tp144
a(Vprotein binding transcription factor activity
p145
I792
tp146
a(Vcell morphogenesis
p147
I776
tp148
a(Vnucleic acid binding transcription factor activity
p149
I670
tp150
a(Vsymbiosis, encompassing mutualism through parasitism
p151
I631
tp152
a(Vsulfur compound metabolic process
p153
I627
tp154
a(VmRNA processing
p155
I608
tp156
a(Vextracellular region
p157
I594
tp158
a(Vgeneration of precursor metabolites and energy
p159
I546
tp160
a(Vcofactor metabolic process
p161
I529
tp162
a(Vvacuole
p163
I519
tp164
a(Vtransferase activity, transferring acyl groups
p165
I509
tp166
a(Vextracellular space
p167
I499
tp168
a(Vphosphatase activity
p169
I488
tp170
a(Vreproduction
p171
I479
tp172
a(Vcilium
p173
I468
tp174
a(Vhelicase activity
p175
I459
tp176
a(Vextracellular matrix organization
p177
I445
tp178
a(Vnucleocytoplasmic transport
p179
I442
tp180
a(Vcell cycle
p181
I431
tp182
a(Vtransferase activity, transferring glycosyl groups
p183
I430
tp184
a(Vplastid
p185
I401
tp186
a(Vcell division
p187
I381
tp188
a(Vcell junction organization
p189
I375
tp190
a(Vnuclease activity
p191
I360
tp192
a(Vaging
p193
I352
tp194
a(Vmitochondrion organization
p195
I344
tp196
a(Vribonucleoprotein complex assembly
p197
I329
tp198
a(Vchromosome
p199
I324
tp200
a(Vdevelopmental maturation
p201
I320
tp202
a(Vmethyltransferase activity
p203
I318
tp204
a(Vprotein folding
p205
I316
tp206
a(Vcirculatory system process
p207
I312
tp208
a(Vcytoskeleton-dependent intracellular transport
p209
I288
tp210
a(Vlysosome
p211
I287
tp212
a(Vlyase activity
p213
I281
tp214
a(Vstructural constituent of ribosome
p215
I275
tp216
a(Vhistone binding
p217
I266
tp218
a(Vexternal encapsulating structure
p219
I250
tp220
a(VmRNA binding
p221
I248
tp222
a(Vnuclear envelope
p223
I247
tp224
a(Vcell wall
p225
I247
tp226
a(Vsecondary metabolic process
p227
I245
tp228
a(VGTPase activity
p229
I237
tp230
a(Vnucleotidyltransferase activity
p231
I233
tp232
a(Visomerase activity
p233
I222
tp234
a(Vvacuolar transport
p235
I221
tp236
a(Vmitosis
p237
I218
tp238
a(Vplasma membrane organization
p239
I218
tp240
a(Vchromosome segregation
p241
I212
tp242
a(Vcell wall organization or biogenesis
p243
I184
tp244
a(Vproteinaceous extracellular matrix
p245
I180
tp246
a(Vhydrolase activity, acting on carbon-nitrogen (but not peptide) bonds
p247
I172
tp248
a(Vtranslation factor activity, nucleic acid binding
p249
I168
tp250
a(VtRNA metabolic process
p251
I165
tp252
a(Vhydrolase activity, acting on glycosyl bonds
p253
I159
tp254
a(Vprotein transporter activity
p255
I156
tp256
a(Vperoxisome
p257
I155
tp258
a(Vsmall conjugating protein binding
p259
I151
tp260
a(Vprotein binding, bridging
p261
I146
tp262
a(Vunfolded protein binding
p263
I141
tp264
a(Vtranslation
p265
I116
tp266
a(Vribosome
p267
I114
tp268
a(Vlipid particle
p269
I110
tp270
a(Vnuclear chromosome
p271
I97
tp272
a(Vtransferase activity, transferring alkyl or aryl (other than methyl) groups
p273
I96
tp274
a(Vribosome biogenesis
p275
I93
tp276
a(Vintracellular
p277
I74
tp278
a(Vpigmentation
p279
I67
tp280
a(VrRNA binding
p281
I62
tp282
a(Vtransposition
p283
I33
tp284
a(Vthylakoid
p285
I30
tp286
a(Vnitrogen cycle metabolic process
p287
I14
tp288
a(Vphotosynthesis
p289
I6
tp290
a(Vcell
p291
I4
tp292
a(VRNA modification guide activity
p293
I2
tp294
aa(lp295
(g3
L6372L
tp296
a(g5
L4365L
tp297
a(g7
L2787L
tp298
a(g9
L21685L
tp299
a(g11
L26888L
tp300
a(g13
L5491L
tp301
a(g15
L18268L
tp302
a(g17
L5801L
tp303
a(g19
L21693L
tp304
a(g21
L5613L
tp305
a(g23
L21630L
tp306
a(g25
L22689L
tp307
a(g27
L7192L
tp308
a(g29
L5168L
tp309
a(g31
L7190L
tp310
a(g33
L1781L
tp311
a(g35
L13924L
tp312
a(g37
L13633L
tp313
a(g39
L4599L
tp314
a(g41
L12968L
tp315
a(g43
L5326L
tp316
a(g45
L20507L
tp317
a(g47
L4507L
tp318
a(g49
L10381L
tp319
a(g51
L4995L
tp320
a(g53
L4644L
tp321
a(g55
L26682L
tp322
a(g57
L13690L
tp323
a(g59
L4422L
tp324
a(g61
L28228L
tp325
a(g63
L21086L
tp326
a(g65
L31581L
tp327
a(g67
L2790L
tp328
a(g69
L18282L
tp329
a(g71
L4725L
tp330
a(g73
L4514L
tp331
a(g75
L26901L
tp332
a(g77
L7881L
tp333
a(g79
L29927L
tp334
a(g81
L6320L
tp335
a(g83
L5663L
tp336
a(g85
L28535L
tp337
a(g87
L20503L
tp338
a(g89
L10466L
tp339
a(g91
L3827L
tp340
a(g93
L27837L
tp341
a(g95
L10598L
tp342
a(g97
L5165L
tp343
a(g99
L2830L
tp344
a(g101
L4567L
tp345
a(g103
L6500L
tp346
a(g105
L4515L
tp347
a(g107
L10229L
tp348
a(g109
L4621L
tp349
a(g111
L5218L
tp350
a(g113
L10963L
tp351
a(g115
L5791L
tp352
a(g117
L4556L
tp353
a(g119
L6436L
tp354
a(g121
L10950L
tp355
a(g123
L30984L
tp356
a(g125
L6494L
tp357
a(g127
L4542L
tp358
a(g129
L6448L
tp359
a(g131
L5896L
tp360
a(g133
L4439L
tp361
a(g135
L14001L
tp362
a(g137
L4118L
tp363
a(g139
L5302L
tp364
a(g141
L4586L
tp365
a(g143
L6357L
tp366
a(g145
L677L
tp367
a(g147
L594L
tp368
a(g149
L759L
tp369
a(g151
L22810L
tp370
a(g153
L5471L
tp371
a(g155
L5112L
tp372
a(g157
L4366L
tp373
a(g159
L4838L
tp374
a(g161
L28144L
tp375
a(g163
L4546L
tp376
a(g165
L10829L
tp377
a(g167
L4405L
tp378
a(g169
L10870L
tp379
a(g171
L3L
tp380
a(g173
L4684L
tp381
a(g175
L3404L
tp382
a(g177
L13967L
tp383
a(g179
L5582L
tp384
a(g181
L5695L
tp385
a(g183
L10840L
tp386
a(g185
L7644L
tp387
a(g187
L28251L
tp388
a(g189
L17965L
tp389
a(g191
L3518L
tp390
a(g193
L6169L
tp391
a(g195
L5658L
tp392
a(g197
L13644L
tp393
a(g199
L4475L
tp394
a(g201
L13274L
tp395
a(g203
L6389L
tp396
a(g205
L5161L
tp397
a(g207
L2364L
tp398
a(g209
L14427L
tp399
a(g211
L4538L
tp400
a(g213
L10905L
tp401
a(g215
L2841L
tp402
a(g217
L20900L
tp403
a(g219
L14078L
tp404
a(g221
L2835L
tp405
a(g223
L4423L
tp406
a(g225
L4408L
tp407
a(g227
L12827L
tp408
a(g229
L2991L
tp409
a(g231
L10860L
tp410
a(g233
L10929L
tp411
a(g235
L5682L
tp412
a(g237
L5712L
tp413
a(g239
L5662L
tp414
a(g241
L5705L
tp415
a(g243
L33137L
tp416
a(g245
L4368L
tp417
a(g247
L10886L
tp418
a(g249
L6358L
tp419
a(g251
L5114L
tp420
a(g253
L10876L
tp421
a(g255
L6747L
tp422
a(g257
L4550L
tp423
a(g259
L15840L
tp424
a(g261
L14396L
tp425
a(g263
L28040L
tp426
a(g265
L5126L
tp427
a(g267
L4609L
tp428
a(g269
L4583L
tp429
a(g271
L201L
tp430
a(g273
L10848L
tp431
a(g275
L20770L
tp432
a(g277
L4411L
tp433
a(g279
L21900L
tp434
a(g281
L12918L
tp435
a(g283
L15852L
tp436
a(g285
L7683L
tp437
a(g287
L33512L
tp438
a(g289
L10192L
tp439
a(g291
L4412L
tp440
a(g293
L14288L
tp441
aaI544348
a.