(lp1
(lp2
(Vbiological_process
p3
I270421
tp4
a(Vcellular_component
p5
I91978
tp6
a(Vmolecular_function
p7
I75262
tp8
a(Vorganelle
p9
I24679
tp10
a(Vanatomical structure development
p11
I19839
tp12
a(Vtransport
p13
I15665
tp14
a(Vcellular nitrogen compound metabolic process
p15
I13960
tp16
a(Vsignal transduction
p17
I12221
tp18
a(Vprotein complex
p19
I11078
tp20
a(Vresponse to stress
p21
I10448
tp22
a(Vion binding
p23
I9153
tp24
a(Vsmall molecule metabolic process
p25
I8833
tp26
a(Vbiosynthetic process
p27
I8501
tp28
a(Vcellular protein modification process
p29
I7349
tp30
a(Vcatabolic process
p31
I6678
tp32
a(Vimmune system process
p33
I5594
tp34
a(Vcellular component assembly
p35
I4819
tp36
a(Vcell differentiation
p37
I4642
tp38
a(Vcytosol
p39
I4565
tp40
a(Venzyme binding
p41
I4055
tp42
a(Vlipid metabolic process
p43
I3858
tp44
a(Vnucleolus
p45
I3557
tp46
a(Vlocomotion
p47
I3416
tp48
a(VDNA metabolic process
p49
I3391
tp50
a(Vvesicle-mediated transport
p51
I3352
tp52
a(Vplasma membrane
p53
I3316
tp54
a(Vtransmembrane transporter activity
p55
I3077
tp56
a(Vnucleus
p57
I3067
tp58
a(Vanatomical structure formation involved in morphogenesis
p59
I3067
tp60
a(Vchromosome organization
p61
I2983
tp62
a(Vmacromolecular complex assembly
p63
I2774
tp64
a(Vhomeostatic process
p65
I2714
tp66
a(VDNA binding
p67
I2661
tp68
a(Vnucleobase-containing compound catabolic process
p69
I2584
tp70
a(Vcarbohydrate metabolic process
p71
I2543
tp72
a(Vembryo development
p73
I2462
tp74
a(Vcytoplasm
p75
I2436
tp76
a(Vtransmembrane transport
p77
I2374
tp78
a(Vcell motility
p79
I2336
tp80
a(Vcytoskeletal protein binding
p81
I2334
tp82
a(Vcytoskeleton organization
p83
I2279
tp84
a(Vprotein maturation
p85
I2220
tp86
a(Vgrowth
p87
I2185
tp88
a(Vprotein complex assembly
p89
I2141
tp90
a(VRNA binding
p91
I2124
tp92
a(Vkinase activity
p93
I2123
tp94
a(Vneurological system process
p95
I2103
tp96
a(Voxidoreductase activity
p97
I2089
tp98
a(Vsignal transducer activity
p99
I1976
tp100
a(VGolgi apparatus
p101
I1756
tp102
a(Vmitochondrion
p103
I1686
tp104
a(Vlipid binding
p105
I1667
tp106
a(Vcytoplasmic membrane-bounded vesicle
p107
I1653
tp108
a(Vcellular amino acid metabolic process
p109
I1622
tp110
a(Vcytoskeleton
p111
I1541
tp112
a(VATPase activity
p113
I1482
tp114
a(Vendoplasmic reticulum
p115
I1452
tp116
a(Vcell adhesion
p117
I1424
tp118
a(Vcell death
p119
I1419
tp120
a(Vpeptidase activity
p121
I1411
tp122
a(Vmembrane organization
p123
I1359
tp124
a(Vligase activity
p125
I1346
tp126
a(Vendosome
p127
I1326
tp128
a(Vnucleoplasm
p129
I1314
tp130
a(Vcell proliferation
p131
I1285
tp132
a(Vcell-cell signaling
p133
I1281
tp134
a(Venzyme regulator activity
p135
I1275
tp136
a(Vmicrotubule organizing center
p137
I1211
tp138
a(Vstructural molecule activity
p139
I1172
tp140
a(Vtranscription factor binding
p141
I1141
tp142
a(Vprotein targeting
p143
I1106
tp144
a(Vprotein binding transcription factor activity
p145
I1090
tp146
a(Vcell morphogenesis
p147
I1041
tp148
a(Vnucleic acid binding transcription factor activity
p149
I935
tp150
a(VmRNA processing
p151
I896
tp152
a(Vsulfur compound metabolic process
p153
I883
tp154
a(Vextracellular region
p155
I875
tp156
a(Vsymbiosis, encompassing mutualism through parasitism
p157
I850
tp158
a(Vtransferase activity, transferring acyl groups
p159
I758
tp160
a(Vgeneration of precursor metabolites and energy
p161
I738
tp162
a(Vvacuole
p163
I730
tp164
a(Vcofactor metabolic process
p165
I719
tp166
a(Vreproduction
p167
I657
tp168
a(Vnucleocytoplasmic transport
p169
I656
tp170
a(Vcilium
p171
I655
tp172
a(Vextracellular space
p173
I651
tp174
a(Vphosphatase activity
p175
I649
tp176
a(Vextracellular matrix organization
p177
I637
tp178
a(Vhelicase activity
p179
I623
tp180
a(Vcell cycle
p181
I622
tp182
a(Vtransferase activity, transferring glycosyl groups
p183
I607
tp184
a(Vcell division
p185
I556
tp186
a(Vcell junction organization
p187
I540
tp188
a(Vribonucleoprotein complex assembly
p189
I508
tp190
a(Vplastid
p191
I506
tp192
a(Vnuclease activity
p193
I502
tp194
a(Vaging
p195
I479
tp196
a(Vdevelopmental maturation
p197
I458
tp198
a(Vprotein folding
p199
I444
tp200
a(Vmitochondrion organization
p201
I442
tp202
a(Vchromosome
p203
I440
tp204
a(Vmethyltransferase activity
p205
I429
tp206
a(Vcirculatory system process
p207
I421
tp208
a(Vcytoskeleton-dependent intracellular transport
p209
I420
tp210
a(Vlyase activity
p211
I407
tp212
a(Vlysosome
p213
I406
tp214
a(VmRNA binding
p215
I376
tp216
a(Vhistone binding
p217
I371
tp218
a(Vnuclear envelope
p219
I364
tp220
a(VGTPase activity
p221
I350
tp222
a(Vexternal encapsulating structure
p223
I347
tp224
a(Vstructural constituent of ribosome
p225
I347
tp226
a(Vcell wall
p227
I341
tp228
a(Vsecondary metabolic process
p229
I341
tp230
a(Vnucleotidyltransferase activity
p231
I327
tp232
a(Visomerase activity
p233
I322
tp234
a(Vchromosome segregation
p235
I311
tp236
a(Vmitosis
p237
I310
tp238
a(Vvacuolar transport
p239
I294
tp240
a(Vplasma membrane organization
p241
I288
tp242
a(Vhydrolase activity, acting on glycosyl bonds
p243
I269
tp244
a(Vcell wall organization or biogenesis
p245
I254
tp246
a(VtRNA metabolic process
p247
I246
tp248
a(Vhydrolase activity, acting on carbon-nitrogen (but not peptide) bonds
p249
I239
tp250
a(Vproteinaceous extracellular matrix
p251
I235
tp252
a(Vtranslation factor activity, nucleic acid binding
p253
I219
tp254
a(Vsmall conjugating protein binding
p255
I217
tp256
a(Vprotein binding, bridging
p257
I217
tp258
a(Vperoxisome
p259
I206
tp260
a(Vprotein transporter activity
p261
I204
tp262
a(Vunfolded protein binding
p263
I195
tp264
a(Vtranslation
p265
I190
tp266
a(Vlipid particle
p267
I176
tp268
a(Vribosome
p269
I155
tp270
a(Vnuclear chromosome
p271
I131
tp272
a(Vtransferase activity, transferring alkyl or aryl (other than methyl) groups
p273
I127
tp274
a(Vribosome biogenesis
p275
I120
tp276
a(Vintracellular
p277
I113
tp278
a(Vpigmentation
p279
I97
tp280
a(VrRNA binding
p281
I93
tp282
a(Vthylakoid
p283
I44
tp284
a(Vtransposition
p285
I38
tp286
a(Vnitrogen cycle metabolic process
p287
I21
tp288
a(Vphotosynthesis
p289
I8
tp290
a(Vcell
p291
I8
tp292
a(VRNA modification guide activity
p293
I2
tp294
aa(lp295
(g3
L6372L
tp296
a(g5
L4365L
tp297
a(g7
L2787L
tp298
a(g9
L21685L
tp299
a(g11
L26888L
tp300
a(g13
L5491L
tp301
a(g15
L18268L
tp302
a(g17
L5801L
tp303
a(g19
L21693L
tp304
a(g21
L5613L
tp305
a(g23
L21630L
tp306
a(g25
L22689L
tp307
a(g27
L7192L
tp308
a(g29
L5168L
tp309
a(g31
L7190L
tp310
a(g33
L1781L
tp311
a(g35
L13633L
tp312
a(g37
L13924L
tp313
a(g39
L4599L
tp314
a(g41
L12968L
tp315
a(g43
L5326L
tp316
a(g45
L4507L
tp317
a(g47
L20507L
tp318
a(g49
L4995L
tp319
a(g51
L10381L
tp320
a(g53
L4644L
tp321
a(g55
L13690L
tp322
a(g57
L4422L
tp323
a(g59
L26682L
tp324
a(g61
L28228L
tp325
a(g63
L31581L
tp326
a(g65
L21086L
tp327
a(g67
L2790L
tp328
a(g69
L18282L
tp329
a(g71
L4725L
tp330
a(g73
L7881L
tp331
a(g75
L4514L
tp332
a(g77
L29927L
tp333
a(g79
L26901L
tp334
a(g81
L6320L
tp335
a(g83
L5663L
tp336
a(g85
L28535L
tp337
a(g87
L20503L
tp338
a(g89
L5165L
tp339
a(g91
L2830L
tp340
a(g93
L10466L
tp341
a(g95
L27837L
tp342
a(g97
L10598L
tp343
a(g99
L3827L
tp344
a(g101
L4567L
tp345
a(g103
L4515L
tp346
a(g105
L6500L
tp347
a(g107
L10229L
tp348
a(g109
L5218L
tp349
a(g111
L4621L
tp350
a(g113
L10963L
tp351
a(g115
L4556L
tp352
a(g117
L5791L
tp353
a(g119
L6436L
tp354
a(g121
L6448L
tp355
a(g123
L30984L
tp356
a(g125
L10950L
tp357
a(g127
L4542L
tp358
a(g129
L4439L
tp359
a(g131
L6494L
tp360
a(g133
L5896L
tp361
a(g135
L14001L
tp362
a(g137
L4586L
tp363
a(g139
L4118L
tp364
a(g141
L6357L
tp365
a(g143
L5302L
tp366
a(g145
L677L
tp367
a(g147
L594L
tp368
a(g149
L759L
tp369
a(g151
L5112L
tp370
a(g153
L5471L
tp371
a(g155
L4366L
tp372
a(g157
L22810L
tp373
a(g159
L10829L
tp374
a(g161
L4838L
tp375
a(g163
L4546L
tp376
a(g165
L28144L
tp377
a(g167
L3L
tp378
a(g169
L5582L
tp379
a(g171
L4684L
tp380
a(g173
L4405L
tp381
a(g175
L10870L
tp382
a(g177
L13967L
tp383
a(g179
L3404L
tp384
a(g181
L5695L
tp385
a(g183
L10840L
tp386
a(g185
L28251L
tp387
a(g187
L17965L
tp388
a(g189
L13644L
tp389
a(g191
L7644L
tp390
a(g193
L3518L
tp391
a(g195
L6169L
tp392
a(g197
L13274L
tp393
a(g199
L5161L
tp394
a(g201
L5658L
tp395
a(g203
L4475L
tp396
a(g205
L6389L
tp397
a(g207
L2364L
tp398
a(g209
L14427L
tp399
a(g211
L10905L
tp400
a(g213
L4538L
tp401
a(g215
L2835L
tp402
a(g217
L20900L
tp403
a(g219
L4423L
tp404
a(g221
L2991L
tp405
a(g223
L14078L
tp406
a(g225
L2841L
tp407
a(g227
L4408L
tp408
a(g229
L12827L
tp409
a(g231
L10860L
tp410
a(g233
L10929L
tp411
a(g235
L5705L
tp412
a(g237
L5712L
tp413
a(g239
L5682L
tp414
a(g241
L5662L
tp415
a(g243
L10876L
tp416
a(g245
L33137L
tp417
a(g247
L5114L
tp418
a(g249
L10886L
tp419
a(g251
L4368L
tp420
a(g253
L6358L
tp421
a(g255
L15840L
tp422
a(g257
L14396L
tp423
a(g259
L4550L
tp424
a(g261
L6747L
tp425
a(g263
L28040L
tp426
a(g265
L5126L
tp427
a(g267
L4583L
tp428
a(g269
L4609L
tp429
a(g271
L201L
tp430
a(g273
L10848L
tp431
a(g275
L20770L
tp432
a(g277
L4411L
tp433
a(g279
L21900L
tp434
a(g281
L12918L
tp435
a(g283
L7683L
tp436
a(g285
L15852L
tp437
a(g287
L33512L
tp438
a(g289
L10192L
tp439
a(g291
L4412L
tp440
a(g293
L14288L
tp441
aaI748954
a.