(lp1
(lp2
(Vbiological_process
p3
I413878
tp4
a(Vcellular_component
p5
I136039
tp6
a(Vmolecular_function
p7
I111604
tp8
a(Vorganelle
p9
I36098
tp10
a(Vanatomical structure development
p11
I31686
tp12
a(Vtransport
p13
I23073
tp14
a(Vcellular nitrogen compound metabolic process
p15
I19084
tp16
a(Vsignal transduction
p17
I18651
tp18
a(Vresponse to stress
p19
I15579
tp20
a(Vprotein complex
p21
I15104
tp22
a(Vion binding
p23
I13554
tp24
a(Vsmall molecule metabolic process
p25
I12762
tp26
a(Vbiosynthetic process
p27
I12400
tp28
a(Vcellular protein modification process
p29
I10603
tp30
a(Vcatabolic process
p31
I9505
tp32
a(Vimmune system process
p33
I8298
tp34
a(Vcell differentiation
p35
I7520
tp36
a(Vcellular component assembly
p37
I6522
tp38
a(Vcytosol
p39
I6199
tp40
a(Vlipid metabolic process
p41
I5950
tp42
a(Venzyme binding
p43
I5884
tp44
a(Vlocomotion
p45
I5166
tp46
a(Vanatomical structure formation involved in morphogenesis
p47
I4993
tp48
a(Vplasma membrane
p49
I4937
tp50
a(VDNA metabolic process
p51
I4919
tp52
a(Vtransmembrane transporter activity
p53
I4845
tp54
a(Vnucleolus
p55
I4777
tp56
a(Vvesicle-mediated transport
p57
I4698
tp58
a(Vnucleus
p59
I4377
tp60
a(Vhomeostatic process
p61
I3996
tp62
a(Vchromosome organization
p63
I3900
tp64
a(VDNA binding
p65
I3815
tp66
a(Vcarbohydrate metabolic process
p67
I3713
tp68
a(Vmacromolecular complex assembly
p69
I3668
tp70
a(Vcytoplasm
p71
I3609
tp72
a(Vcell motility
p73
I3605
tp74
a(Vtransmembrane transport
p75
I3582
tp76
a(Voxidoreductase activity
p77
I3487
tp78
a(Vnucleobase-containing compound catabolic process
p79
I3469
tp80
a(Vsignal transducer activity
p81
I3382
tp82
a(Vgrowth
p83
I3351
tp84
a(Vembryo development
p85
I3345
tp86
a(Vneurological system process
p87
I3267
tp88
a(Vprotein maturation
p89
I3234
tp90
a(Vcytoskeletal protein binding
p91
I3191
tp92
a(Vkinase activity
p93
I3103
tp94
a(Vcytoskeleton organization
p95
I3027
tp96
a(Vprotein complex assembly
p97
I2954
tp98
a(VRNA binding
p99
I2749
tp100
a(VGolgi apparatus
p101
I2568
tp102
a(Vlipid binding
p103
I2492
tp104
a(Vcytoplasmic membrane-bounded vesicle
p105
I2403
tp106
a(Vmitochondrion
p107
I2383
tp108
a(Vcell adhesion
p109
I2283
tp110
a(Vcytoskeleton
p111
I2252
tp112
a(Vcellular amino acid metabolic process
p113
I2241
tp114
a(Vendoplasmic reticulum
p115
I2101
tp116
a(Vpeptidase activity
p117
I2069
tp118
a(Vcell-cell signaling
p119
I2033
tp120
a(VATPase activity
p121
I2014
tp122
a(Vcell death
p123
I1989
tp124
a(Vcell proliferation
p125
I1982
tp126
a(Vligase activity
p127
I1958
tp128
a(Vmembrane organization
p129
I1953
tp130
a(Vendosome
p131
I1912
tp132
a(Venzyme regulator activity
p133
I1805
tp134
a(Vnucleoplasm
p135
I1764
tp136
a(Vmicrotubule organizing center
p137
I1706
tp138
a(Vcell morphogenesis
p139
I1702
tp140
a(Vtranscription factor binding
p141
I1620
tp142
a(Vstructural molecule activity
p143
I1542
tp144
a(Vprotein binding transcription factor activity
p145
I1494
tp146
a(Vprotein targeting
p147
I1454
tp148
a(Vextracellular region
p149
I1421
tp150
a(Vsulfur compound metabolic process
p151
I1372
tp152
a(Vnucleic acid binding transcription factor activity
p153
I1359
tp154
a(Vextracellular space
p155
I1162
tp156
a(Vcofactor metabolic process
p157
I1118
tp158
a(Vcilium
p159
I1093
tp160
a(VmRNA processing
p161
I1083
tp162
a(Vextracellular matrix organization
p163
I1082
tp164
a(Vtransferase activity, transferring acyl groups
p165
I1070
tp166
a(Vvacuole
p167
I1063
tp168
a(Vsymbiosis, encompassing mutualism through parasitism
p169
I1060
tp170
a(Vgeneration of precursor metabolites and energy
p171
I1021
tp172
a(Vphosphatase activity
p173
I941
tp174
a(Vcell cycle
p175
I884
tp176
a(Vhelicase activity
p177
I881
tp178
a(Vtransferase activity, transferring glycosyl groups
p179
I856
tp180
a(Vreproduction
p181
I856
tp182
a(Vplastid
p183
I811
tp184
a(Vaging
p185
I782
tp186
a(Vcell division
p187
I777
tp188
a(Vnucleocytoplasmic transport
p189
I771
tp190
a(Vnuclease activity
p191
I728
tp192
a(Vcell junction organization
p193
I696
tp194
a(Vcirculatory system process
p195
I693
tp196
a(Vlyase activity
p197
I662
tp198
a(Vdevelopmental maturation
p199
I651
tp200
a(Vmethyltransferase activity
p201
I612
tp202
a(Vchromosome
p203
I599
tp204
a(Vlysosome
p205
I585
tp206
a(Vmitochondrion organization
p207
I572
tp208
a(Vcytoskeleton-dependent intracellular transport
p209
I560
tp210
a(Vribonucleoprotein complex assembly
p211
I558
tp212
a(Vprotein folding
p213
I551
tp214
a(Vexternal encapsulating structure
p215
I539
tp216
a(Vcell wall
p217
I529
tp218
a(Vsecondary metabolic process
p219
I523
tp220
a(Vnuclear envelope
p221
I501
tp222
a(Vproteinaceous extracellular matrix
p223
I490
tp224
a(Vhistone binding
p225
I478
tp226
a(VGTPase activity
p227
I462
tp228
a(Vnucleotidyltransferase activity
p229
I441
tp230
a(Vplasma membrane organization
p231
I431
tp232
a(VmRNA binding
p233
I430
tp234
a(Visomerase activity
p235
I428
tp236
a(Vstructural constituent of ribosome
p237
I426
tp238
a(Vhydrolase activity, acting on glycosyl bonds
p239
I409
tp240
a(Vmitosis
p241
I391
tp242
a(Vcell wall organization or biogenesis
p243
I389
tp244
a(Vchromosome segregation
p245
I385
tp246
a(Vvacuolar transport
p247
I369
tp248
a(Vhydrolase activity, acting on carbon-nitrogen (but not peptide) bonds
p249
I358
tp250
a(Vperoxisome
p251
I327
tp252
a(VtRNA metabolic process
p253
I325
tp254
a(Vprotein binding, bridging
p255
I316
tp256
a(Vsmall conjugating protein binding
p257
I315
tp258
a(Vtranslation factor activity, nucleic acid binding
p259
I295
tp260
a(Vprotein transporter activity
p261
I277
tp262
a(Vunfolded protein binding
p263
I244
tp264
a(Vlipid particle
p265
I234
tp266
a(Vribosome
p267
I225
tp268
a(Vtranslation
p269
I213
tp270
a(Vnuclear chromosome
p271
I187
tp272
a(Vtransferase activity, transferring alkyl or aryl (other than methyl) groups
p273
I171
tp274
a(Vribosome biogenesis
p275
I161
tp276
a(Vintracellular
p277
I157
tp278
a(Vpigmentation
p279
I139
tp280
a(VrRNA binding
p281
I113
tp282
a(Vthylakoid
p283
I100
tp284
a(Vtransposition
p285
I62
tp286
a(Vnitrogen cycle metabolic process
p287
I39
tp288
a(Vphotosynthesis
p289
I29
tp290
a(Vcell
p291
I14
tp292
a(VRNA modification guide activity
p293
I3
tp294
aa(lp295
(g3
L6372L
tp296
a(g5
L4365L
tp297
a(g7
L2787L
tp298
a(g9
L21685L
tp299
a(g11
L26888L
tp300
a(g13
L5491L
tp301
a(g15
L18268L
tp302
a(g17
L5801L
tp303
a(g19
L5613L
tp304
a(g21
L21693L
tp305
a(g23
L21630L
tp306
a(g25
L22689L
tp307
a(g27
L7192L
tp308
a(g29
L5168L
tp309
a(g31
L7190L
tp310
a(g33
L1781L
tp311
a(g35
L13924L
tp312
a(g37
L13633L
tp313
a(g39
L4599L
tp314
a(g41
L5326L
tp315
a(g43
L12968L
tp316
a(g45
L20507L
tp317
a(g47
L26682L
tp318
a(g49
L4644L
tp319
a(g51
L4995L
tp320
a(g53
L13690L
tp321
a(g55
L4507L
tp322
a(g57
L10381L
tp323
a(g59
L4422L
tp324
a(g61
L21086L
tp325
a(g63
L28228L
tp326
a(g65
L2790L
tp327
a(g67
L4725L
tp328
a(g69
L31581L
tp329
a(g71
L4514L
tp330
a(g73
L26901L
tp331
a(g75
L29927L
tp332
a(g77
L10598L
tp333
a(g79
L18282L
tp334
a(g81
L3827L
tp335
a(g83
L20503L
tp336
a(g85
L7881L
tp337
a(g87
L27837L
tp338
a(g89
L28535L
tp339
a(g91
L6320L
tp340
a(g93
L10466L
tp341
a(g95
L5663L
tp342
a(g97
L5165L
tp343
a(g99
L2830L
tp344
a(g101
L4567L
tp345
a(g103
L6500L
tp346
a(g105
L10229L
tp347
a(g107
L4515L
tp348
a(g109
L5791L
tp349
a(g111
L4621L
tp350
a(g113
L5218L
tp351
a(g115
L4556L
tp352
a(g117
L6448L
tp353
a(g119
L5896L
tp354
a(g121
L10963L
tp355
a(g123
L6436L
tp356
a(g125
L6494L
tp357
a(g127
L10950L
tp358
a(g129
L30984L
tp359
a(g131
L4542L
tp360
a(g133
L14001L
tp361
a(g135
L4439L
tp362
a(g137
L4586L
tp363
a(g139
L594L
tp364
a(g141
L6357L
tp365
a(g143
L4118L
tp366
a(g145
L677L
tp367
a(g147
L5302L
tp368
a(g149
L4366L
tp369
a(g151
L5471L
tp370
a(g153
L759L
tp371
a(g155
L4405L
tp372
a(g157
L28144L
tp373
a(g159
L4684L
tp374
a(g161
L5112L
tp375
a(g163
L13967L
tp376
a(g165
L10829L
tp377
a(g167
L4546L
tp378
a(g169
L22810L
tp379
a(g171
L4838L
tp380
a(g173
L10870L
tp381
a(g175
L5695L
tp382
a(g177
L3404L
tp383
a(g179
L10840L
tp384
a(g181
L3L
tp385
a(g183
L7644L
tp386
a(g185
L6169L
tp387
a(g187
L28251L
tp388
a(g189
L5582L
tp389
a(g191
L3518L
tp390
a(g193
L17965L
tp391
a(g195
L2364L
tp392
a(g197
L10905L
tp393
a(g199
L13274L
tp394
a(g201
L6389L
tp395
a(g203
L4475L
tp396
a(g205
L4538L
tp397
a(g207
L5658L
tp398
a(g209
L14427L
tp399
a(g211
L13644L
tp400
a(g213
L5161L
tp401
a(g215
L14078L
tp402
a(g217
L4408L
tp403
a(g219
L12827L
tp404
a(g221
L4423L
tp405
a(g223
L4368L
tp406
a(g225
L20900L
tp407
a(g227
L2991L
tp408
a(g229
L10860L
tp409
a(g231
L5662L
tp410
a(g233
L2835L
tp411
a(g235
L10929L
tp412
a(g237
L2841L
tp413
a(g239
L10876L
tp414
a(g241
L5712L
tp415
a(g243
L33137L
tp416
a(g245
L5705L
tp417
a(g247
L5682L
tp418
a(g249
L10886L
tp419
a(g251
L4550L
tp420
a(g253
L5114L
tp421
a(g255
L14396L
tp422
a(g257
L15840L
tp423
a(g259
L6358L
tp424
a(g261
L6747L
tp425
a(g263
L28040L
tp426
a(g265
L4583L
tp427
a(g267
L4609L
tp428
a(g269
L5126L
tp429
a(g271
L201L
tp430
a(g273
L10848L
tp431
a(g275
L20770L
tp432
a(g277
L4411L
tp433
a(g279
L21900L
tp434
a(g281
L12918L
tp435
a(g283
L7683L
tp436
a(g285
L15852L
tp437
a(g287
L33512L
tp438
a(g289
L10192L
tp439
a(g291
L4412L
tp440
a(g293
L14288L
tp441
aaI1115727
a.