(lp1
(lp2
(Vbiological_process
p3
I343900
tp4
a(Vcellular_component
p5
I115919
tp6
a(Vmolecular_function
p7
I95522
tp8
a(Vorganelle
p9
I30934
tp10
a(Vanatomical structure development
p11
I25603
tp12
a(Vtransport
p13
I19410
tp14
a(Vcellular nitrogen compound metabolic process
p15
I15976
tp16
a(Vsignal transduction
p17
I15842
tp18
a(Vprotein complex
p19
I13544
tp20
a(Vresponse to stress
p21
I12895
tp22
a(Vion binding
p23
I11822
tp24
a(Vsmall molecule metabolic process
p25
I10926
tp26
a(Vbiosynthetic process
p27
I10145
tp28
a(Vcellular protein modification process
p29
I9018
tp30
a(Vcatabolic process
p31
I7975
tp32
a(Vimmune system process
p33
I6973
tp34
a(Vcell differentiation
p35
I6173
tp36
a(Vcellular component assembly
p37
I5949
tp38
a(Vcytosol
p39
I5595
tp40
a(Venzyme binding
p41
I5179
tp42
a(Vlipid metabolic process
p43
I5118
tp44
a(Vlocomotion
p45
I4484
tp46
a(Vnucleolus
p47
I4386
tp48
a(Vvesicle-mediated transport
p49
I4241
tp50
a(Vplasma membrane
p51
I4166
tp52
a(Vanatomical structure formation involved in morphogenesis
p53
I4080
tp54
a(VDNA metabolic process
p55
I3909
tp56
a(Vtransmembrane transporter activity
p57
I3786
tp58
a(Vnucleus
p59
I3733
tp60
a(Vchromosome organization
p61
I3512
tp62
a(Vhomeostatic process
p63
I3508
tp64
a(VDNA binding
p65
I3395
tp66
a(Vmacromolecular complex assembly
p67
I3271
tp68
a(Vcell motility
p69
I3190
tp70
a(Vcytoplasm
p71
I3094
tp72
a(Vcytoskeletal protein binding
p73
I3019
tp74
a(Vcarbohydrate metabolic process
p75
I2971
tp76
a(Vnucleobase-containing compound catabolic process
p77
I2949
tp78
a(Vneurological system process
p79
I2946
tp80
a(Voxidoreductase activity
p81
I2918
tp82
a(Vtransmembrane transport
p83
I2866
tp84
a(Vcytoskeleton organization
p85
I2834
tp86
a(Vsignal transducer activity
p87
I2827
tp88
a(Vembryo development
p89
I2826
tp90
a(Vprotein maturation
p91
I2720
tp92
a(Vgrowth
p93
I2716
tp94
a(Vkinase activity
p95
I2649
tp96
a(Vprotein complex assembly
p97
I2599
tp98
a(VRNA binding
p99
I2375
tp100
a(Vlipid binding
p101
I2274
tp102
a(VGolgi apparatus
p103
I2227
tp104
a(Vcytoplasmic membrane-bounded vesicle
p105
I2136
tp106
a(Vmitochondrion
p107
I2088
tp108
a(Vcytoskeleton
p109
I2031
tp110
a(Vcellular amino acid metabolic process
p111
I1956
tp112
a(Vcell adhesion
p113
I1892
tp114
a(Vendoplasmic reticulum
p115
I1824
tp116
a(Vmembrane organization
p117
I1779
tp118
a(Vcell-cell signaling
p119
I1743
tp120
a(VATPase activity
p121
I1742
tp122
a(Vendosome
p123
I1729
tp124
a(Vpeptidase activity
p125
I1715
tp126
a(Vcell death
p127
I1715
tp128
a(Venzyme regulator activity
p129
I1665
tp130
a(Vligase activity
p131
I1654
tp132
a(Vcell proliferation
p133
I1637
tp134
a(Vnucleoplasm
p135
I1550
tp136
a(Vmicrotubule organizing center
p137
I1501
tp138
a(Vtranscription factor binding
p139
I1458
tp140
a(Vstructural molecule activity
p141
I1438
tp142
a(Vprotein binding transcription factor activity
p143
I1417
tp144
a(Vcell morphogenesis
p145
I1356
tp146
a(Vprotein targeting
p147
I1287
tp148
a(Vnucleic acid binding transcription factor activity
p149
I1287
tp150
a(Vsulfur compound metabolic process
p151
I1158
tp152
a(Vextracellular region
p153
I1092
tp154
a(VmRNA processing
p155
I990
tp156
a(Vextracellular space
p157
I981
tp158
a(Vsymbiosis, encompassing mutualism through parasitism
p159
I970
tp160
a(Vtransferase activity, transferring acyl groups
p161
I949
tp162
a(Vcofactor metabolic process
p163
I930
tp164
a(Vextracellular matrix organization
p165
I922
tp166
a(Vvacuole
p167
I916
tp168
a(Vgeneration of precursor metabolites and energy
p169
I887
tp170
a(Vcilium
p171
I882
tp172
a(Vphosphatase activity
p173
I820
tp174
a(Vcell cycle
p175
I738
tp176
a(Vnucleocytoplasmic transport
p177
I728
tp178
a(Vreproduction
p179
I725
tp180
a(Vtransferase activity, transferring glycosyl groups
p181
I721
tp182
a(Vcell junction organization
p183
I693
tp184
a(Vhelicase activity
p185
I687
tp186
a(Vaging
p187
I675
tp188
a(Vcell division
p189
I659
tp190
a(Vcirculatory system process
p191
I626
tp192
a(Vplastid
p193
I615
tp194
a(Vnuclease activity
p195
I579
tp196
a(Vdevelopmental maturation
p197
I579
tp198
a(Vmitochondrion organization
p199
I551
tp200
a(Vmethyltransferase activity
p201
I541
tp202
a(Vlysosome
p203
I526
tp204
a(Vcytoskeleton-dependent intracellular transport
p205
I522
tp206
a(Vribonucleoprotein complex assembly
p207
I521
tp208
a(Vlyase activity
p209
I513
tp210
a(Vchromosome
p211
I511
tp212
a(Vhistone binding
p213
I473
tp214
a(Vprotein folding
p215
I471
tp216
a(Vnuclear envelope
p217
I445
tp218
a(Vsecondary metabolic process
p219
I417
tp220
a(Vexternal encapsulating structure
p221
I408
tp222
a(Vcell wall
p223
I401
tp224
a(VmRNA binding
p225
I399
tp226
a(VGTPase activity
p227
I397
tp228
a(Vstructural constituent of ribosome
p229
I377
tp230
a(Vproteinaceous extracellular matrix
p231
I376
tp232
a(Visomerase activity
p233
I373
tp234
a(Vplasma membrane organization
p235
I366
tp236
a(Vnucleotidyltransferase activity
p237
I363
tp238
a(Vvacuolar transport
p239
I359
tp240
a(Vmitosis
p241
I347
tp242
a(Vchromosome segregation
p243
I324
tp244
a(Vcell wall organization or biogenesis
p245
I315
tp246
a(Vhydrolase activity, acting on carbon-nitrogen (but not peptide) bonds
p247
I313
tp248
a(Vhydrolase activity, acting on glycosyl bonds
p249
I295
tp250
a(VtRNA metabolic process
p251
I282
tp252
a(Vprotein binding, bridging
p253
I281
tp254
a(Vperoxisome
p255
I281
tp256
a(Vsmall conjugating protein binding
p257
I268
tp258
a(Vtranslation factor activity, nucleic acid binding
p259
I259
tp260
a(Vprotein transporter activity
p261
I249
tp262
a(Vunfolded protein binding
p263
I211
tp264
a(Vlipid particle
p265
I198
tp266
a(Vtranslation
p267
I191
tp268
a(Vribosome
p269
I180
tp270
a(Vnuclear chromosome
p271
I154
tp272
a(Vtransferase activity, transferring alkyl or aryl (other than methyl) groups
p273
I145
tp274
a(Vribosome biogenesis
p275
I137
tp276
a(Vintracellular
p277
I127
tp278
a(Vpigmentation
p279
I113
tp280
a(VrRNA binding
p281
I101
tp282
a(Vthylakoid
p283
I51
tp284
a(Vtransposition
p285
I41
tp286
a(Vnitrogen cycle metabolic process
p287
I31
tp288
a(Vphotosynthesis
p289
I10
tp290
a(Vcell
p291
I9
tp292
a(VRNA modification guide activity
p293
I1
tp294
aa(lp295
(g3
L6372L
tp296
a(g5
L4365L
tp297
a(g7
L2787L
tp298
a(g9
L21685L
tp299
a(g11
L26888L
tp300
a(g13
L5491L
tp301
a(g15
L18268L
tp302
a(g17
L5801L
tp303
a(g19
L21693L
tp304
a(g21
L5613L
tp305
a(g23
L21630L
tp306
a(g25
L22689L
tp307
a(g27
L7192L
tp308
a(g29
L5168L
tp309
a(g31
L7190L
tp310
a(g33
L1781L
tp311
a(g35
L13924L
tp312
a(g37
L13633L
tp313
a(g39
L4599L
tp314
a(g41
L12968L
tp315
a(g43
L5326L
tp316
a(g45
L20507L
tp317
a(g47
L4507L
tp318
a(g49
L10381L
tp319
a(g51
L4644L
tp320
a(g53
L26682L
tp321
a(g55
L4995L
tp322
a(g57
L13690L
tp323
a(g59
L4422L
tp324
a(g61
L28228L
tp325
a(g63
L21086L
tp326
a(g65
L2790L
tp327
a(g67
L31581L
tp328
a(g69
L26901L
tp329
a(g71
L4514L
tp330
a(g73
L6320L
tp331
a(g75
L4725L
tp332
a(g77
L18282L
tp333
a(g79
L27837L
tp334
a(g81
L10598L
tp335
a(g83
L29927L
tp336
a(g85
L5663L
tp337
a(g87
L3827L
tp338
a(g89
L7881L
tp339
a(g91
L28535L
tp340
a(g93
L20503L
tp341
a(g95
L10466L
tp342
a(g97
L5165L
tp343
a(g99
L2830L
tp344
a(g101
L6500L
tp345
a(g103
L4567L
tp346
a(g105
L10229L
tp347
a(g107
L4515L
tp348
a(g109
L4621L
tp349
a(g111
L5218L
tp350
a(g113
L5791L
tp351
a(g115
L4556L
tp352
a(g117
L30984L
tp353
a(g119
L5896L
tp354
a(g121
L10963L
tp355
a(g123
L4542L
tp356
a(g125
L6448L
tp357
a(g127
L6436L
tp358
a(g129
L14001L
tp359
a(g131
L10950L
tp360
a(g133
L6494L
tp361
a(g135
L4439L
tp362
a(g137
L4586L
tp363
a(g139
L6357L
tp364
a(g141
L4118L
tp365
a(g143
L677L
tp366
a(g145
L594L
tp367
a(g147
L5302L
tp368
a(g149
L759L
tp369
a(g151
L5471L
tp370
a(g153
L4366L
tp371
a(g155
L5112L
tp372
a(g157
L4405L
tp373
a(g159
L22810L
tp374
a(g161
L10829L
tp375
a(g163
L28144L
tp376
a(g165
L13967L
tp377
a(g167
L4546L
tp378
a(g169
L4838L
tp379
a(g171
L4684L
tp380
a(g173
L10870L
tp381
a(g175
L5695L
tp382
a(g177
L5582L
tp383
a(g179
L3L
tp384
a(g181
L10840L
tp385
a(g183
L17965L
tp386
a(g185
L3404L
tp387
a(g187
L6169L
tp388
a(g189
L28251L
tp389
a(g191
L2364L
tp390
a(g193
L7644L
tp391
a(g195
L3518L
tp392
a(g197
L13274L
tp393
a(g199
L5658L
tp394
a(g201
L6389L
tp395
a(g203
L4538L
tp396
a(g205
L14427L
tp397
a(g207
L13644L
tp398
a(g209
L10905L
tp399
a(g211
L4475L
tp400
a(g213
L20900L
tp401
a(g215
L5161L
tp402
a(g217
L4423L
tp403
a(g219
L12827L
tp404
a(g221
L14078L
tp405
a(g223
L4408L
tp406
a(g225
L2835L
tp407
a(g227
L2991L
tp408
a(g229
L2841L
tp409
a(g231
L4368L
tp410
a(g233
L10929L
tp411
a(g235
L5662L
tp412
a(g237
L10860L
tp413
a(g239
L5682L
tp414
a(g241
L5712L
tp415
a(g243
L5705L
tp416
a(g245
L33137L
tp417
a(g247
L10886L
tp418
a(g249
L10876L
tp419
a(g251
L5114L
tp420
a(g253
L14396L
tp421
a(g255
L4550L
tp422
a(g257
L15840L
tp423
a(g259
L6358L
tp424
a(g261
L6747L
tp425
a(g263
L28040L
tp426
a(g265
L4583L
tp427
a(g267
L5126L
tp428
a(g269
L4609L
tp429
a(g271
L201L
tp430
a(g273
L10848L
tp431
a(g275
L20770L
tp432
a(g277
L4411L
tp433
a(g279
L21900L
tp434
a(g281
L12918L
tp435
a(g283
L7683L
tp436
a(g285
L15852L
tp437
a(g287
L33512L
tp438
a(g289
L10192L
tp439
a(g291
L4412L
tp440
a(g293
L14288L
tp441
aaI943235
a.