(lp1
(lp2
(Vbiological_process
p3
I293353
tp4
a(Vcellular_component
p5
I98248
tp6
a(Vmolecular_function
p7
I81368
tp8
a(Vorganelle
p9
I25848
tp10
a(Vanatomical structure development
p11
I21904
tp12
a(Vtransport
p13
I16817
tp14
a(Vsignal transduction
p15
I13683
tp16
a(Vcellular nitrogen compound metabolic process
p17
I13447
tp18
a(Vprotein complex
p19
I11574
tp20
a(Vresponse to stress
p21
I10992
tp22
a(Vion binding
p23
I9971
tp24
a(Vsmall molecule metabolic process
p25
I9380
tp26
a(Vbiosynthetic process
p27
I8515
tp28
a(Vcellular protein modification process
p29
I7713
tp30
a(Vcatabolic process
p31
I6791
tp32
a(Vimmune system process
p33
I6107
tp34
a(Vcell differentiation
p35
I5215
tp36
a(Vcellular component assembly
p37
I5084
tp38
a(Vcytosol
p39
I4755
tp40
a(Venzyme binding
p41
I4474
tp42
a(Vlipid metabolic process
p43
I4303
tp44
a(Vlocomotion
p45
I3892
tp46
a(Vnucleolus
p47
I3637
tp48
a(Vvesicle-mediated transport
p49
I3587
tp50
a(Vplasma membrane
p51
I3573
tp52
a(Vanatomical structure formation involved in morphogenesis
p53
I3554
tp54
a(VDNA metabolic process
p55
I3333
tp56
a(Vtransmembrane transporter activity
p57
I3315
tp58
a(Vnucleus
p59
I3171
tp60
a(Vhomeostatic process
p61
I3007
tp62
a(Vchromosome organization
p63
I2945
tp64
a(VDNA binding
p65
I2922
tp66
a(Vmacromolecular complex assembly
p67
I2891
tp68
a(Vcell motility
p69
I2800
tp70
a(Vcarbohydrate metabolic process
p71
I2717
tp72
a(Vcytoplasm
p73
I2565
tp74
a(Vtransmembrane transport
p75
I2551
tp76
a(Vcytoskeletal protein binding
p77
I2499
tp78
a(Vnucleobase-containing compound catabolic process
p79
I2497
tp80
a(Vneurological system process
p81
I2486
tp82
a(Vcytoskeleton organization
p83
I2431
tp84
a(Vembryo development
p85
I2412
tp86
a(Vsignal transducer activity
p87
I2400
tp88
a(Voxidoreductase activity
p89
I2370
tp90
a(Vgrowth
p91
I2360
tp92
a(Vprotein maturation
p93
I2359
tp94
a(Vprotein complex assembly
p95
I2279
tp96
a(Vkinase activity
p97
I2258
tp98
a(VRNA binding
p99
I1984
tp100
a(VGolgi apparatus
p101
I1866
tp102
a(Vlipid binding
p103
I1812
tp104
a(Vcytoplasmic membrane-bounded vesicle
p105
I1809
tp106
a(Vmitochondrion
p107
I1756
tp108
a(Vcellular amino acid metabolic process
p109
I1705
tp110
a(Vcytoskeleton
p111
I1682
tp112
a(Vcell adhesion
p113
I1647
tp114
a(VATPase activity
p115
I1579
tp116
a(Vmembrane organization
p117
I1568
tp118
a(Vendoplasmic reticulum
p119
I1522
tp120
a(Vpeptidase activity
p121
I1474
tp122
a(Vcell-cell signaling
p123
I1462
tp124
a(Vligase activity
p125
I1437
tp126
a(Vendosome
p127
I1433
tp128
a(Venzyme regulator activity
p129
I1429
tp130
a(Vcell death
p131
I1413
tp132
a(Vcell proliferation
p133
I1404
tp134
a(Vnucleoplasm
p135
I1287
tp136
a(Vtranscription factor binding
p137
I1264
tp138
a(Vstructural molecule activity
p139
I1256
tp140
a(Vmicrotubule organizing center
p141
I1224
tp142
a(Vprotein binding transcription factor activity
p143
I1212
tp144
a(Vcell morphogenesis
p145
I1205
tp146
a(Vprotein targeting
p147
I1049
tp148
a(Vnucleic acid binding transcription factor activity
p149
I1027
tp150
a(Vsulfur compound metabolic process
p151
I1004
tp152
a(Vextracellular region
p153
I938
tp154
a(Vsymbiosis, encompassing mutualism through parasitism
p155
I849
tp156
a(Vextracellular space
p157
I846
tp158
a(VmRNA processing
p159
I835
tp160
a(Vextracellular matrix organization
p161
I802
tp162
a(Vcofactor metabolic process
p163
I791
tp164
a(Vtransferase activity, transferring acyl groups
p165
I784
tp166
a(Vgeneration of precursor metabolites and energy
p167
I771
tp168
a(Vvacuole
p169
I768
tp170
a(Vcilium
p171
I757
tp172
a(Vphosphatase activity
p173
I696
tp174
a(Vtransferase activity, transferring glycosyl groups
p175
I635
tp176
a(Vnucleocytoplasmic transport
p177
I634
tp178
a(Vhelicase activity
p179
I625
tp180
a(Vreproduction
p181
I607
tp182
a(Vcell cycle
p183
I587
tp184
a(Vcell junction organization
p185
I585
tp186
a(Vaging
p187
I562
tp188
a(Vcell division
p189
I525
tp190
a(Vplastid
p191
I515
tp192
a(Vdevelopmental maturation
p193
I499
tp194
a(Vcirculatory system process
p195
I497
tp196
a(Vmitochondrion organization
p197
I489
tp198
a(Vribonucleoprotein complex assembly
p199
I474
tp200
a(Vnuclease activity
p201
I472
tp202
a(Vlyase activity
p203
I460
tp204
a(Vmethyltransferase activity
p205
I449
tp206
a(Vcytoskeleton-dependent intracellular transport
p207
I442
tp208
a(Vlysosome
p209
I439
tp210
a(Vprotein folding
p211
I422
tp212
a(Vchromosome
p213
I419
tp214
a(Vhistone binding
p215
I394
tp216
a(Vnuclear envelope
p217
I372
tp218
a(Vsecondary metabolic process
p219
I355
tp220
a(VmRNA binding
p221
I339
tp222
a(VGTPase activity
p223
I333
tp224
a(Vplasma membrane organization
p225
I328
tp226
a(Vproteinaceous extracellular matrix
p227
I325
tp228
a(Vexternal encapsulating structure
p229
I324
tp230
a(Vcell wall
p231
I318
tp232
a(Vnucleotidyltransferase activity
p233
I317
tp234
a(Visomerase activity
p235
I313
tp236
a(Vvacuolar transport
p237
I293
tp238
a(Vstructural constituent of ribosome
p239
I285
tp240
a(Vhydrolase activity, acting on glycosyl bonds
p241
I280
tp242
a(Vchromosome segregation
p243
I278
tp244
a(Vmitosis
p245
I267
tp246
a(Vhydrolase activity, acting on carbon-nitrogen (but not peptide) bonds
p247
I265
tp248
a(Vcell wall organization or biogenesis
p249
I259
tp250
a(Vsmall conjugating protein binding
p251
I244
tp252
a(Vprotein binding, bridging
p253
I239
tp254
a(VtRNA metabolic process
p255
I236
tp256
a(Vperoxisome
p257
I233
tp258
a(Vprotein transporter activity
p259
I218
tp260
a(Vtranslation factor activity, nucleic acid binding
p261
I209
tp262
a(Vunfolded protein binding
p263
I193
tp264
a(Vlipid particle
p265
I169
tp266
a(Vtranslation
p267
I156
tp268
a(Vribosome
p269
I144
tp270
a(Vnuclear chromosome
p271
I126
tp272
a(Vintracellular
p273
I116
tp274
a(Vtransferase activity, transferring alkyl or aryl (other than methyl) groups
p275
I114
tp276
a(Vribosome biogenesis
p277
I100
tp278
a(Vpigmentation
p279
I96
tp280
a(VrRNA binding
p281
I76
tp282
a(Vthylakoid
p283
I42
tp284
a(Vtransposition
p285
I34
tp286
a(Vnitrogen cycle metabolic process
p287
I34
tp288
a(Vcell
p289
I11
tp290
a(Vphotosynthesis
p291
I9
tp292
a(VRNA modification guide activity
p293
I1
tp294
aa(lp295
(g3
L6372L
tp296
a(g5
L4365L
tp297
a(g7
L2787L
tp298
a(g9
L21685L
tp299
a(g11
L26888L
tp300
a(g13
L5491L
tp301
a(g15
L5801L
tp302
a(g17
L18268L
tp303
a(g19
L21693L
tp304
a(g21
L5613L
tp305
a(g23
L21630L
tp306
a(g25
L22689L
tp307
a(g27
L7192L
tp308
a(g29
L5168L
tp309
a(g31
L7190L
tp310
a(g33
L1781L
tp311
a(g35
L13924L
tp312
a(g37
L13633L
tp313
a(g39
L4599L
tp314
a(g41
L12968L
tp315
a(g43
L5326L
tp316
a(g45
L20507L
tp317
a(g47
L4507L
tp318
a(g49
L10381L
tp319
a(g51
L4644L
tp320
a(g53
L26682L
tp321
a(g55
L4995L
tp322
a(g57
L13690L
tp323
a(g59
L4422L
tp324
a(g61
L21086L
tp325
a(g63
L28228L
tp326
a(g65
L2790L
tp327
a(g67
L31581L
tp328
a(g69
L26901L
tp329
a(g71
L4725L
tp330
a(g73
L4514L
tp331
a(g75
L29927L
tp332
a(g77
L6320L
tp333
a(g79
L18282L
tp334
a(g81
L27837L
tp335
a(g83
L5663L
tp336
a(g85
L7881L
tp337
a(g87
L3827L
tp338
a(g89
L10598L
tp339
a(g91
L20503L
tp340
a(g93
L28535L
tp341
a(g95
L5165L
tp342
a(g97
L10466L
tp343
a(g99
L2830L
tp344
a(g101
L4567L
tp345
a(g103
L6500L
tp346
a(g105
L10229L
tp347
a(g107
L4515L
tp348
a(g109
L5218L
tp349
a(g111
L4621L
tp350
a(g113
L5791L
tp351
a(g115
L10963L
tp352
a(g117
L30984L
tp353
a(g119
L4556L
tp354
a(g121
L6448L
tp355
a(g123
L5896L
tp356
a(g125
L10950L
tp357
a(g127
L4542L
tp358
a(g129
L14001L
tp359
a(g131
L6436L
tp360
a(g133
L6494L
tp361
a(g135
L4439L
tp362
a(g137
L6357L
tp363
a(g139
L4118L
tp364
a(g141
L4586L
tp365
a(g143
L677L
tp366
a(g145
L594L
tp367
a(g147
L5302L
tp368
a(g149
L759L
tp369
a(g151
L5471L
tp370
a(g153
L4366L
tp371
a(g155
L22810L
tp372
a(g157
L4405L
tp373
a(g159
L5112L
tp374
a(g161
L13967L
tp375
a(g163
L28144L
tp376
a(g165
L10829L
tp377
a(g167
L4838L
tp378
a(g169
L4546L
tp379
a(g171
L4684L
tp380
a(g173
L10870L
tp381
a(g175
L10840L
tp382
a(g177
L5582L
tp383
a(g179
L3404L
tp384
a(g181
L3L
tp385
a(g183
L5695L
tp386
a(g185
L17965L
tp387
a(g187
L6169L
tp388
a(g189
L28251L
tp389
a(g191
L7644L
tp390
a(g193
L13274L
tp391
a(g195
L2364L
tp392
a(g197
L5658L
tp393
a(g199
L13644L
tp394
a(g201
L3518L
tp395
a(g203
L10905L
tp396
a(g205
L6389L
tp397
a(g207
L14427L
tp398
a(g209
L4538L
tp399
a(g211
L5161L
tp400
a(g213
L4475L
tp401
a(g215
L20900L
tp402
a(g217
L4423L
tp403
a(g219
L12827L
tp404
a(g221
L2835L
tp405
a(g223
L2991L
tp406
a(g225
L5662L
tp407
a(g227
L4368L
tp408
a(g229
L14078L
tp409
a(g231
L4408L
tp410
a(g233
L10860L
tp411
a(g235
L10929L
tp412
a(g237
L5682L
tp413
a(g239
L2841L
tp414
a(g241
L10876L
tp415
a(g243
L5705L
tp416
a(g245
L5712L
tp417
a(g247
L10886L
tp418
a(g249
L33137L
tp419
a(g251
L15840L
tp420
a(g253
L14396L
tp421
a(g255
L5114L
tp422
a(g257
L4550L
tp423
a(g259
L6747L
tp424
a(g261
L6358L
tp425
a(g263
L28040L
tp426
a(g265
L4583L
tp427
a(g267
L5126L
tp428
a(g269
L4609L
tp429
a(g271
L201L
tp430
a(g273
L4411L
tp431
a(g275
L10848L
tp432
a(g277
L20770L
tp433
a(g279
L21900L
tp434
a(g281
L12918L
tp435
a(g283
L7683L
tp436
a(g285
L15852L
tp437
a(g287
L33512L
tp438
a(g289
L4412L
tp439
a(g291
L10192L
tp440
a(g293
L14288L
tp441
aaI803482
a.