(lp1
(lp2
(Vbiological_process
p3
I342377
tp4
a(Vcellular_component
p5
I111837
tp6
a(Vmolecular_function
p7
I91344
tp8
a(Vorganelle
p9
I29310
tp10
a(Vanatomical structure development
p11
I25987
tp12
a(Vtransport
p13
I19753
tp14
a(Vsignal transduction
p15
I15339
tp16
a(Vcellular nitrogen compound metabolic process
p17
I14839
tp18
a(Vprotein complex
p19
I12260
tp20
a(Vresponse to stress
p21
I12226
tp22
a(Vion binding
p23
I11071
tp24
a(Vsmall molecule metabolic process
p25
I10402
tp26
a(Vbiosynthetic process
p27
I9818
tp28
a(Vcellular protein modification process
p29
I8301
tp30
a(Vcatabolic process
p31
I7285
tp32
a(Vimmune system process
p33
I6641
tp34
a(Vcell differentiation
p35
I6049
tp36
a(Vcellular component assembly
p37
I5444
tp38
a(Vcytosol
p39
I4925
tp40
a(Vlipid metabolic process
p41
I4739
tp42
a(Venzyme binding
p43
I4656
tp44
a(Vtransmembrane transporter activity
p45
I4284
tp46
a(Vlocomotion
p47
I4218
tp48
a(Vplasma membrane
p49
I4141
tp50
a(Vanatomical structure formation involved in morphogenesis
p51
I4043
tp52
a(Vvesicle-mediated transport
p53
I3953
tp54
a(Vnucleolus
p55
I3818
tp56
a(VDNA metabolic process
p57
I3624
tp58
a(Vnucleus
p59
I3588
tp60
a(Vsignal transducer activity
p61
I3569
tp62
a(Vhomeostatic process
p63
I3378
tp64
a(VDNA binding
p65
I3154
tp66
a(Vchromosome organization
p67
I3153
tp68
a(Vtransmembrane transport
p69
I3061
tp70
a(Vcytoplasm
p71
I3052
tp72
a(Vmacromolecular complex assembly
p73
I2993
tp74
a(Vcell motility
p75
I2968
tp76
a(Vneurological system process
p77
I2913
tp78
a(Vcarbohydrate metabolic process
p79
I2814
tp80
a(Voxidoreductase activity
p81
I2696
tp82
a(Vgrowth
p83
I2670
tp84
a(Vembryo development
p85
I2659
tp86
a(Vnucleobase-containing compound catabolic process
p87
I2604
tp88
a(Vcytoskeletal protein binding
p89
I2582
tp90
a(Vprotein maturation
p91
I2518
tp92
a(Vcytoskeleton organization
p93
I2479
tp94
a(Vprotein complex assembly
p95
I2415
tp96
a(Vkinase activity
p97
I2374
tp98
a(Vcell-cell signaling
p99
I2136
tp100
a(Vlipid binding
p101
I2102
tp102
a(Vcytoplasmic membrane-bounded vesicle
p103
I2074
tp104
a(VRNA binding
p105
I2065
tp106
a(VGolgi apparatus
p107
I1936
tp108
a(Vmitochondrion
p109
I1893
tp110
a(Vcell adhesion
p111
I1843
tp112
a(Vcellular amino acid metabolic process
p113
I1842
tp114
a(Vcytoskeleton
p115
I1828
tp116
a(Vpeptidase activity
p117
I1723
tp118
a(Vendoplasmic reticulum
p119
I1700
tp120
a(Vmembrane organization
p121
I1606
tp122
a(Vcell proliferation
p123
I1585
tp124
a(Vendosome
p125
I1554
tp126
a(Vcell death
p127
I1550
tp128
a(VATPase activity
p129
I1514
tp130
a(Vligase activity
p131
I1510
tp132
a(Venzyme regulator activity
p133
I1460
tp134
a(Vcell morphogenesis
p135
I1375
tp136
a(Vnucleoplasm
p137
I1366
tp138
a(Vmicrotubule organizing center
p139
I1338
tp140
a(Vtranscription factor binding
p141
I1338
tp142
a(Vprotein binding transcription factor activity
p143
I1294
tp144
a(Vstructural molecule activity
p145
I1201
tp146
a(Vextracellular region
p147
I1175
tp148
a(Vnucleic acid binding transcription factor activity
p149
I1132
tp150
a(Vsulfur compound metabolic process
p151
I1109
tp152
a(Vprotein targeting
p153
I1080
tp154
a(Vextracellular space
p155
I967
tp156
a(Vcirculatory system process
p157
I894
tp158
a(Vextracellular matrix organization
p159
I883
tp160
a(Vvacuole
p161
I879
tp162
a(Vtransferase activity, transferring acyl groups
p163
I869
tp164
a(Vsymbiosis, encompassing mutualism through parasitism
p165
I867
tp166
a(Vcilium
p167
I863
tp168
a(Vcofactor metabolic process
p169
I861
tp170
a(VmRNA processing
p171
I860
tp172
a(Vphosphatase activity
p173
I828
tp174
a(Vtransferase activity, transferring glycosyl groups
p175
I760
tp176
a(Vgeneration of precursor metabolites and energy
p177
I756
tp178
a(Vcell cycle
p179
I708
tp180
a(Vreproduction
p181
I666
tp182
a(Vnucleocytoplasmic transport
p183
I651
tp184
a(Vhelicase activity
p185
I640
tp186
a(Vcell junction organization
p187
I640
tp188
a(Vcell division
p189
I610
tp190
a(Vaging
p191
I580
tp192
a(Vnuclease activity
p193
I560
tp194
a(Vplastid
p195
I547
tp196
a(Vmethyltransferase activity
p197
I532
tp198
a(Vlyase activity
p199
I532
tp200
a(Vdevelopmental maturation
p201
I516
tp202
a(Vlysosome
p203
I513
tp204
a(Vmitochondrion organization
p205
I490
tp206
a(Vchromosome
p207
I468
tp208
a(Vcytoskeleton-dependent intracellular transport
p209
I456
tp210
a(Vribonucleoprotein complex assembly
p211
I451
tp212
a(Vproteinaceous extracellular matrix
p213
I427
tp214
a(Vprotein folding
p215
I426
tp216
a(Vhistone binding
p217
I406
tp218
a(Vnuclear envelope
p219
I400
tp220
a(VGTPase activity
p221
I397
tp222
a(Vsecondary metabolic process
p223
I371
tp224
a(Visomerase activity
p225
I355
tp226
a(Vplasma membrane organization
p227
I353
tp228
a(Vexternal encapsulating structure
p229
I349
tp230
a(VmRNA binding
p231
I346
tp232
a(Vnucleotidyltransferase activity
p233
I345
tp234
a(Vcell wall
p235
I343
tp236
a(Vmitosis
p237
I318
tp238
a(Vvacuolar transport
p239
I313
tp240
a(Vhydrolase activity, acting on carbon-nitrogen (but not peptide) bonds
p241
I303
tp242
a(Vchromosome segregation
p243
I301
tp244
a(Vhydrolase activity, acting on glycosyl bonds
p245
I298
tp246
a(Vstructural constituent of ribosome
p247
I295
tp248
a(Vcell wall organization or biogenesis
p249
I273
tp250
a(Vperoxisome
p251
I267
tp252
a(VtRNA metabolic process
p253
I252
tp254
a(Vsmall conjugating protein binding
p255
I232
tp256
a(Vprotein transporter activity
p257
I230
tp258
a(Vprotein binding, bridging
p259
I217
tp260
a(Vtranslation factor activity, nucleic acid binding
p261
I214
tp262
a(Vunfolded protein binding
p263
I189
tp264
a(Vlipid particle
p265
I188
tp266
a(Vtranslation
p267
I184
tp268
a(Vribosome
p269
I169
tp270
a(Vtransferase activity, transferring alkyl or aryl (other than methyl) groups
p271
I141
tp272
a(Vnuclear chromosome
p273
I138
tp274
a(Vintracellular
p275
I133
tp276
a(Vribosome biogenesis
p277
I112
tp278
a(Vpigmentation
p279
I109
tp280
a(VrRNA binding
p281
I93
tp282
a(Vthylakoid
p283
I49
tp284
a(Vtransposition
p285
I36
tp286
a(Vnitrogen cycle metabolic process
p287
I32
tp288
a(Vcell
p289
I12
tp290
a(Vphotosynthesis
p291
I8
tp292
a(VRNA modification guide activity
p293
I2
tp294
aa(lp295
(g3
L6372L
tp296
a(g5
L4365L
tp297
a(g7
L2787L
tp298
a(g9
L21685L
tp299
a(g11
L26888L
tp300
a(g13
L5491L
tp301
a(g15
L5801L
tp302
a(g17
L18268L
tp303
a(g19
L21693L
tp304
a(g21
L5613L
tp305
a(g23
L21630L
tp306
a(g25
L22689L
tp307
a(g27
L7192L
tp308
a(g29
L5168L
tp309
a(g31
L7190L
tp310
a(g33
L1781L
tp311
a(g35
L13924L
tp312
a(g37
L13633L
tp313
a(g39
L4599L
tp314
a(g41
L5326L
tp315
a(g43
L12968L
tp316
a(g45
L13690L
tp317
a(g47
L20507L
tp318
a(g49
L4644L
tp319
a(g51
L26682L
tp320
a(g53
L10381L
tp321
a(g55
L4507L
tp322
a(g57
L4995L
tp323
a(g59
L4422L
tp324
a(g61
L3827L
tp325
a(g63
L21086L
tp326
a(g65
L2790L
tp327
a(g67
L28228L
tp328
a(g69
L29927L
tp329
a(g71
L4514L
tp330
a(g73
L31581L
tp331
a(g75
L26901L
tp332
a(g77
L27837L
tp333
a(g79
L4725L
tp334
a(g81
L10598L
tp335
a(g83
L20503L
tp336
a(g85
L7881L
tp337
a(g87
L18282L
tp338
a(g89
L6320L
tp339
a(g91
L28535L
tp340
a(g93
L5663L
tp341
a(g95
L5165L
tp342
a(g97
L10466L
tp343
a(g99
L5896L
tp344
a(g101
L6500L
tp345
a(g103
L10229L
tp346
a(g105
L2830L
tp347
a(g107
L4567L
tp348
a(g109
L4515L
tp349
a(g111
L5791L
tp350
a(g113
L5218L
tp351
a(g115
L4621L
tp352
a(g117
L6448L
tp353
a(g119
L4556L
tp354
a(g121
L30984L
tp355
a(g123
L6494L
tp356
a(g125
L4542L
tp357
a(g127
L6436L
tp358
a(g129
L10963L
tp359
a(g131
L10950L
tp360
a(g133
L14001L
tp361
a(g135
L594L
tp362
a(g137
L4439L
tp363
a(g139
L4586L
tp364
a(g141
L6357L
tp365
a(g143
L677L
tp366
a(g145
L4118L
tp367
a(g147
L4366L
tp368
a(g149
L759L
tp369
a(g151
L5471L
tp370
a(g153
L5302L
tp371
a(g155
L4405L
tp372
a(g157
L2364L
tp373
a(g159
L13967L
tp374
a(g161
L4546L
tp375
a(g163
L10829L
tp376
a(g165
L22810L
tp377
a(g167
L4684L
tp378
a(g169
L28144L
tp379
a(g171
L5112L
tp380
a(g173
L10870L
tp381
a(g175
L10840L
tp382
a(g177
L4838L
tp383
a(g179
L5695L
tp384
a(g181
L3L
tp385
a(g183
L5582L
tp386
a(g185
L3404L
tp387
a(g187
L17965L
tp388
a(g189
L28251L
tp389
a(g191
L6169L
tp390
a(g193
L3518L
tp391
a(g195
L7644L
tp392
a(g197
L6389L
tp393
a(g199
L10905L
tp394
a(g201
L13274L
tp395
a(g203
L4538L
tp396
a(g205
L5658L
tp397
a(g207
L4475L
tp398
a(g209
L14427L
tp399
a(g211
L13644L
tp400
a(g213
L4368L
tp401
a(g215
L5161L
tp402
a(g217
L20900L
tp403
a(g219
L4423L
tp404
a(g221
L2991L
tp405
a(g223
L12827L
tp406
a(g225
L10929L
tp407
a(g227
L5662L
tp408
a(g229
L14078L
tp409
a(g231
L2835L
tp410
a(g233
L10860L
tp411
a(g235
L4408L
tp412
a(g237
L5712L
tp413
a(g239
L5682L
tp414
a(g241
L10886L
tp415
a(g243
L5705L
tp416
a(g245
L10876L
tp417
a(g247
L2841L
tp418
a(g249
L33137L
tp419
a(g251
L4550L
tp420
a(g253
L5114L
tp421
a(g255
L15840L
tp422
a(g257
L6747L
tp423
a(g259
L14396L
tp424
a(g261
L6358L
tp425
a(g263
L28040L
tp426
a(g265
L4583L
tp427
a(g267
L5126L
tp428
a(g269
L4609L
tp429
a(g271
L10848L
tp430
a(g273
L201L
tp431
a(g275
L4411L
tp432
a(g277
L20770L
tp433
a(g279
L21900L
tp434
a(g281
L12918L
tp435
a(g283
L7683L
tp436
a(g285
L15852L
tp437
a(g287
L33512L
tp438
a(g289
L4412L
tp439
a(g291
L10192L
tp440
a(g293
L14288L
tp441
aaI914126
a.