(lp1
(lp2
(Vbiological_process
p3
I275279
tp4
a(Vcellular_component
p5
I93311
tp6
a(Vmolecular_function
p7
I76749
tp8
a(Vorganelle
p9
I24932
tp10
a(Vanatomical structure development
p11
I21066
tp12
a(Vtransport
p13
I15650
tp14
a(Vcellular nitrogen compound metabolic process
p15
I12917
tp16
a(Vsignal transduction
p17
I12875
tp18
a(Vprotein complex
p19
I10486
tp20
a(Vresponse to stress
p21
I10029
tp22
a(Vion binding
p23
I8837
tp24
a(Vsmall molecule metabolic process
p25
I8486
tp26
a(Vbiosynthetic process
p27
I7981
tp28
a(Vcellular protein modification process
p29
I7245
tp30
a(Vcatabolic process
p31
I6112
tp32
a(Vimmune system process
p33
I5828
tp34
a(Vcell differentiation
p35
I4957
tp36
a(Vcellular component assembly
p37
I4465
tp38
a(Vcytosol
p39
I4269
tp40
a(Vlipid metabolic process
p41
I3944
tp42
a(Venzyme binding
p43
I3932
tp44
a(Vnucleolus
p45
I3483
tp46
a(Vplasma membrane
p47
I3438
tp48
a(Vlocomotion
p49
I3383
tp50
a(Vnucleus
p51
I3244
tp52
a(Vanatomical structure formation involved in morphogenesis
p53
I3226
tp54
a(VDNA metabolic process
p55
I3226
tp56
a(Vvesicle-mediated transport
p57
I3199
tp58
a(Vtransmembrane transporter activity
p59
I3179
tp60
a(Vcytoplasm
p61
I2947
tp62
a(VDNA binding
p63
I2812
tp64
a(Vhomeostatic process
p65
I2685
tp66
a(Vchromosome organization
p67
I2639
tp68
a(Vmacromolecular complex assembly
p69
I2524
tp70
a(Vtransmembrane transport
p71
I2449
tp72
a(Vsignal transducer activity
p73
I2429
tp74
a(Vcell motility
p75
I2385
tp76
a(Vnucleobase-containing compound catabolic process
p77
I2337
tp78
a(Vcarbohydrate metabolic process
p79
I2323
tp80
a(Voxidoreductase activity
p81
I2308
tp82
a(Vcytoskeletal protein binding
p83
I2221
tp84
a(Vembryo development
p85
I2200
tp86
a(Vprotein maturation
p87
I2174
tp88
a(Vkinase activity
p89
I2132
tp90
a(Vcytoskeleton organization
p91
I2097
tp92
a(Vneurological system process
p93
I2097
tp94
a(Vgrowth
p95
I2016
tp96
a(Vprotein complex assembly
p97
I2008
tp98
a(VRNA binding
p99
I1896
tp100
a(VGolgi apparatus
p101
I1694
tp102
a(Vmitochondrion
p103
I1644
tp104
a(Vcytoskeleton
p105
I1608
tp106
a(Vlipid binding
p107
I1595
tp108
a(Vcytoplasmic membrane-bounded vesicle
p109
I1571
tp110
a(Vcellular amino acid metabolic process
p111
I1500
tp112
a(Vendoplasmic reticulum
p113
I1443
tp114
a(Vcell-cell signaling
p115
I1437
tp116
a(Vcell adhesion
p117
I1409
tp118
a(Vpeptidase activity
p119
I1389
tp120
a(Vligase activity
p121
I1386
tp122
a(Vmembrane organization
p123
I1363
tp124
a(VATPase activity
p125
I1334
tp126
a(Vcell proliferation
p127
I1317
tp128
a(Vendosome
p129
I1316
tp130
a(Vcell death
p131
I1314
tp132
a(Venzyme regulator activity
p133
I1236
tp134
a(Vnucleoplasm
p135
I1236
tp136
a(Vtranscription factor binding
p137
I1149
tp138
a(Vmicrotubule organizing center
p139
I1126
tp140
a(Vnucleic acid binding transcription factor activity
p141
I1082
tp142
a(Vprotein binding transcription factor activity
p143
I1079
tp144
a(Vstructural molecule activity
p145
I1061
tp146
a(Vcell morphogenesis
p147
I1036
tp148
a(Vextracellular region
p149
I932
tp150
a(Vprotein targeting
p151
I928
tp152
a(Vsulfur compound metabolic process
p153
I879
tp154
a(Vsymbiosis, encompassing mutualism through parasitism
p155
I777
tp156
a(Vextracellular space
p157
I774
tp158
a(VmRNA processing
p159
I767
tp160
a(Vtransferase activity, transferring acyl groups
p161
I728
tp162
a(Vcofactor metabolic process
p163
I725
tp164
a(Vphosphatase activity
p165
I694
tp166
a(Vextracellular matrix organization
p167
I694
tp168
a(Vcilium
p169
I676
tp170
a(Vvacuole
p171
I673
tp172
a(Vgeneration of precursor metabolites and energy
p173
I660
tp174
a(Vtransferase activity, transferring glycosyl groups
p175
I645
tp176
a(Vcell cycle
p177
I594
tp178
a(Vhelicase activity
p179
I592
tp180
a(Vnucleocytoplasmic transport
p181
I568
tp182
a(Vreproduction
p183
I556
tp184
a(Vcell junction organization
p185
I510
tp186
a(Vnuclease activity
p187
I508
tp188
a(Vcell division
p189
I482
tp190
a(Vcirculatory system process
p191
I476
tp192
a(Vaging
p193
I466
tp194
a(Vmethyltransferase activity
p195
I453
tp196
a(Vmitochondrion organization
p197
I445
tp198
a(Vdevelopmental maturation
p199
I436
tp200
a(Vplastid
p201
I408
tp202
a(Vribonucleoprotein complex assembly
p203
I403
tp204
a(Vlyase activity
p205
I402
tp206
a(Vlysosome
p207
I397
tp208
a(Vchromosome
p209
I392
tp210
a(Vprotein folding
p211
I382
tp212
a(Vcytoskeleton-dependent intracellular transport
p213
I376
tp214
a(Vhistone binding
p215
I362
tp216
a(Vplasma membrane organization
p217
I346
tp218
a(VGTPase activity
p219
I344
tp220
a(Vnucleotidyltransferase activity
p221
I311
tp222
a(Vnuclear envelope
p223
I308
tp224
a(VmRNA binding
p225
I302
tp226
a(Vsecondary metabolic process
p227
I298
tp228
a(Vproteinaceous extracellular matrix
p229
I291
tp230
a(Visomerase activity
p231
I277
tp232
a(Vstructural constituent of ribosome
p233
I267
tp234
a(Vhydrolase activity, acting on carbon-nitrogen (but not peptide) bonds
p235
I263
tp236
a(Vvacuolar transport
p237
I257
tp238
a(Vmitosis
p239
I256
tp240
a(Vchromosome segregation
p241
I255
tp242
a(Vexternal encapsulating structure
p243
I250
tp244
a(Vcell wall
p245
I245
tp246
a(Vhydrolase activity, acting on glycosyl bonds
p247
I243
tp248
a(Vperoxisome
p249
I211
tp250
a(Vprotein binding, bridging
p251
I207
tp252
a(Vcell wall organization or biogenesis
p253
I204
tp254
a(VtRNA metabolic process
p255
I202
tp256
a(Vsmall conjugating protein binding
p257
I196
tp258
a(Vprotein transporter activity
p259
I193
tp260
a(Vtranslation factor activity, nucleic acid binding
p261
I187
tp262
a(Vtranslation
p263
I166
tp264
a(Vunfolded protein binding
p265
I164
tp266
a(Vintracellular
p267
I161
tp268
a(Vlipid particle
p269
I139
tp270
a(Vribosome
p271
I135
tp272
a(Vtransferase activity, transferring alkyl or aryl (other than methyl) groups
p273
I123
tp274
a(Vnuclear chromosome
p275
I117
tp276
a(Vribosome biogenesis
p277
I97
tp278
a(Vpigmentation
p279
I86
tp280
a(VrRNA binding
p281
I83
tp282
a(Vtransposition
p283
I44
tp284
a(Vthylakoid
p285
I37
tp286
a(Vnitrogen cycle metabolic process
p287
I22
tp288
a(Vcell
p289
I10
tp290
a(Vphotosynthesis
p291
I9
tp292
a(VRNA modification guide activity
p293
I1
tp294
aa(lp295
(g3
L6372L
tp296
a(g5
L4365L
tp297
a(g7
L2787L
tp298
a(g9
L21685L
tp299
a(g11
L26888L
tp300
a(g13
L5491L
tp301
a(g15
L18268L
tp302
a(g17
L5801L
tp303
a(g19
L21693L
tp304
a(g21
L5613L
tp305
a(g23
L21630L
tp306
a(g25
L22689L
tp307
a(g27
L7192L
tp308
a(g29
L5168L
tp309
a(g31
L7190L
tp310
a(g33
L1781L
tp311
a(g35
L13924L
tp312
a(g37
L13633L
tp313
a(g39
L4599L
tp314
a(g41
L5326L
tp315
a(g43
L12968L
tp316
a(g45
L4507L
tp317
a(g47
L4644L
tp318
a(g49
L20507L
tp319
a(g51
L4422L
tp320
a(g53
L26682L
tp321
a(g55
L4995L
tp322
a(g57
L10381L
tp323
a(g59
L13690L
tp324
a(g61
L4514L
tp325
a(g63
L2790L
tp326
a(g65
L21086L
tp327
a(g67
L28228L
tp328
a(g69
L31581L
tp329
a(g71
L29927L
tp330
a(g73
L3827L
tp331
a(g75
L26901L
tp332
a(g77
L18282L
tp333
a(g79
L4725L
tp334
a(g81
L10598L
tp335
a(g83
L6320L
tp336
a(g85
L7881L
tp337
a(g87
L28535L
tp338
a(g89
L10466L
tp339
a(g91
L5663L
tp340
a(g93
L27837L
tp341
a(g95
L20503L
tp342
a(g97
L5165L
tp343
a(g99
L2830L
tp344
a(g101
L4567L
tp345
a(g103
L4515L
tp346
a(g105
L4621L
tp347
a(g107
L6500L
tp348
a(g109
L10229L
tp349
a(g111
L5218L
tp350
a(g113
L4556L
tp351
a(g115
L5896L
tp352
a(g117
L5791L
tp353
a(g119
L6448L
tp354
a(g121
L10950L
tp355
a(g123
L30984L
tp356
a(g125
L10963L
tp357
a(g127
L6494L
tp358
a(g129
L4542L
tp359
a(g131
L6436L
tp360
a(g133
L14001L
tp361
a(g135
L4439L
tp362
a(g137
L6357L
tp363
a(g139
L4586L
tp364
a(g141
L759L
tp365
a(g143
L677L
tp366
a(g145
L4118L
tp367
a(g147
L594L
tp368
a(g149
L4366L
tp369
a(g151
L5302L
tp370
a(g153
L5471L
tp371
a(g155
L22810L
tp372
a(g157
L4405L
tp373
a(g159
L5112L
tp374
a(g161
L10829L
tp375
a(g163
L28144L
tp376
a(g165
L10870L
tp377
a(g167
L13967L
tp378
a(g169
L4684L
tp379
a(g171
L4546L
tp380
a(g173
L4838L
tp381
a(g175
L10840L
tp382
a(g177
L5695L
tp383
a(g179
L3404L
tp384
a(g181
L5582L
tp385
a(g183
L3L
tp386
a(g185
L17965L
tp387
a(g187
L3518L
tp388
a(g189
L28251L
tp389
a(g191
L2364L
tp390
a(g193
L6169L
tp391
a(g195
L6389L
tp392
a(g197
L5658L
tp393
a(g199
L13274L
tp394
a(g201
L7644L
tp395
a(g203
L13644L
tp396
a(g205
L10905L
tp397
a(g207
L4538L
tp398
a(g209
L4475L
tp399
a(g211
L5161L
tp400
a(g213
L14427L
tp401
a(g215
L20900L
tp402
a(g217
L5662L
tp403
a(g219
L2991L
tp404
a(g221
L10860L
tp405
a(g223
L4423L
tp406
a(g225
L2835L
tp407
a(g227
L12827L
tp408
a(g229
L4368L
tp409
a(g231
L10929L
tp410
a(g233
L2841L
tp411
a(g235
L10886L
tp412
a(g237
L5682L
tp413
a(g239
L5712L
tp414
a(g241
L5705L
tp415
a(g243
L14078L
tp416
a(g245
L4408L
tp417
a(g247
L10876L
tp418
a(g249
L4550L
tp419
a(g251
L14396L
tp420
a(g253
L33137L
tp421
a(g255
L5114L
tp422
a(g257
L15840L
tp423
a(g259
L6747L
tp424
a(g261
L6358L
tp425
a(g263
L5126L
tp426
a(g265
L28040L
tp427
a(g267
L4411L
tp428
a(g269
L4583L
tp429
a(g271
L4609L
tp430
a(g273
L10848L
tp431
a(g275
L201L
tp432
a(g277
L20770L
tp433
a(g279
L21900L
tp434
a(g281
L12918L
tp435
a(g283
L15852L
tp436
a(g285
L7683L
tp437
a(g287
L33512L
tp438
a(g289
L4412L
tp439
a(g291
L10192L
tp440
a(g293
L14288L
tp441
aaI751799
a.