(lp1
(lp2
(Vbiological_process
p3
I253044
tp4
a(Vcellular_component
p5
I82742
tp6
a(Vmolecular_function
p7
I69192
tp8
a(Vorganelle
p9
I21649
tp10
a(Vanatomical structure development
p11
I19413
tp12
a(Vtransport
p13
I13978
tp14
a(Vcellular nitrogen compound metabolic process
p15
I11787
tp16
a(Vsignal transduction
p17
I11743
tp18
a(Vprotein complex
p19
I9533
tp20
a(Vresponse to stress
p21
I9343
tp22
a(Vion binding
p23
I8344
tp24
a(Vsmall molecule metabolic process
p25
I8266
tp26
a(Vbiosynthetic process
p27
I7828
tp28
a(Vcellular protein modification process
p29
I6523
tp30
a(Vcatabolic process
p31
I5760
tp32
a(Vimmune system process
p33
I5393
tp34
a(Vcell differentiation
p35
I4791
tp36
a(Vcellular component assembly
p37
I4201
tp38
a(Vcytosol
p39
I3799
tp40
a(Venzyme binding
p41
I3629
tp42
a(Vlipid metabolic process
p43
I3607
tp44
a(Vlocomotion
p45
I3353
tp46
a(Vanatomical structure formation involved in morphogenesis
p47
I3129
tp48
a(Vplasma membrane
p49
I2980
tp50
a(Vvesicle-mediated transport
p51
I2978
tp52
a(VDNA metabolic process
p53
I2948
tp54
a(Vnucleolus
p55
I2903
tp56
a(Vtransmembrane transporter activity
p57
I2750
tp58
a(Vnucleus
p59
I2662
tp60
a(Vhomeostatic process
p61
I2434
tp62
a(Vcell motility
p63
I2422
tp64
a(VDNA binding
p65
I2356
tp66
a(Vchromosome organization
p67
I2355
tp68
a(Vcytoplasm
p69
I2330
tp70
a(Vmacromolecular complex assembly
p71
I2307
tp72
a(Vcarbohydrate metabolic process
p73
I2288
tp74
a(Vnucleobase-containing compound catabolic process
p75
I2200
tp76
a(Vkinase activity
p77
I2174
tp78
a(Voxidoreductase activity
p79
I2146
tp80
a(Vcytoskeletal protein binding
p81
I2118
tp82
a(Vtransmembrane transport
p83
I2062
tp84
a(Vgrowth
p85
I2058
tp86
a(Vsignal transducer activity
p87
I2051
tp88
a(Vneurological system process
p89
I2048
tp90
a(Vembryo development
p91
I2026
tp92
a(Vcytoskeleton organization
p93
I2007
tp94
a(Vprotein maturation
p95
I1926
tp96
a(Vprotein complex assembly
p97
I1842
tp98
a(VRNA binding
p99
I1625
tp100
a(Vcellular amino acid metabolic process
p101
I1555
tp102
a(Vcell adhesion
p103
I1509
tp104
a(VATPase activity
p105
I1500
tp106
a(VGolgi apparatus
p107
I1492
tp108
a(Vcytoskeleton
p109
I1466
tp110
a(Vmitochondrion
p111
I1461
tp112
a(Vlipid binding
p113
I1447
tp114
a(Vcytoplasmic membrane-bounded vesicle
p115
I1398
tp116
a(Vligase activity
p117
I1278
tp118
a(Vendoplasmic reticulum
p119
I1256
tp120
a(Vcell death
p121
I1254
tp122
a(Vmembrane organization
p123
I1247
tp124
a(Vcell proliferation
p125
I1214
tp126
a(Vpeptidase activity
p127
I1197
tp128
a(Vendosome
p129
I1192
tp130
a(Vcell-cell signaling
p131
I1173
tp132
a(Vnucleoplasm
p133
I1066
tp134
a(Venzyme regulator activity
p135
I1063
tp136
a(Vcell morphogenesis
p137
I1046
tp138
a(Vtranscription factor binding
p139
I1005
tp140
a(Vprotein binding transcription factor activity
p141
I998
tp142
a(Vstructural molecule activity
p143
I997
tp144
a(Vmicrotubule organizing center
p145
I971
tp146
a(Vsulfur compound metabolic process
p147
I894
tp148
a(Vprotein targeting
p149
I872
tp150
a(Vnucleic acid binding transcription factor activity
p151
I825
tp152
a(Vextracellular region
p153
I809
tp154
a(Vcofactor metabolic process
p155
I696
tp156
a(Vsymbiosis, encompassing mutualism through parasitism
p157
I679
tp158
a(Vextracellular space
p159
I668
tp160
a(VmRNA processing
p161
I666
tp162
a(Vcilium
p163
I657
tp164
a(Vvacuole
p165
I638
tp166
a(Vtransferase activity, transferring acyl groups
p167
I636
tp168
a(Vextracellular matrix organization
p169
I631
tp170
a(Vtransferase activity, transferring glycosyl groups
p171
I604
tp172
a(Vgeneration of precursor metabolites and energy
p173
I601
tp174
a(Vphosphatase activity
p175
I583
tp176
a(Vhelicase activity
p177
I578
tp178
a(Vcell cycle
p179
I533
tp180
a(Vcell junction organization
p181
I513
tp182
a(Vreproduction
p183
I492
tp184
a(Vnucleocytoplasmic transport
p185
I486
tp186
a(Vcell division
p187
I475
tp188
a(Vaging
p189
I442
tp190
a(Vnuclease activity
p191
I441
tp192
a(Vplastid
p193
I425
tp194
a(Vlyase activity
p195
I412
tp196
a(Vdevelopmental maturation
p197
I399
tp198
a(Vmitochondrion organization
p199
I397
tp200
a(Vchromosome
p201
I383
tp202
a(Vmethyltransferase activity
p203
I380
tp204
a(Vcirculatory system process
p205
I371
tp206
a(Vribonucleoprotein complex assembly
p207
I362
tp208
a(Vlysosome
p209
I361
tp210
a(Vcytoskeleton-dependent intracellular transport
p211
I323
tp212
a(Vprotein folding
p213
I321
tp214
a(Vhistone binding
p215
I319
tp216
a(Vnucleotidyltransferase activity
p217
I316
tp218
a(Vnuclear envelope
p219
I302
tp220
a(Vexternal encapsulating structure
p221
I298
tp222
a(Vcell wall
p223
I293
tp224
a(Vsecondary metabolic process
p225
I284
tp226
a(Vproteinaceous extracellular matrix
p227
I284
tp228
a(Visomerase activity
p229
I274
tp230
a(VGTPase activity
p231
I274
tp232
a(VmRNA binding
p233
I268
tp234
a(Vplasma membrane organization
p235
I264
tp236
a(Vstructural constituent of ribosome
p237
I242
tp238
a(Vhydrolase activity, acting on carbon-nitrogen (but not peptide) bonds
p239
I241
tp240
a(Vhydrolase activity, acting on glycosyl bonds
p241
I238
tp242
a(Vchromosome segregation
p243
I234
tp244
a(Vcell wall organization or biogenesis
p245
I232
tp246
a(Vmitosis
p247
I224
tp248
a(Vvacuolar transport
p249
I224
tp250
a(VtRNA metabolic process
p251
I220
tp252
a(Vprotein transporter activity
p253
I199
tp254
a(Vprotein binding, bridging
p255
I185
tp256
a(Vperoxisome
p257
I181
tp258
a(Vsmall conjugating protein binding
p259
I178
tp260
a(Vtranslation factor activity, nucleic acid binding
p261
I175
tp262
a(Vtranslation
p263
I160
tp264
a(Vunfolded protein binding
p265
I153
tp266
a(Vlipid particle
p267
I138
tp268
a(Vribosome
p269
I125
tp270
a(Vintracellular
p271
I116
tp272
a(Vtransferase activity, transferring alkyl or aryl (other than methyl) groups
p273
I107
tp274
a(Vnuclear chromosome
p275
I105
tp276
a(Vpigmentation
p277
I94
tp278
a(Vribosome biogenesis
p279
I76
tp280
a(VrRNA binding
p281
I73
tp282
a(Vtransposition
p283
I35
tp284
a(Vthylakoid
p285
I34
tp286
a(Vnitrogen cycle metabolic process
p287
I19
tp288
a(Vphotosynthesis
p289
I6
tp290
a(Vcell
p291
I5
tp292
a(VRNA modification guide activity
p293
I2
tp294
aa(lp295
(g3
L6372L
tp296
a(g5
L4365L
tp297
a(g7
L2787L
tp298
a(g9
L21685L
tp299
a(g11
L26888L
tp300
a(g13
L5491L
tp301
a(g15
L18268L
tp302
a(g17
L5801L
tp303
a(g19
L21693L
tp304
a(g21
L5613L
tp305
a(g23
L21630L
tp306
a(g25
L22689L
tp307
a(g27
L7192L
tp308
a(g29
L5168L
tp309
a(g31
L7190L
tp310
a(g33
L1781L
tp311
a(g35
L13924L
tp312
a(g37
L13633L
tp313
a(g39
L4599L
tp314
a(g41
L12968L
tp315
a(g43
L5326L
tp316
a(g45
L20507L
tp317
a(g47
L26682L
tp318
a(g49
L4644L
tp319
a(g51
L10381L
tp320
a(g53
L4995L
tp321
a(g55
L4507L
tp322
a(g57
L13690L
tp323
a(g59
L4422L
tp324
a(g61
L21086L
tp325
a(g63
L26901L
tp326
a(g65
L2790L
tp327
a(g67
L28228L
tp328
a(g69
L4514L
tp329
a(g71
L31581L
tp330
a(g73
L4725L
tp331
a(g75
L18282L
tp332
a(g77
L10466L
tp333
a(g79
L10598L
tp334
a(g81
L6320L
tp335
a(g83
L29927L
tp336
a(g85
L20503L
tp337
a(g87
L3827L
tp338
a(g89
L27837L
tp339
a(g91
L7881L
tp340
a(g93
L5663L
tp341
a(g95
L28535L
tp342
a(g97
L5165L
tp343
a(g99
L2830L
tp344
a(g101
L5218L
tp345
a(g103
L5791L
tp346
a(g105
L10963L
tp347
a(g107
L4567L
tp348
a(g109
L4621L
tp349
a(g111
L4515L
tp350
a(g113
L6500L
tp351
a(g115
L10229L
tp352
a(g117
L10950L
tp353
a(g119
L4556L
tp354
a(g121
L6436L
tp355
a(g123
L30984L
tp356
a(g125
L6494L
tp357
a(g127
L6448L
tp358
a(g129
L4542L
tp359
a(g131
L5896L
tp360
a(g133
L4439L
tp361
a(g135
L14001L
tp362
a(g137
L594L
tp363
a(g139
L6357L
tp364
a(g141
L677L
tp365
a(g143
L4118L
tp366
a(g145
L4586L
tp367
a(g147
L5471L
tp368
a(g149
L5302L
tp369
a(g151
L759L
tp370
a(g153
L4366L
tp371
a(g155
L28144L
tp372
a(g157
L22810L
tp373
a(g159
L4405L
tp374
a(g161
L5112L
tp375
a(g163
L4684L
tp376
a(g165
L4546L
tp377
a(g167
L10829L
tp378
a(g169
L13967L
tp379
a(g171
L10840L
tp380
a(g173
L4838L
tp381
a(g175
L10870L
tp382
a(g177
L3404L
tp383
a(g179
L5695L
tp384
a(g181
L17965L
tp385
a(g183
L3L
tp386
a(g185
L5582L
tp387
a(g187
L28251L
tp388
a(g189
L6169L
tp389
a(g191
L3518L
tp390
a(g193
L7644L
tp391
a(g195
L10905L
tp392
a(g197
L13274L
tp393
a(g199
L5658L
tp394
a(g201
L4475L
tp395
a(g203
L6389L
tp396
a(g205
L2364L
tp397
a(g207
L13644L
tp398
a(g209
L4538L
tp399
a(g211
L14427L
tp400
a(g213
L5161L
tp401
a(g215
L20900L
tp402
a(g217
L10860L
tp403
a(g219
L4423L
tp404
a(g221
L14078L
tp405
a(g223
L4408L
tp406
a(g225
L12827L
tp407
a(g227
L4368L
tp408
a(g229
L10929L
tp409
a(g231
L2991L
tp410
a(g233
L2835L
tp411
a(g235
L5662L
tp412
a(g237
L2841L
tp413
a(g239
L10886L
tp414
a(g241
L10876L
tp415
a(g243
L5705L
tp416
a(g245
L33137L
tp417
a(g247
L5712L
tp418
a(g249
L5682L
tp419
a(g251
L5114L
tp420
a(g253
L6747L
tp421
a(g255
L14396L
tp422
a(g257
L4550L
tp423
a(g259
L15840L
tp424
a(g261
L6358L
tp425
a(g263
L5126L
tp426
a(g265
L28040L
tp427
a(g267
L4583L
tp428
a(g269
L4609L
tp429
a(g271
L4411L
tp430
a(g273
L10848L
tp431
a(g275
L201L
tp432
a(g277
L21900L
tp433
a(g279
L20770L
tp434
a(g281
L12918L
tp435
a(g283
L15852L
tp436
a(g285
L7683L
tp437
a(g287
L33512L
tp438
a(g289
L10192L
tp439
a(g291
L4412L
tp440
a(g293
L14288L
tp441
aaI685578
a.