(lp1
(lp2
(Vbiological_process
p3
I330129
tp4
a(Vcellular_component
p5
I109044
tp6
a(Vmolecular_function
p7
I89304
tp8
a(Vorganelle
p9
I28983
tp10
a(Vanatomical structure development
p11
I24994
tp12
a(Vtransport
p13
I18609
tp14
a(Vsignal transduction
p15
I15364
tp16
a(Vcellular nitrogen compound metabolic process
p17
I14543
tp18
a(Vprotein complex
p19
I12493
tp20
a(Vresponse to stress
p21
I12139
tp22
a(Vion binding
p23
I10701
tp24
a(Vsmall molecule metabolic process
p25
I9902
tp26
a(Vbiosynthetic process
p27
I9238
tp28
a(Vcellular protein modification process
p29
I8610
tp30
a(Vcatabolic process
p31
I7228
tp32
a(Vimmune system process
p33
I6997
tp34
a(Vcell differentiation
p35
I6057
tp36
a(Vcellular component assembly
p37
I5404
tp38
a(Vcytosol
p39
I4957
tp40
a(Venzyme binding
p41
I4928
tp42
a(Vlipid metabolic process
p43
I4788
tp44
a(Vlocomotion
p45
I4290
tp46
a(Vnucleolus
p47
I3942
tp48
a(Vvesicle-mediated transport
p49
I3929
tp50
a(Vplasma membrane
p51
I3907
tp52
a(Vanatomical structure formation involved in morphogenesis
p53
I3855
tp54
a(Vtransmembrane transporter activity
p55
I3798
tp56
a(Vnucleus
p57
I3590
tp58
a(VDNA metabolic process
p59
I3551
tp60
a(Vhomeostatic process
p61
I3331
tp62
a(Vchromosome organization
p63
I3152
tp64
a(VDNA binding
p65
I3146
tp66
a(Vcell motility
p67
I3011
tp68
a(Vcytoplasm
p69
I2998
tp70
a(Vmacromolecular complex assembly
p71
I2983
tp72
a(Vtransmembrane transport
p73
I2886
tp74
a(Vneurological system process
p75
I2784
tp76
a(Vcytoskeletal protein binding
p77
I2771
tp78
a(Vcarbohydrate metabolic process
p79
I2741
tp80
a(Vsignal transducer activity
p81
I2662
tp82
a(Vnucleobase-containing compound catabolic process
p83
I2656
tp84
a(Vprotein maturation
p85
I2650
tp86
a(Voxidoreductase activity
p87
I2640
tp88
a(Vembryo development
p89
I2576
tp90
a(Vgrowth
p91
I2561
tp92
a(Vkinase activity
p93
I2515
tp94
a(Vcytoskeleton organization
p95
I2496
tp96
a(Vprotein complex assembly
p97
I2402
tp98
a(VRNA binding
p99
I2104
tp100
a(Vlipid binding
p101
I2060
tp102
a(VGolgi apparatus
p103
I2030
tp104
a(Vcytoplasmic membrane-bounded vesicle
p105
I1954
tp106
a(Vmitochondrion
p107
I1920
tp108
a(Vcytoskeleton
p109
I1898
tp110
a(Vcell adhesion
p111
I1836
tp112
a(Vendoplasmic reticulum
p113
I1696
tp114
a(Vcell-cell signaling
p115
I1688
tp116
a(Vcellular amino acid metabolic process
p117
I1683
tp118
a(Vmembrane organization
p119
I1649
tp120
a(Vligase activity
p121
I1643
tp122
a(Vendosome
p123
I1638
tp124
a(Vcell proliferation
p125
I1619
tp126
a(VATPase activity
p127
I1619
tp128
a(Vcell death
p129
I1606
tp130
a(Vpeptidase activity
p131
I1580
tp132
a(Venzyme regulator activity
p133
I1565
tp134
a(Vnucleoplasm
p135
I1381
tp136
a(Vtranscription factor binding
p137
I1375
tp138
a(Vmicrotubule organizing center
p139
I1336
tp140
a(Vprotein binding transcription factor activity
p141
I1333
tp142
a(Vcell morphogenesis
p143
I1322
tp144
a(Vstructural molecule activity
p145
I1185
tp146
a(Vnucleic acid binding transcription factor activity
p147
I1177
tp148
a(Vprotein targeting
p149
I1124
tp150
a(Vextracellular region
p151
I1033
tp152
a(Vsulfur compound metabolic process
p153
I981
tp154
a(Vsymbiosis, encompassing mutualism through parasitism
p155
I927
tp156
a(Vextracellular space
p157
I917
tp158
a(Vvacuole
p159
I875
tp160
a(VmRNA processing
p161
I872
tp162
a(Vtransferase activity, transferring acyl groups
p163
I842
tp164
a(Vcilium
p165
I830
tp166
a(Vphosphatase activity
p167
I821
tp168
a(Vextracellular matrix organization
p169
I818
tp170
a(Vcofactor metabolic process
p171
I814
tp172
a(Vgeneration of precursor metabolites and energy
p173
I783
tp174
a(Vcell cycle
p175
I711
tp176
a(Vtransferase activity, transferring glycosyl groups
p177
I703
tp178
a(Vnucleocytoplasmic transport
p179
I674
tp180
a(Vhelicase activity
p181
I666
tp182
a(Vreproduction
p183
I659
tp184
a(Vcell junction organization
p185
I636
tp186
a(Vcell division
p187
I600
tp188
a(Vdevelopmental maturation
p189
I580
tp190
a(Vaging
p191
I578
tp192
a(Vcirculatory system process
p193
I565
tp194
a(Vnuclease activity
p195
I537
tp196
a(Vmitochondrion organization
p197
I533
tp198
a(Vplastid
p199
I528
tp200
a(Vlysosome
p201
I510
tp202
a(Vmethyltransferase activity
p203
I499
tp204
a(Vcytoskeleton-dependent intracellular transport
p205
I478
tp206
a(Vchromosome
p207
I460
tp208
a(Vribonucleoprotein complex assembly
p209
I451
tp210
a(Vlyase activity
p211
I448
tp212
a(Vhistone binding
p213
I430
tp214
a(Vprotein folding
p215
I424
tp216
a(Vnuclear envelope
p217
I397
tp218
a(Vsecondary metabolic process
p219
I370
tp220
a(Vplasma membrane organization
p221
I366
tp222
a(VGTPase activity
p223
I363
tp224
a(Vproteinaceous extracellular matrix
p225
I356
tp226
a(VmRNA binding
p227
I345
tp228
a(Vvacuolar transport
p229
I330
tp230
a(Vexternal encapsulating structure
p231
I321
tp232
a(Vnucleotidyltransferase activity
p233
I320
tp234
a(Vcell wall
p235
I314
tp236
a(Visomerase activity
p237
I311
tp238
a(Vmitosis
p239
I311
tp240
a(Vhydrolase activity, acting on glycosyl bonds
p241
I306
tp242
a(Vchromosome segregation
p243
I291
tp244
a(Vhydrolase activity, acting on carbon-nitrogen (but not peptide) bonds
p245
I287
tp246
a(Vcell wall organization or biogenesis
p247
I272
tp248
a(Vstructural constituent of ribosome
p249
I266
tp250
a(Vprotein binding, bridging
p251
I261
tp252
a(Vperoxisome
p253
I255
tp254
a(Vsmall conjugating protein binding
p255
I245
tp256
a(VtRNA metabolic process
p257
I222
tp258
a(Vprotein transporter activity
p259
I220
tp260
a(Vtranslation factor activity, nucleic acid binding
p261
I205
tp262
a(Vunfolded protein binding
p263
I182
tp264
a(Vlipid particle
p265
I170
tp266
a(Vtranslation
p267
I169
tp268
a(Vribosome
p269
I162
tp270
a(Vintracellular
p271
I144
tp272
a(Vnuclear chromosome
p273
I132
tp274
a(Vtransferase activity, transferring alkyl or aryl (other than methyl) groups
p275
I129
tp276
a(Vpigmentation
p277
I112
tp278
a(Vribosome biogenesis
p279
I107
tp280
a(VrRNA binding
p281
I79
tp282
a(Vthylakoid
p283
I47
tp284
a(Vtransposition
p285
I38
tp286
a(Vnitrogen cycle metabolic process
p287
I31
tp288
a(Vphotosynthesis
p289
I14
tp290
a(Vcell
p291
I8
tp292
a(VRNA modification guide activity
p293
I1
tp294
aa(lp295
(g3
L6372L
tp296
a(g5
L4365L
tp297
a(g7
L2787L
tp298
a(g9
L21685L
tp299
a(g11
L26888L
tp300
a(g13
L5491L
tp301
a(g15
L5801L
tp302
a(g17
L18268L
tp303
a(g19
L21693L
tp304
a(g21
L5613L
tp305
a(g23
L21630L
tp306
a(g25
L22689L
tp307
a(g27
L7192L
tp308
a(g29
L5168L
tp309
a(g31
L7190L
tp310
a(g33
L1781L
tp311
a(g35
L13924L
tp312
a(g37
L13633L
tp313
a(g39
L4599L
tp314
a(g41
L12968L
tp315
a(g43
L5326L
tp316
a(g45
L20507L
tp317
a(g47
L4507L
tp318
a(g49
L10381L
tp319
a(g51
L4644L
tp320
a(g53
L26682L
tp321
a(g55
L13690L
tp322
a(g57
L4422L
tp323
a(g59
L4995L
tp324
a(g61
L21086L
tp325
a(g63
L28228L
tp326
a(g65
L2790L
tp327
a(g67
L26901L
tp328
a(g69
L4514L
tp329
a(g71
L31581L
tp330
a(g73
L29927L
tp331
a(g75
L27837L
tp332
a(g77
L6320L
tp333
a(g79
L4725L
tp334
a(g81
L3827L
tp335
a(g83
L18282L
tp336
a(g85
L28535L
tp337
a(g87
L10598L
tp338
a(g89
L7881L
tp339
a(g91
L20503L
tp340
a(g93
L10466L
tp341
a(g95
L5663L
tp342
a(g97
L5165L
tp343
a(g99
L2830L
tp344
a(g101
L6500L
tp345
a(g103
L4567L
tp346
a(g105
L10229L
tp347
a(g107
L4515L
tp348
a(g109
L4621L
tp349
a(g111
L5791L
tp350
a(g113
L4556L
tp351
a(g115
L5896L
tp352
a(g117
L5218L
tp353
a(g119
L30984L
tp354
a(g121
L10950L
tp355
a(g123
L4542L
tp356
a(g125
L6494L
tp357
a(g127
L10963L
tp358
a(g129
L6436L
tp359
a(g131
L6448L
tp360
a(g133
L14001L
tp361
a(g135
L4439L
tp362
a(g137
L6357L
tp363
a(g139
L4586L
tp364
a(g141
L677L
tp365
a(g143
L594L
tp366
a(g145
L4118L
tp367
a(g147
L759L
tp368
a(g149
L5302L
tp369
a(g151
L4366L
tp370
a(g153
L5471L
tp371
a(g155
L22810L
tp372
a(g157
L4405L
tp373
a(g159
L4546L
tp374
a(g161
L5112L
tp375
a(g163
L10829L
tp376
a(g165
L4684L
tp377
a(g167
L10870L
tp378
a(g169
L13967L
tp379
a(g171
L28144L
tp380
a(g173
L4838L
tp381
a(g175
L5695L
tp382
a(g177
L10840L
tp383
a(g179
L5582L
tp384
a(g181
L3404L
tp385
a(g183
L3L
tp386
a(g185
L17965L
tp387
a(g187
L28251L
tp388
a(g189
L13274L
tp389
a(g191
L6169L
tp390
a(g193
L2364L
tp391
a(g195
L3518L
tp392
a(g197
L5658L
tp393
a(g199
L7644L
tp394
a(g201
L4538L
tp395
a(g203
L6389L
tp396
a(g205
L14427L
tp397
a(g207
L4475L
tp398
a(g209
L13644L
tp399
a(g211
L10905L
tp400
a(g213
L20900L
tp401
a(g215
L5161L
tp402
a(g217
L4423L
tp403
a(g219
L12827L
tp404
a(g221
L5662L
tp405
a(g223
L2991L
tp406
a(g225
L4368L
tp407
a(g227
L2835L
tp408
a(g229
L5682L
tp409
a(g231
L14078L
tp410
a(g233
L10860L
tp411
a(g235
L4408L
tp412
a(g237
L10929L
tp413
a(g239
L5712L
tp414
a(g241
L10876L
tp415
a(g243
L5705L
tp416
a(g245
L10886L
tp417
a(g247
L33137L
tp418
a(g249
L2841L
tp419
a(g251
L14396L
tp420
a(g253
L4550L
tp421
a(g255
L15840L
tp422
a(g257
L5114L
tp423
a(g259
L6747L
tp424
a(g261
L6358L
tp425
a(g263
L28040L
tp426
a(g265
L4583L
tp427
a(g267
L5126L
tp428
a(g269
L4609L
tp429
a(g271
L4411L
tp430
a(g273
L201L
tp431
a(g275
L10848L
tp432
a(g277
L21900L
tp433
a(g279
L20770L
tp434
a(g281
L12918L
tp435
a(g283
L7683L
tp436
a(g285
L15852L
tp437
a(g287
L33512L
tp438
a(g289
L10192L
tp439
a(g291
L4412L
tp440
a(g293
L14288L
tp441
aaI890898
a.