(lp1
(lp2
(Vbiological_process
p3
I273639
tp4
a(Vcellular_component
p5
I91077
tp6
a(Vmolecular_function
p7
I74199
tp8
a(Vorganelle
p9
I24267
tp10
a(Vanatomical structure development
p11
I20250
tp12
a(Vtransport
p13
I15774
tp14
a(Vcellular nitrogen compound metabolic process
p15
I13138
tp16
a(Vsignal transduction
p17
I12310
tp18
a(Vprotein complex
p19
I10574
tp20
a(Vresponse to stress
p21
I10181
tp22
a(Vsmall molecule metabolic process
p23
I9063
tp24
a(Vbiosynthetic process
p25
I8701
tp26
a(Vion binding
p27
I8669
tp28
a(Vcellular protein modification process
p29
I7189
tp30
a(Vcatabolic process
p31
I6499
tp32
a(Vimmune system process
p33
I5347
tp34
a(Vcell differentiation
p35
I4812
tp36
a(Vcellular component assembly
p37
I4513
tp38
a(Vlipid metabolic process
p39
I4319
tp40
a(Vcytosol
p41
I4266
tp42
a(Venzyme binding
p43
I3869
tp44
a(Vnucleolus
p45
I3319
tp46
a(Vlocomotion
p47
I3314
tp48
a(Vvesicle-mediated transport
p49
I3243
tp50
a(Vplasma membrane
p51
I3231
tp52
a(VDNA metabolic process
p53
I3203
tp54
a(Vtransmembrane transporter activity
p55
I3180
tp56
a(Vanatomical structure formation involved in morphogenesis
p57
I3067
tp58
a(Vnucleus
p59
I2954
tp60
a(Vchromosome organization
p61
I2896
tp62
a(Vhomeostatic process
p63
I2718
tp64
a(VDNA binding
p65
I2572
tp66
a(Voxidoreductase activity
p67
I2542
tp68
a(Vmacromolecular complex assembly
p69
I2522
tp70
a(Vcarbohydrate metabolic process
p71
I2479
tp72
a(Vcytoplasm
p73
I2469
tp74
a(Vsignal transducer activity
p75
I2454
tp76
a(Vtransmembrane transport
p77
I2373
tp78
a(Vnucleobase-containing compound catabolic process
p79
I2364
tp80
a(Vembryo development
p81
I2267
tp82
a(Vcell motility
p83
I2252
tp84
a(Vcytoskeletal protein binding
p85
I2219
tp86
a(Vgrowth
p87
I2190
tp88
a(Vcytoskeleton organization
p89
I2165
tp90
a(Vneurological system process
p91
I2151
tp92
a(Vprotein maturation
p93
I2090
tp94
a(Vkinase activity
p95
I2058
tp96
a(Vprotein complex assembly
p97
I1998
tp98
a(VRNA binding
p99
I1881
tp100
a(Vmitochondrion
p101
I1704
tp102
a(VGolgi apparatus
p103
I1636
tp104
a(Vlipid binding
p105
I1610
tp106
a(Vcytoplasmic membrane-bounded vesicle
p107
I1607
tp108
a(Vcellular amino acid metabolic process
p109
I1587
tp110
a(Vcytoskeleton
p111
I1513
tp112
a(Vcell-cell signaling
p113
I1470
tp114
a(Vendoplasmic reticulum
p115
I1464
tp116
a(Vcell death
p117
I1362
tp118
a(VATPase activity
p119
I1360
tp120
a(Vcell adhesion
p121
I1347
tp122
a(Vmembrane organization
p123
I1323
tp124
a(Vpeptidase activity
p125
I1305
tp126
a(Vligase activity
p127
I1295
tp128
a(Vendosome
p129
I1295
tp130
a(Vcell proliferation
p131
I1235
tp132
a(Venzyme regulator activity
p133
I1221
tp134
a(Vnucleoplasm
p135
I1207
tp136
a(Vmicrotubule organizing center
p137
I1149
tp138
a(Vtranscription factor binding
p139
I1140
tp140
a(Vprotein binding transcription factor activity
p141
I1062
tp142
a(Vcell morphogenesis
p143
I1050
tp144
a(Vstructural molecule activity
p145
I1016
tp146
a(Vprotein targeting
p147
I967
tp148
a(Vnucleic acid binding transcription factor activity
p149
I941
tp150
a(Vsulfur compound metabolic process
p151
I847
tp152
a(Vextracellular region
p153
I839
tp154
a(Vtransferase activity, transferring acyl groups
p155
I799
tp156
a(Vsymbiosis, encompassing mutualism through parasitism
p157
I774
tp158
a(Vcofactor metabolic process
p159
I766
tp160
a(VmRNA processing
p161
I756
tp162
a(Vcilium
p163
I750
tp164
a(Vgeneration of precursor metabolites and energy
p165
I709
tp166
a(Vcell cycle
p167
I707
tp168
a(Vtransferase activity, transferring glycosyl groups
p169
I706
tp170
a(Vphosphatase activity
p171
I702
tp172
a(Vvacuole
p173
I689
tp174
a(Vextracellular space
p175
I628
tp176
a(Vreproduction
p177
I614
tp178
a(Vextracellular matrix organization
p179
I568
tp180
a(Vcell division
p181
I558
tp182
a(Vhelicase activity
p183
I555
tp184
a(Vnucleocytoplasmic transport
p185
I542
tp186
a(Vcell junction organization
p187
I515
tp188
a(Vcirculatory system process
p189
I498
tp190
a(Vnuclease activity
p191
I480
tp192
a(Vplastid
p193
I476
tp194
a(Vaging
p195
I474
tp196
a(Vmitochondrion organization
p197
I453
tp198
a(Vmethyltransferase activity
p199
I446
tp200
a(Vlyase activity
p201
I446
tp202
a(Vchromosome
p203
I435
tp204
a(Vcytoskeleton-dependent intracellular transport
p205
I421
tp206
a(Vdevelopmental maturation
p207
I404
tp208
a(Vribonucleoprotein complex assembly
p209
I396
tp210
a(Vprotein folding
p211
I383
tp212
a(Vlysosome
p213
I377
tp214
a(Vnuclear envelope
p215
I371
tp216
a(Vhistone binding
p217
I360
tp218
a(Vsecondary metabolic process
p219
I354
tp220
a(VGTPase activity
p221
I328
tp222
a(VmRNA binding
p223
I311
tp224
a(Vnucleotidyltransferase activity
p225
I310
tp226
a(Vexternal encapsulating structure
p227
I305
tp228
a(Vcell wall
p229
I302
tp230
a(Visomerase activity
p231
I297
tp232
a(Vplasma membrane organization
p233
I296
tp234
a(Vstructural constituent of ribosome
p235
I291
tp236
a(Vvacuolar transport
p237
I281
tp238
a(Vchromosome segregation
p239
I276
tp240
a(Vmitosis
p241
I268
tp242
a(VtRNA metabolic process
p243
I253
tp244
a(Vcell wall organization or biogenesis
p245
I253
tp246
a(Vhydrolase activity, acting on carbon-nitrogen (but not peptide) bonds
p247
I245
tp248
a(Vhydrolase activity, acting on glycosyl bonds
p249
I238
tp250
a(Vperoxisome
p251
I222
tp252
a(Vproteinaceous extracellular matrix
p253
I220
tp254
a(Vsmall conjugating protein binding
p255
I207
tp256
a(Vtranslation factor activity, nucleic acid binding
p257
I200
tp258
a(Vprotein transporter activity
p259
I188
tp260
a(Vprotein binding, bridging
p261
I181
tp262
a(Vunfolded protein binding
p263
I168
tp264
a(Vtranslation
p265
I168
tp266
a(Vlipid particle
p267
I160
tp268
a(Vribosome
p269
I142
tp270
a(Vtransferase activity, transferring alkyl or aryl (other than methyl) groups
p271
I138
tp272
a(Vnuclear chromosome
p273
I120
tp274
a(Vintracellular
p275
I113
tp276
a(Vribosome biogenesis
p277
I106
tp278
a(Vpigmentation
p279
I88
tp280
a(VrRNA binding
p281
I79
tp282
a(Vthylakoid
p283
I44
tp284
a(Vtransposition
p285
I33
tp286
a(Vnitrogen cycle metabolic process
p287
I20
tp288
a(Vphotosynthesis
p289
I9
tp290
a(Vcell
p291
I6
tp292
a(VRNA modification guide activity
p293
I3
tp294
aa(lp295
(g3
L6372L
tp296
a(g5
L4365L
tp297
a(g7
L2787L
tp298
a(g9
L21685L
tp299
a(g11
L26888L
tp300
a(g13
L5491L
tp301
a(g15
L18268L
tp302
a(g17
L5801L
tp303
a(g19
L21693L
tp304
a(g21
L5613L
tp305
a(g23
L22689L
tp306
a(g25
L7192L
tp307
a(g27
L21630L
tp308
a(g29
L5168L
tp309
a(g31
L7190L
tp310
a(g33
L1781L
tp311
a(g35
L13924L
tp312
a(g37
L13633L
tp313
a(g39
L5326L
tp314
a(g41
L4599L
tp315
a(g43
L12968L
tp316
a(g45
L4507L
tp317
a(g47
L20507L
tp318
a(g49
L10381L
tp319
a(g51
L4644L
tp320
a(g53
L4995L
tp321
a(g55
L13690L
tp322
a(g57
L26682L
tp323
a(g59
L4422L
tp324
a(g61
L28228L
tp325
a(g63
L21086L
tp326
a(g65
L2790L
tp327
a(g67
L10598L
tp328
a(g69
L31581L
tp329
a(g71
L4725L
tp330
a(g73
L4514L
tp331
a(g75
L3827L
tp332
a(g77
L29927L
tp333
a(g79
L18282L
tp334
a(g81
L7881L
tp335
a(g83
L26901L
tp336
a(g85
L6320L
tp337
a(g87
L20503L
tp338
a(g89
L5663L
tp339
a(g91
L27837L
tp340
a(g93
L28535L
tp341
a(g95
L10466L
tp342
a(g97
L5165L
tp343
a(g99
L2830L
tp344
a(g101
L4515L
tp345
a(g103
L4567L
tp346
a(g105
L6500L
tp347
a(g107
L10229L
tp348
a(g109
L5218L
tp349
a(g111
L4621L
tp350
a(g113
L5896L
tp351
a(g115
L4556L
tp352
a(g117
L6436L
tp353
a(g119
L10963L
tp354
a(g121
L5791L
tp355
a(g123
L30984L
tp356
a(g125
L6448L
tp357
a(g127
L10950L
tp358
a(g129
L4542L
tp359
a(g131
L6494L
tp360
a(g133
L14001L
tp361
a(g135
L4439L
tp362
a(g137
L4586L
tp363
a(g139
L6357L
tp364
a(g141
L677L
tp365
a(g143
L594L
tp366
a(g145
L4118L
tp367
a(g147
L5302L
tp368
a(g149
L759L
tp369
a(g151
L5471L
tp370
a(g153
L4366L
tp371
a(g155
L10829L
tp372
a(g157
L22810L
tp373
a(g159
L28144L
tp374
a(g161
L5112L
tp375
a(g163
L4684L
tp376
a(g165
L4838L
tp377
a(g167
L5695L
tp378
a(g169
L10840L
tp379
a(g171
L10870L
tp380
a(g173
L4546L
tp381
a(g175
L4405L
tp382
a(g177
L3L
tp383
a(g179
L13967L
tp384
a(g181
L28251L
tp385
a(g183
L3404L
tp386
a(g185
L5582L
tp387
a(g187
L17965L
tp388
a(g189
L2364L
tp389
a(g191
L3518L
tp390
a(g193
L7644L
tp391
a(g195
L6169L
tp392
a(g197
L5658L
tp393
a(g199
L6389L
tp394
a(g201
L10905L
tp395
a(g203
L4475L
tp396
a(g205
L14427L
tp397
a(g207
L13274L
tp398
a(g209
L13644L
tp399
a(g211
L5161L
tp400
a(g213
L4538L
tp401
a(g215
L4423L
tp402
a(g217
L20900L
tp403
a(g219
L12827L
tp404
a(g221
L2991L
tp405
a(g223
L2835L
tp406
a(g225
L10860L
tp407
a(g227
L14078L
tp408
a(g229
L4408L
tp409
a(g231
L10929L
tp410
a(g233
L5662L
tp411
a(g235
L2841L
tp412
a(g237
L5682L
tp413
a(g239
L5705L
tp414
a(g241
L5712L
tp415
a(g243
L5114L
tp416
a(g245
L33137L
tp417
a(g247
L10886L
tp418
a(g249
L10876L
tp419
a(g251
L4550L
tp420
a(g253
L4368L
tp421
a(g255
L15840L
tp422
a(g257
L6358L
tp423
a(g259
L6747L
tp424
a(g261
L14396L
tp425
a(g263
L28040L
tp426
a(g265
L5126L
tp427
a(g267
L4583L
tp428
a(g269
L4609L
tp429
a(g271
L10848L
tp430
a(g273
L201L
tp431
a(g275
L4411L
tp432
a(g277
L20770L
tp433
a(g279
L21900L
tp434
a(g281
L12918L
tp435
a(g283
L7683L
tp436
a(g285
L15852L
tp437
a(g287
L33512L
tp438
a(g289
L10192L
tp439
a(g291
L4412L
tp440
a(g293
L14288L
tp441
aaI744360
a.