(lp1
(lp2
(Vbiological_process
p3
I339108
tp4
a(Vcellular_component
p5
I108498
tp6
a(Vmolecular_function
p7
I87804
tp8
a(Vorganelle
p9
I28549
tp10
a(Vanatomical structure development
p11
I26273
tp12
a(Vtransport
p13
I18925
tp14
a(Vsignal transduction
p15
I15592
tp16
a(Vcellular nitrogen compound metabolic process
p17
I13911
tp18
a(Vresponse to stress
p19
I12136
tp20
a(Vprotein complex
p21
I11830
tp22
a(Vion binding
p23
I10216
tp24
a(Vsmall molecule metabolic process
p25
I9585
tp26
a(Vbiosynthetic process
p27
I9019
tp28
a(Vcellular protein modification process
p29
I8209
tp30
a(Vcatabolic process
p31
I6825
tp32
a(Vimmune system process
p33
I6583
tp34
a(Vcell differentiation
p35
I6236
tp36
a(Vcellular component assembly
p37
I5213
tp38
a(Venzyme binding
p39
I4626
tp40
a(Vcytosol
p41
I4614
tp42
a(Vlipid metabolic process
p43
I4533
tp44
a(Vlocomotion
p45
I4219
tp46
a(Vtransmembrane transporter activity
p47
I4092
tp48
a(Vplasma membrane
p49
I3947
tp50
a(Vanatomical structure formation involved in morphogenesis
p51
I3908
tp52
a(Vnucleolus
p53
I3752
tp54
a(Vvesicle-mediated transport
p55
I3743
tp56
a(Vnucleus
p57
I3529
tp58
a(VDNA metabolic process
p59
I3499
tp60
a(Vhomeostatic process
p61
I3380
tp62
a(Vsignal transducer activity
p63
I3351
tp64
a(VDNA binding
p65
I3155
tp66
a(Vchromosome organization
p67
I3043
tp68
a(Vcytoplasm
p69
I3003
tp70
a(Vcell motility
p71
I2998
tp72
a(Vneurological system process
p73
I2942
tp74
a(Vtransmembrane transport
p75
I2934
tp76
a(Vmacromolecular complex assembly
p77
I2873
tp78
a(Vcytoskeletal protein binding
p79
I2629
tp80
a(Vcarbohydrate metabolic process
p81
I2623
tp82
a(Vgrowth
p83
I2574
tp84
a(Vprotein maturation
p85
I2527
tp86
a(Vembryo development
p87
I2519
tp88
a(Voxidoreductase activity
p89
I2464
tp90
a(Vnucleobase-containing compound catabolic process
p91
I2430
tp92
a(Vkinase activity
p93
I2413
tp94
a(Vcytoskeleton organization
p95
I2362
tp96
a(Vprotein complex assembly
p97
I2343
tp98
a(Vcell-cell signaling
p99
I2098
tp100
a(VGolgi apparatus
p101
I1974
tp102
a(Vcytoplasmic membrane-bounded vesicle
p103
I1959
tp104
a(Vlipid binding
p105
I1954
tp106
a(VRNA binding
p107
I1906
tp108
a(Vcell adhesion
p109
I1869
tp110
a(Vcytoskeleton
p111
I1849
tp112
a(Vmitochondrion
p113
I1742
tp114
a(Vendoplasmic reticulum
p115
I1658
tp116
a(Vcellular amino acid metabolic process
p117
I1614
tp118
a(Vcell proliferation
p119
I1602
tp120
a(Vpeptidase activity
p121
I1587
tp122
a(Vcell death
p123
I1583
tp124
a(Vmembrane organization
p125
I1581
tp126
a(Vendosome
p127
I1541
tp128
a(Vligase activity
p129
I1497
tp130
a(VATPase activity
p131
I1471
tp132
a(Venzyme regulator activity
p133
I1374
tp134
a(Vcell morphogenesis
p135
I1356
tp136
a(Vtranscription factor binding
p137
I1322
tp138
a(Vnucleoplasm
p139
I1309
tp140
a(Vmicrotubule organizing center
p141
I1276
tp142
a(Vprotein binding transcription factor activity
p143
I1268
tp144
a(Vnucleic acid binding transcription factor activity
p145
I1259
tp146
a(Vstructural molecule activity
p147
I1120
tp148
a(Vextracellular region
p149
I1061
tp150
a(Vsulfur compound metabolic process
p151
I1034
tp152
a(Vprotein targeting
p153
I998
tp154
a(Vextracellular space
p155
I955
tp156
a(Vvacuole
p157
I863
tp158
a(Vextracellular matrix organization
p159
I853
tp160
a(Vcilium
p161
I845
tp162
a(Vtransferase activity, transferring acyl groups
p163
I840
tp164
a(Vsymbiosis, encompassing mutualism through parasitism
p165
I830
tp166
a(Vcirculatory system process
p167
I788
tp168
a(Vcofactor metabolic process
p169
I781
tp170
a(VmRNA processing
p171
I781
tp172
a(Vphosphatase activity
p173
I764
tp174
a(Vtransferase activity, transferring glycosyl groups
p175
I716
tp176
a(Vcell cycle
p177
I713
tp178
a(Vgeneration of precursor metabolites and energy
p179
I678
tp180
a(Vreproduction
p181
I650
tp182
a(Vhelicase activity
p183
I636
tp184
a(Vcell division
p185
I624
tp186
a(Vnucleocytoplasmic transport
p187
I614
tp188
a(Vcell junction organization
p189
I603
tp190
a(Vaging
p191
I599
tp192
a(Vdevelopmental maturation
p193
I543
tp194
a(Vnuclease activity
p195
I521
tp196
a(Vlysosome
p197
I506
tp198
a(Vmethyltransferase activity
p199
I494
tp200
a(Vmitochondrion organization
p201
I490
tp202
a(Vplastid
p203
I475
tp204
a(Vchromosome
p205
I470
tp206
a(Vcytoskeleton-dependent intracellular transport
p207
I433
tp208
a(Vlyase activity
p209
I428
tp210
a(Vribonucleoprotein complex assembly
p211
I405
tp212
a(Vhistone binding
p213
I398
tp214
a(Vplasma membrane organization
p215
I390
tp216
a(Vprotein folding
p217
I388
tp218
a(Vproteinaceous extracellular matrix
p219
I376
tp220
a(Vnuclear envelope
p221
I369
tp222
a(Vsecondary metabolic process
p223
I360
tp224
a(VGTPase activity
p225
I337
tp226
a(Vnucleotidyltransferase activity
p227
I316
tp228
a(VmRNA binding
p229
I313
tp230
a(Vexternal encapsulating structure
p231
I305
tp232
a(Visomerase activity
p233
I302
tp234
a(Vcell wall
p235
I296
tp236
a(Vhydrolase activity, acting on glycosyl bonds
p237
I295
tp238
a(Vmitosis
p239
I292
tp240
a(Vchromosome segregation
p241
I291
tp242
a(Vvacuolar transport
p243
I290
tp244
a(Vhydrolase activity, acting on carbon-nitrogen (but not peptide) bonds
p245
I281
tp246
a(Vcell wall organization or biogenesis
p247
I252
tp248
a(Vprotein binding, bridging
p249
I247
tp250
a(Vperoxisome
p251
I241
tp252
a(Vsmall conjugating protein binding
p253
I228
tp254
a(VtRNA metabolic process
p255
I219
tp256
a(Vstructural constituent of ribosome
p257
I217
tp258
a(Vprotein transporter activity
p259
I207
tp260
a(Vtranslation factor activity, nucleic acid binding
p261
I189
tp262
a(Vunfolded protein binding
p263
I174
tp264
a(Vlipid particle
p265
I169
tp266
a(Vtranslation
p267
I151
tp268
a(Vribosome
p269
I149
tp270
a(Vtransferase activity, transferring alkyl or aryl (other than methyl) groups
p271
I140
tp272
a(Vintracellular
p273
I136
tp274
a(Vnuclear chromosome
p275
I127
tp276
a(Vpigmentation
p277
I114
tp278
a(Vribosome biogenesis
p279
I95
tp280
a(VrRNA binding
p281
I71
tp282
a(Vthylakoid
p283
I43
tp284
a(Vtransposition
p285
I37
tp286
a(Vnitrogen cycle metabolic process
p287
I18
tp288
a(Vphotosynthesis
p289
I7
tp290
a(Vcell
p291
I7
tp292
a(VRNA modification guide activity
p293
I1
tp294
aa(lp295
(g3
L6372L
tp296
a(g5
L4365L
tp297
a(g7
L2787L
tp298
a(g9
L21685L
tp299
a(g11
L26888L
tp300
a(g13
L5491L
tp301
a(g15
L5801L
tp302
a(g17
L18268L
tp303
a(g19
L5613L
tp304
a(g21
L21693L
tp305
a(g23
L21630L
tp306
a(g25
L22689L
tp307
a(g27
L7192L
tp308
a(g29
L5168L
tp309
a(g31
L7190L
tp310
a(g33
L1781L
tp311
a(g35
L13924L
tp312
a(g37
L13633L
tp313
a(g39
L12968L
tp314
a(g41
L4599L
tp315
a(g43
L5326L
tp316
a(g45
L20507L
tp317
a(g47
L13690L
tp318
a(g49
L4644L
tp319
a(g51
L26682L
tp320
a(g53
L4507L
tp321
a(g55
L10381L
tp322
a(g57
L4422L
tp323
a(g59
L4995L
tp324
a(g61
L21086L
tp325
a(g63
L3827L
tp326
a(g65
L2790L
tp327
a(g67
L28228L
tp328
a(g69
L4514L
tp329
a(g71
L26901L
tp330
a(g73
L27837L
tp331
a(g75
L29927L
tp332
a(g77
L31581L
tp333
a(g79
L6320L
tp334
a(g81
L4725L
tp335
a(g83
L20503L
tp336
a(g85
L28535L
tp337
a(g87
L7881L
tp338
a(g89
L10598L
tp339
a(g91
L18282L
tp340
a(g93
L10466L
tp341
a(g95
L5663L
tp342
a(g97
L5165L
tp343
a(g99
L5896L
tp344
a(g101
L4567L
tp345
a(g103
L10229L
tp346
a(g105
L6500L
tp347
a(g107
L2830L
tp348
a(g109
L5791L
tp349
a(g111
L4621L
tp350
a(g113
L4515L
tp351
a(g115
L4556L
tp352
a(g117
L5218L
tp353
a(g119
L6494L
tp354
a(g121
L6448L
tp355
a(g123
L6436L
tp356
a(g125
L30984L
tp357
a(g127
L4542L
tp358
a(g129
L10950L
tp359
a(g131
L10963L
tp360
a(g133
L14001L
tp361
a(g135
L594L
tp362
a(g137
L6357L
tp363
a(g139
L4439L
tp364
a(g141
L4586L
tp365
a(g143
L677L
tp366
a(g145
L759L
tp367
a(g147
L4118L
tp368
a(g149
L4366L
tp369
a(g151
L5471L
tp370
a(g153
L5302L
tp371
a(g155
L4405L
tp372
a(g157
L4546L
tp373
a(g159
L13967L
tp374
a(g161
L4684L
tp375
a(g163
L10829L
tp376
a(g165
L22810L
tp377
a(g167
L2364L
tp378
a(g169
L28144L
tp379
a(g171
L5112L
tp380
a(g173
L10870L
tp381
a(g175
L10840L
tp382
a(g177
L5695L
tp383
a(g179
L4838L
tp384
a(g181
L3L
tp385
a(g183
L3404L
tp386
a(g185
L28251L
tp387
a(g187
L5582L
tp388
a(g189
L17965L
tp389
a(g191
L6169L
tp390
a(g193
L13274L
tp391
a(g195
L3518L
tp392
a(g197
L4538L
tp393
a(g199
L6389L
tp394
a(g201
L5658L
tp395
a(g203
L7644L
tp396
a(g205
L4475L
tp397
a(g207
L14427L
tp398
a(g209
L10905L
tp399
a(g211
L13644L
tp400
a(g213
L20900L
tp401
a(g215
L5662L
tp402
a(g217
L5161L
tp403
a(g219
L4368L
tp404
a(g221
L4423L
tp405
a(g223
L12827L
tp406
a(g225
L2991L
tp407
a(g227
L10860L
tp408
a(g229
L2835L
tp409
a(g231
L14078L
tp410
a(g233
L10929L
tp411
a(g235
L4408L
tp412
a(g237
L10876L
tp413
a(g239
L5712L
tp414
a(g241
L5705L
tp415
a(g243
L5682L
tp416
a(g245
L10886L
tp417
a(g247
L33137L
tp418
a(g249
L14396L
tp419
a(g251
L4550L
tp420
a(g253
L15840L
tp421
a(g255
L5114L
tp422
a(g257
L2841L
tp423
a(g259
L6747L
tp424
a(g261
L6358L
tp425
a(g263
L28040L
tp426
a(g265
L4583L
tp427
a(g267
L5126L
tp428
a(g269
L4609L
tp429
a(g271
L10848L
tp430
a(g273
L4411L
tp431
a(g275
L201L
tp432
a(g277
L21900L
tp433
a(g279
L20770L
tp434
a(g281
L12918L
tp435
a(g283
L7683L
tp436
a(g285
L15852L
tp437
a(g287
L33512L
tp438
a(g289
L10192L
tp439
a(g291
L4412L
tp440
a(g293
L14288L
tp441
aaI892135
a.