(lp1
(lp2
(Vbiological_process
p3
I195539
tp4
a(Vcellular_component
p5
I65466
tp6
a(Vmolecular_function
p7
I52830
tp8
a(Vorganelle
p9
I17668
tp10
a(Vanatomical structure development
p11
I14629
tp12
a(Vtransport
p13
I11067
tp14
a(Vcellular nitrogen compound metabolic process
p15
I9291
tp16
a(Vsignal transduction
p17
I8729
tp18
a(Vresponse to stress
p19
I7280
tp20
a(Vprotein complex
p21
I7242
tp22
a(Vion binding
p23
I6380
tp24
a(Vsmall molecule metabolic process
p25
I6380
tp26
a(Vbiosynthetic process
p27
I5915
tp28
a(Vcellular protein modification process
p29
I5087
tp30
a(Vcatabolic process
p31
I4526
tp32
a(Vimmune system process
p33
I4082
tp34
a(Vcell differentiation
p35
I3505
tp36
a(Vcellular component assembly
p37
I3171
tp38
a(Vlipid metabolic process
p39
I3036
tp40
a(Vcytosol
p41
I2863
tp42
a(Venzyme binding
p43
I2780
tp44
a(Vlocomotion
p45
I2473
tp46
a(Vtransmembrane transporter activity
p47
I2422
tp48
a(VDNA metabolic process
p49
I2375
tp50
a(Vnucleolus
p51
I2304
tp52
a(Vanatomical structure formation involved in morphogenesis
p53
I2284
tp54
a(Vplasma membrane
p55
I2276
tp56
a(Vnucleus
p57
I2241
tp58
a(Vvesicle-mediated transport
p59
I2222
tp60
a(Vchromosome organization
p61
I1908
tp62
a(Vhomeostatic process
p63
I1901
tp64
a(VDNA binding
p65
I1840
tp66
a(Vcytoplasm
p67
I1835
tp68
a(Vtransmembrane transport
p69
I1760
tp70
a(Vmacromolecular complex assembly
p71
I1743
tp72
a(Vcell motility
p73
I1717
tp74
a(Voxidoreductase activity
p75
I1656
tp76
a(Vnucleobase-containing compound catabolic process
p77
I1642
tp78
a(Vcarbohydrate metabolic process
p79
I1631
tp80
a(Vprotein maturation
p81
I1577
tp82
a(Vneurological system process
p83
I1576
tp84
a(Vcytoskeletal protein binding
p85
I1552
tp86
a(Vembryo development
p87
I1512
tp88
a(Vgrowth
p89
I1482
tp90
a(Vprotein complex assembly
p91
I1434
tp92
a(Vcytoskeleton organization
p93
I1432
tp94
a(Vkinase activity
p95
I1412
tp96
a(Vsignal transducer activity
p97
I1368
tp98
a(VGolgi apparatus
p99
I1233
tp100
a(Vcytoplasmic membrane-bounded vesicle
p101
I1196
tp102
a(Vmitochondrion
p103
I1175
tp104
a(VRNA binding
p105
I1168
tp106
a(Vcytoskeleton
p107
I1159
tp108
a(Vlipid binding
p109
I1154
tp110
a(Vcell adhesion
p111
I1072
tp112
a(Vcellular amino acid metabolic process
p113
I1068
tp114
a(VATPase activity
p115
I1022
tp116
a(Vpeptidase activity
p117
I1004
tp118
a(Vendoplasmic reticulum
p119
I1004
tp120
a(Vmembrane organization
p121
I963
tp122
a(Vcell-cell signaling
p123
I950
tp124
a(Vendosome
p125
I943
tp126
a(Vcell death
p127
I906
tp128
a(Vnucleoplasm
p129
I886
tp130
a(Vligase activity
p131
I879
tp132
a(Venzyme regulator activity
p133
I869
tp134
a(Vcell proliferation
p135
I868
tp136
a(Vmicrotubule organizing center
p137
I833
tp138
a(Vcell morphogenesis
p139
I821
tp140
a(Vtranscription factor binding
p141
I783
tp142
a(Vprotein binding transcription factor activity
p143
I774
tp144
a(Vstructural molecule activity
p145
I724
tp146
a(Vextracellular region
p147
I685
tp148
a(Vnucleic acid binding transcription factor activity
p149
I667
tp150
a(Vsulfur compound metabolic process
p151
I657
tp152
a(Vprotein targeting
p153
I652
tp154
a(Vextracellular space
p155
I549
tp156
a(VmRNA processing
p157
I535
tp158
a(Vextracellular matrix organization
p159
I530
tp160
a(Vtransferase activity, transferring acyl groups
p161
I529
tp162
a(Vsymbiosis, encompassing mutualism through parasitism
p163
I528
tp164
a(Vcilium
p165
I528
tp166
a(Vvacuole
p167
I526
tp168
a(Vcofactor metabolic process
p169
I500
tp170
a(Vphosphatase activity
p171
I485
tp172
a(Vtransferase activity, transferring glycosyl groups
p173
I440
tp174
a(Vgeneration of precursor metabolites and energy
p175
I439
tp176
a(Vcell cycle
p177
I438
tp178
a(Vreproduction
p179
I383
tp180
a(Vaging
p181
I381
tp182
a(Vhelicase activity
p183
I381
tp184
a(Vcell division
p185
I366
tp186
a(Vcell junction organization
p187
I356
tp188
a(Vnuclease activity
p189
I355
tp190
a(Vnucleocytoplasmic transport
p191
I352
tp192
a(Vcirculatory system process
p193
I329
tp194
a(Vmethyltransferase activity
p195
I318
tp196
a(Vplastid
p197
I311
tp198
a(Vdevelopmental maturation
p199
I309
tp200
a(Vlyase activity
p201
I309
tp202
a(Vlysosome
p203
I304
tp204
a(Vchromosome
p205
I293
tp206
a(Vmitochondrion organization
p207
I278
tp208
a(Vprotein folding
p209
I276
tp210
a(Vcytoskeleton-dependent intracellular transport
p211
I271
tp212
a(Vribonucleoprotein complex assembly
p213
I248
tp214
a(Vproteinaceous extracellular matrix
p215
I246
tp216
a(Vhistone binding
p217
I238
tp218
a(VGTPase activity
p219
I235
tp220
a(Vplasma membrane organization
p221
I226
tp222
a(Vnuclear envelope
p223
I225
tp224
a(Vnucleotidyltransferase activity
p225
I222
tp226
a(Vsecondary metabolic process
p227
I215
tp228
a(Vexternal encapsulating structure
p229
I203
tp230
a(Vmitosis
p231
I201
tp232
a(Vcell wall
p233
I196
tp234
a(Visomerase activity
p235
I195
tp236
a(VmRNA binding
p237
I193
tp238
a(Vhydrolase activity, acting on carbon-nitrogen (but not peptide) bonds
p239
I189
tp240
a(Vvacuolar transport
p241
I181
tp242
a(Vhydrolase activity, acting on glycosyl bonds
p243
I178
tp244
a(Vchromosome segregation
p245
I177
tp246
a(Vstructural constituent of ribosome
p247
I167
tp248
a(Vcell wall organization or biogenesis
p249
I158
tp250
a(Vprotein binding, bridging
p251
I154
tp252
a(VtRNA metabolic process
p253
I150
tp254
a(Vsmall conjugating protein binding
p255
I142
tp256
a(Vperoxisome
p257
I137
tp258
a(Vtranslation factor activity, nucleic acid binding
p259
I124
tp260
a(Vprotein transporter activity
p261
I117
tp262
a(Vunfolded protein binding
p263
I115
tp264
a(Vlipid particle
p265
I106
tp266
a(Vtranslation
p267
I102
tp268
a(Vnuclear chromosome
p269
I98
tp270
a(Vribosome
p271
I87
tp272
a(Vtransferase activity, transferring alkyl or aryl (other than methyl) groups
p273
I87
tp274
a(Vribosome biogenesis
p275
I78
tp276
a(Vpigmentation
p277
I77
tp278
a(Vintracellular
p279
I73
tp280
a(VrRNA binding
p281
I48
tp282
a(Vtransposition
p283
I28
tp284
a(Vthylakoid
p285
I25
tp286
a(Vnitrogen cycle metabolic process
p287
I24
tp288
a(Vcell
p289
I9
tp290
a(Vphotosynthesis
p291
I7
tp292
a(VRNA modification guide activity
p293
I3
tp294
aa(lp295
(g3
L6372L
tp296
a(g5
L4365L
tp297
a(g7
L2787L
tp298
a(g9
L21685L
tp299
a(g11
L26888L
tp300
a(g13
L5491L
tp301
a(g15
L18268L
tp302
a(g17
L5801L
tp303
a(g19
L5613L
tp304
a(g21
L21693L
tp305
a(g23
L21630L
tp306
a(g25
L22689L
tp307
a(g27
L7192L
tp308
a(g29
L5168L
tp309
a(g31
L7190L
tp310
a(g33
L1781L
tp311
a(g35
L13924L
tp312
a(g37
L13633L
tp313
a(g39
L5326L
tp314
a(g41
L4599L
tp315
a(g43
L12968L
tp316
a(g45
L20507L
tp317
a(g47
L13690L
tp318
a(g49
L4995L
tp319
a(g51
L4507L
tp320
a(g53
L26682L
tp321
a(g55
L4644L
tp322
a(g57
L4422L
tp323
a(g59
L10381L
tp324
a(g61
L28228L
tp325
a(g63
L21086L
tp326
a(g65
L2790L
tp327
a(g67
L4514L
tp328
a(g69
L29927L
tp329
a(g71
L31581L
tp330
a(g73
L26901L
tp331
a(g75
L10598L
tp332
a(g77
L18282L
tp333
a(g79
L4725L
tp334
a(g81
L28535L
tp335
a(g83
L27837L
tp336
a(g85
L6320L
tp337
a(g87
L7881L
tp338
a(g89
L20503L
tp339
a(g91
L5165L
tp340
a(g93
L5663L
tp341
a(g95
L10466L
tp342
a(g97
L3827L
tp343
a(g99
L4567L
tp344
a(g101
L10229L
tp345
a(g103
L4515L
tp346
a(g105
L2830L
tp347
a(g107
L4621L
tp348
a(g109
L6500L
tp349
a(g111
L5791L
tp350
a(g113
L5218L
tp351
a(g115
L10963L
tp352
a(g117
L6448L
tp353
a(g119
L4556L
tp354
a(g121
L30984L
tp355
a(g123
L5896L
tp356
a(g125
L4542L
tp357
a(g127
L6436L
tp358
a(g129
L4439L
tp359
a(g131
L10950L
tp360
a(g133
L14001L
tp361
a(g135
L6494L
tp362
a(g137
L4586L
tp363
a(g139
L594L
tp364
a(g141
L6357L
tp365
a(g143
L677L
tp366
a(g145
L4118L
tp367
a(g147
L4366L
tp368
a(g149
L759L
tp369
a(g151
L5471L
tp370
a(g153
L5302L
tp371
a(g155
L4405L
tp372
a(g157
L5112L
tp373
a(g159
L13967L
tp374
a(g161
L10829L
tp375
a(g163
L22810L
tp376
a(g165
L4684L
tp377
a(g167
L4546L
tp378
a(g169
L28144L
tp379
a(g171
L10870L
tp380
a(g173
L10840L
tp381
a(g175
L4838L
tp382
a(g177
L5695L
tp383
a(g179
L3L
tp384
a(g181
L6169L
tp385
a(g183
L3404L
tp386
a(g185
L28251L
tp387
a(g187
L17965L
tp388
a(g189
L3518L
tp389
a(g191
L5582L
tp390
a(g193
L2364L
tp391
a(g195
L6389L
tp392
a(g197
L7644L
tp393
a(g199
L13274L
tp394
a(g201
L10905L
tp395
a(g203
L4538L
tp396
a(g205
L4475L
tp397
a(g207
L5658L
tp398
a(g209
L5161L
tp399
a(g211
L14427L
tp400
a(g213
L13644L
tp401
a(g215
L4368L
tp402
a(g217
L20900L
tp403
a(g219
L2991L
tp404
a(g221
L5662L
tp405
a(g223
L4423L
tp406
a(g225
L10860L
tp407
a(g227
L12827L
tp408
a(g229
L14078L
tp409
a(g231
L5712L
tp410
a(g233
L4408L
tp411
a(g235
L10929L
tp412
a(g237
L2835L
tp413
a(g239
L10886L
tp414
a(g241
L5682L
tp415
a(g243
L10876L
tp416
a(g245
L5705L
tp417
a(g247
L2841L
tp418
a(g249
L33137L
tp419
a(g251
L14396L
tp420
a(g253
L5114L
tp421
a(g255
L15840L
tp422
a(g257
L4550L
tp423
a(g259
L6358L
tp424
a(g261
L6747L
tp425
a(g263
L28040L
tp426
a(g265
L4583L
tp427
a(g267
L5126L
tp428
a(g269
L201L
tp429
a(g271
L4609L
tp430
a(g273
L10848L
tp431
a(g275
L20770L
tp432
a(g277
L21900L
tp433
a(g279
L4411L
tp434
a(g281
L12918L
tp435
a(g283
L15852L
tp436
a(g285
L7683L
tp437
a(g287
L33512L
tp438
a(g289
L4412L
tp439
a(g291
L10192L
tp440
a(g293
L14288L
tp441
aaI530439
a.