(lp1
(lp2
(Vbiological_process
p3
I236865
tp4
a(Vcellular_component
p5
I79174
tp6
a(Vmolecular_function
p7
I63195
tp8
a(Vorganelle
p9
I21524
tp10
a(Vanatomical structure development
p11
I17226
tp12
a(Vtransport
p13
I13249
tp14
a(Vcellular nitrogen compound metabolic process
p15
I11148
tp16
a(Vsignal transduction
p17
I10486
tp18
a(Vresponse to stress
p19
I8806
tp20
a(Vprotein complex
p21
I8559
tp22
a(Vsmall molecule metabolic process
p23
I7744
tp24
a(Vion binding
p25
I7589
tp26
a(Vbiosynthetic process
p27
I7263
tp28
a(Vcellular protein modification process
p29
I6374
tp30
a(Vcatabolic process
p31
I5487
tp32
a(Vimmune system process
p33
I4804
tp34
a(Vcell differentiation
p35
I4118
tp36
a(Vcellular component assembly
p37
I3881
tp38
a(Vlipid metabolic process
p39
I3585
tp40
a(Vcytosol
p41
I3402
tp42
a(Venzyme binding
p43
I3324
tp44
a(VDNA metabolic process
p45
I2922
tp46
a(Vlocomotion
p47
I2883
tp48
a(Vvesicle-mediated transport
p49
I2747
tp50
a(Vtransmembrane transporter activity
p51
I2732
tp52
a(Vplasma membrane
p53
I2727
tp54
a(Vnucleus
p55
I2693
tp56
a(Vnucleolus
p57
I2688
tp58
a(Vanatomical structure formation involved in morphogenesis
p59
I2642
tp60
a(Vchromosome organization
p61
I2395
tp62
a(Vhomeostatic process
p63
I2260
tp64
a(Vcytoplasm
p65
I2156
tp66
a(Vcarbohydrate metabolic process
p67
I2127
tp68
a(VDNA binding
p69
I2071
tp70
a(Vmacromolecular complex assembly
p71
I2061
tp72
a(Voxidoreductase activity
p73
I2021
tp74
a(Vcell motility
p75
I1982
tp76
a(Vtransmembrane transport
p77
I1978
tp78
a(Vnucleobase-containing compound catabolic process
p79
I1949
tp80
a(Vkinase activity
p81
I1944
tp82
a(Vcytoskeletal protein binding
p83
I1934
tp84
a(Vgrowth
p85
I1824
tp86
a(Vneurological system process
p87
I1805
tp88
a(Vprotein maturation
p89
I1797
tp90
a(Vcytoskeleton organization
p91
I1792
tp92
a(Vembryo development
p93
I1773
tp94
a(Vprotein complex assembly
p95
I1716
tp96
a(Vsignal transducer activity
p97
I1606
tp98
a(Vcytoskeleton
p99
I1447
tp100
a(VGolgi apparatus
p101
I1429
tp102
a(Vmitochondrion
p103
I1425
tp104
a(Vlipid binding
p105
I1392
tp106
a(Vcytoplasmic membrane-bounded vesicle
p107
I1373
tp108
a(Vcellular amino acid metabolic process
p109
I1355
tp110
a(VRNA binding
p111
I1310
tp112
a(Vcell adhesion
p113
I1272
tp114
a(VATPase activity
p115
I1237
tp116
a(Vendoplasmic reticulum
p117
I1216
tp118
a(Vendosome
p119
I1173
tp120
a(Vpeptidase activity
p121
I1163
tp122
a(Vmembrane organization
p123
I1160
tp124
a(Vcell-cell signaling
p125
I1106
tp126
a(Vcell death
p127
I1101
tp128
a(Vcell morphogenesis
p129
I1044
tp130
a(Vmicrotubule organizing center
p131
I1041
tp132
a(Vligase activity
p133
I1035
tp134
a(Venzyme regulator activity
p135
I1032
tp136
a(Vnucleoplasm
p137
I1007
tp138
a(Vcell proliferation
p139
I1001
tp140
a(Vtranscription factor binding
p141
I890
tp142
a(Vprotein binding transcription factor activity
p143
I853
tp144
a(Vsulfur compound metabolic process
p145
I794
tp146
a(Vextracellular region
p147
I789
tp148
a(Vstructural molecule activity
p149
I784
tp150
a(Vprotein targeting
p151
I731
tp152
a(Vnucleic acid binding transcription factor activity
p153
I724
tp154
a(Vcilium
p155
I674
tp156
a(Vtransferase activity, transferring acyl groups
p157
I666
tp158
a(Vphosphatase activity
p159
I645
tp160
a(Vcell cycle
p161
I640
tp162
a(Vvacuole
p163
I639
tp164
a(VmRNA processing
p165
I597
tp166
a(Vcofactor metabolic process
p167
I596
tp168
a(Vextracellular space
p169
I588
tp170
a(Vsymbiosis, encompassing mutualism through parasitism
p171
I576
tp172
a(Vextracellular matrix organization
p173
I576
tp174
a(Vtransferase activity, transferring glycosyl groups
p175
I556
tp176
a(Vreproduction
p177
I503
tp178
a(Vgeneration of precursor metabolites and energy
p179
I500
tp180
a(Vhelicase activity
p181
I490
tp182
a(Vcell division
p183
I475
tp184
a(Vcell junction organization
p185
I444
tp186
a(Vaging
p187
I437
tp188
a(Vnuclease activity
p189
I429
tp190
a(Vlyase activity
p191
I417
tp192
a(Vnucleocytoplasmic transport
p193
I401
tp194
a(Vmethyltransferase activity
p195
I398
tp196
a(Vcirculatory system process
p197
I384
tp198
a(Vchromosome
p199
I378
tp200
a(Vplastid
p201
I377
tp202
a(Vdevelopmental maturation
p203
I367
tp204
a(Vcytoskeleton-dependent intracellular transport
p205
I360
tp206
a(Vlysosome
p207
I357
tp208
a(Vmitochondrion organization
p209
I319
tp210
a(Vprotein folding
p211
I312
tp212
a(Vnuclear envelope
p213
I288
tp214
a(VGTPase activity
p215
I284
tp216
a(Vhydrolase activity, acting on glycosyl bonds
p217
I281
tp218
a(Vhistone binding
p219
I279
tp220
a(Vribonucleoprotein complex assembly
p221
I274
tp222
a(Vplasma membrane organization
p223
I270
tp224
a(Vnucleotidyltransferase activity
p225
I269
tp226
a(Vproteinaceous extracellular matrix
p227
I266
tp228
a(Vsecondary metabolic process
p229
I263
tp230
a(Visomerase activity
p231
I261
tp232
a(Vchromosome segregation
p233
I249
tp234
a(Vmitosis
p235
I249
tp236
a(Vexternal encapsulating structure
p237
I242
tp238
a(Vcell wall
p239
I235
tp240
a(Vhydrolase activity, acting on carbon-nitrogen (but not peptide) bonds
p241
I229
tp242
a(Vvacuolar transport
p243
I219
tp244
a(VmRNA binding
p245
I210
tp246
a(Vcell wall organization or biogenesis
p247
I210
tp248
a(VtRNA metabolic process
p249
I208
tp250
a(Vprotein binding, bridging
p251
I195
tp252
a(Vsmall conjugating protein binding
p253
I170
tp254
a(Vstructural constituent of ribosome
p255
I168
tp256
a(Vperoxisome
p257
I166
tp258
a(Vlipid particle
p259
I130
tp260
a(Vprotein transporter activity
p261
I129
tp262
a(Vtranslation
p263
I129
tp264
a(Vtranslation factor activity, nucleic acid binding
p265
I123
tp266
a(Vunfolded protein binding
p267
I117
tp268
a(Vnuclear chromosome
p269
I114
tp270
a(Vintracellular
p271
I104
tp272
a(Vtransferase activity, transferring alkyl or aryl (other than methyl) groups
p273
I97
tp274
a(Vribosome
p275
I95
tp276
a(Vribosome biogenesis
p277
I91
tp278
a(Vpigmentation
p279
I84
tp280
a(VrRNA binding
p281
I57
tp282
a(Vthylakoid
p283
I35
tp284
a(Vnitrogen cycle metabolic process
p285
I32
tp286
a(Vtransposition
p287
I28
tp288
a(Vcell
p289
I10
tp290
a(Vphotosynthesis
p291
I8
tp292
a(VRNA modification guide activity
p293
I3
tp294
aa(lp295
(g3
L6372L
tp296
a(g5
L4365L
tp297
a(g7
L2787L
tp298
a(g9
L21685L
tp299
a(g11
L26888L
tp300
a(g13
L5491L
tp301
a(g15
L18268L
tp302
a(g17
L5801L
tp303
a(g19
L5613L
tp304
a(g21
L21693L
tp305
a(g23
L22689L
tp306
a(g25
L21630L
tp307
a(g27
L7192L
tp308
a(g29
L5168L
tp309
a(g31
L7190L
tp310
a(g33
L1781L
tp311
a(g35
L13924L
tp312
a(g37
L13633L
tp313
a(g39
L5326L
tp314
a(g41
L4599L
tp315
a(g43
L12968L
tp316
a(g45
L4995L
tp317
a(g47
L20507L
tp318
a(g49
L10381L
tp319
a(g51
L13690L
tp320
a(g53
L4644L
tp321
a(g55
L4422L
tp322
a(g57
L4507L
tp323
a(g59
L26682L
tp324
a(g61
L28228L
tp325
a(g63
L21086L
tp326
a(g65
L4514L
tp327
a(g67
L4725L
tp328
a(g69
L2790L
tp329
a(g71
L31581L
tp330
a(g73
L10598L
tp331
a(g75
L26901L
tp332
a(g77
L29927L
tp333
a(g79
L18282L
tp334
a(g81
L10466L
tp335
a(g83
L6320L
tp336
a(g85
L20503L
tp337
a(g87
L27837L
tp338
a(g89
L28535L
tp339
a(g91
L5663L
tp340
a(g93
L7881L
tp341
a(g95
L5165L
tp342
a(g97
L3827L
tp343
a(g99
L4621L
tp344
a(g101
L4567L
tp345
a(g103
L4515L
tp346
a(g105
L6500L
tp347
a(g107
L10229L
tp348
a(g109
L5218L
tp349
a(g111
L2830L
tp350
a(g113
L5791L
tp351
a(g115
L10963L
tp352
a(g117
L4556L
tp353
a(g119
L4542L
tp354
a(g121
L6448L
tp355
a(g123
L30984L
tp356
a(g125
L5896L
tp357
a(g127
L6436L
tp358
a(g129
L594L
tp359
a(g131
L4586L
tp360
a(g133
L10950L
tp361
a(g135
L14001L
tp362
a(g137
L4439L
tp363
a(g139
L6494L
tp364
a(g141
L6357L
tp365
a(g143
L677L
tp366
a(g145
L5471L
tp367
a(g147
L4366L
tp368
a(g149
L4118L
tp369
a(g151
L5302L
tp370
a(g153
L759L
tp371
a(g155
L4684L
tp372
a(g157
L10829L
tp373
a(g159
L10870L
tp374
a(g161
L5695L
tp375
a(g163
L4546L
tp376
a(g165
L5112L
tp377
a(g167
L28144L
tp378
a(g169
L4405L
tp379
a(g171
L22810L
tp380
a(g173
L13967L
tp381
a(g175
L10840L
tp382
a(g177
L3L
tp383
a(g179
L4838L
tp384
a(g181
L3404L
tp385
a(g183
L28251L
tp386
a(g185
L17965L
tp387
a(g187
L6169L
tp388
a(g189
L3518L
tp389
a(g191
L10905L
tp390
a(g193
L5582L
tp391
a(g195
L6389L
tp392
a(g197
L2364L
tp393
a(g199
L4475L
tp394
a(g201
L7644L
tp395
a(g203
L13274L
tp396
a(g205
L14427L
tp397
a(g207
L4538L
tp398
a(g209
L5658L
tp399
a(g211
L5161L
tp400
a(g213
L4423L
tp401
a(g215
L2991L
tp402
a(g217
L10876L
tp403
a(g219
L20900L
tp404
a(g221
L13644L
tp405
a(g223
L5662L
tp406
a(g225
L10860L
tp407
a(g227
L4368L
tp408
a(g229
L12827L
tp409
a(g231
L10929L
tp410
a(g233
L5705L
tp411
a(g235
L5712L
tp412
a(g237
L14078L
tp413
a(g239
L4408L
tp414
a(g241
L10886L
tp415
a(g243
L5682L
tp416
a(g245
L2835L
tp417
a(g247
L33137L
tp418
a(g249
L5114L
tp419
a(g251
L14396L
tp420
a(g253
L15840L
tp421
a(g255
L2841L
tp422
a(g257
L4550L
tp423
a(g259
L4583L
tp424
a(g261
L6747L
tp425
a(g263
L5126L
tp426
a(g265
L6358L
tp427
a(g267
L28040L
tp428
a(g269
L201L
tp429
a(g271
L4411L
tp430
a(g273
L10848L
tp431
a(g275
L4609L
tp432
a(g277
L20770L
tp433
a(g279
L21900L
tp434
a(g281
L12918L
tp435
a(g283
L7683L
tp436
a(g285
L33512L
tp437
a(g287
L15852L
tp438
a(g289
L4412L
tp439
a(g291
L10192L
tp440
a(g293
L14288L
tp441
aaI638884
a.