(lp1
(lp2
(Vbiological_process
p3
I219004
tp4
a(Vcellular_component
p5
I73005
tp6
a(Vmolecular_function
p7
I59310
tp8
a(Vorganelle
p9
I19587
tp10
a(Vanatomical structure development
p11
I16485
tp12
a(Vtransport
p13
I12249
tp14
a(Vcellular nitrogen compound metabolic process
p15
I9983
tp16
a(Vsignal transduction
p17
I9825
tp18
a(Vresponse to stress
p19
I8157
tp20
a(Vprotein complex
p21
I8061
tp22
a(Vsmall molecule metabolic process
p23
I7235
tp24
a(Vion binding
p25
I7198
tp26
a(Vbiosynthetic process
p27
I6527
tp28
a(Vcellular protein modification process
p29
I5567
tp30
a(Vcatabolic process
p31
I5036
tp32
a(Vimmune system process
p33
I4546
tp34
a(Vcell differentiation
p35
I3968
tp36
a(Vcellular component assembly
p37
I3598
tp38
a(Vlipid metabolic process
p39
I3440
tp40
a(Vcytosol
p41
I3260
tp42
a(Venzyme binding
p43
I3141
tp44
a(Vlocomotion
p45
I2700
tp46
a(Vtransmembrane transporter activity
p47
I2608
tp48
a(Vnucleolus
p49
I2589
tp50
a(Vplasma membrane
p51
I2580
tp52
a(Vanatomical structure formation involved in morphogenesis
p53
I2538
tp54
a(Vvesicle-mediated transport
p55
I2524
tp56
a(VDNA metabolic process
p57
I2444
tp58
a(Vnucleus
p59
I2431
tp60
a(Vhomeostatic process
p61
I2130
tp62
a(VDNA binding
p63
I2127
tp64
a(Vchromosome organization
p65
I2044
tp66
a(Vmacromolecular complex assembly
p67
I1993
tp68
a(Vcytoplasm
p69
I1987
tp70
a(Voxidoreductase activity
p71
I1940
tp72
a(Vcell motility
p73
I1892
tp74
a(Vtransmembrane transport
p75
I1883
tp76
a(Vcarbohydrate metabolic process
p77
I1852
tp78
a(Vnucleobase-containing compound catabolic process
p79
I1787
tp80
a(Vprotein maturation
p81
I1765
tp82
a(Vneurological system process
p83
I1720
tp84
a(Vcytoskeletal protein binding
p85
I1717
tp86
a(Vgrowth
p87
I1684
tp88
a(Vembryo development
p89
I1682
tp90
a(Vprotein complex assembly
p91
I1640
tp92
a(Vsignal transducer activity
p93
I1603
tp94
a(Vcytoskeleton organization
p95
I1587
tp96
a(Vkinase activity
p97
I1500
tp98
a(VGolgi apparatus
p99
I1352
tp100
a(Vcytoplasmic membrane-bounded vesicle
p101
I1346
tp102
a(Vmitochondrion
p103
I1334
tp104
a(VRNA binding
p105
I1321
tp106
a(Vlipid binding
p107
I1307
tp108
a(Vcytoskeleton
p109
I1261
tp110
a(Vcellular amino acid metabolic process
p111
I1252
tp112
a(Vpeptidase activity
p113
I1192
tp114
a(Vcell adhesion
p115
I1176
tp116
a(Vendoplasmic reticulum
p117
I1113
tp118
a(Vcell-cell signaling
p119
I1098
tp120
a(Vmembrane organization
p121
I1085
tp122
a(VATPase activity
p123
I1078
tp124
a(Vendosome
p125
I1038
tp126
a(Vcell death
p127
I1037
tp128
a(Venzyme regulator activity
p129
I1006
tp130
a(Vnucleoplasm
p131
I980
tp132
a(Vcell proliferation
p133
I977
tp134
a(Vligase activity
p135
I958
tp136
a(Vcell morphogenesis
p137
I922
tp138
a(Vmicrotubule organizing center
p139
I907
tp140
a(Vtranscription factor binding
p141
I891
tp142
a(Vprotein binding transcription factor activity
p143
I874
tp144
a(Vstructural molecule activity
p145
I847
tp146
a(Vextracellular region
p147
I825
tp148
a(Vnucleic acid binding transcription factor activity
p149
I810
tp150
a(Vsulfur compound metabolic process
p151
I769
tp152
a(Vprotein targeting
p153
I736
tp154
a(Vextracellular space
p155
I667
tp156
a(Vextracellular matrix organization
p157
I629
tp158
a(Vvacuole
p159
I624
tp160
a(Vtransferase activity, transferring acyl groups
p161
I607
tp162
a(Vsymbiosis, encompassing mutualism through parasitism
p163
I599
tp164
a(Vcilium
p165
I581
tp166
a(VmRNA processing
p167
I580
tp168
a(Vcofactor metabolic process
p169
I561
tp170
a(Vgeneration of precursor metabolites and energy
p171
I528
tp172
a(Vphosphatase activity
p173
I511
tp174
a(Vcell cycle
p175
I483
tp176
a(Vtransferase activity, transferring glycosyl groups
p177
I470
tp178
a(Vreproduction
p179
I437
tp180
a(Vaging
p181
I412
tp182
a(Vcell division
p183
I411
tp184
a(Vcell junction organization
p185
I399
tp186
a(Vnucleocytoplasmic transport
p187
I395
tp188
a(Vhelicase activity
p189
I384
tp190
a(Vcirculatory system process
p191
I383
tp192
a(Vdevelopmental maturation
p193
I365
tp194
a(Vlyase activity
p195
I364
tp196
a(Vnuclease activity
p197
I360
tp198
a(Vlysosome
p199
I356
tp200
a(Vplastid
p201
I352
tp202
a(Vmethyltransferase activity
p203
I338
tp204
a(Vprotein folding
p205
I321
tp206
a(Vchromosome
p207
I315
tp208
a(Vmitochondrion organization
p209
I307
tp210
a(Vcytoskeleton-dependent intracellular transport
p211
I297
tp212
a(Vribonucleoprotein complex assembly
p213
I288
tp214
a(Vproteinaceous extracellular matrix
p215
I280
tp216
a(VGTPase activity
p217
I275
tp218
a(Vhistone binding
p219
I267
tp220
a(Vnuclear envelope
p221
I256
tp222
a(Vsecondary metabolic process
p223
I256
tp224
a(Vexternal encapsulating structure
p225
I245
tp226
a(Vnucleotidyltransferase activity
p227
I245
tp228
a(Vplasma membrane organization
p229
I241
tp230
a(Vcell wall
p231
I238
tp232
a(Visomerase activity
p233
I233
tp234
a(VmRNA binding
p235
I225
tp236
a(Vhydrolase activity, acting on glycosyl bonds
p237
I216
tp238
a(Vmitosis
p239
I210
tp240
a(Vhydrolase activity, acting on carbon-nitrogen (but not peptide) bonds
p241
I206
tp242
a(Vstructural constituent of ribosome
p243
I205
tp244
a(Vvacuolar transport
p245
I199
tp246
a(Vcell wall organization or biogenesis
p247
I191
tp248
a(Vprotein binding, bridging
p249
I183
tp250
a(Vchromosome segregation
p251
I178
tp252
a(Vsmall conjugating protein binding
p253
I167
tp254
a(Vperoxisome
p255
I167
tp256
a(VtRNA metabolic process
p257
I159
tp258
a(Vtranslation factor activity, nucleic acid binding
p259
I146
tp260
a(Vunfolded protein binding
p261
I134
tp262
a(Vprotein transporter activity
p263
I133
tp264
a(Vlipid particle
p265
I133
tp266
a(Vtranslation
p267
I124
tp268
a(Vribosome
p269
I106
tp270
a(Vnuclear chromosome
p271
I105
tp272
a(Vtransferase activity, transferring alkyl or aryl (other than methyl) groups
p273
I94
tp274
a(Vpigmentation
p275
I88
tp276
a(Vintracellular
p277
I84
tp278
a(Vribosome biogenesis
p279
I83
tp280
a(VrRNA binding
p281
I59
tp282
a(Vnitrogen cycle metabolic process
p283
I33
tp284
a(Vthylakoid
p285
I31
tp286
a(Vtransposition
p287
I28
tp288
a(Vphotosynthesis
p289
I13
tp290
a(Vcell
p291
I9
tp292
a(VRNA modification guide activity
p293
I2
tp294
a(Vcytoplasmic chromosome
p295
I1
tp296
aa(lp297
(g3
L6372L
tp298
a(g5
L4365L
tp299
a(g7
L2787L
tp300
a(g9
L21685L
tp301
a(g11
L26888L
tp302
a(g13
L5491L
tp303
a(g15
L18268L
tp304
a(g17
L5801L
tp305
a(g19
L5613L
tp306
a(g21
L21693L
tp307
a(g23
L22689L
tp308
a(g25
L21630L
tp309
a(g27
L7192L
tp310
a(g29
L5168L
tp311
a(g31
L7190L
tp312
a(g33
L1781L
tp313
a(g35
L13924L
tp314
a(g37
L13633L
tp315
a(g39
L5326L
tp316
a(g41
L4599L
tp317
a(g43
L12968L
tp318
a(g45
L20507L
tp319
a(g47
L13690L
tp320
a(g49
L4507L
tp321
a(g51
L4644L
tp322
a(g53
L26682L
tp323
a(g55
L10381L
tp324
a(g57
L4995L
tp325
a(g59
L4422L
tp326
a(g61
L21086L
tp327
a(g63
L2790L
tp328
a(g65
L28228L
tp329
a(g67
L31581L
tp330
a(g69
L4514L
tp331
a(g71
L10598L
tp332
a(g73
L26901L
tp333
a(g75
L29927L
tp334
a(g77
L4725L
tp335
a(g79
L18282L
tp336
a(g81
L28535L
tp337
a(g83
L27837L
tp338
a(g85
L6320L
tp339
a(g87
L20503L
tp340
a(g89
L7881L
tp341
a(g91
L5165L
tp342
a(g93
L3827L
tp343
a(g95
L5663L
tp344
a(g97
L10466L
tp345
a(g99
L4567L
tp346
a(g101
L10229L
tp347
a(g103
L4515L
tp348
a(g105
L2830L
tp349
a(g107
L6500L
tp350
a(g109
L4621L
tp351
a(g111
L5218L
tp352
a(g113
L6448L
tp353
a(g115
L5791L
tp354
a(g117
L4556L
tp355
a(g119
L5896L
tp356
a(g121
L30984L
tp357
a(g123
L10963L
tp358
a(g125
L4542L
tp359
a(g127
L6436L
tp360
a(g129
L14001L
tp361
a(g131
L4439L
tp362
a(g133
L6494L
tp363
a(g135
L10950L
tp364
a(g137
L594L
tp365
a(g139
L4586L
tp366
a(g141
L6357L
tp367
a(g143
L677L
tp368
a(g145
L4118L
tp369
a(g147
L4366L
tp370
a(g149
L759L
tp371
a(g151
L5471L
tp372
a(g153
L5302L
tp373
a(g155
L4405L
tp374
a(g157
L13967L
tp375
a(g159
L4546L
tp376
a(g161
L10829L
tp377
a(g163
L22810L
tp378
a(g165
L4684L
tp379
a(g167
L5112L
tp380
a(g169
L28144L
tp381
a(g171
L4838L
tp382
a(g173
L10870L
tp383
a(g175
L5695L
tp384
a(g177
L10840L
tp385
a(g179
L3L
tp386
a(g181
L6169L
tp387
a(g183
L28251L
tp388
a(g185
L17965L
tp389
a(g187
L5582L
tp390
a(g189
L3404L
tp391
a(g191
L2364L
tp392
a(g193
L13274L
tp393
a(g195
L10905L
tp394
a(g197
L3518L
tp395
a(g199
L4538L
tp396
a(g201
L7644L
tp397
a(g203
L6389L
tp398
a(g205
L5161L
tp399
a(g207
L4475L
tp400
a(g209
L5658L
tp401
a(g211
L14427L
tp402
a(g213
L13644L
tp403
a(g215
L4368L
tp404
a(g217
L2991L
tp405
a(g219
L20900L
tp406
a(g221
L4423L
tp407
a(g223
L12827L
tp408
a(g225
L14078L
tp409
a(g227
L10860L
tp410
a(g229
L5662L
tp411
a(g231
L4408L
tp412
a(g233
L10929L
tp413
a(g235
L2835L
tp414
a(g237
L10876L
tp415
a(g239
L5712L
tp416
a(g241
L10886L
tp417
a(g243
L2841L
tp418
a(g245
L5682L
tp419
a(g247
L33137L
tp420
a(g249
L14396L
tp421
a(g251
L5705L
tp422
a(g253
L15840L
tp423
a(g255
L4550L
tp424
a(g257
L5114L
tp425
a(g259
L6358L
tp426
a(g261
L28040L
tp427
a(g263
L6747L
tp428
a(g265
L4583L
tp429
a(g267
L5126L
tp430
a(g269
L4609L
tp431
a(g271
L201L
tp432
a(g273
L10848L
tp433
a(g275
L21900L
tp434
a(g277
L4411L
tp435
a(g279
L20770L
tp436
a(g281
L12918L
tp437
a(g283
L33512L
tp438
a(g285
L7683L
tp439
a(g287
L15852L
tp440
a(g289
L10192L
tp441
a(g291
L4412L
tp442
a(g293
L14288L
tp443
a(g295
L202L
tp444
aaI593193
a.