(lp1
(lp2
(Vbiological_process
p3
I422632
tp4
a(Vcellular_component
p5
I140269
tp6
a(Vmolecular_function
p7
I113842
tp8
a(Vorganelle
p9
I37445
tp10
a(Vanatomical structure development
p11
I31293
tp12
a(Vtransport
p13
I23969
tp14
a(Vcellular nitrogen compound metabolic process
p15
I19479
tp16
a(Vsignal transduction
p17
I19194
tp18
a(Vresponse to stress
p19
I16031
tp20
a(Vprotein complex
p21
I14871
tp22
a(Vsmall molecule metabolic process
p23
I13986
tp24
a(Vion binding
p25
I13804
tp26
a(Vbiosynthetic process
p27
I13423
tp28
a(Vcellular protein modification process
p29
I10370
tp30
a(Vcatabolic process
p31
I10036
tp32
a(Vimmune system process
p33
I8516
tp34
a(Vcell differentiation
p35
I7274
tp36
a(Vcellular component assembly
p37
I6792
tp38
a(Vlipid metabolic process
p39
I6622
tp40
a(Vcytosol
p41
I6174
tp42
a(Venzyme binding
p43
I5847
tp44
a(Vlocomotion
p45
I5203
tp46
a(Vplasma membrane
p47
I5191
tp48
a(Vtransmembrane transporter activity
p49
I5133
tp50
a(Vnucleolus
p51
I4856
tp52
a(Vvesicle-mediated transport
p53
I4702
tp54
a(Vanatomical structure formation involved in morphogenesis
p55
I4667
tp56
a(Vnucleus
p57
I4563
tp58
a(VDNA metabolic process
p59
I4485
tp60
a(Vhomeostatic process
p61
I4217
tp62
a(VDNA binding
p63
I3934
tp64
a(Voxidoreductase activity
p65
I3905
tp66
a(Vmacromolecular complex assembly
p67
I3832
tp68
a(Vcytoplasm
p69
I3760
tp70
a(Vcarbohydrate metabolic process
p71
I3758
tp72
a(Vchromosome organization
p73
I3744
tp74
a(Vtransmembrane transport
p75
I3734
tp76
a(Vcell motility
p77
I3665
tp78
a(Vneurological system process
p79
I3609
tp80
a(Vnucleobase-containing compound catabolic process
p81
I3607
tp82
a(Vsignal transducer activity
p83
I3584
tp84
a(Vprotein maturation
p85
I3383
tp86
a(Vgrowth
p87
I3304
tp88
a(Vcytoskeletal protein binding
p89
I3288
tp90
a(Vembryo development
p91
I3267
tp92
a(Vprotein complex assembly
p93
I3184
tp94
a(Vcytoskeleton organization
p95
I2932
tp96
a(Vkinase activity
p97
I2925
tp98
a(VGolgi apparatus
p99
I2697
tp100
a(Vcytoplasmic membrane-bounded vesicle
p101
I2610
tp102
a(VRNA binding
p103
I2599
tp104
a(Vmitochondrion
p105
I2552
tp106
a(Vcellular amino acid metabolic process
p107
I2437
tp108
a(Vcell-cell signaling
p109
I2360
tp110
a(Vlipid binding
p111
I2360
tp112
a(Vcytoskeleton
p113
I2289
tp114
a(Vpeptidase activity
p115
I2253
tp116
a(Vendoplasmic reticulum
p117
I2214
tp118
a(Vcell adhesion
p119
I2208
tp120
a(Vmembrane organization
p121
I2077
tp122
a(Vcell death
p123
I2031
tp124
a(VATPase activity
p125
I2031
tp126
a(Vendosome
p127
I2005
tp128
a(Vligase activity
p129
I1872
tp130
a(Vcell proliferation
p131
I1860
tp132
a(Venzyme regulator activity
p133
I1834
tp134
a(Vstructural molecule activity
p135
I1778
tp136
a(Vnucleoplasm
p137
I1739
tp138
a(Vcell morphogenesis
p139
I1712
tp140
a(Vextracellular region
p141
I1645
tp142
a(Vmicrotubule organizing center
p143
I1632
tp144
a(Vprotein targeting
p145
I1621
tp146
a(Vtranscription factor binding
p147
I1614
tp148
a(Vsulfur compound metabolic process
p149
I1558
tp150
a(Vprotein binding transcription factor activity
p151
I1525
tp152
a(Vnucleic acid binding transcription factor activity
p153
I1465
tp154
a(Vextracellular space
p155
I1335
tp156
a(Vcofactor metabolic process
p157
I1220
tp158
a(Vextracellular matrix organization
p159
I1211
tp160
a(Vvacuole
p161
I1170
tp162
a(Vtransferase activity, transferring acyl groups
p163
I1127
tp164
a(Vgeneration of precursor metabolites and energy
p165
I1125
tp166
a(Vsymbiosis, encompassing mutualism through parasitism
p167
I1098
tp168
a(Vcilium
p169
I1086
tp170
a(VmRNA processing
p171
I1055
tp172
a(Vphosphatase activity
p173
I955
tp174
a(Vplastid
p175
I904
tp176
a(Vcirculatory system process
p177
I868
tp178
a(Vtransferase activity, transferring glycosyl groups
p179
I867
tp180
a(Vcell cycle
p181
I867
tp182
a(Vreproduction
p183
I837
tp184
a(Vaging
p185
I836
tp186
a(Vnucleocytoplasmic transport
p187
I764
tp188
a(Vcell junction organization
p189
I744
tp190
a(Vcell division
p191
I727
tp192
a(Vlyase activity
p193
I715
tp194
a(Vhelicase activity
p195
I711
tp196
a(Vmethyltransferase activity
p197
I700
tp198
a(Vnuclease activity
p199
I669
tp200
a(Vdevelopmental maturation
p201
I648
tp202
a(Vlysosome
p203
I636
tp204
a(Vprotein folding
p205
I623
tp206
a(Vexternal encapsulating structure
p207
I606
tp208
a(Vcell wall
p209
I594
tp210
a(Vstructural constituent of ribosome
p211
I581
tp212
a(Vchromosome
p213
I568
tp214
a(Vsecondary metabolic process
p215
I568
tp216
a(Vmitochondrion organization
p217
I566
tp218
a(VGTPase activity
p219
I546
tp220
a(Vcytoskeleton-dependent intracellular transport
p221
I542
tp222
a(Vproteinaceous extracellular matrix
p223
I526
tp224
a(Vribonucleoprotein complex assembly
p225
I515
tp226
a(Vnuclear envelope
p227
I512
tp228
a(Vhistone binding
p229
I478
tp230
a(Visomerase activity
p231
I457
tp232
a(Vnucleotidyltransferase activity
p233
I453
tp234
a(Vplasma membrane organization
p235
I441
tp236
a(Vhydrolase activity, acting on glycosyl bonds
p237
I433
tp238
a(VmRNA binding
p239
I430
tp240
a(Vcell wall organization or biogenesis
p241
I404
tp242
a(Vvacuolar transport
p243
I394
tp244
a(Vmitosis
p245
I383
tp246
a(Vhydrolase activity, acting on carbon-nitrogen (but not peptide) bonds
p247
I367
tp248
a(Vprotein binding, bridging
p249
I355
tp250
a(Vchromosome segregation
p251
I341
tp252
a(Vperoxisome
p253
I339
tp254
a(VtRNA metabolic process
p255
I308
tp256
a(Vtranslation factor activity, nucleic acid binding
p257
I296
tp258
a(Vsmall conjugating protein binding
p259
I280
tp260
a(Vunfolded protein binding
p261
I250
tp262
a(Vlipid particle
p263
I248
tp264
a(Vtranslation
p265
I243
tp266
a(Vribosome
p267
I239
tp268
a(Vprotein transporter activity
p269
I234
tp270
a(Vnuclear chromosome
p271
I193
tp272
a(Vribosome biogenesis
p273
I192
tp274
a(Vtransferase activity, transferring alkyl or aryl (other than methyl) groups
p275
I185
tp276
a(Vintracellular
p277
I167
tp278
a(Vpigmentation
p279
I152
tp280
a(VrRNA binding
p281
I130
tp282
a(Vthylakoid
p283
I124
tp284
a(Vnitrogen cycle metabolic process
p285
I56
tp286
a(Vtransposition
p287
I47
tp288
a(Vphotosynthesis
p289
I39
tp290
a(Vcell
p291
I20
tp292
a(VRNA modification guide activity
p293
I2
tp294
a(Vcytoplasmic chromosome
p295
I1
tp296
aa(lp297
(g3
L6372L
tp298
a(g5
L4365L
tp299
a(g7
L2787L
tp300
a(g9
L21685L
tp301
a(g11
L26888L
tp302
a(g13
L5491L
tp303
a(g15
L18268L
tp304
a(g17
L5801L
tp305
a(g19
L5613L
tp306
a(g21
L21693L
tp307
a(g23
L22689L
tp308
a(g25
L21630L
tp309
a(g27
L7192L
tp310
a(g29
L5168L
tp311
a(g31
L7190L
tp312
a(g33
L1781L
tp313
a(g35
L13924L
tp314
a(g37
L13633L
tp315
a(g39
L5326L
tp316
a(g41
L4599L
tp317
a(g43
L12968L
tp318
a(g45
L20507L
tp319
a(g47
L4644L
tp320
a(g49
L13690L
tp321
a(g51
L4507L
tp322
a(g53
L10381L
tp323
a(g55
L26682L
tp324
a(g57
L4422L
tp325
a(g59
L4995L
tp326
a(g61
L21086L
tp327
a(g63
L2790L
tp328
a(g65
L10598L
tp329
a(g67
L31581L
tp330
a(g69
L4514L
tp331
a(g71
L4725L
tp332
a(g73
L28228L
tp333
a(g75
L29927L
tp334
a(g77
L26901L
tp335
a(g79
L27837L
tp336
a(g81
L18282L
tp337
a(g83
L3827L
tp338
a(g85
L28535L
tp339
a(g87
L20503L
tp340
a(g89
L6320L
tp341
a(g91
L7881L
tp342
a(g93
L5165L
tp343
a(g95
L5663L
tp344
a(g97
L10466L
tp345
a(g99
L4567L
tp346
a(g101
L10229L
tp347
a(g103
L2830L
tp348
a(g105
L4515L
tp349
a(g107
L5218L
tp350
a(g109
L5896L
tp351
a(g111
L6500L
tp352
a(g113
L4621L
tp353
a(g115
L6448L
tp354
a(g117
L4556L
tp355
a(g119
L5791L
tp356
a(g121
L30984L
tp357
a(g123
L6436L
tp358
a(g125
L10963L
tp359
a(g127
L4542L
tp360
a(g129
L10950L
tp361
a(g131
L6494L
tp362
a(g133
L14001L
tp363
a(g135
L4118L
tp364
a(g137
L4439L
tp365
a(g139
L594L
tp366
a(g141
L4366L
tp367
a(g143
L4586L
tp368
a(g145
L5302L
tp369
a(g147
L6357L
tp370
a(g149
L5471L
tp371
a(g151
L677L
tp372
a(g153
L759L
tp373
a(g155
L4405L
tp374
a(g157
L28144L
tp375
a(g159
L13967L
tp376
a(g161
L4546L
tp377
a(g163
L10829L
tp378
a(g165
L4838L
tp379
a(g167
L22810L
tp380
a(g169
L4684L
tp381
a(g171
L5112L
tp382
a(g173
L10870L
tp383
a(g175
L7644L
tp384
a(g177
L2364L
tp385
a(g179
L10840L
tp386
a(g181
L5695L
tp387
a(g183
L3L
tp388
a(g185
L6169L
tp389
a(g187
L5582L
tp390
a(g189
L17965L
tp391
a(g191
L28251L
tp392
a(g193
L10905L
tp393
a(g195
L3404L
tp394
a(g197
L6389L
tp395
a(g199
L3518L
tp396
a(g201
L13274L
tp397
a(g203
L4538L
tp398
a(g205
L5161L
tp399
a(g207
L14078L
tp400
a(g209
L4408L
tp401
a(g211
L2841L
tp402
a(g213
L4475L
tp403
a(g215
L12827L
tp404
a(g217
L5658L
tp405
a(g219
L2991L
tp406
a(g221
L14427L
tp407
a(g223
L4368L
tp408
a(g225
L13644L
tp409
a(g227
L4423L
tp410
a(g229
L20900L
tp411
a(g231
L10929L
tp412
a(g233
L10860L
tp413
a(g235
L5662L
tp414
a(g237
L10876L
tp415
a(g239
L2835L
tp416
a(g241
L33137L
tp417
a(g243
L5682L
tp418
a(g245
L5712L
tp419
a(g247
L10886L
tp420
a(g249
L14396L
tp421
a(g251
L5705L
tp422
a(g253
L4550L
tp423
a(g255
L5114L
tp424
a(g257
L6358L
tp425
a(g259
L15840L
tp426
a(g261
L28040L
tp427
a(g263
L4583L
tp428
a(g265
L5126L
tp429
a(g267
L4609L
tp430
a(g269
L6747L
tp431
a(g271
L201L
tp432
a(g273
L20770L
tp433
a(g275
L10848L
tp434
a(g277
L4411L
tp435
a(g279
L21900L
tp436
a(g281
L12918L
tp437
a(g283
L7683L
tp438
a(g285
L33512L
tp439
a(g287
L15852L
tp440
a(g289
L10192L
tp441
a(g291
L4412L
tp442
a(g293
L14288L
tp443
a(g295
L202L
tp444
aaI1143182
a.