(lp1
(lp2
(Vbiological_process
p3
I268245
tp4
a(Vcellular_component
p5
I90932
tp6
a(Vmolecular_function
p7
I73795
tp8
a(Vorganelle
p9
I24490
tp10
a(Vanatomical structure development
p11
I19855
tp12
a(Vtransport
p13
I15286
tp14
a(Vcellular nitrogen compound metabolic process
p15
I13310
tp16
a(Vsignal transduction
p17
I11848
tp18
a(Vprotein complex
p19
I10324
tp20
a(Vresponse to stress
p21
I10116
tp22
a(Vion binding
p23
I9008
tp24
a(Vsmall molecule metabolic process
p25
I8922
tp26
a(Vbiosynthetic process
p27
I8235
tp28
a(Vcellular protein modification process
p29
I7102
tp30
a(Vcatabolic process
p31
I6361
tp32
a(Vimmune system process
p33
I5451
tp34
a(Vcell differentiation
p35
I4672
tp36
a(Vcellular component assembly
p37
I4578
tp38
a(Vcytosol
p39
I4189
tp40
a(Vlipid metabolic process
p41
I4055
tp42
a(Venzyme binding
p43
I3937
tp44
a(VDNA metabolic process
p45
I3324
tp46
a(Vnucleolus
p47
I3296
tp48
a(Vlocomotion
p49
I3294
tp50
a(Vtransmembrane transporter activity
p51
I3265
tp52
a(Vplasma membrane
p53
I3194
tp54
a(Vvesicle-mediated transport
p55
I3121
tp56
a(Vnucleus
p57
I3102
tp58
a(Vanatomical structure formation involved in morphogenesis
p59
I3026
tp60
a(Vchromosome organization
p61
I2832
tp62
a(Vhomeostatic process
p63
I2626
tp64
a(VDNA binding
p65
I2601
tp66
a(Vmacromolecular complex assembly
p67
I2564
tp68
a(Vcytoplasm
p69
I2483
tp70
a(Vtransmembrane transport
p71
I2412
tp72
a(Vcarbohydrate metabolic process
p73
I2377
tp74
a(Vnucleobase-containing compound catabolic process
p75
I2335
tp76
a(Vcell motility
p77
I2268
tp78
a(Voxidoreductase activity
p79
I2211
tp80
a(Vcytoskeletal protein binding
p81
I2206
tp82
a(Vembryo development
p83
I2192
tp84
a(Vprotein maturation
p85
I2187
tp86
a(Vneurological system process
p87
I2142
tp88
a(Vcytoskeleton organization
p89
I2092
tp90
a(Vgrowth
p91
I2058
tp92
a(Vprotein complex assembly
p93
I2042
tp94
a(Vkinase activity
p95
I1958
tp96
a(Vsignal transducer activity
p97
I1788
tp98
a(VRNA binding
p99
I1785
tp100
a(VGolgi apparatus
p101
I1683
tp102
a(Vcytoplasmic membrane-bounded vesicle
p103
I1673
tp104
a(Vmitochondrion
p105
I1649
tp106
a(Vlipid binding
p107
I1606
tp108
a(Vcellular amino acid metabolic process
p109
I1578
tp110
a(Vcytoskeleton
p111
I1546
tp112
a(Vpeptidase activity
p113
I1467
tp114
a(Vcell adhesion
p115
I1444
tp116
a(Vendoplasmic reticulum
p117
I1410
tp118
a(VATPase activity
p119
I1398
tp120
a(Vmembrane organization
p121
I1338
tp122
a(Vcell death
p123
I1313
tp124
a(Vendosome
p125
I1307
tp126
a(Vcell-cell signaling
p127
I1286
tp128
a(Vnucleoplasm
p129
I1271
tp130
a(Venzyme regulator activity
p131
I1251
tp132
a(Vligase activity
p133
I1219
tp134
a(Vmicrotubule organizing center
p135
I1216
tp136
a(Vcell proliferation
p137
I1191
tp138
a(Vtranscription factor binding
p139
I1103
tp140
a(Vcell morphogenesis
p141
I1086
tp142
a(Vprotein binding transcription factor activity
p143
I1072
tp144
a(Vstructural molecule activity
p145
I1024
tp146
a(Vextracellular region
p147
I966
tp148
a(Vnucleic acid binding transcription factor activity
p149
I932
tp150
a(Vprotein targeting
p151
I914
tp152
a(Vsulfur compound metabolic process
p153
I913
tp154
a(VmRNA processing
p155
I823
tp156
a(Vtransferase activity, transferring acyl groups
p157
I778
tp158
a(Vsymbiosis, encompassing mutualism through parasitism
p159
I747
tp160
a(Vvacuole
p161
I737
tp162
a(Vextracellular matrix organization
p163
I722
tp164
a(Vcilium
p165
I715
tp166
a(Vextracellular space
p167
I701
tp168
a(Vcofactor metabolic process
p169
I690
tp170
a(Vphosphatase activity
p171
I646
tp172
a(Vgeneration of precursor metabolites and energy
p173
I631
tp174
a(Vcell cycle
p175
I629
tp176
a(Vtransferase activity, transferring glycosyl groups
p177
I617
tp178
a(Vnucleocytoplasmic transport
p179
I566
tp180
a(Vreproduction
p181
I561
tp182
a(Vhelicase activity
p183
I545
tp184
a(Vcell division
p185
I541
tp186
a(Vcell junction organization
p187
I521
tp188
a(Vaging
p189
I508
tp190
a(Vnuclease activity
p191
I497
tp192
a(Vdevelopmental maturation
p193
I447
tp194
a(Vcirculatory system process
p195
I438
tp196
a(Vlyase activity
p197
I435
tp198
a(Vmethyltransferase activity
p199
I429
tp200
a(Vribonucleoprotein complex assembly
p201
I427
tp202
a(Vlysosome
p203
I423
tp204
a(Vplastid
p205
I416
tp206
a(Vchromosome
p207
I409
tp208
a(Vprotein folding
p209
I404
tp210
a(Vcytoskeleton-dependent intracellular transport
p211
I403
tp212
a(Vmitochondrion organization
p213
I376
tp214
a(VGTPase activity
p215
I348
tp216
a(Vhistone binding
p217
I343
tp218
a(Vnuclear envelope
p219
I342
tp220
a(VmRNA binding
p221
I321
tp222
a(Vnucleotidyltransferase activity
p223
I316
tp224
a(Vsecondary metabolic process
p225
I311
tp226
a(Vproteinaceous extracellular matrix
p227
I301
tp228
a(Vexternal encapsulating structure
p229
I300
tp230
a(Vplasma membrane organization
p231
I296
tp232
a(Visomerase activity
p233
I295
tp234
a(Vmitosis
p235
I293
tp236
a(Vcell wall
p237
I290
tp238
a(Vhydrolase activity, acting on glycosyl bonds
p239
I288
tp240
a(Vchromosome segregation
p241
I276
tp242
a(Vhydrolase activity, acting on carbon-nitrogen (but not peptide) bonds
p243
I256
tp244
a(Vvacuolar transport
p245
I254
tp246
a(Vstructural constituent of ribosome
p247
I239
tp248
a(VtRNA metabolic process
p249
I231
tp250
a(Vcell wall organization or biogenesis
p251
I228
tp252
a(Vprotein binding, bridging
p253
I225
tp254
a(Vsmall conjugating protein binding
p255
I208
tp256
a(Vperoxisome
p257
I188
tp258
a(Vtranslation
p259
I176
tp260
a(Vtranslation factor activity, nucleic acid binding
p261
I175
tp262
a(Vlipid particle
p263
I172
tp264
a(Vunfolded protein binding
p265
I169
tp266
a(Vprotein transporter activity
p267
I165
tp268
a(Vnuclear chromosome
p269
I132
tp270
a(Vribosome
p271
I128
tp272
a(Vtransferase activity, transferring alkyl or aryl (other than methyl) groups
p273
I118
tp274
a(Vintracellular
p275
I112
tp276
a(Vpigmentation
p277
I107
tp278
a(Vribosome biogenesis
p279
I105
tp280
a(VrRNA binding
p281
I79
tp282
a(Vthylakoid
p283
I39
tp284
a(Vtransposition
p285
I33
tp286
a(Vnitrogen cycle metabolic process
p287
I31
tp288
a(Vcell
p289
I13
tp290
a(Vphotosynthesis
p291
I9
tp292
a(VRNA modification guide activity
p293
I3
tp294
aa(lp295
(g3
L6372L
tp296
a(g5
L4365L
tp297
a(g7
L2787L
tp298
a(g9
L21685L
tp299
a(g11
L26888L
tp300
a(g13
L5491L
tp301
a(g15
L18268L
tp302
a(g17
L5801L
tp303
a(g19
L21693L
tp304
a(g21
L5613L
tp305
a(g23
L21630L
tp306
a(g25
L22689L
tp307
a(g27
L7192L
tp308
a(g29
L5168L
tp309
a(g31
L7190L
tp310
a(g33
L1781L
tp311
a(g35
L13924L
tp312
a(g37
L13633L
tp313
a(g39
L4599L
tp314
a(g41
L5326L
tp315
a(g43
L12968L
tp316
a(g45
L4995L
tp317
a(g47
L4507L
tp318
a(g49
L20507L
tp319
a(g51
L13690L
tp320
a(g53
L4644L
tp321
a(g55
L10381L
tp322
a(g57
L4422L
tp323
a(g59
L26682L
tp324
a(g61
L28228L
tp325
a(g63
L21086L
tp326
a(g65
L2790L
tp327
a(g67
L31581L
tp328
a(g69
L4514L
tp329
a(g71
L29927L
tp330
a(g73
L4725L
tp331
a(g75
L18282L
tp332
a(g77
L26901L
tp333
a(g79
L10598L
tp334
a(g81
L6320L
tp335
a(g83
L7881L
tp336
a(g85
L28535L
tp337
a(g87
L27837L
tp338
a(g89
L5663L
tp339
a(g91
L20503L
tp340
a(g93
L5165L
tp341
a(g95
L10466L
tp342
a(g97
L3827L
tp343
a(g99
L2830L
tp344
a(g101
L4567L
tp345
a(g103
L10229L
tp346
a(g105
L4515L
tp347
a(g107
L6500L
tp348
a(g109
L5218L
tp349
a(g111
L4621L
tp350
a(g113
L6448L
tp351
a(g115
L5791L
tp352
a(g117
L4556L
tp353
a(g119
L10963L
tp354
a(g121
L30984L
tp355
a(g123
L6436L
tp356
a(g125
L4542L
tp357
a(g127
L5896L
tp358
a(g129
L4439L
tp359
a(g131
L14001L
tp360
a(g133
L10950L
tp361
a(g135
L4586L
tp362
a(g137
L6494L
tp363
a(g139
L6357L
tp364
a(g141
L594L
tp365
a(g143
L677L
tp366
a(g145
L4118L
tp367
a(g147
L4366L
tp368
a(g149
L759L
tp369
a(g151
L5302L
tp370
a(g153
L5471L
tp371
a(g155
L5112L
tp372
a(g157
L10829L
tp373
a(g159
L22810L
tp374
a(g161
L4546L
tp375
a(g163
L13967L
tp376
a(g165
L4684L
tp377
a(g167
L4405L
tp378
a(g169
L28144L
tp379
a(g171
L10870L
tp380
a(g173
L4838L
tp381
a(g175
L5695L
tp382
a(g177
L10840L
tp383
a(g179
L5582L
tp384
a(g181
L3L
tp385
a(g183
L3404L
tp386
a(g185
L28251L
tp387
a(g187
L17965L
tp388
a(g189
L6169L
tp389
a(g191
L3518L
tp390
a(g193
L13274L
tp391
a(g195
L2364L
tp392
a(g197
L10905L
tp393
a(g199
L6389L
tp394
a(g201
L13644L
tp395
a(g203
L4538L
tp396
a(g205
L7644L
tp397
a(g207
L4475L
tp398
a(g209
L5161L
tp399
a(g211
L14427L
tp400
a(g213
L5658L
tp401
a(g215
L2991L
tp402
a(g217
L20900L
tp403
a(g219
L4423L
tp404
a(g221
L2835L
tp405
a(g223
L10860L
tp406
a(g225
L12827L
tp407
a(g227
L4368L
tp408
a(g229
L14078L
tp409
a(g231
L5662L
tp410
a(g233
L10929L
tp411
a(g235
L5712L
tp412
a(g237
L4408L
tp413
a(g239
L10876L
tp414
a(g241
L5705L
tp415
a(g243
L10886L
tp416
a(g245
L5682L
tp417
a(g247
L2841L
tp418
a(g249
L5114L
tp419
a(g251
L33137L
tp420
a(g253
L14396L
tp421
a(g255
L15840L
tp422
a(g257
L4550L
tp423
a(g259
L5126L
tp424
a(g261
L6358L
tp425
a(g263
L4583L
tp426
a(g265
L28040L
tp427
a(g267
L6747L
tp428
a(g269
L201L
tp429
a(g271
L4609L
tp430
a(g273
L10848L
tp431
a(g275
L4411L
tp432
a(g277
L21900L
tp433
a(g279
L20770L
tp434
a(g281
L12918L
tp435
a(g283
L7683L
tp436
a(g285
L15852L
tp437
a(g287
L33512L
tp438
a(g289
L4412L
tp439
a(g291
L10192L
tp440
a(g293
L14288L
tp441
aaI735045
a.