(lp1
(lp2
(Vbiological_process
p3
I340201
tp4
a(Vcellular_component
p5
I110791
tp6
a(Vmolecular_function
p7
I89877
tp8
a(Vorganelle
p9
I29121
tp10
a(Vanatomical structure development
p11
I26003
tp12
a(Vtransport
p13
I19374
tp14
a(Vsignal transduction
p15
I14966
tp16
a(Vcellular nitrogen compound metabolic process
p17
I14189
tp18
a(Vresponse to stress
p19
I11894
tp20
a(Vprotein complex
p21
I11506
tp22
a(Vion binding
p23
I10926
tp24
a(Vsmall molecule metabolic process
p25
I10491
tp26
a(Vbiosynthetic process
p27
I9552
tp28
a(Vcellular protein modification process
p29
I8054
tp30
a(Vcatabolic process
p31
I6968
tp32
a(Vimmune system process
p33
I6498
tp34
a(Vcell differentiation
p35
I6079
tp36
a(Vcellular component assembly
p37
I5203
tp38
a(Vlipid metabolic process
p39
I4936
tp40
a(Vcytosol
p41
I4549
tp42
a(Venzyme binding
p43
I4538
tp44
a(Vtransmembrane transporter activity
p45
I4472
tp46
a(Vlocomotion
p47
I4096
tp48
a(Vplasma membrane
p49
I4019
tp50
a(Vanatomical structure formation involved in morphogenesis
p51
I4002
tp52
a(Vvesicle-mediated transport
p53
I3722
tp54
a(Vnucleus
p55
I3623
tp56
a(Vnucleolus
p57
I3557
tp58
a(VDNA metabolic process
p59
I3557
tp60
a(Vsignal transducer activity
p61
I3381
tp62
a(Vhomeostatic process
p63
I3290
tp64
a(Vtransmembrane transport
p65
I3099
tp66
a(Vcytoplasm
p67
I3099
tp68
a(VDNA binding
p69
I3094
tp70
a(Vchromosome organization
p71
I3002
tp72
a(Vneurological system process
p73
I2952
tp74
a(Vcell motility
p75
I2900
tp76
a(Voxidoreductase activity
p77
I2818
tp78
a(Vmacromolecular complex assembly
p79
I2783
tp80
a(Vcarbohydrate metabolic process
p81
I2648
tp82
a(Vgrowth
p83
I2543
tp84
a(Vprotein maturation
p85
I2485
tp86
a(Vcytoskeletal protein binding
p87
I2454
tp88
a(Vembryo development
p89
I2389
tp90
a(Vnucleobase-containing compound catabolic process
p91
I2355
tp92
a(Vprotein complex assembly
p93
I2316
tp94
a(Vcytoskeleton organization
p95
I2292
tp96
a(Vkinase activity
p97
I2209
tp98
a(Vcell-cell signaling
p99
I2141
tp100
a(Vcytoplasmic membrane-bounded vesicle
p101
I2094
tp102
a(Vlipid binding
p103
I2041
tp104
a(Vcell adhesion
p105
I1863
tp106
a(VGolgi apparatus
p107
I1863
tp108
a(Vmitochondrion
p109
I1856
tp110
a(Vcytoskeleton
p111
I1833
tp112
a(Vcellular amino acid metabolic process
p113
I1798
tp114
a(Vpeptidase activity
p115
I1779
tp116
a(VRNA binding
p117
I1726
tp118
a(Vendoplasmic reticulum
p119
I1658
tp120
a(Vmembrane organization
p121
I1585
tp122
a(Vendosome
p123
I1535
tp124
a(Vcell proliferation
p125
I1491
tp126
a(Vcell death
p127
I1444
tp128
a(Venzyme regulator activity
p129
I1436
tp130
a(VATPase activity
p131
I1430
tp132
a(Vcell morphogenesis
p133
I1420
tp134
a(Vligase activity
p135
I1383
tp136
a(Vmicrotubule organizing center
p137
I1343
tp138
a(Vnucleoplasm
p139
I1323
tp140
a(Vtranscription factor binding
p141
I1300
tp142
a(Vprotein binding transcription factor activity
p143
I1276
tp144
a(Vextracellular region
p145
I1266
tp146
a(Vsulfur compound metabolic process
p147
I1139
tp148
a(Vnucleic acid binding transcription factor activity
p149
I1129
tp150
a(Vstructural molecule activity
p151
I1053
tp152
a(Vextracellular space
p153
I1017
tp154
a(Vextracellular matrix organization
p155
I968
tp156
a(Vcilium
p157
I923
tp158
a(Vcirculatory system process
p159
I911
tp160
a(Vtransferase activity, transferring acyl groups
p161
I889
tp162
a(Vprotein targeting
p163
I888
tp164
a(Vvacuole
p165
I886
tp166
a(Vcofactor metabolic process
p167
I832
tp168
a(Vphosphatase activity
p169
I825
tp170
a(VmRNA processing
p171
I787
tp172
a(Vtransferase activity, transferring glycosyl groups
p173
I770
tp174
a(Vsymbiosis, encompassing mutualism through parasitism
p175
I764
tp176
a(Vcell cycle
p177
I715
tp178
a(Vgeneration of precursor metabolites and energy
p179
I649
tp180
a(Vcell junction organization
p181
I621
tp182
a(Vaging
p183
I609
tp184
a(Vcell division
p185
I595
tp186
a(Vreproduction
p187
I570
tp188
a(Vhelicase activity
p189
I562
tp190
a(Vnucleocytoplasmic transport
p191
I561
tp192
a(Vlyase activity
p193
I560
tp194
a(Vnuclease activity
p195
I555
tp196
a(Vmethyltransferase activity
p197
I532
tp198
a(Vlysosome
p199
I530
tp200
a(Vdevelopmental maturation
p201
I505
tp202
a(Vproteinaceous extracellular matrix
p203
I493
tp204
a(Vplastid
p205
I457
tp206
a(Vcytoskeleton-dependent intracellular transport
p207
I439
tp208
a(Vchromosome
p209
I437
tp210
a(Vmitochondrion organization
p211
I424
tp212
a(VGTPase activity
p213
I395
tp214
a(Vprotein folding
p215
I386
tp216
a(Vnuclear envelope
p217
I378
tp218
a(Vhistone binding
p219
I378
tp220
a(Vribonucleoprotein complex assembly
p221
I370
tp222
a(Vplasma membrane organization
p223
I361
tp224
a(Vsecondary metabolic process
p225
I341
tp226
a(Vnucleotidyltransferase activity
p227
I334
tp228
a(Visomerase activity
p229
I328
tp230
a(Vhydrolase activity, acting on carbon-nitrogen (but not peptide) bonds
p231
I320
tp232
a(Vhydrolase activity, acting on glycosyl bonds
p233
I317
tp234
a(Vexternal encapsulating structure
p235
I302
tp236
a(Vmitosis
p237
I301
tp238
a(Vcell wall
p239
I292
tp240
a(VmRNA binding
p241
I291
tp242
a(Vvacuolar transport
p243
I273
tp244
a(Vchromosome segregation
p245
I266
tp246
a(Vperoxisome
p247
I249
tp248
a(Vcell wall organization or biogenesis
p249
I247
tp250
a(VtRNA metabolic process
p251
I237
tp252
a(Vprotein binding, bridging
p253
I225
tp254
a(Vsmall conjugating protein binding
p255
I223
tp256
a(Vprotein transporter activity
p257
I191
tp258
a(Vstructural constituent of ribosome
p259
I187
tp260
a(Vlipid particle
p261
I184
tp262
a(Vtranslation factor activity, nucleic acid binding
p263
I170
tp264
a(Vtranslation
p265
I170
tp266
a(Vunfolded protein binding
p267
I163
tp268
a(Vribosome
p269
I142
tp270
a(Vnuclear chromosome
p271
I139
tp272
a(Vtransferase activity, transferring alkyl or aryl (other than methyl) groups
p273
I132
tp274
a(Vintracellular
p275
I132
tp276
a(Vpigmentation
p277
I119
tp278
a(Vribosome biogenesis
p279
I97
tp280
a(VrRNA binding
p281
I79
tp282
a(Vthylakoid
p283
I44
tp284
a(Vnitrogen cycle metabolic process
p285
I42
tp286
a(Vtransposition
p287
I31
tp288
a(Vcell
p289
I17
tp290
a(Vphotosynthesis
p291
I9
tp292
a(VRNA modification guide activity
p293
I3
tp294
aa(lp295
(g3
L6372L
tp296
a(g5
L4365L
tp297
a(g7
L2787L
tp298
a(g9
L21685L
tp299
a(g11
L26888L
tp300
a(g13
L5491L
tp301
a(g15
L5801L
tp302
a(g17
L18268L
tp303
a(g19
L5613L
tp304
a(g21
L21693L
tp305
a(g23
L21630L
tp306
a(g25
L22689L
tp307
a(g27
L7192L
tp308
a(g29
L5168L
tp309
a(g31
L7190L
tp310
a(g33
L1781L
tp311
a(g35
L13924L
tp312
a(g37
L13633L
tp313
a(g39
L5326L
tp314
a(g41
L4599L
tp315
a(g43
L12968L
tp316
a(g45
L13690L
tp317
a(g47
L20507L
tp318
a(g49
L4644L
tp319
a(g51
L26682L
tp320
a(g53
L10381L
tp321
a(g55
L4422L
tp322
a(g57
L4507L
tp323
a(g59
L4995L
tp324
a(g61
L3827L
tp325
a(g63
L21086L
tp326
a(g65
L29927L
tp327
a(g67
L4514L
tp328
a(g69
L2790L
tp329
a(g71
L28228L
tp330
a(g73
L27837L
tp331
a(g75
L26901L
tp332
a(g77
L10598L
tp333
a(g79
L31581L
tp334
a(g81
L4725L
tp335
a(g83
L20503L
tp336
a(g85
L28535L
tp337
a(g87
L6320L
tp338
a(g89
L7881L
tp339
a(g91
L18282L
tp340
a(g93
L5165L
tp341
a(g95
L5663L
tp342
a(g97
L10466L
tp343
a(g99
L5896L
tp344
a(g101
L10229L
tp345
a(g103
L6500L
tp346
a(g105
L5791L
tp347
a(g107
L4567L
tp348
a(g109
L4515L
tp349
a(g111
L4621L
tp350
a(g113
L5218L
tp351
a(g115
L6448L
tp352
a(g117
L2830L
tp353
a(g119
L4556L
tp354
a(g121
L30984L
tp355
a(g123
L4542L
tp356
a(g125
L6494L
tp357
a(g127
L6436L
tp358
a(g129
L14001L
tp359
a(g131
L10963L
tp360
a(g133
L594L
tp361
a(g135
L10950L
tp362
a(g137
L4586L
tp363
a(g139
L4439L
tp364
a(g141
L6357L
tp365
a(g143
L677L
tp366
a(g145
L4366L
tp367
a(g147
L5471L
tp368
a(g149
L759L
tp369
a(g151
L4118L
tp370
a(g153
L4405L
tp371
a(g155
L13967L
tp372
a(g157
L4684L
tp373
a(g159
L2364L
tp374
a(g161
L10829L
tp375
a(g163
L5302L
tp376
a(g165
L4546L
tp377
a(g167
L28144L
tp378
a(g169
L10870L
tp379
a(g171
L5112L
tp380
a(g173
L10840L
tp381
a(g175
L22810L
tp382
a(g177
L5695L
tp383
a(g179
L4838L
tp384
a(g181
L17965L
tp385
a(g183
L6169L
tp386
a(g185
L28251L
tp387
a(g187
L3L
tp388
a(g189
L3404L
tp389
a(g191
L5582L
tp390
a(g193
L10905L
tp391
a(g195
L3518L
tp392
a(g197
L6389L
tp393
a(g199
L4538L
tp394
a(g201
L13274L
tp395
a(g203
L4368L
tp396
a(g205
L7644L
tp397
a(g207
L14427L
tp398
a(g209
L4475L
tp399
a(g211
L5658L
tp400
a(g213
L2991L
tp401
a(g215
L5161L
tp402
a(g217
L4423L
tp403
a(g219
L20900L
tp404
a(g221
L13644L
tp405
a(g223
L5662L
tp406
a(g225
L12827L
tp407
a(g227
L10860L
tp408
a(g229
L10929L
tp409
a(g231
L10886L
tp410
a(g233
L10876L
tp411
a(g235
L14078L
tp412
a(g237
L5712L
tp413
a(g239
L4408L
tp414
a(g241
L2835L
tp415
a(g243
L5682L
tp416
a(g245
L5705L
tp417
a(g247
L4550L
tp418
a(g249
L33137L
tp419
a(g251
L5114L
tp420
a(g253
L14396L
tp421
a(g255
L15840L
tp422
a(g257
L6747L
tp423
a(g259
L2841L
tp424
a(g261
L4583L
tp425
a(g263
L6358L
tp426
a(g265
L5126L
tp427
a(g267
L28040L
tp428
a(g269
L4609L
tp429
a(g271
L201L
tp430
a(g273
L10848L
tp431
a(g275
L4411L
tp432
a(g277
L21900L
tp433
a(g279
L20770L
tp434
a(g281
L12918L
tp435
a(g283
L7683L
tp436
a(g285
L33512L
tp437
a(g287
L15852L
tp438
a(g289
L4412L
tp439
a(g291
L10192L
tp440
a(g293
L14288L
tp441
aaI900217
a.