(lp1
(lp2
(Vbiological_process
p3
I273103
tp4
a(Vcellular_component
p5
I92265
tp6
a(Vmolecular_function
p7
I75282
tp8
a(Vorganelle
p9
I24743
tp10
a(Vanatomical structure development
p11
I21082
tp12
a(Vtransport
p13
I15271
tp14
a(Vsignal transduction
p15
I12502
tp16
a(Vcellular nitrogen compound metabolic process
p17
I12267
tp18
a(Vprotein complex
p19
I9732
tp20
a(Vresponse to stress
p21
I9697
tp22
a(Vion binding
p23
I8692
tp24
a(Vsmall molecule metabolic process
p25
I8575
tp26
a(Vbiosynthetic process
p27
I7715
tp28
a(Vcellular protein modification process
p29
I6998
tp30
a(Vcatabolic process
p31
I5795
tp32
a(Vimmune system process
p33
I5685
tp34
a(Vcell differentiation
p35
I4987
tp36
a(Vcellular component assembly
p37
I4224
tp38
a(Vlipid metabolic process
p39
I4141
tp40
a(Vcytosol
p41
I3893
tp42
a(Venzyme binding
p43
I3814
tp44
a(Vtransmembrane transporter activity
p45
I3367
tp46
a(Vplasma membrane
p47
I3316
tp48
a(Vnucleus
p49
I3279
tp50
a(Vlocomotion
p51
I3261
tp52
a(Vnucleolus
p53
I3222
tp54
a(Vanatomical structure formation involved in morphogenesis
p55
I3185
tp56
a(VDNA metabolic process
p57
I3159
tp58
a(Vcytoplasm
p59
I2994
tp60
a(Vvesicle-mediated transport
p61
I2968
tp62
a(VDNA binding
p63
I2752
tp64
a(Vhomeostatic process
p65
I2597
tp66
a(Vchromosome organization
p67
I2488
tp68
a(Vtransmembrane transport
p69
I2487
tp70
a(Voxidoreductase activity
p71
I2430
tp72
a(Vcell motility
p73
I2317
tp74
a(Vmacromolecular complex assembly
p75
I2314
tp76
a(Vsignal transducer activity
p77
I2241
tp78
a(Vcarbohydrate metabolic process
p79
I2157
tp80
a(Vprotein maturation
p81
I2141
tp82
a(Vneurological system process
p83
I2136
tp84
a(Vcytoskeletal protein binding
p85
I2093
tp86
a(Vnucleobase-containing compound catabolic process
p87
I2088
tp88
a(Vkinase activity
p89
I1967
tp90
a(Vembryo development
p91
I1930
tp92
a(Vcytoskeleton organization
p93
I1910
tp94
a(Vprotein complex assembly
p95
I1909
tp96
a(Vgrowth
p97
I1889
tp98
a(VGolgi apparatus
p99
I1621
tp100
a(Vcytoskeleton
p101
I1613
tp102
a(Vmitochondrion
p103
I1607
tp104
a(Vcytoplasmic membrane-bounded vesicle
p105
I1591
tp106
a(VRNA binding
p107
I1557
tp108
a(Vlipid binding
p109
I1534
tp110
a(Vcellular amino acid metabolic process
p111
I1456
tp112
a(Vpeptidase activity
p113
I1445
tp114
a(Vcell-cell signaling
p115
I1442
tp116
a(Vcell adhesion
p117
I1429
tp118
a(Vendoplasmic reticulum
p119
I1401
tp120
a(Vmembrane organization
p121
I1342
tp122
a(Vendosome
p123
I1297
tp124
a(Vligase activity
p125
I1259
tp126
a(VATPase activity
p127
I1250
tp128
a(Vcell proliferation
p129
I1223
tp130
a(Venzyme regulator activity
p131
I1212
tp132
a(Vcell death
p133
I1208
tp134
a(Vnucleoplasm
p135
I1193
tp136
a(Vmicrotubule organizing center
p137
I1131
tp138
a(Vtranscription factor binding
p139
I1111
tp140
a(Vcell morphogenesis
p141
I1081
tp142
a(Vnucleic acid binding transcription factor activity
p143
I1079
tp144
a(Vprotein binding transcription factor activity
p145
I1061
tp146
a(Vextracellular region
p147
I1023
tp148
a(Vstructural molecule activity
p149
I913
tp150
a(Vsulfur compound metabolic process
p151
I909
tp152
a(Vextracellular space
p153
I824
tp154
a(Vextracellular matrix organization
p155
I779
tp156
a(Vtransferase activity, transferring acyl groups
p157
I748
tp158
a(Vcilium
p159
I736
tp160
a(Vprotein targeting
p161
I736
tp162
a(Vcofactor metabolic process
p163
I696
tp164
a(VmRNA processing
p165
I694
tp166
a(Vphosphatase activity
p167
I691
tp168
a(Vvacuole
p169
I680
tp170
a(Vsymbiosis, encompassing mutualism through parasitism
p171
I674
tp172
a(Vtransferase activity, transferring glycosyl groups
p173
I655
tp174
a(Vcell cycle
p175
I601
tp176
a(Vgeneration of precursor metabolites and energy
p177
I553
tp178
a(Vhelicase activity
p179
I514
tp180
a(Vnuclease activity
p181
I503
tp182
a(Vaging
p183
I495
tp184
a(Vcirculatory system process
p185
I493
tp186
a(Vcell junction organization
p187
I491
tp188
a(Vnucleocytoplasmic transport
p189
I478
tp190
a(Vcell division
p191
I467
tp192
a(Vreproduction
p193
I460
tp194
a(Vmethyltransferase activity
p195
I453
tp196
a(Vlyase activity
p197
I430
tp198
a(Vdevelopmental maturation
p199
I425
tp200
a(Vlysosome
p201
I414
tp202
a(Vmitochondrion organization
p203
I379
tp204
a(Vchromosome
p205
I361
tp206
a(Vcytoskeleton-dependent intracellular transport
p207
I359
tp208
a(Vproteinaceous extracellular matrix
p209
I357
tp210
a(Vplasma membrane organization
p211
I354
tp212
a(Vprotein folding
p213
I342
tp214
a(VGTPase activity
p215
I342
tp216
a(Vhistone binding
p217
I334
tp218
a(Vribonucleoprotein complex assembly
p219
I322
tp220
a(Vplastid
p221
I318
tp222
a(Vnucleotidyltransferase activity
p223
I300
tp224
a(Vnuclear envelope
p225
I286
tp226
a(Vhydrolase activity, acting on carbon-nitrogen (but not peptide) bonds
p227
I280
tp228
a(Vsecondary metabolic process
p229
I268
tp230
a(Vhydrolase activity, acting on glycosyl bonds
p231
I262
tp232
a(Visomerase activity
p233
I250
tp234
a(VmRNA binding
p235
I247
tp236
a(Vmitosis
p237
I239
tp238
a(Vchromosome segregation
p239
I220
tp240
a(Vvacuolar transport
p241
I217
tp242
a(Vprotein binding, bridging
p243
I215
tp244
a(Vexternal encapsulating structure
p245
I203
tp246
a(Vcell wall
p247
I194
tp248
a(Vperoxisome
p249
I193
tp250
a(Vsmall conjugating protein binding
p251
I187
tp252
a(VtRNA metabolic process
p253
I187
tp254
a(Vcell wall organization or biogenesis
p255
I178
tp256
a(Vintracellular
p257
I160
tp258
a(Vstructural constituent of ribosome
p259
I159
tp260
a(Vprotein transporter activity
p261
I154
tp262
a(Vtranslation
p263
I152
tp264
a(Vtranslation factor activity, nucleic acid binding
p265
I143
tp266
a(Vunfolded protein binding
p267
I138
tp268
a(Vlipid particle
p269
I135
tp270
a(Vnuclear chromosome
p271
I118
tp272
a(Vtransferase activity, transferring alkyl or aryl (other than methyl) groups
p273
I114
tp274
a(Vribosome
p275
I108
tp276
a(Vpigmentation
p277
I96
tp278
a(Vribosome biogenesis
p279
I82
tp280
a(VrRNA binding
p281
I69
tp282
a(Vtransposition
p283
I39
tp284
a(Vnitrogen cycle metabolic process
p285
I32
tp286
a(Vthylakoid
p287
I32
tp288
a(Vcell
p289
I15
tp290
a(Vphotosynthesis
p291
I10
tp292
a(VRNA modification guide activity
p293
I2
tp294
aa(lp295
(g3
L6372L
tp296
a(g5
L4365L
tp297
a(g7
L2787L
tp298
a(g9
L21685L
tp299
a(g11
L26888L
tp300
a(g13
L5491L
tp301
a(g15
L5801L
tp302
a(g17
L18268L
tp303
a(g19
L21693L
tp304
a(g21
L5613L
tp305
a(g23
L21630L
tp306
a(g25
L22689L
tp307
a(g27
L7192L
tp308
a(g29
L5168L
tp309
a(g31
L7190L
tp310
a(g33
L1781L
tp311
a(g35
L13924L
tp312
a(g37
L13633L
tp313
a(g39
L5326L
tp314
a(g41
L4599L
tp315
a(g43
L12968L
tp316
a(g45
L13690L
tp317
a(g47
L4644L
tp318
a(g49
L4422L
tp319
a(g51
L20507L
tp320
a(g53
L4507L
tp321
a(g55
L26682L
tp322
a(g57
L4995L
tp323
a(g59
L4514L
tp324
a(g61
L10381L
tp325
a(g63
L2790L
tp326
a(g65
L21086L
tp327
a(g67
L28228L
tp328
a(g69
L29927L
tp329
a(g71
L10598L
tp330
a(g73
L26901L
tp331
a(g75
L31581L
tp332
a(g77
L3827L
tp333
a(g79
L4725L
tp334
a(g81
L28535L
tp335
a(g83
L27837L
tp336
a(g85
L6320L
tp337
a(g87
L18282L
tp338
a(g89
L10466L
tp339
a(g91
L7881L
tp340
a(g93
L5663L
tp341
a(g95
L5165L
tp342
a(g97
L20503L
tp343
a(g99
L4567L
tp344
a(g101
L4621L
tp345
a(g103
L4515L
tp346
a(g105
L10229L
tp347
a(g107
L2830L
tp348
a(g109
L6500L
tp349
a(g111
L5218L
tp350
a(g113
L6448L
tp351
a(g115
L5896L
tp352
a(g117
L5791L
tp353
a(g119
L4556L
tp354
a(g121
L30984L
tp355
a(g123
L4542L
tp356
a(g125
L10950L
tp357
a(g127
L10963L
tp358
a(g129
L6494L
tp359
a(g131
L14001L
tp360
a(g133
L6436L
tp361
a(g135
L4439L
tp362
a(g137
L4586L
tp363
a(g139
L6357L
tp364
a(g141
L594L
tp365
a(g143
L759L
tp366
a(g145
L677L
tp367
a(g147
L4366L
tp368
a(g149
L4118L
tp369
a(g151
L5471L
tp370
a(g153
L4405L
tp371
a(g155
L13967L
tp372
a(g157
L10829L
tp373
a(g159
L4684L
tp374
a(g161
L5302L
tp375
a(g163
L28144L
tp376
a(g165
L5112L
tp377
a(g167
L10870L
tp378
a(g169
L4546L
tp379
a(g171
L22810L
tp380
a(g173
L10840L
tp381
a(g175
L5695L
tp382
a(g177
L4838L
tp383
a(g179
L3404L
tp384
a(g181
L3518L
tp385
a(g183
L6169L
tp386
a(g185
L2364L
tp387
a(g187
L17965L
tp388
a(g189
L5582L
tp389
a(g191
L28251L
tp390
a(g193
L3L
tp391
a(g195
L6389L
tp392
a(g197
L10905L
tp393
a(g199
L13274L
tp394
a(g201
L4538L
tp395
a(g203
L5658L
tp396
a(g205
L4475L
tp397
a(g207
L14427L
tp398
a(g209
L4368L
tp399
a(g211
L5662L
tp400
a(g213
L5161L
tp401
a(g215
L2991L
tp402
a(g217
L20900L
tp403
a(g219
L13644L
tp404
a(g221
L7644L
tp405
a(g223
L10860L
tp406
a(g225
L4423L
tp407
a(g227
L10886L
tp408
a(g229
L12827L
tp409
a(g231
L10876L
tp410
a(g233
L10929L
tp411
a(g235
L2835L
tp412
a(g237
L5712L
tp413
a(g239
L5705L
tp414
a(g241
L5682L
tp415
a(g243
L14396L
tp416
a(g245
L14078L
tp417
a(g247
L4408L
tp418
a(g249
L4550L
tp419
a(g251
L15840L
tp420
a(g253
L5114L
tp421
a(g255
L33137L
tp422
a(g257
L4411L
tp423
a(g259
L2841L
tp424
a(g261
L6747L
tp425
a(g263
L5126L
tp426
a(g265
L6358L
tp427
a(g267
L28040L
tp428
a(g269
L4583L
tp429
a(g271
L201L
tp430
a(g273
L10848L
tp431
a(g275
L4609L
tp432
a(g277
L21900L
tp433
a(g279
L20770L
tp434
a(g281
L12918L
tp435
a(g283
L15852L
tp436
a(g285
L33512L
tp437
a(g287
L7683L
tp438
a(g289
L4412L
tp439
a(g291
L10192L
tp440
a(g293
L14288L
tp441
aaI737890
a.