(lp1
(lp2
(Vbiological_process
p3
I433332
tp4
a(Vcellular_component
p5
I147042
tp6
a(Vmolecular_function
p7
I118790
tp8
a(Vorganelle
p9
I40163
tp10
a(Vanatomical structure development
p11
I30433
tp12
a(Vtransport
p13
I25567
tp14
a(Vcellular nitrogen compound metabolic process
p15
I20954
tp16
a(Vsignal transduction
p17
I19058
tp18
a(Vresponse to stress
p19
I17072
tp20
a(Vprotein complex
p21
I15996
tp22
a(Vsmall molecule metabolic process
p23
I14940
tp24
a(Vbiosynthetic process
p25
I14797
tp26
a(Vion binding
p27
I14438
tp28
a(Vcellular protein modification process
p29
I11925
tp30
a(Vcatabolic process
p31
I10664
tp32
a(Vimmune system process
p33
I8495
tp34
a(Vcell differentiation
p35
I7158
tp36
a(Vcellular component assembly
p37
I7147
tp38
a(Vlipid metabolic process
p39
I7074
tp40
a(Vcytosol
p41
I6663
tp42
a(Venzyme binding
p43
I6250
tp44
a(Vtransmembrane transporter activity
p45
I5606
tp46
a(Vplasma membrane
p47
I5431
tp48
a(VDNA metabolic process
p49
I5331
tp50
a(Vnucleus
p51
I5027
tp52
a(Vlocomotion
p53
I4957
tp54
a(Vvesicle-mediated transport
p55
I4911
tp56
a(Vnucleolus
p57
I4840
tp58
a(Vanatomical structure formation involved in morphogenesis
p59
I4582
tp60
a(Vcarbohydrate metabolic process
p61
I4547
tp62
a(Vchromosome organization
p63
I4293
tp64
a(Voxidoreductase activity
p65
I4093
tp66
a(Vcytoplasm
p67
I4083
tp68
a(Vhomeostatic process
p69
I4056
tp70
a(Vtransmembrane transport
p71
I3977
tp72
a(Vmacromolecular complex assembly
p73
I3958
tp74
a(Vkinase activity
p75
I3811
tp76
a(VDNA binding
p77
I3758
tp78
a(Vnucleobase-containing compound catabolic process
p79
I3663
tp80
a(Vcytoskeletal protein binding
p81
I3570
tp82
a(Vgrowth
p83
I3517
tp84
a(Vcell motility
p85
I3464
tp86
a(Vprotein maturation
p87
I3337
tp88
a(Vcytoskeleton organization
p89
I3277
tp90
a(Vembryo development
p91
I3268
tp92
a(Vprotein complex assembly
p93
I3257
tp94
a(Vneurological system process
p95
I3124
tp96
a(Vmitochondrion
p97
I2741
tp98
a(VRNA binding
p99
I2719
tp100
a(VGolgi apparatus
p101
I2685
tp102
a(Vcellular amino acid metabolic process
p103
I2614
tp104
a(Vcytoskeleton
p105
I2591
tp106
a(VATPase activity
p107
I2556
tp108
a(Vsignal transducer activity
p109
I2544
tp110
a(Vcytoplasmic membrane-bounded vesicle
p111
I2427
tp112
a(Vlipid binding
p113
I2361
tp114
a(Vendoplasmic reticulum
p115
I2221
tp116
a(Vpeptidase activity
p117
I2203
tp118
a(Vmembrane organization
p119
I2153
tp120
a(Vcell adhesion
p121
I2105
tp122
a(Vcell-cell signaling
p123
I2055
tp124
a(Vligase activity
p125
I2053
tp126
a(Vendosome
p127
I2041
tp128
a(Vmicrotubule organizing center
p129
I2030
tp130
a(Vcell death
p131
I1936
tp132
a(Vcell morphogenesis
p133
I1863
tp134
a(Venzyme regulator activity
p135
I1851
tp136
a(Vnucleoplasm
p137
I1830
tp138
a(Vcell proliferation
p139
I1761
tp140
a(Vtranscription factor binding
p141
I1595
tp142
a(Vsulfur compound metabolic process
p143
I1572
tp144
a(Vprotein targeting
p145
I1524
tp146
a(Vextracellular region
p147
I1523
tp148
a(Vprotein binding transcription factor activity
p149
I1485
tp150
a(Vstructural molecule activity
p151
I1435
tp152
a(Vcofactor metabolic process
p153
I1423
tp154
a(Vcilium
p155
I1326
tp156
a(Vtransferase activity, transferring acyl groups
p157
I1283
tp158
a(Vvacuole
p159
I1256
tp160
a(Vnucleic acid binding transcription factor activity
p161
I1243
tp162
a(VmRNA processing
p163
I1194
tp164
a(Vcell cycle
p165
I1176
tp166
a(Vphosphatase activity
p167
I1106
tp168
a(Vgeneration of precursor metabolites and energy
p169
I1106
tp170
a(Vplastid
p171
I1069
tp172
a(Vsymbiosis, encompassing mutualism through parasitism
p173
I1057
tp174
a(Vhelicase activity
p175
I1034
tp176
a(Vextracellular space
p177
I1014
tp178
a(Vextracellular matrix organization
p179
I977
tp180
a(Vtransferase activity, transferring glycosyl groups
p181
I969
tp182
a(Vreproduction
p183
I930
tp184
a(Vcell division
p185
I877
tp186
a(Vlyase activity
p187
I865
tp188
a(Vnucleocytoplasmic transport
p189
I837
tp190
a(Vaging
p191
I789
tp192
a(Vmethyltransferase activity
p193
I776
tp194
a(Vnuclease activity
p195
I749
tp196
a(Vcell junction organization
p197
I730
tp198
a(Vdevelopmental maturation
p199
I709
tp200
a(Vcytoskeleton-dependent intracellular transport
p201
I698
tp202
a(Vprotein folding
p203
I690
tp204
a(Vcirculatory system process
p205
I672
tp206
a(Vchromosome
p207
I658
tp208
a(Vlysosome
p209
I616
tp210
a(Vsecondary metabolic process
p211
I609
tp212
a(Vexternal encapsulating structure
p213
I602
tp214
a(Vcell wall
p215
I590
tp216
a(Visomerase activity
p217
I568
tp218
a(Vmitochondrion organization
p219
I567
tp220
a(Vnuclear envelope
p221
I561
tp222
a(Vribonucleoprotein complex assembly
p223
I555
tp224
a(Vhydrolase activity, acting on glycosyl bonds
p225
I533
tp226
a(Vnucleotidyltransferase activity
p227
I510
tp228
a(VGTPase activity
p229
I508
tp230
a(Vcell wall organization or biogenesis
p231
I502
tp232
a(Vplasma membrane organization
p233
I478
tp234
a(VmRNA binding
p235
I471
tp236
a(Vhistone binding
p237
I464
tp238
a(Vchromosome segregation
p239
I430
tp240
a(Vhydrolase activity, acting on carbon-nitrogen (but not peptide) bonds
p241
I418
tp242
a(Vmitosis
p243
I417
tp244
a(Vproteinaceous extracellular matrix
p245
I415
tp246
a(Vvacuolar transport
p247
I403
tp248
a(Vperoxisome
p249
I400
tp250
a(Vprotein binding, bridging
p251
I391
tp252
a(VtRNA metabolic process
p253
I358
tp254
a(Vsmall conjugating protein binding
p255
I337
tp256
a(Vtranslation factor activity, nucleic acid binding
p257
I277
tp258
a(Vtranslation
p259
I272
tp260
a(Vstructural constituent of ribosome
p261
I272
tp262
a(Vunfolded protein binding
p263
I260
tp264
a(Vlipid particle
p265
I240
tp266
a(Vprotein transporter activity
p267
I236
tp268
a(Vribosome
p269
I212
tp270
a(Vintracellular
p271
I192
tp272
a(Vtransferase activity, transferring alkyl or aryl (other than methyl) groups
p273
I190
tp274
a(Vnuclear chromosome
p275
I188
tp276
a(Vpigmentation
p277
I168
tp278
a(Vribosome biogenesis
p279
I163
tp280
a(Vthylakoid
p281
I141
tp282
a(VrRNA binding
p283
I97
tp284
a(Vtransposition
p285
I66
tp286
a(Vnitrogen cycle metabolic process
p287
I62
tp288
a(Vphotosynthesis
p289
I42
tp290
a(Vcell
p291
I13
tp292
a(Vcytoplasmic chromosome
p293
I6
tp294
a(VRNA modification guide activity
p295
I4
tp296
aa(lp297
(g3
L6372L
tp298
a(g5
L4365L
tp299
a(g7
L2787L
tp300
a(g9
L21685L
tp301
a(g11
L26888L
tp302
a(g13
L5491L
tp303
a(g15
L18268L
tp304
a(g17
L5801L
tp305
a(g19
L5613L
tp306
a(g21
L21693L
tp307
a(g23
L22689L
tp308
a(g25
L7192L
tp309
a(g27
L21630L
tp310
a(g29
L5168L
tp311
a(g31
L7190L
tp312
a(g33
L1781L
tp313
a(g35
L13924L
tp314
a(g37
L13633L
tp315
a(g39
L5326L
tp316
a(g41
L4599L
tp317
a(g43
L12968L
tp318
a(g45
L13690L
tp319
a(g47
L4644L
tp320
a(g49
L4995L
tp321
a(g51
L4422L
tp322
a(g53
L20507L
tp323
a(g55
L10381L
tp324
a(g57
L4507L
tp325
a(g59
L26682L
tp326
a(g61
L4725L
tp327
a(g63
L28228L
tp328
a(g65
L10598L
tp329
a(g67
L4514L
tp330
a(g69
L21086L
tp331
a(g71
L29927L
tp332
a(g73
L31581L
tp333
a(g75
L10466L
tp334
a(g77
L2790L
tp335
a(g79
L18282L
tp336
a(g81
L6320L
tp337
a(g83
L20503L
tp338
a(g85
L26901L
tp339
a(g87
L28535L
tp340
a(g89
L5663L
tp341
a(g91
L7881L
tp342
a(g93
L5165L
tp343
a(g95
L27837L
tp344
a(g97
L4515L
tp345
a(g99
L2830L
tp346
a(g101
L4567L
tp347
a(g103
L5218L
tp348
a(g105
L4621L
tp349
a(g107
L10963L
tp350
a(g109
L3827L
tp351
a(g111
L10229L
tp352
a(g113
L6500L
tp353
a(g115
L4556L
tp354
a(g117
L6448L
tp355
a(g119
L30984L
tp356
a(g121
L5791L
tp357
a(g123
L5896L
tp358
a(g125
L10950L
tp359
a(g127
L4542L
tp360
a(g129
L4586L
tp361
a(g131
L6436L
tp362
a(g133
L594L
tp363
a(g135
L14001L
tp364
a(g137
L4439L
tp365
a(g139
L6494L
tp366
a(g141
L6357L
tp367
a(g143
L5471L
tp368
a(g145
L5302L
tp369
a(g147
L4366L
tp370
a(g149
L677L
tp371
a(g151
L4118L
tp372
a(g153
L28144L
tp373
a(g155
L4684L
tp374
a(g157
L10829L
tp375
a(g159
L4546L
tp376
a(g161
L759L
tp377
a(g163
L5112L
tp378
a(g165
L5695L
tp379
a(g167
L10870L
tp380
a(g169
L4838L
tp381
a(g171
L7644L
tp382
a(g173
L22810L
tp383
a(g175
L3404L
tp384
a(g177
L4405L
tp385
a(g179
L13967L
tp386
a(g181
L10840L
tp387
a(g183
L3L
tp388
a(g185
L28251L
tp389
a(g187
L10905L
tp390
a(g189
L5582L
tp391
a(g191
L6169L
tp392
a(g193
L6389L
tp393
a(g195
L3518L
tp394
a(g197
L17965L
tp395
a(g199
L13274L
tp396
a(g201
L14427L
tp397
a(g203
L5161L
tp398
a(g205
L2364L
tp399
a(g207
L4475L
tp400
a(g209
L4538L
tp401
a(g211
L12827L
tp402
a(g213
L14078L
tp403
a(g215
L4408L
tp404
a(g217
L10929L
tp405
a(g219
L5658L
tp406
a(g221
L4423L
tp407
a(g223
L13644L
tp408
a(g225
L10876L
tp409
a(g227
L10860L
tp410
a(g229
L2991L
tp411
a(g231
L33137L
tp412
a(g233
L5662L
tp413
a(g235
L2835L
tp414
a(g237
L20900L
tp415
a(g239
L5705L
tp416
a(g241
L10886L
tp417
a(g243
L5712L
tp418
a(g245
L4368L
tp419
a(g247
L5682L
tp420
a(g249
L4550L
tp421
a(g251
L14396L
tp422
a(g253
L5114L
tp423
a(g255
L15840L
tp424
a(g257
L6358L
tp425
a(g259
L5126L
tp426
a(g261
L2841L
tp427
a(g263
L28040L
tp428
a(g265
L4583L
tp429
a(g267
L6747L
tp430
a(g269
L4609L
tp431
a(g271
L4411L
tp432
a(g273
L10848L
tp433
a(g275
L201L
tp434
a(g277
L21900L
tp435
a(g279
L20770L
tp436
a(g281
L7683L
tp437
a(g283
L12918L
tp438
a(g285
L15852L
tp439
a(g287
L33512L
tp440
a(g289
L10192L
tp441
a(g291
L4412L
tp442
a(g293
L202L
tp443
a(g295
L14288L
tp444
aaI1186187
a.