(lp1
(lp2
(Vbiological_process
p3
I336932
tp4
a(Vcellular_component
p5
I107452
tp6
a(Vmolecular_function
p7
I86337
tp8
a(Vorganelle
p9
I28360
tp10
a(Vanatomical structure development
p11
I26289
tp12
a(Vtransport
p13
I18546
tp14
a(Vsignal transduction
p15
I15219
tp16
a(Vcellular nitrogen compound metabolic process
p17
I13261
tp18
a(Vresponse to stress
p19
I11804
tp20
a(Vprotein complex
p21
I11076
tp22
a(Vion binding
p23
I10071
tp24
a(Vsmall molecule metabolic process
p25
I9674
tp26
a(Vbiosynthetic process
p27
I8753
tp28
a(Vcellular protein modification process
p29
I7962
tp30
a(Vcatabolic process
p31
I6508
tp32
a(Vimmune system process
p33
I6440
tp34
a(Vcell differentiation
p35
I6266
tp36
a(Vcellular component assembly
p37
I4972
tp38
a(Vlipid metabolic process
p39
I4730
tp40
a(Venzyme binding
p41
I4508
tp42
a(Vtransmembrane transporter activity
p43
I4280
tp44
a(Vcytosol
p45
I4238
tp46
a(Vlocomotion
p47
I4097
tp48
a(Vanatomical structure formation involved in morphogenesis
p49
I3867
tp50
a(Vplasma membrane
p51
I3825
tp52
a(Vnucleus
p53
I3564
tp54
a(Vvesicle-mediated transport
p55
I3512
tp56
a(Vnucleolus
p57
I3491
tp58
a(VDNA metabolic process
p59
I3432
tp60
a(Vhomeostatic process
p61
I3292
tp62
a(Vsignal transducer activity
p63
I3163
tp64
a(VDNA binding
p65
I3095
tp66
a(Vcytoplasm
p67
I3050
tp68
a(Vneurological system process
p69
I2981
tp70
a(Vtransmembrane transport
p71
I2972
tp72
a(Vcell motility
p73
I2930
tp74
a(Vchromosome organization
p75
I2892
tp76
a(Vmacromolecular complex assembly
p77
I2663
tp78
a(Voxidoreductase activity
p79
I2586
tp80
a(Vcytoskeletal protein binding
p81
I2501
tp82
a(Vprotein maturation
p83
I2494
tp84
a(Vcarbohydrate metabolic process
p85
I2457
tp86
a(Vgrowth
p87
I2447
tp88
a(Vembryo development
p89
I2249
tp90
a(Vkinase activity
p91
I2248
tp92
a(Vprotein complex assembly
p93
I2244
tp94
a(Vnucleobase-containing compound catabolic process
p95
I2181
tp96
a(Vcytoskeleton organization
p97
I2175
tp98
a(Vcell-cell signaling
p99
I2103
tp100
a(Vcytoplasmic membrane-bounded vesicle
p101
I1979
tp102
a(VGolgi apparatus
p103
I1901
tp104
a(Vlipid binding
p105
I1893
tp106
a(Vcell adhesion
p107
I1889
tp108
a(Vcytoskeleton
p109
I1854
tp110
a(Vmitochondrion
p111
I1705
tp112
a(Vpeptidase activity
p113
I1643
tp114
a(Vendoplasmic reticulum
p115
I1616
tp116
a(Vcellular amino acid metabolic process
p117
I1570
tp118
a(VRNA binding
p119
I1567
tp120
a(Vmembrane organization
p121
I1560
tp122
a(Vendosome
p123
I1522
tp124
a(Vcell proliferation
p125
I1508
tp126
a(Vcell death
p127
I1477
tp128
a(Vcell morphogenesis
p129
I1401
tp130
a(VATPase activity
p131
I1387
tp132
a(Vligase activity
p133
I1370
tp134
a(Venzyme regulator activity
p135
I1350
tp136
a(Vtranscription factor binding
p137
I1284
tp138
a(Vmicrotubule organizing center
p139
I1281
tp140
a(Vnucleoplasm
p141
I1266
tp142
a(Vnucleic acid binding transcription factor activity
p143
I1256
tp144
a(Vprotein binding transcription factor activity
p145
I1250
tp146
a(Vextracellular region
p147
I1152
tp148
a(Vsulfur compound metabolic process
p149
I1064
tp150
a(Vextracellular space
p151
I1005
tp152
a(Vstructural molecule activity
p153
I972
tp154
a(Vextracellular matrix organization
p155
I938
tp156
a(Vcilium
p157
I905
tp158
a(Vvacuole
p159
I870
tp160
a(Vtransferase activity, transferring acyl groups
p161
I860
tp162
a(Vprotein targeting
p163
I806
tp164
a(Vcirculatory system process
p165
I805
tp166
a(Vphosphatase activity
p167
I761
tp168
a(Vcofactor metabolic process
p169
I752
tp170
a(Vsymbiosis, encompassing mutualism through parasitism
p171
I727
tp172
a(Vtransferase activity, transferring glycosyl groups
p173
I726
tp174
a(Vcell cycle
p175
I720
tp176
a(VmRNA processing
p177
I708
tp178
a(Vaging
p179
I628
tp180
a(Vcell division
p181
I609
tp182
a(Vcell junction organization
p183
I584
tp184
a(Vgeneration of precursor metabolites and energy
p185
I571
tp186
a(Vhelicase activity
p187
I558
tp188
a(Vreproduction
p189
I554
tp190
a(Vdevelopmental maturation
p191
I532
tp192
a(Vnucleocytoplasmic transport
p193
I524
tp194
a(Vlysosome
p195
I523
tp196
a(Vnuclease activity
p197
I516
tp198
a(Vmethyltransferase activity
p199
I494
tp200
a(Vlyase activity
p201
I456
tp202
a(Vproteinaceous extracellular matrix
p203
I442
tp204
a(Vchromosome
p205
I439
tp206
a(Vmitochondrion organization
p207
I424
tp208
a(Vcytoskeleton-dependent intracellular transport
p209
I416
tp210
a(Vplasma membrane organization
p211
I398
tp212
a(Vplastid
p213
I385
tp214
a(Vhistone binding
p215
I370
tp216
a(Vprotein folding
p217
I348
tp218
a(Vnuclear envelope
p219
I347
tp220
a(VGTPase activity
p221
I335
tp222
a(Vsecondary metabolic process
p223
I330
tp224
a(Vribonucleoprotein complex assembly
p225
I324
tp226
a(Vhydrolase activity, acting on glycosyl bonds
p227
I314
tp228
a(Vnucleotidyltransferase activity
p229
I305
tp230
a(Vhydrolase activity, acting on carbon-nitrogen (but not peptide) bonds
p231
I298
tp232
a(Vmitosis
p233
I275
tp234
a(Visomerase activity
p235
I275
tp236
a(Vexternal encapsulating structure
p237
I258
tp238
a(VmRNA binding
p239
I258
tp240
a(Vchromosome segregation
p241
I256
tp242
a(Vprotein binding, bridging
p243
I255
tp244
a(Vvacuolar transport
p245
I250
tp246
a(Vcell wall
p247
I245
tp248
a(Vcell wall organization or biogenesis
p249
I226
tp250
a(Vperoxisome
p251
I223
tp252
a(Vsmall conjugating protein binding
p253
I219
tp254
a(VtRNA metabolic process
p255
I204
tp256
a(Vprotein transporter activity
p257
I168
tp258
a(Vlipid particle
p259
I165
tp260
a(Vunfolded protein binding
p261
I148
tp262
a(Vtranslation factor activity, nucleic acid binding
p263
I145
tp264
a(Vtranslation
p265
I137
tp266
a(Vintracellular
p267
I135
tp268
a(Vtransferase activity, transferring alkyl or aryl (other than methyl) groups
p269
I131
tp270
a(Vnuclear chromosome
p271
I128
tp272
a(Vpigmentation
p273
I124
tp274
a(Vribosome
p275
I122
tp276
a(Vstructural constituent of ribosome
p277
I109
tp278
a(Vribosome biogenesis
p279
I80
tp280
a(VrRNA binding
p281
I57
tp282
a(Vthylakoid
p283
I38
tp284
a(Vtransposition
p285
I32
tp286
a(Vnitrogen cycle metabolic process
p287
I28
tp288
a(Vcell
p289
I12
tp290
a(Vphotosynthesis
p291
I8
tp292
a(VRNA modification guide activity
p293
I2
tp294
aa(lp295
(g3
L6372L
tp296
a(g5
L4365L
tp297
a(g7
L2787L
tp298
a(g9
L21685L
tp299
a(g11
L26888L
tp300
a(g13
L5491L
tp301
a(g15
L5801L
tp302
a(g17
L18268L
tp303
a(g19
L5613L
tp304
a(g21
L21693L
tp305
a(g23
L21630L
tp306
a(g25
L22689L
tp307
a(g27
L7192L
tp308
a(g29
L5168L
tp309
a(g31
L7190L
tp310
a(g33
L1781L
tp311
a(g35
L13924L
tp312
a(g37
L13633L
tp313
a(g39
L5326L
tp314
a(g41
L12968L
tp315
a(g43
L13690L
tp316
a(g45
L4599L
tp317
a(g47
L20507L
tp318
a(g49
L26682L
tp319
a(g51
L4644L
tp320
a(g53
L4422L
tp321
a(g55
L10381L
tp322
a(g57
L4507L
tp323
a(g59
L4995L
tp324
a(g61
L21086L
tp325
a(g63
L3827L
tp326
a(g65
L2790L
tp327
a(g67
L4514L
tp328
a(g69
L27837L
tp329
a(g71
L29927L
tp330
a(g73
L26901L
tp331
a(g75
L28228L
tp332
a(g77
L31581L
tp333
a(g79
L10598L
tp334
a(g81
L6320L
tp335
a(g83
L28535L
tp336
a(g85
L4725L
tp337
a(g87
L20503L
tp338
a(g89
L7881L
tp339
a(g91
L10466L
tp340
a(g93
L5165L
tp341
a(g95
L18282L
tp342
a(g97
L5663L
tp343
a(g99
L5896L
tp344
a(g101
L10229L
tp345
a(g103
L4567L
tp346
a(g105
L6500L
tp347
a(g107
L5791L
tp348
a(g109
L4621L
tp349
a(g111
L4515L
tp350
a(g113
L6448L
tp351
a(g115
L4556L
tp352
a(g117
L5218L
tp353
a(g119
L2830L
tp354
a(g121
L30984L
tp355
a(g123
L4542L
tp356
a(g125
L6494L
tp357
a(g127
L6436L
tp358
a(g129
L594L
tp359
a(g131
L10963L
tp360
a(g133
L10950L
tp361
a(g135
L14001L
tp362
a(g137
L6357L
tp363
a(g139
L4586L
tp364
a(g141
L4439L
tp365
a(g143
L759L
tp366
a(g145
L677L
tp367
a(g147
L4366L
tp368
a(g149
L5471L
tp369
a(g151
L4405L
tp370
a(g153
L4118L
tp371
a(g155
L13967L
tp372
a(g157
L4684L
tp373
a(g159
L4546L
tp374
a(g161
L10829L
tp375
a(g163
L5302L
tp376
a(g165
L2364L
tp377
a(g167
L10870L
tp378
a(g169
L28144L
tp379
a(g171
L22810L
tp380
a(g173
L10840L
tp381
a(g175
L5695L
tp382
a(g177
L5112L
tp383
a(g179
L6169L
tp384
a(g181
L28251L
tp385
a(g183
L17965L
tp386
a(g185
L4838L
tp387
a(g187
L3404L
tp388
a(g189
L3L
tp389
a(g191
L13274L
tp390
a(g193
L5582L
tp391
a(g195
L4538L
tp392
a(g197
L3518L
tp393
a(g199
L6389L
tp394
a(g201
L10905L
tp395
a(g203
L4368L
tp396
a(g205
L4475L
tp397
a(g207
L5658L
tp398
a(g209
L14427L
tp399
a(g211
L5662L
tp400
a(g213
L7644L
tp401
a(g215
L20900L
tp402
a(g217
L5161L
tp403
a(g219
L4423L
tp404
a(g221
L2991L
tp405
a(g223
L12827L
tp406
a(g225
L13644L
tp407
a(g227
L10876L
tp408
a(g229
L10860L
tp409
a(g231
L10886L
tp410
a(g233
L5712L
tp411
a(g235
L10929L
tp412
a(g237
L14078L
tp413
a(g239
L2835L
tp414
a(g241
L5705L
tp415
a(g243
L14396L
tp416
a(g245
L5682L
tp417
a(g247
L4408L
tp418
a(g249
L33137L
tp419
a(g251
L4550L
tp420
a(g253
L15840L
tp421
a(g255
L5114L
tp422
a(g257
L6747L
tp423
a(g259
L4583L
tp424
a(g261
L28040L
tp425
a(g263
L6358L
tp426
a(g265
L5126L
tp427
a(g267
L4411L
tp428
a(g269
L10848L
tp429
a(g271
L201L
tp430
a(g273
L21900L
tp431
a(g275
L4609L
tp432
a(g277
L2841L
tp433
a(g279
L20770L
tp434
a(g281
L12918L
tp435
a(g283
L7683L
tp436
a(g285
L15852L
tp437
a(g287
L33512L
tp438
a(g289
L4412L
tp439
a(g291
L10192L
tp440
a(g293
L14288L
tp441
aaI878226
a.