(lp1
(lp2
(Vbiological_process
p3
I401530
tp4
a(Vcellular_component
p5
I134306
tp6
a(Vmolecular_function
p7
I116362
tp8
a(Vorganelle
p9
I34996
tp10
a(Vanatomical structure development
p11
I28291
tp12
a(Vtransport
p13
I24443
tp14
a(Vcellular nitrogen compound metabolic process
p15
I20509
tp16
a(Vsignal transduction
p17
I18302
tp18
a(Vresponse to stress
p19
I16015
tp20
a(Vsmall molecule metabolic process
p21
I15900
tp22
a(Vbiosynthetic process
p23
I14987
tp24
a(Vion binding
p25
I14736
tp26
a(Vprotein complex
p27
I14328
tp28
a(Vcatabolic process
p29
I11038
tp30
a(Vcellular protein modification process
p31
I9859
tp32
a(Vimmune system process
p33
I7866
tp34
a(Vlipid metabolic process
p35
I6652
tp36
a(Vcellular component assembly
p37
I6631
tp38
a(Vcell differentiation
p39
I6562
tp40
a(Vcytosol
p41
I6235
tp42
a(Vtransmembrane transporter activity
p43
I5731
tp44
a(Vplasma membrane
p45
I5625
tp46
a(Venzyme binding
p47
I5411
tp48
a(Voxidoreductase activity
p49
I4977
tp50
a(Vlocomotion
p51
I4796
tp52
a(VDNA metabolic process
p53
I4642
tp54
a(Vnucleolus
p55
I4595
tp56
a(Vnucleus
p57
I4342
tp58
a(Vvesicle-mediated transport
p59
I4302
tp60
a(Vcarbohydrate metabolic process
p61
I4265
tp62
a(VDNA binding
p63
I4166
tp64
a(Vcytoplasm
p65
I4154
tp66
a(Vtransmembrane transport
p67
I4149
tp68
a(Vanatomical structure formation involved in morphogenesis
p69
I4126
tp70
a(Vhomeostatic process
p71
I3945
tp72
a(Vmacromolecular complex assembly
p73
I3856
tp74
a(Vnucleobase-containing compound catabolic process
p75
I3802
tp76
a(Vchromosome organization
p77
I3544
tp78
a(Vsignal transducer activity
p79
I3507
tp80
a(Vcellular amino acid metabolic process
p81
I3453
tp82
a(Vcell motility
p83
I3272
tp84
a(Vgrowth
p85
I3238
tp86
a(Vembryo development
p87
I3209
tp88
a(Vprotein complex assembly
p89
I3205
tp90
a(Vprotein maturation
p91
I3193
tp92
a(Vneurological system process
p93
I3183
tp94
a(Vkinase activity
p95
I3073
tp96
a(Vcytoskeletal protein binding
p97
I2954
tp98
a(VRNA binding
p99
I2785
tp100
a(Vcytoskeleton organization
p101
I2717
tp102
a(Vmitochondrion
p103
I2532
tp104
a(VGolgi apparatus
p105
I2440
tp106
a(Vcytoplasmic membrane-bounded vesicle
p107
I2406
tp108
a(VATPase activity
p109
I2305
tp110
a(Vpeptidase activity
p111
I2190
tp112
a(Vlipid binding
p113
I2176
tp114
a(Vcell-cell signaling
p115
I2130
tp116
a(Vendoplasmic reticulum
p117
I2101
tp118
a(Vcytoskeleton
p119
I2028
tp120
a(Vligase activity
p121
I2027
tp122
a(Vcell adhesion
p123
I1945
tp124
a(Vmembrane organization
p125
I1930
tp126
a(Vcell death
p127
I1927
tp128
a(Vendosome
p129
I1806
tp130
a(Venzyme regulator activity
p131
I1740
tp132
a(Vcell proliferation
p133
I1736
tp134
a(Vstructural molecule activity
p135
I1695
tp136
a(Vcofactor metabolic process
p137
I1666
tp138
a(Vsulfur compound metabolic process
p139
I1623
tp140
a(Vnucleoplasm
p141
I1576
tp142
a(Vprotein targeting
p143
I1569
tp144
a(Vmicrotubule organizing center
p145
I1541
tp146
a(Vtranscription factor binding
p147
I1538
tp148
a(Vnucleic acid binding transcription factor activity
p149
I1527
tp150
a(Vcell morphogenesis
p151
I1516
tp152
a(Vextracellular region
p153
I1497
tp154
a(Vgeneration of precursor metabolites and energy
p155
I1434
tp156
a(Vprotein binding transcription factor activity
p157
I1418
tp158
a(Vtransferase activity, transferring acyl groups
p159
I1204
tp160
a(Vextracellular space
p161
I1180
tp162
a(Vsymbiosis, encompassing mutualism through parasitism
p163
I1072
tp164
a(Vvacuole
p165
I1057
tp166
a(Vextracellular matrix organization
p167
I1052
tp168
a(VmRNA processing
p169
I1010
tp170
a(Vlyase activity
p171
I994
tp172
a(Vplastid
p173
I979
tp174
a(Vcilium
p175
I943
tp176
a(Vphosphatase activity
p177
I941
tp178
a(Vexternal encapsulating structure
p179
I871
tp180
a(Vreproduction
p181
I857
tp182
a(Vtransferase activity, transferring glycosyl groups
p183
I854
tp184
a(Vcell cycle
p185
I850
tp186
a(Vcell wall
p187
I847
tp188
a(Vnuclease activity
p189
I824
tp190
a(Vmethyltransferase activity
p191
I771
tp192
a(Vaging
p193
I768
tp194
a(Vhelicase activity
p195
I767
tp196
a(Vnucleocytoplasmic transport
p197
I763
tp198
a(Vcirculatory system process
p199
I733
tp200
a(Vprotein folding
p201
I718
tp202
a(Vcell division
p203
I712
tp204
a(Vsecondary metabolic process
p205
I705
tp206
a(Vcell junction organization
p207
I660
tp208
a(Visomerase activity
p209
I644
tp210
a(Vdevelopmental maturation
p211
I610
tp212
a(Vstructural constituent of ribosome
p213
I604
tp214
a(Vmitochondrion organization
p215
I576
tp216
a(Vlysosome
p217
I569
tp218
a(Vnucleotidyltransferase activity
p219
I560
tp220
a(VGTPase activity
p221
I559
tp222
a(Vchromosome
p223
I543
tp224
a(Vribonucleoprotein complex assembly
p225
I514
tp226
a(Vcytoskeleton-dependent intracellular transport
p227
I490
tp228
a(Vnuclear envelope
p229
I482
tp230
a(Vhydrolase activity, acting on carbon-nitrogen (but not peptide) bonds
p231
I475
tp232
a(VmRNA binding
p233
I450
tp234
a(Vhydrolase activity, acting on glycosyl bonds
p235
I441
tp236
a(Vcell wall organization or biogenesis
p237
I441
tp238
a(Vhistone binding
p239
I439
tp240
a(Vproteinaceous extracellular matrix
p241
I429
tp242
a(VtRNA metabolic process
p243
I427
tp244
a(Vvacuolar transport
p245
I375
tp246
a(Vperoxisome
p247
I374
tp248
a(Vplasma membrane organization
p249
I369
tp250
a(Vmitosis
p251
I363
tp252
a(Vchromosome segregation
p253
I345
tp254
a(Vtranslation factor activity, nucleic acid binding
p255
I335
tp256
a(Vprotein binding, bridging
p257
I316
tp258
a(Vunfolded protein binding
p259
I306
tp260
a(Vtranslation
p261
I278
tp262
a(Vprotein transporter activity
p263
I276
tp264
a(Vribosome
p265
I268
tp266
a(Vsmall conjugating protein binding
p267
I256
tp268
a(Vlipid particle
p269
I244
tp270
a(Vtransferase activity, transferring alkyl or aryl (other than methyl) groups
p271
I212
tp272
a(Vintracellular
p273
I196
tp274
a(Vribosome biogenesis
p275
I192
tp276
a(Vnuclear chromosome
p277
I168
tp278
a(VrRNA binding
p279
I158
tp280
a(Vpigmentation
p281
I146
tp282
a(Vthylakoid
p283
I124
tp284
a(Vnitrogen cycle metabolic process
p285
I72
tp286
a(Vtransposition
p287
I54
tp288
a(Vphotosynthesis
p289
I35
tp290
a(Vcell
p291
I20
tp292
a(Vcytoplasmic chromosome
p293
I2
tp294
aa(lp295
(g3
L6372L
tp296
a(g5
L4365L
tp297
a(g7
L2787L
tp298
a(g9
L21685L
tp299
a(g11
L26888L
tp300
a(g13
L5491L
tp301
a(g15
L18268L
tp302
a(g17
L5801L
tp303
a(g19
L5613L
tp304
a(g21
L22689L
tp305
a(g23
L7192L
tp306
a(g25
L21630L
tp307
a(g27
L21693L
tp308
a(g29
L7190L
tp309
a(g31
L5168L
tp310
a(g33
L1781L
tp311
a(g35
L5326L
tp312
a(g37
L13633L
tp313
a(g39
L13924L
tp314
a(g41
L4599L
tp315
a(g43
L13690L
tp316
a(g45
L4644L
tp317
a(g47
L12968L
tp318
a(g49
L10598L
tp319
a(g51
L20507L
tp320
a(g53
L4995L
tp321
a(g55
L4507L
tp322
a(g57
L4422L
tp323
a(g59
L10381L
tp324
a(g61
L4725L
tp325
a(g63
L2790L
tp326
a(g65
L4514L
tp327
a(g67
L29927L
tp328
a(g69
L26682L
tp329
a(g71
L21086L
tp330
a(g73
L31581L
tp331
a(g75
L18282L
tp332
a(g77
L28228L
tp333
a(g79
L3827L
tp334
a(g81
L5218L
tp335
a(g83
L26901L
tp336
a(g85
L20503L
tp337
a(g87
L7881L
tp338
a(g89
L5165L
tp339
a(g91
L28535L
tp340
a(g93
L27837L
tp341
a(g95
L10466L
tp342
a(g97
L6320L
tp343
a(g99
L2830L
tp344
a(g101
L5663L
tp345
a(g103
L4515L
tp346
a(g105
L4567L
tp347
a(g107
L10229L
tp348
a(g109
L10963L
tp349
a(g111
L6448L
tp350
a(g113
L6500L
tp351
a(g115
L5896L
tp352
a(g117
L4556L
tp353
a(g119
L4621L
tp354
a(g121
L10950L
tp355
a(g123
L5791L
tp356
a(g125
L30984L
tp357
a(g127
L6436L
tp358
a(g129
L4542L
tp359
a(g131
L14001L
tp360
a(g133
L6494L
tp361
a(g135
L4118L
tp362
a(g137
L28144L
tp363
a(g139
L5471L
tp364
a(g141
L4439L
tp365
a(g143
L5302L
tp366
a(g145
L4586L
tp367
a(g147
L6357L
tp368
a(g149
L759L
tp369
a(g151
L594L
tp370
a(g153
L4366L
tp371
a(g155
L4838L
tp372
a(g157
L677L
tp373
a(g159
L10829L
tp374
a(g161
L4405L
tp375
a(g163
L22810L
tp376
a(g165
L4546L
tp377
a(g167
L13967L
tp378
a(g169
L5112L
tp379
a(g171
L10905L
tp380
a(g173
L7644L
tp381
a(g175
L4684L
tp382
a(g177
L10870L
tp383
a(g179
L14078L
tp384
a(g181
L3L
tp385
a(g183
L10840L
tp386
a(g185
L5695L
tp387
a(g187
L4408L
tp388
a(g189
L3518L
tp389
a(g191
L6389L
tp390
a(g193
L6169L
tp391
a(g195
L3404L
tp392
a(g197
L5582L
tp393
a(g199
L2364L
tp394
a(g201
L5161L
tp395
a(g203
L28251L
tp396
a(g205
L12827L
tp397
a(g207
L17965L
tp398
a(g209
L10929L
tp399
a(g211
L13274L
tp400
a(g213
L2841L
tp401
a(g215
L5658L
tp402
a(g217
L4538L
tp403
a(g219
L10860L
tp404
a(g221
L2991L
tp405
a(g223
L4475L
tp406
a(g225
L13644L
tp407
a(g227
L14427L
tp408
a(g229
L4423L
tp409
a(g231
L10886L
tp410
a(g233
L2835L
tp411
a(g235
L10876L
tp412
a(g237
L33137L
tp413
a(g239
L20900L
tp414
a(g241
L4368L
tp415
a(g243
L5114L
tp416
a(g245
L5682L
tp417
a(g247
L4550L
tp418
a(g249
L5662L
tp419
a(g251
L5712L
tp420
a(g253
L5705L
tp421
a(g255
L6358L
tp422
a(g257
L14396L
tp423
a(g259
L28040L
tp424
a(g261
L5126L
tp425
a(g263
L6747L
tp426
a(g265
L4609L
tp427
a(g267
L15840L
tp428
a(g269
L4583L
tp429
a(g271
L10848L
tp430
a(g273
L4411L
tp431
a(g275
L20770L
tp432
a(g277
L201L
tp433
a(g279
L12918L
tp434
a(g281
L21900L
tp435
a(g283
L7683L
tp436
a(g285
L33512L
tp437
a(g287
L15852L
tp438
a(g289
L10192L
tp439
a(g291
L4412L
tp440
a(g293
L202L
tp441
aaI1116653
a.