(lp1
(lp2
(Vbiological_process
p3
I390600
tp4
a(Vcellular_component
p5
I129030
tp6
a(Vmolecular_function
p7
I112657
tp8
a(Vorganelle
p9
I33460
tp10
a(Vanatomical structure development
p11
I28700
tp12
a(Vtransport
p13
I23168
tp14
a(Vcellular nitrogen compound metabolic process
p15
I19464
tp16
a(Vsignal transduction
p17
I17386
tp18
a(Vresponse to stress
p19
I15231
tp20
a(Vsmall molecule metabolic process
p21
I14765
tp22
a(Vion binding
p23
I14341
tp24
a(Vprotein complex
p25
I13807
tp26
a(Vbiosynthetic process
p27
I13698
tp28
a(Vcatabolic process
p29
I10190
tp30
a(Vcellular protein modification process
p31
I9845
tp32
a(Vimmune system process
p33
I7505
tp34
a(Vcell differentiation
p35
I6838
tp36
a(Vlipid metabolic process
p37
I6177
tp38
a(Vcellular component assembly
p39
I6120
tp40
a(Vcytosol
p41
I5884
tp42
a(Vtransmembrane transporter activity
p43
I5631
tp44
a(Venzyme binding
p45
I5330
tp46
a(Vplasma membrane
p47
I5249
tp48
a(VDNA metabolic process
p49
I5009
tp50
a(Voxidoreductase activity
p51
I4681
tp52
a(Vlocomotion
p53
I4637
tp54
a(Vanatomical structure formation involved in morphogenesis
p55
I4411
tp56
a(Vnucleolus
p57
I4255
tp58
a(Vnucleus
p59
I4191
tp60
a(Vvesicle-mediated transport
p61
I4067
tp62
a(Vcarbohydrate metabolic process
p63
I4054
tp64
a(Vcytoplasm
p65
I4050
tp66
a(Vtransmembrane transport
p67
I4035
tp68
a(VDNA binding
p69
I3987
tp70
a(Vhomeostatic process
p71
I3636
tp72
a(Vchromosome organization
p73
I3549
tp74
a(Vmacromolecular complex assembly
p75
I3482
tp76
a(Vnucleobase-containing compound catabolic process
p77
I3415
tp78
a(Vcellular amino acid metabolic process
p79
I3213
tp80
a(Vgrowth
p81
I3158
tp82
a(Vcell motility
p83
I3144
tp84
a(Vsignal transducer activity
p85
I3117
tp86
a(Vkinase activity
p87
I3086
tp88
a(Vembryo development
p89
I3017
tp90
a(Vprotein maturation
p91
I3011
tp92
a(Vneurological system process
p93
I2880
tp94
a(Vprotein complex assembly
p95
I2876
tp96
a(Vcytoskeletal protein binding
p97
I2729
tp98
a(Vcytoskeleton organization
p99
I2625
tp100
a(VRNA binding
p101
I2596
tp102
a(Vmitochondrion
p103
I2326
tp104
a(Vlipid binding
p105
I2247
tp106
a(VGolgi apparatus
p107
I2238
tp108
a(Vcytoplasmic membrane-bounded vesicle
p109
I2219
tp110
a(VATPase activity
p111
I2204
tp112
a(Vpeptidase activity
p113
I2062
tp114
a(Vcell adhesion
p115
I2040
tp116
a(Vcytoskeleton
p117
I1996
tp118
a(Vligase activity
p119
I1986
tp120
a(Vendoplasmic reticulum
p121
I1946
tp122
a(Vcell-cell signaling
p123
I1808
tp124
a(Vmembrane organization
p125
I1785
tp126
a(Vcell death
p127
I1779
tp128
a(Vcell proliferation
p129
I1764
tp130
a(Vendosome
p131
I1694
tp132
a(Venzyme regulator activity
p133
I1687
tp134
a(Vmicrotubule organizing center
p135
I1620
tp136
a(Vnucleoplasm
p137
I1558
tp138
a(Vcell morphogenesis
p139
I1551
tp140
a(Vcofactor metabolic process
p141
I1535
tp142
a(Vtranscription factor binding
p143
I1506
tp144
a(Vsulfur compound metabolic process
p145
I1467
tp146
a(Vnucleic acid binding transcription factor activity
p147
I1418
tp148
a(Vprotein binding transcription factor activity
p149
I1369
tp150
a(Vextracellular region
p151
I1364
tp152
a(Vstructural molecule activity
p153
I1311
tp154
a(Vgeneration of precursor metabolites and energy
p155
I1223
tp156
a(Vprotein targeting
p157
I1210
tp158
a(Vtransferase activity, transferring acyl groups
p159
I1167
tp160
a(Vextracellular space
p161
I1057
tp162
a(Vcilium
p163
I1010
tp164
a(Vextracellular matrix organization
p165
I1008
tp166
a(Vlyase activity
p167
I969
tp168
a(VmRNA processing
p169
I965
tp170
a(Vvacuole
p171
I957
tp172
a(Vsymbiosis, encompassing mutualism through parasitism
p173
I931
tp174
a(Vphosphatase activity
p175
I924
tp176
a(Vnuclease activity
p177
I878
tp178
a(Vcell cycle
p179
I874
tp180
a(Vhelicase activity
p181
I859
tp182
a(Vtransferase activity, transferring glycosyl groups
p183
I853
tp184
a(Vplastid
p185
I796
tp186
a(Vreproduction
p187
I780
tp188
a(Vexternal encapsulating structure
p189
I757
tp190
a(Vcell division
p191
I747
tp192
a(Vaging
p193
I743
tp194
a(Vcell wall
p195
I731
tp196
a(Vmethyltransferase activity
p197
I683
tp198
a(Vnucleocytoplasmic transport
p199
I680
tp200
a(Vsecondary metabolic process
p201
I630
tp202
a(Vprotein folding
p203
I606
tp204
a(Vdevelopmental maturation
p205
I602
tp206
a(Vcell junction organization
p207
I593
tp208
a(Visomerase activity
p209
I588
tp210
a(Vcirculatory system process
p211
I575
tp212
a(Vchromosome
p213
I543
tp214
a(Vnucleotidyltransferase activity
p215
I537
tp216
a(Vlysosome
p217
I535
tp218
a(Vmitochondrion organization
p219
I516
tp220
a(Vcytoskeleton-dependent intracellular transport
p221
I491
tp222
a(Vhydrolase activity, acting on carbon-nitrogen (but not peptide) bonds
p223
I483
tp224
a(Vribonucleoprotein complex assembly
p225
I476
tp226
a(VGTPase activity
p227
I473
tp228
a(Vproteinaceous extracellular matrix
p229
I459
tp230
a(Vnuclear envelope
p231
I449
tp232
a(Vhydrolase activity, acting on glycosyl bonds
p233
I436
tp234
a(VtRNA metabolic process
p235
I429
tp236
a(Vhistone binding
p237
I411
tp238
a(Vcell wall organization or biogenesis
p239
I400
tp240
a(VmRNA binding
p241
I395
tp242
a(Vplasma membrane organization
p243
I367
tp244
a(Vchromosome segregation
p245
I354
tp246
a(Vmitosis
p247
I354
tp248
a(Vperoxisome
p249
I344
tp250
a(Vstructural constituent of ribosome
p251
I341
tp252
a(Vvacuolar transport
p253
I310
tp254
a(Vtranslation factor activity, nucleic acid binding
p255
I290
tp256
a(Vprotein binding, bridging
p257
I285
tp258
a(Vsmall conjugating protein binding
p259
I282
tp260
a(Vprotein transporter activity
p261
I280
tp262
a(Vunfolded protein binding
p263
I274
tp264
a(Vtranslation
p265
I234
tp266
a(Vribosome
p267
I227
tp268
a(Vlipid particle
p269
I226
tp270
a(Vtransferase activity, transferring alkyl or aryl (other than methyl) groups
p271
I189
tp272
a(Vintracellular
p273
I185
tp274
a(Vnuclear chromosome
p275
I163
tp276
a(Vribosome biogenesis
p277
I146
tp278
a(Vpigmentation
p279
I143
tp280
a(VrRNA binding
p281
I127
tp282
a(Vthylakoid
p283
I95
tp284
a(Vnitrogen cycle metabolic process
p285
I65
tp286
a(Vtransposition
p287
I64
tp288
a(Vphotosynthesis
p289
I26
tp290
a(Vcell
p291
I19
tp292
a(VRNA modification guide activity
p293
I2
tp294
a(Vcytoplasmic chromosome
p295
I1
tp296
aa(lp297
(g3
L6372L
tp298
a(g5
L4365L
tp299
a(g7
L2787L
tp300
a(g9
L21685L
tp301
a(g11
L26888L
tp302
a(g13
L5491L
tp303
a(g15
L18268L
tp304
a(g17
L5801L
tp305
a(g19
L5613L
tp306
a(g21
L22689L
tp307
a(g23
L21630L
tp308
a(g25
L21693L
tp309
a(g27
L7192L
tp310
a(g29
L7190L
tp311
a(g31
L5168L
tp312
a(g33
L1781L
tp313
a(g35
L13924L
tp314
a(g37
L5326L
tp315
a(g39
L13633L
tp316
a(g41
L4599L
tp317
a(g43
L13690L
tp318
a(g45
L12968L
tp319
a(g47
L4644L
tp320
a(g49
L4995L
tp321
a(g51
L10598L
tp322
a(g53
L20507L
tp323
a(g55
L26682L
tp324
a(g57
L4507L
tp325
a(g59
L4422L
tp326
a(g61
L10381L
tp327
a(g63
L4725L
tp328
a(g65
L4514L
tp329
a(g67
L29927L
tp330
a(g69
L2790L
tp331
a(g71
L21086L
tp332
a(g73
L28228L
tp333
a(g75
L31581L
tp334
a(g77
L18282L
tp335
a(g79
L5218L
tp336
a(g81
L20503L
tp337
a(g83
L26901L
tp338
a(g85
L3827L
tp339
a(g87
L10466L
tp340
a(g89
L7881L
tp341
a(g91
L28535L
tp342
a(g93
L27837L
tp343
a(g95
L5165L
tp344
a(g97
L6320L
tp345
a(g99
L5663L
tp346
a(g101
L2830L
tp347
a(g103
L4515L
tp348
a(g105
L6500L
tp349
a(g107
L4567L
tp350
a(g109
L10229L
tp351
a(g111
L10963L
tp352
a(g113
L6448L
tp353
a(g115
L5791L
tp354
a(g117
L4621L
tp355
a(g119
L10950L
tp356
a(g121
L4556L
tp357
a(g123
L5896L
tp358
a(g125
L30984L
tp359
a(g127
L6436L
tp360
a(g129
L6494L
tp361
a(g131
L4542L
tp362
a(g133
L14001L
tp363
a(g135
L4586L
tp364
a(g137
L4439L
tp365
a(g139
L594L
tp366
a(g141
L28144L
tp367
a(g143
L6357L
tp368
a(g145
L5471L
tp369
a(g147
L759L
tp370
a(g149
L677L
tp371
a(g151
L4366L
tp372
a(g153
L4118L
tp373
a(g155
L4838L
tp374
a(g157
L5302L
tp375
a(g159
L10829L
tp376
a(g161
L4405L
tp377
a(g163
L4684L
tp378
a(g165
L13967L
tp379
a(g167
L10905L
tp380
a(g169
L5112L
tp381
a(g171
L4546L
tp382
a(g173
L22810L
tp383
a(g175
L10870L
tp384
a(g177
L3518L
tp385
a(g179
L5695L
tp386
a(g181
L3404L
tp387
a(g183
L10840L
tp388
a(g185
L7644L
tp389
a(g187
L3L
tp390
a(g189
L14078L
tp391
a(g191
L28251L
tp392
a(g193
L6169L
tp393
a(g195
L4408L
tp394
a(g197
L6389L
tp395
a(g199
L5582L
tp396
a(g201
L12827L
tp397
a(g203
L5161L
tp398
a(g205
L13274L
tp399
a(g207
L17965L
tp400
a(g209
L10929L
tp401
a(g211
L2364L
tp402
a(g213
L4475L
tp403
a(g215
L10860L
tp404
a(g217
L4538L
tp405
a(g219
L5658L
tp406
a(g221
L14427L
tp407
a(g223
L10886L
tp408
a(g225
L13644L
tp409
a(g227
L2991L
tp410
a(g229
L4368L
tp411
a(g231
L4423L
tp412
a(g233
L10876L
tp413
a(g235
L5114L
tp414
a(g237
L20900L
tp415
a(g239
L33137L
tp416
a(g241
L2835L
tp417
a(g243
L5662L
tp418
a(g245
L5705L
tp419
a(g247
L5712L
tp420
a(g249
L4550L
tp421
a(g251
L2841L
tp422
a(g253
L5682L
tp423
a(g255
L6358L
tp424
a(g257
L14396L
tp425
a(g259
L15840L
tp426
a(g261
L6747L
tp427
a(g263
L28040L
tp428
a(g265
L5126L
tp429
a(g267
L4609L
tp430
a(g269
L4583L
tp431
a(g271
L10848L
tp432
a(g273
L4411L
tp433
a(g275
L201L
tp434
a(g277
L20770L
tp435
a(g279
L21900L
tp436
a(g281
L12918L
tp437
a(g283
L7683L
tp438
a(g285
L33512L
tp439
a(g287
L15852L
tp440
a(g289
L10192L
tp441
a(g291
L4412L
tp442
a(g293
L14288L
tp443
a(g295
L202L
tp444
aaI1075289
a.