(lp1
(lp2
(Vbiological_process
p3
I174437
tp4
a(Vcellular_component
p5
I59503
tp6
a(Vmolecular_function
p7
I55350
tp8
a(Vorganelle
p9
I15219
tp10
a(Vanatomical structure development
p11
I11627
tp12
a(Vtransport
p13
I11541
tp14
a(Vcellular nitrogen compound metabolic process
p15
I10321
tp16
a(Vsmall molecule metabolic process
p17
I8294
tp18
a(Vsignal transduction
p19
I7837
tp20
a(Vbiosynthetic process
p21
I7479
tp22
a(Vion binding
p23
I7312
tp24
a(Vresponse to stress
p25
I7264
tp26
a(Vprotein complex
p27
I6699
tp28
a(Vcatabolic process
p29
I5528
tp30
a(Vcellular protein modification process
p31
I4576
tp32
a(Vimmune system process
p33
I3432
tp34
a(Vlipid metabolic process
p35
I3066
tp36
a(Vtransmembrane transporter activity
p37
I3020
tp38
a(Vcellular component assembly
p39
I3010
tp40
a(Vcytosol
p41
I2924
tp42
a(Vcell differentiation
p43
I2793
tp44
a(Voxidoreductase activity
p45
I2728
tp46
a(Vplasma membrane
p47
I2710
tp48
a(VDNA metabolic process
p49
I2532
tp50
a(Venzyme binding
p51
I2344
tp52
a(Vcytoplasm
p53
I2229
tp54
a(Vtransmembrane transport
p55
I2175
tp56
a(Vcarbohydrate metabolic process
p57
I2138
tp58
a(Vcellular amino acid metabolic process
p59
I2084
tp60
a(VDNA binding
p61
I2072
tp62
a(Vlocomotion
p63
I2066
tp64
a(Vnucleolus
p65
I2043
tp66
a(Vnucleus
p67
I2020
tp68
a(Vnucleobase-containing compound catabolic process
p69
I1837
tp70
a(Vvesicle-mediated transport
p71
I1822
tp72
a(Vmacromolecular complex assembly
p73
I1767
tp74
a(Vanatomical structure formation involved in morphogenesis
p75
I1743
tp76
a(Vchromosome organization
p77
I1708
tp78
a(Vhomeostatic process
p79
I1629
tp80
a(Vkinase activity
p81
I1560
tp82
a(Vprotein complex assembly
p83
I1455
tp84
a(Vembryo development
p85
I1454
tp86
a(Vgrowth
p87
I1416
tp88
a(Vprotein maturation
p89
I1387
tp90
a(VRNA binding
p91
I1354
tp92
a(Vcell motility
p93
I1324
tp94
a(VATPase activity
p95
I1296
tp96
a(Vsignal transducer activity
p97
I1291
tp98
a(Vcytoskeletal protein binding
p99
I1218
tp100
a(Vcytoskeleton organization
p101
I1217
tp102
a(Vmitochondrion
p103
I1155
tp104
a(Vneurological system process
p105
I1150
tp106
a(Vligase activity
p107
I1034
tp108
a(Vcytoplasmic membrane-bounded vesicle
p109
I992
tp110
a(VGolgi apparatus
p111
I976
tp112
a(Vlipid binding
p113
I970
tp114
a(Vcofactor metabolic process
p115
I946
tp116
a(Vpeptidase activity
p117
I941
tp118
a(Vcytoskeleton
p119
I898
tp120
a(Vendoplasmic reticulum
p121
I891
tp122
a(Vmembrane organization
p123
I816
tp124
a(Vcell adhesion
p125
I809
tp126
a(Vcell death
p127
I802
tp128
a(Venzyme regulator activity
p129
I775
tp130
a(Vgeneration of precursor metabolites and energy
p131
I748
tp132
a(Vcell proliferation
p133
I744
tp134
a(Vendosome
p135
I744
tp136
a(Vmicrotubule organizing center
p137
I742
tp138
a(Vnucleic acid binding transcription factor activity
p139
I729
tp140
a(Vnucleoplasm
p141
I723
tp142
a(Vsulfur compound metabolic process
p143
I722
tp144
a(Vcell-cell signaling
p145
I720
tp146
a(Vtranscription factor binding
p147
I707
tp148
a(Vprotein binding transcription factor activity
p149
I667
tp150
a(Vstructural molecule activity
p151
I641
tp152
a(Vcell morphogenesis
p153
I625
tp154
a(Vtransferase activity, transferring acyl groups
p155
I606
tp156
a(Vprotein targeting
p157
I600
tp158
a(Vlyase activity
p159
I588
tp160
a(Vextracellular region
p161
I537
tp162
a(Vnuclease activity
p163
I510
tp164
a(Vsymbiosis, encompassing mutualism through parasitism
p165
I502
tp166
a(VmRNA processing
p167
I490
tp168
a(Vphosphatase activity
p169
I471
tp170
a(Vexternal encapsulating structure
p171
I468
tp172
a(Vcell wall
p173
I449
tp174
a(Vhelicase activity
p175
I437
tp176
a(Vtransferase activity, transferring glycosyl groups
p177
I427
tp178
a(Vcell cycle
p179
I421
tp180
a(Vvacuole
p181
I413
tp182
a(Vreproduction
p183
I403
tp184
a(Vextracellular space
p185
I394
tp186
a(Vmethyltransferase activity
p187
I389
tp188
a(Vplastid
p189
I386
tp190
a(Vcilium
p191
I385
tp192
a(Visomerase activity
p193
I382
tp194
a(Vprotein folding
p195
I371
tp196
a(Vextracellular matrix organization
p197
I371
tp198
a(Vsecondary metabolic process
p199
I352
tp200
a(Vnucleocytoplasmic transport
p201
I351
tp202
a(Vcell division
p203
I351
tp204
a(Vnucleotidyltransferase activity
p205
I329
tp206
a(Vaging
p207
I313
tp208
a(Vhydrolase activity, acting on carbon-nitrogen (but not peptide) bonds
p209
I297
tp210
a(Vmitochondrion organization
p211
I288
tp212
a(Vcell junction organization
p213
I272
tp214
a(Vdevelopmental maturation
p215
I271
tp216
a(VtRNA metabolic process
p217
I269
tp218
a(Vchromosome
p219
I268
tp220
a(VGTPase activity
p221
I248
tp222
a(Vribonucleoprotein complex assembly
p223
I247
tp224
a(Vlysosome
p225
I237
tp226
a(Vcytoskeleton-dependent intracellular transport
p227
I219
tp228
a(VmRNA binding
p229
I213
tp230
a(Vhistone binding
p231
I199
tp232
a(Vcell wall organization or biogenesis
p233
I195
tp234
a(Vnuclear envelope
p235
I195
tp236
a(Vcirculatory system process
p237
I194
tp238
a(Vstructural constituent of ribosome
p239
I190
tp240
a(Vhydrolase activity, acting on glycosyl bonds
p241
I186
tp242
a(Vchromosome segregation
p243
I181
tp244
a(Vmitosis
p245
I181
tp246
a(Vperoxisome
p247
I172
tp248
a(Vunfolded protein binding
p249
I171
tp250
a(Vtranslation factor activity, nucleic acid binding
p251
I163
tp252
a(Vvacuolar transport
p253
I162
tp254
a(Vprotein transporter activity
p255
I159
tp256
a(Vplasma membrane organization
p257
I154
tp258
a(Vproteinaceous extracellular matrix
p259
I149
tp260
a(Vtranslation
p261
I137
tp262
a(Vsmall conjugating protein binding
p263
I118
tp264
a(Vribosome
p265
I116
tp266
a(Vprotein binding, bridging
p267
I115
tp268
a(Vtransferase activity, transferring alkyl or aryl (other than methyl) groups
p269
I114
tp270
a(Vintracellular
p271
I102
tp272
a(Vlipid particle
p273
I102
tp274
a(Vribosome biogenesis
p275
I78
tp276
a(VrRNA binding
p277
I76
tp278
a(Vnuclear chromosome
p279
I73
tp280
a(Vpigmentation
p281
I71
tp282
a(Vnitrogen cycle metabolic process
p283
I40
tp284
a(Vtransposition
p285
I35
tp286
a(Vthylakoid
p287
I25
tp288
a(Vcell
p289
I9
tp290
a(Vphotosynthesis
p291
I3
tp292
a(Vcytoplasmic chromosome
p293
I1
tp294
a(VRNA modification guide activity
p295
I1
tp296
aa(lp297
(g3
L6372L
tp298
a(g5
L4365L
tp299
a(g7
L2787L
tp300
a(g9
L21685L
tp301
a(g11
L26888L
tp302
a(g13
L5491L
tp303
a(g15
L18268L
tp304
a(g17
L22689L
tp305
a(g19
L5801L
tp306
a(g21
L7192L
tp307
a(g23
L21630L
tp308
a(g25
L5613L
tp309
a(g27
L21693L
tp310
a(g29
L7190L
tp311
a(g31
L5168L
tp312
a(g33
L1781L
tp313
a(g35
L5326L
tp314
a(g37
L13690L
tp315
a(g39
L13633L
tp316
a(g41
L4599L
tp317
a(g43
L13924L
tp318
a(g45
L10598L
tp319
a(g47
L4644L
tp320
a(g49
L4995L
tp321
a(g51
L12968L
tp322
a(g53
L4514L
tp323
a(g55
L29927L
tp324
a(g57
L4725L
tp325
a(g59
L5218L
tp326
a(g61
L2790L
tp327
a(g63
L20507L
tp328
a(g65
L4507L
tp329
a(g67
L4422L
tp330
a(g69
L18282L
tp331
a(g71
L10381L
tp332
a(g73
L31581L
tp333
a(g75
L26682L
tp334
a(g77
L28228L
tp335
a(g79
L21086L
tp336
a(g81
L10466L
tp337
a(g83
L5165L
tp338
a(g85
L7881L
tp339
a(g87
L20503L
tp340
a(g89
L28535L
tp341
a(g91
L2830L
tp342
a(g93
L26901L
tp343
a(g95
L10963L
tp344
a(g97
L3827L
tp345
a(g99
L6320L
tp346
a(g101
L5663L
tp347
a(g103
L4515L
tp348
a(g105
L27837L
tp349
a(g107
L10950L
tp350
a(g109
L10229L
tp351
a(g111
L4567L
tp352
a(g113
L6500L
tp353
a(g115
L28144L
tp354
a(g117
L6448L
tp355
a(g119
L4621L
tp356
a(g121
L4556L
tp357
a(g123
L30984L
tp358
a(g125
L5791L
tp359
a(g127
L6436L
tp360
a(g129
L14001L
tp361
a(g131
L4838L
tp362
a(g133
L6494L
tp363
a(g135
L4542L
tp364
a(g137
L4586L
tp365
a(g139
L759L
tp366
a(g141
L4439L
tp367
a(g143
L5471L
tp368
a(g145
L5896L
tp369
a(g147
L6357L
tp370
a(g149
L677L
tp371
a(g151
L4118L
tp372
a(g153
L594L
tp373
a(g155
L10829L
tp374
a(g157
L5302L
tp375
a(g159
L10905L
tp376
a(g161
L4366L
tp377
a(g163
L3518L
tp378
a(g165
L22810L
tp379
a(g167
L5112L
tp380
a(g169
L10870L
tp381
a(g171
L14078L
tp382
a(g173
L4408L
tp383
a(g175
L3404L
tp384
a(g177
L10840L
tp385
a(g179
L5695L
tp386
a(g181
L4546L
tp387
a(g183
L3L
tp388
a(g185
L4405L
tp389
a(g187
L6389L
tp390
a(g189
L7644L
tp391
a(g191
L4684L
tp392
a(g193
L10929L
tp393
a(g195
L5161L
tp394
a(g197
L13967L
tp395
a(g199
L12827L
tp396
a(g201
L5582L
tp397
a(g203
L28251L
tp398
a(g205
L10860L
tp399
a(g207
L6169L
tp400
a(g209
L10886L
tp401
a(g211
L5658L
tp402
a(g213
L17965L
tp403
a(g215
L13274L
tp404
a(g217
L5114L
tp405
a(g219
L4475L
tp406
a(g221
L2991L
tp407
a(g223
L13644L
tp408
a(g225
L4538L
tp409
a(g227
L14427L
tp410
a(g229
L2835L
tp411
a(g231
L20900L
tp412
a(g233
L33137L
tp413
a(g235
L4423L
tp414
a(g237
L2364L
tp415
a(g239
L2841L
tp416
a(g241
L10876L
tp417
a(g243
L5705L
tp418
a(g245
L5712L
tp419
a(g247
L4550L
tp420
a(g249
L28040L
tp421
a(g251
L6358L
tp422
a(g253
L5682L
tp423
a(g255
L6747L
tp424
a(g257
L5662L
tp425
a(g259
L4368L
tp426
a(g261
L5126L
tp427
a(g263
L15840L
tp428
a(g265
L4609L
tp429
a(g267
L14396L
tp430
a(g269
L10848L
tp431
a(g271
L4411L
tp432
a(g273
L4583L
tp433
a(g275
L20770L
tp434
a(g277
L12918L
tp435
a(g279
L201L
tp436
a(g281
L21900L
tp437
a(g283
L33512L
tp438
a(g285
L15852L
tp439
a(g287
L7683L
tp440
a(g289
L4412L
tp441
a(g291
L10192L
tp442
a(g293
L202L
tp443
a(g295
L14288L
tp444
aaI503910
a.