(lp1
(lp2
(Vbiological_process
p3
I247143
tp4
a(Vcellular_component
p5
I84969
tp6
a(Vmolecular_function
p7
I76315
tp8
a(Vorganelle
p9
I22041
tp10
a(Vanatomical structure development
p11
I16853
tp12
a(Vtransport
p13
I15760
tp14
a(Vcellular nitrogen compound metabolic process
p15
I14340
tp16
a(Vsignal transduction
p17
I10956
tp18
a(Vsmall molecule metabolic process
p19
I10836
tp20
a(Vresponse to stress
p21
I10100
tp22
a(Vion binding
p23
I9940
tp24
a(Vbiosynthetic process
p25
I9799
tp26
a(Vprotein complex
p27
I9781
tp28
a(Vcatabolic process
p29
I7363
tp30
a(Vcellular protein modification process
p31
I6591
tp32
a(Vimmune system process
p33
I4801
tp34
a(Vcellular component assembly
p35
I4417
tp36
a(Vcytosol
p37
I4250
tp38
a(Vlipid metabolic process
p39
I4085
tp40
a(Vcell differentiation
p41
I3960
tp42
a(Vtransmembrane transporter activity
p43
I3863
tp44
a(Vplasma membrane
p45
I3628
tp46
a(Venzyme binding
p47
I3501
tp48
a(VDNA metabolic process
p49
I3481
tp50
a(Voxidoreductase activity
p51
I3283
tp52
a(Vnucleolus
p53
I3035
tp54
a(Vlocomotion
p55
I2887
tp56
a(Vcarbohydrate metabolic process
p57
I2884
tp58
a(Vnucleus
p59
I2881
tp60
a(Vcytoplasm
p61
I2877
tp62
a(VDNA binding
p63
I2833
tp64
a(Vtransmembrane transport
p65
I2827
tp66
a(Vvesicle-mediated transport
p67
I2721
tp68
a(Vchromosome organization
p69
I2632
tp70
a(Vcellular amino acid metabolic process
p71
I2594
tp72
a(Vmacromolecular complex assembly
p73
I2588
tp74
a(Vnucleobase-containing compound catabolic process
p75
I2530
tp76
a(Vanatomical structure formation involved in morphogenesis
p77
I2485
tp78
a(Vhomeostatic process
p79
I2354
tp80
a(Vembryo development
p81
I2134
tp82
a(Vkinase activity
p83
I2106
tp84
a(Vprotein complex assembly
p85
I2063
tp86
a(Vprotein maturation
p87
I1997
tp88
a(Vgrowth
p89
I1992
tp90
a(VRNA binding
p91
I1971
tp92
a(Vcytoskeleton organization
p93
I1877
tp94
a(Vcell motility
p95
I1875
tp96
a(Vcytoskeletal protein binding
p97
I1872
tp98
a(Vneurological system process
p99
I1716
tp100
a(Vsignal transducer activity
p101
I1711
tp102
a(VATPase activity
p103
I1672
tp104
a(Vmitochondrion
p105
I1629
tp106
a(Vcytoplasmic membrane-bounded vesicle
p107
I1469
tp108
a(VGolgi apparatus
p109
I1426
tp110
a(Vlipid binding
p111
I1422
tp112
a(Vpeptidase activity
p113
I1404
tp114
a(Vligase activity
p115
I1374
tp116
a(Vendoplasmic reticulum
p117
I1297
tp118
a(Vcytoskeleton
p119
I1285
tp120
a(Vcell death
p121
I1209
tp122
a(Vmembrane organization
p123
I1191
tp124
a(Vcell adhesion
p125
I1181
tp126
a(Venzyme regulator activity
p127
I1157
tp128
a(Vcofactor metabolic process
p129
I1136
tp130
a(Vmicrotubule organizing center
p131
I1125
tp132
a(Vendosome
p133
I1108
tp134
a(Vnucleoplasm
p135
I1108
tp136
a(Vcell proliferation
p137
I1067
tp138
a(Vcell-cell signaling
p139
I1056
tp140
a(Vtranscription factor binding
p141
I1027
tp142
a(Vnucleic acid binding transcription factor activity
p143
I994
tp144
a(Vsulfur compound metabolic process
p145
I978
tp146
a(Vprotein binding transcription factor activity
p147
I965
tp148
a(Vstructural molecule activity
p149
I941
tp150
a(Vgeneration of precursor metabolites and energy
p151
I940
tp152
a(Vcell morphogenesis
p153
I890
tp154
a(Vprotein targeting
p155
I862
tp156
a(Vtransferase activity, transferring acyl groups
p157
I855
tp158
a(Vextracellular region
p159
I818
tp160
a(VmRNA processing
p161
I778
tp162
a(Vsymbiosis, encompassing mutualism through parasitism
p163
I721
tp164
a(Vlyase activity
p165
I714
tp166
a(Vnuclease activity
p167
I652
tp168
a(Vphosphatase activity
p169
I632
tp170
a(Vvacuole
p171
I624
tp172
a(Vcell cycle
p173
I612
tp174
a(Vtransferase activity, transferring glycosyl groups
p175
I604
tp176
a(Vhelicase activity
p177
I601
tp178
a(Vreproduction
p179
I581
tp180
a(Vcilium
p181
I572
tp182
a(Vnucleocytoplasmic transport
p183
I565
tp184
a(Vexternal encapsulating structure
p185
I565
tp186
a(Vextracellular matrix organization
p187
I563
tp188
a(Vextracellular space
p189
I546
tp190
a(Vcell wall
p191
I543
tp192
a(Vcell division
p193
I526
tp194
a(Vmethyltransferase activity
p195
I500
tp196
a(Vprotein folding
p197
I499
tp198
a(Vplastid
p199
I491
tp200
a(Visomerase activity
p201
I482
tp202
a(Vsecondary metabolic process
p203
I448
tp204
a(Vaging
p205
I440
tp206
a(Vcell junction organization
p207
I437
tp208
a(Vribonucleoprotein complex assembly
p209
I426
tp210
a(Vnucleotidyltransferase activity
p211
I423
tp212
a(Vdevelopmental maturation
p213
I409
tp214
a(Vmitochondrion organization
p215
I386
tp216
a(Vchromosome
p217
I384
tp218
a(Vhydrolase activity, acting on carbon-nitrogen (but not peptide) bonds
p219
I364
tp220
a(VGTPase activity
p221
I361
tp222
a(Vlysosome
p223
I356
tp224
a(Vcytoskeleton-dependent intracellular transport
p225
I351
tp226
a(VtRNA metabolic process
p227
I350
tp228
a(VmRNA binding
p229
I341
tp230
a(Vnuclear envelope
p231
I312
tp232
a(Vhistone binding
p233
I304
tp234
a(Vcirculatory system process
p235
I303
tp236
a(Vhydrolase activity, acting on glycosyl bonds
p237
I296
tp238
a(Vchromosome segregation
p239
I280
tp240
a(Vmitosis
p241
I273
tp242
a(Vcell wall organization or biogenesis
p243
I265
tp244
a(Vstructural constituent of ribosome
p245
I262
tp246
a(Vvacuolar transport
p247
I235
tp248
a(Vunfolded protein binding
p249
I225
tp250
a(Vplasma membrane organization
p251
I224
tp252
a(Vperoxisome
p253
I223
tp254
a(Vtranslation factor activity, nucleic acid binding
p255
I214
tp256
a(Vtranslation
p257
I211
tp258
a(Vprotein transporter activity
p259
I207
tp260
a(Vproteinaceous extracellular matrix
p261
I204
tp262
a(Vprotein binding, bridging
p263
I186
tp264
a(Vsmall conjugating protein binding
p265
I184
tp266
a(Vlipid particle
p267
I168
tp268
a(Vribosome
p269
I157
tp270
a(Vtransferase activity, transferring alkyl or aryl (other than methyl) groups
p271
I145
tp272
a(Vintracellular
p273
I141
tp274
a(Vnuclear chromosome
p275
I107
tp276
a(VrRNA binding
p277
I107
tp278
a(Vribosome biogenesis
p279
I105
tp280
a(Vpigmentation
p281
I101
tp282
a(Vnitrogen cycle metabolic process
p283
I47
tp284
a(Vtransposition
p285
I40
tp286
a(Vthylakoid
p287
I39
tp288
a(Vcell
p289
I13
tp290
a(Vphotosynthesis
p291
I5
tp292
a(Vcytoplasmic chromosome
p293
I1
tp294
a(VRNA modification guide activity
p295
I1
tp296
aa(lp297
(g3
L6372L
tp298
a(g5
L4365L
tp299
a(g7
L2787L
tp300
a(g9
L21685L
tp301
a(g11
L26888L
tp302
a(g13
L5491L
tp303
a(g15
L18268L
tp304
a(g17
L5801L
tp305
a(g19
L22689L
tp306
a(g21
L5613L
tp307
a(g23
L21630L
tp308
a(g25
L7192L
tp309
a(g27
L21693L
tp310
a(g29
L7190L
tp311
a(g31
L5168L
tp312
a(g33
L1781L
tp313
a(g35
L13633L
tp314
a(g37
L4599L
tp315
a(g39
L5326L
tp316
a(g41
L13924L
tp317
a(g43
L13690L
tp318
a(g45
L4644L
tp319
a(g47
L12968L
tp320
a(g49
L4995L
tp321
a(g51
L10598L
tp322
a(g53
L4507L
tp323
a(g55
L20507L
tp324
a(g57
L4725L
tp325
a(g59
L4422L
tp326
a(g61
L4514L
tp327
a(g63
L2790L
tp328
a(g65
L29927L
tp329
a(g67
L10381L
tp330
a(g69
L28228L
tp331
a(g71
L5218L
tp332
a(g73
L31581L
tp333
a(g75
L18282L
tp334
a(g77
L26682L
tp335
a(g79
L21086L
tp336
a(g81
L7881L
tp337
a(g83
L10466L
tp338
a(g85
L5165L
tp339
a(g87
L28535L
tp340
a(g89
L20503L
tp341
a(g91
L2830L
tp342
a(g93
L5663L
tp343
a(g95
L26901L
tp344
a(g97
L6320L
tp345
a(g99
L27837L
tp346
a(g101
L3827L
tp347
a(g103
L10963L
tp348
a(g105
L4515L
tp349
a(g107
L10229L
tp350
a(g109
L4567L
tp351
a(g111
L6500L
tp352
a(g113
L6448L
tp353
a(g115
L10950L
tp354
a(g117
L4556L
tp355
a(g119
L4621L
tp356
a(g121
L6436L
tp357
a(g123
L30984L
tp358
a(g125
L5791L
tp359
a(g127
L14001L
tp360
a(g129
L28144L
tp361
a(g131
L4586L
tp362
a(g133
L4542L
tp363
a(g135
L4439L
tp364
a(g137
L6494L
tp365
a(g139
L5896L
tp366
a(g141
L6357L
tp367
a(g143
L759L
tp368
a(g145
L5471L
tp369
a(g147
L677L
tp370
a(g149
L4118L
tp371
a(g151
L4838L
tp372
a(g153
L594L
tp373
a(g155
L5302L
tp374
a(g157
L10829L
tp375
a(g159
L4366L
tp376
a(g161
L5112L
tp377
a(g163
L22810L
tp378
a(g165
L10905L
tp379
a(g167
L3518L
tp380
a(g169
L10870L
tp381
a(g171
L4546L
tp382
a(g173
L5695L
tp383
a(g175
L10840L
tp384
a(g177
L3404L
tp385
a(g179
L3L
tp386
a(g181
L4684L
tp387
a(g183
L5582L
tp388
a(g185
L14078L
tp389
a(g187
L13967L
tp390
a(g189
L4405L
tp391
a(g191
L4408L
tp392
a(g193
L28251L
tp393
a(g195
L6389L
tp394
a(g197
L5161L
tp395
a(g199
L7644L
tp396
a(g201
L10929L
tp397
a(g203
L12827L
tp398
a(g205
L6169L
tp399
a(g207
L17965L
tp400
a(g209
L13644L
tp401
a(g211
L10860L
tp402
a(g213
L13274L
tp403
a(g215
L5658L
tp404
a(g217
L4475L
tp405
a(g219
L10886L
tp406
a(g221
L2991L
tp407
a(g223
L4538L
tp408
a(g225
L14427L
tp409
a(g227
L5114L
tp410
a(g229
L2835L
tp411
a(g231
L4423L
tp412
a(g233
L20900L
tp413
a(g235
L2364L
tp414
a(g237
L10876L
tp415
a(g239
L5705L
tp416
a(g241
L5712L
tp417
a(g243
L33137L
tp418
a(g245
L2841L
tp419
a(g247
L5682L
tp420
a(g249
L28040L
tp421
a(g251
L5662L
tp422
a(g253
L4550L
tp423
a(g255
L6358L
tp424
a(g257
L5126L
tp425
a(g259
L6747L
tp426
a(g261
L4368L
tp427
a(g263
L14396L
tp428
a(g265
L15840L
tp429
a(g267
L4583L
tp430
a(g269
L4609L
tp431
a(g271
L10848L
tp432
a(g273
L4411L
tp433
a(g275
L201L
tp434
a(g277
L12918L
tp435
a(g279
L20770L
tp436
a(g281
L21900L
tp437
a(g283
L33512L
tp438
a(g285
L15852L
tp439
a(g287
L7683L
tp440
a(g289
L4412L
tp441
a(g291
L10192L
tp442
a(g293
L202L
tp443
a(g295
L14288L
tp444
aaI708516
a.