(lp1
(lp2
(Vbiological_process
p3
I338461
tp4
a(Vcellular_component
p5
I112789
tp6
a(Vmolecular_function
p7
I100182
tp8
a(Vorganelle
p9
I29176
tp10
a(Vanatomical structure development
p11
I24448
tp12
a(Vtransport
p13
I20392
tp14
a(Vcellular nitrogen compound metabolic process
p15
I16454
tp16
a(Vsignal transduction
p17
I15432
tp18
a(Vresponse to stress
p19
I12988
tp20
a(Vsmall molecule metabolic process
p21
I12858
tp22
a(Vion binding
p23
I12827
tp24
a(Vprotein complex
p25
I12556
tp26
a(Vbiosynthetic process
p27
I11167
tp28
a(Vcellular protein modification process
p29
I8712
tp30
a(Vcatabolic process
p31
I8661
tp32
a(Vimmune system process
p33
I6685
tp34
a(Vcell differentiation
p35
I5992
tp36
a(Vcellular component assembly
p37
I5681
tp38
a(Vlipid metabolic process
p39
I5430
tp40
a(Vcytosol
p41
I5250
tp42
a(Venzyme binding
p43
I4934
tp44
a(Vtransmembrane transporter activity
p45
I4930
tp46
a(Vplasma membrane
p47
I4517
tp48
a(Vlocomotion
p49
I4314
tp50
a(VDNA metabolic process
p51
I4170
tp52
a(Voxidoreductase activity
p53
I4055
tp54
a(Vnucleolus
p55
I3854
tp56
a(Vanatomical structure formation involved in morphogenesis
p57
I3808
tp58
a(Vcytoplasm
p59
I3793
tp60
a(Vnucleus
p61
I3748
tp62
a(Vvesicle-mediated transport
p63
I3718
tp64
a(VDNA binding
p65
I3692
tp66
a(Vtransmembrane transport
p67
I3553
tp68
a(Vcarbohydrate metabolic process
p69
I3294
tp70
a(Vhomeostatic process
p71
I3290
tp72
a(Vchromosome organization
p73
I3242
tp74
a(Vmacromolecular complex assembly
p75
I3143
tp76
a(Vcell motility
p77
I2985
tp78
a(Vnucleobase-containing compound catabolic process
p79
I2915
tp80
a(Vkinase activity
p81
I2836
tp82
a(Vcellular amino acid metabolic process
p83
I2834
tp84
a(Vsignal transducer activity
p85
I2682
tp86
a(Vneurological system process
p87
I2665
tp88
a(Vgrowth
p89
I2630
tp90
a(Vprotein complex assembly
p91
I2610
tp92
a(Vcytoskeletal protein binding
p93
I2591
tp94
a(Vprotein maturation
p95
I2577
tp96
a(Vembryo development
p97
I2504
tp98
a(Vcytoskeleton organization
p99
I2424
tp100
a(VRNA binding
p101
I2103
tp102
a(Vlipid binding
p103
I2054
tp104
a(VATPase activity
p105
I2043
tp106
a(Vmitochondrion
p107
I2042
tp108
a(Vcytoplasmic membrane-bounded vesicle
p109
I1990
tp110
a(VGolgi apparatus
p111
I1964
tp112
a(Vcell adhesion
p113
I1938
tp114
a(Vligase activity
p115
I1852
tp116
a(Vcytoskeleton
p117
I1830
tp118
a(Vpeptidase activity
p119
I1750
tp120
a(Vendoplasmic reticulum
p121
I1683
tp122
a(Vmembrane organization
p123
I1679
tp124
a(Vcell-cell signaling
p125
I1627
tp126
a(Vendosome
p127
I1605
tp128
a(Venzyme regulator activity
p129
I1561
tp130
a(Vcell proliferation
p131
I1539
tp132
a(Vcell death
p133
I1524
tp134
a(Vmicrotubule organizing center
p135
I1422
tp136
a(Vtranscription factor binding
p137
I1399
tp138
a(Vnucleic acid binding transcription factor activity
p139
I1384
tp140
a(Vcell morphogenesis
p141
I1381
tp142
a(Vnucleoplasm
p143
I1354
tp144
a(Vcofactor metabolic process
p145
I1342
tp146
a(Vprotein binding transcription factor activity
p147
I1339
tp148
a(Vsulfur compound metabolic process
p149
I1146
tp150
a(Vstructural molecule activity
p151
I1120
tp152
a(Vextracellular region
p153
I1081
tp154
a(Vgeneration of precursor metabolites and energy
p155
I1037
tp156
a(Vtransferase activity, transferring acyl groups
p157
I1006
tp158
a(Vprotein targeting
p159
I962
tp160
a(Vextracellular space
p161
I893
tp162
a(Vsymbiosis, encompassing mutualism through parasitism
p163
I871
tp164
a(Vcilium
p165
I865
tp166
a(Vphosphatase activity
p167
I858
tp168
a(Vextracellular matrix organization
p169
I848
tp170
a(VmRNA processing
p171
I837
tp172
a(Vvacuole
p173
I809
tp174
a(Vlyase activity
p175
I806
tp176
a(Vcell cycle
p177
I771
tp178
a(Vnuclease activity
p179
I770
tp180
a(Vtransferase activity, transferring glycosyl groups
p181
I751
tp182
a(Vhelicase activity
p183
I728
tp184
a(Vreproduction
p185
I673
tp186
a(Vnucleocytoplasmic transport
p187
I656
tp188
a(Vcell division
p189
I652
tp190
a(Vaging
p191
I649
tp192
a(Vcell junction organization
p193
I640
tp194
a(Vmethyltransferase activity
p195
I611
tp196
a(Vdevelopmental maturation
p197
I566
tp198
a(Vexternal encapsulating structure
p199
I565
tp200
a(Vcell wall
p201
I541
tp202
a(Vplastid
p203
I527
tp204
a(Vprotein folding
p205
I520
tp206
a(Vsecondary metabolic process
p207
I518
tp208
a(Vmitochondrion organization
p209
I513
tp210
a(Visomerase activity
p211
I509
tp212
a(Vcirculatory system process
p213
I498
tp214
a(Vlysosome
p215
I481
tp216
a(Vcytoskeleton-dependent intracellular transport
p217
I476
tp218
a(Vnucleotidyltransferase activity
p219
I472
tp220
a(Vchromosome
p221
I453
tp222
a(Vhydrolase activity, acting on carbon-nitrogen (but not peptide) bonds
p223
I439
tp224
a(Vhistone binding
p225
I422
tp226
a(Vribonucleoprotein complex assembly
p227
I410
tp228
a(Vnuclear envelope
p229
I392
tp230
a(VGTPase activity
p231
I390
tp232
a(Vproteinaceous extracellular matrix
p233
I377
tp234
a(VtRNA metabolic process
p235
I355
tp236
a(Vplasma membrane organization
p237
I344
tp238
a(VmRNA binding
p239
I330
tp240
a(Vhydrolase activity, acting on glycosyl bonds
p241
I317
tp242
a(Vmitosis
p243
I312
tp244
a(Vcell wall organization or biogenesis
p245
I305
tp246
a(Vvacuolar transport
p247
I299
tp248
a(Vchromosome segregation
p249
I287
tp250
a(Vprotein transporter activity
p251
I280
tp252
a(Vperoxisome
p253
I278
tp254
a(Vprotein binding, bridging
p255
I263
tp256
a(Vsmall conjugating protein binding
p257
I252
tp258
a(Vunfolded protein binding
p259
I229
tp260
a(Vtranslation factor activity, nucleic acid binding
p261
I213
tp262
a(Vstructural constituent of ribosome
p263
I199
tp264
a(Vtranslation
p265
I197
tp266
a(Vlipid particle
p267
I185
tp268
a(Vribosome
p269
I163
tp270
a(Vintracellular
p271
I162
tp272
a(Vtransferase activity, transferring alkyl or aryl (other than methyl) groups
p273
I161
tp274
a(Vpigmentation
p275
I129
tp276
a(Vnuclear chromosome
p277
I117
tp278
a(Vribosome biogenesis
p279
I109
tp280
a(VrRNA binding
p281
I95
tp282
a(Vnitrogen cycle metabolic process
p283
I60
tp284
a(Vthylakoid
p285
I42
tp286
a(Vtransposition
p287
I39
tp288
a(Vcell
p289
I21
tp290
a(Vphotosynthesis
p291
I7
tp292
a(Vcytoplasmic chromosome
p293
I1
tp294
aa(lp295
(g3
L6372L
tp296
a(g5
L4365L
tp297
a(g7
L2787L
tp298
a(g9
L21685L
tp299
a(g11
L26888L
tp300
a(g13
L5491L
tp301
a(g15
L18268L
tp302
a(g17
L5801L
tp303
a(g19
L5613L
tp304
a(g21
L22689L
tp305
a(g23
L21630L
tp306
a(g25
L21693L
tp307
a(g27
L7192L
tp308
a(g29
L5168L
tp309
a(g31
L7190L
tp310
a(g33
L1781L
tp311
a(g35
L13924L
tp312
a(g37
L13633L
tp313
a(g39
L5326L
tp314
a(g41
L4599L
tp315
a(g43
L12968L
tp316
a(g45
L13690L
tp317
a(g47
L4644L
tp318
a(g49
L20507L
tp319
a(g51
L4995L
tp320
a(g53
L10598L
tp321
a(g55
L4507L
tp322
a(g57
L26682L
tp323
a(g59
L4514L
tp324
a(g61
L4422L
tp325
a(g63
L10381L
tp326
a(g65
L2790L
tp327
a(g67
L29927L
tp328
a(g69
L4725L
tp329
a(g71
L21086L
tp330
a(g73
L28228L
tp331
a(g75
L31581L
tp332
a(g77
L26901L
tp333
a(g79
L18282L
tp334
a(g81
L10466L
tp335
a(g83
L5218L
tp336
a(g85
L3827L
tp337
a(g87
L27837L
tp338
a(g89
L20503L
tp339
a(g91
L5165L
tp340
a(g93
L6320L
tp341
a(g95
L28535L
tp342
a(g97
L7881L
tp343
a(g99
L5663L
tp344
a(g101
L2830L
tp345
a(g103
L6500L
tp346
a(g105
L10963L
tp347
a(g107
L4515L
tp348
a(g109
L10229L
tp349
a(g111
L4567L
tp350
a(g113
L5791L
tp351
a(g115
L10950L
tp352
a(g117
L4621L
tp353
a(g119
L6448L
tp354
a(g121
L4556L
tp355
a(g123
L30984L
tp356
a(g125
L5896L
tp357
a(g127
L4542L
tp358
a(g129
L14001L
tp359
a(g131
L6494L
tp360
a(g133
L6436L
tp361
a(g135
L4586L
tp362
a(g137
L6357L
tp363
a(g139
L759L
tp364
a(g141
L594L
tp365
a(g143
L4439L
tp366
a(g145
L28144L
tp367
a(g147
L677L
tp368
a(g149
L5471L
tp369
a(g151
L4118L
tp370
a(g153
L4366L
tp371
a(g155
L4838L
tp372
a(g157
L10829L
tp373
a(g159
L5302L
tp374
a(g161
L4405L
tp375
a(g163
L22810L
tp376
a(g165
L4684L
tp377
a(g167
L10870L
tp378
a(g169
L13967L
tp379
a(g171
L5112L
tp380
a(g173
L4546L
tp381
a(g175
L10905L
tp382
a(g177
L5695L
tp383
a(g179
L3518L
tp384
a(g181
L10840L
tp385
a(g183
L3404L
tp386
a(g185
L3L
tp387
a(g187
L5582L
tp388
a(g189
L28251L
tp389
a(g191
L6169L
tp390
a(g193
L17965L
tp391
a(g195
L6389L
tp392
a(g197
L13274L
tp393
a(g199
L14078L
tp394
a(g201
L4408L
tp395
a(g203
L7644L
tp396
a(g205
L5161L
tp397
a(g207
L12827L
tp398
a(g209
L5658L
tp399
a(g211
L10929L
tp400
a(g213
L2364L
tp401
a(g215
L4538L
tp402
a(g217
L14427L
tp403
a(g219
L10860L
tp404
a(g221
L4475L
tp405
a(g223
L10886L
tp406
a(g225
L20900L
tp407
a(g227
L13644L
tp408
a(g229
L4423L
tp409
a(g231
L2991L
tp410
a(g233
L4368L
tp411
a(g235
L5114L
tp412
a(g237
L5662L
tp413
a(g239
L2835L
tp414
a(g241
L10876L
tp415
a(g243
L5712L
tp416
a(g245
L33137L
tp417
a(g247
L5682L
tp418
a(g249
L5705L
tp419
a(g251
L6747L
tp420
a(g253
L4550L
tp421
a(g255
L14396L
tp422
a(g257
L15840L
tp423
a(g259
L28040L
tp424
a(g261
L6358L
tp425
a(g263
L2841L
tp426
a(g265
L5126L
tp427
a(g267
L4583L
tp428
a(g269
L4609L
tp429
a(g271
L4411L
tp430
a(g273
L10848L
tp431
a(g275
L21900L
tp432
a(g277
L201L
tp433
a(g279
L20770L
tp434
a(g281
L12918L
tp435
a(g283
L33512L
tp436
a(g285
L7683L
tp437
a(g287
L15852L
tp438
a(g289
L4412L
tp439
a(g291
L10192L
tp440
a(g293
L202L
tp441
aaI939714
a.