(lp1
(lp2
(Vbiological_process
p3
I229766
tp4
a(Vcellular_component
p5
I75733
tp6
a(Vmolecular_function
p7
I70245
tp8
a(Vorganelle
p9
I19011
tp10
a(Vanatomical structure development
p11
I16427
tp12
a(Vtransport
p13
I14073
tp14
a(Vcellular nitrogen compound metabolic process
p15
I12167
tp16
a(Vsignal transduction
p17
I10478
tp18
a(Vsmall molecule metabolic process
p19
I10269
tp20
a(Vion binding
p21
I9131
tp22
a(Vbiosynthetic process
p23
I9126
tp24
a(Vresponse to stress
p25
I8995
tp26
a(Vprotein complex
p27
I8236
tp28
a(Vcatabolic process
p29
I6445
tp30
a(Vcellular protein modification process
p31
I5765
tp32
a(Vimmune system process
p33
I4600
tp34
a(Vcell differentiation
p35
I4109
tp36
a(Vlipid metabolic process
p37
I3834
tp38
a(Vcellular component assembly
p39
I3799
tp40
a(Vtransmembrane transporter activity
p41
I3536
tp42
a(Vcytosol
p43
I3484
tp44
a(Voxidoreductase activity
p45
I3340
tp46
a(Vplasma membrane
p47
I3292
tp48
a(Venzyme binding
p49
I3075
tp50
a(VDNA metabolic process
p51
I3038
tp52
a(Vlocomotion
p53
I2824
tp54
a(Vcytoplasm
p55
I2771
tp56
a(Vcarbohydrate metabolic process
p57
I2629
tp58
a(Vanatomical structure formation involved in morphogenesis
p59
I2547
tp60
a(VDNA binding
p61
I2528
tp62
a(Vcellular amino acid metabolic process
p63
I2527
tp64
a(Vtransmembrane transport
p65
I2515
tp66
a(Vnucleus
p67
I2476
tp68
a(Vnucleolus
p69
I2381
tp70
a(Vvesicle-mediated transport
p71
I2347
tp72
a(Vkinase activity
p73
I2157
tp74
a(Vnucleobase-containing compound catabolic process
p75
I2146
tp76
a(Vmacromolecular complex assembly
p77
I2121
tp78
a(Vhomeostatic process
p79
I2074
tp80
a(Vchromosome organization
p81
I2004
tp82
a(Vcell motility
p83
I1961
tp84
a(Vgrowth
p85
I1865
tp86
a(Vsignal transducer activity
p87
I1786
tp88
a(Vprotein complex assembly
p89
I1764
tp90
a(Vprotein maturation
p91
I1703
tp92
a(Vembryo development
p93
I1698
tp94
a(VATPase activity
p95
I1690
tp96
a(Vneurological system process
p97
I1661
tp98
a(Vcytoskeletal protein binding
p99
I1656
tp100
a(Vcytoskeleton organization
p101
I1605
tp102
a(VRNA binding
p103
I1472
tp104
a(Vmitochondrion
p105
I1404
tp106
a(Vligase activity
p107
I1306
tp108
a(Vcell adhesion
p109
I1266
tp110
a(Vcytoplasmic membrane-bounded vesicle
p111
I1214
tp112
a(Vcytoskeleton
p113
I1210
tp114
a(Vlipid binding
p115
I1202
tp116
a(Vpeptidase activity
p117
I1190
tp118
a(VGolgi apparatus
p119
I1162
tp120
a(Vcofactor metabolic process
p121
I1113
tp122
a(Vendoplasmic reticulum
p123
I1101
tp124
a(Vmembrane organization
p125
I1079
tp126
a(Vcell death
p127
I1044
tp128
a(Vcell proliferation
p129
I996
tp130
a(Vsulfur compound metabolic process
p131
I989
tp132
a(Vendosome
p133
I974
tp134
a(Vcell-cell signaling
p135
I948
tp136
a(Venzyme regulator activity
p137
I945
tp138
a(Vcell morphogenesis
p139
I895
tp140
a(Vtranscription factor binding
p141
I891
tp142
a(Vmicrotubule organizing center
p143
I885
tp144
a(Vnucleic acid binding transcription factor activity
p145
I884
tp146
a(Vprotein binding transcription factor activity
p147
I873
tp148
a(Vnucleoplasm
p149
I860
tp150
a(Vgeneration of precursor metabolites and energy
p151
I803
tp152
a(Vstructural molecule activity
p153
I766
tp154
a(Vextracellular region
p155
I752
tp156
a(Vtransferase activity, transferring acyl groups
p157
I733
tp158
a(Vlyase activity
p159
I719
tp160
a(Vprotein targeting
p161
I628
tp162
a(Vtransferase activity, transferring glycosyl groups
p163
I601
tp164
a(Vnuclease activity
p165
I591
tp166
a(Vcilium
p167
I574
tp168
a(Vphosphatase activity
p169
I566
tp170
a(Vextracellular space
p171
I563
tp172
a(Vextracellular matrix organization
p173
I557
tp174
a(Vhelicase activity
p175
I556
tp176
a(Vsymbiosis, encompassing mutualism through parasitism
p177
I550
tp178
a(VmRNA processing
p179
I548
tp180
a(Vvacuole
p181
I532
tp182
a(Vcell cycle
p183
I523
tp184
a(Vexternal encapsulating structure
p185
I516
tp186
a(Vcell wall
p187
I495
tp188
a(Vmethyltransferase activity
p189
I451
tp190
a(Vcell division
p191
I445
tp192
a(Visomerase activity
p193
I434
tp194
a(Vreproduction
p195
I416
tp196
a(Vnucleotidyltransferase activity
p197
I412
tp198
a(Vcell junction organization
p199
I410
tp200
a(Vplastid
p201
I410
tp202
a(Vaging
p203
I403
tp204
a(Vnucleocytoplasmic transport
p205
I395
tp206
a(Vsecondary metabolic process
p207
I391
tp208
a(Vprotein folding
p209
I376
tp210
a(Vhydrolase activity, acting on carbon-nitrogen (but not peptide) bonds
p211
I366
tp212
a(Vdevelopmental maturation
p213
I350
tp214
a(Vmitochondrion organization
p215
I341
tp216
a(Vchromosome
p217
I327
tp218
a(VtRNA metabolic process
p219
I324
tp220
a(Vlysosome
p221
I311
tp222
a(VGTPase activity
p223
I285
tp224
a(Vribonucleoprotein complex assembly
p225
I280
tp226
a(Vhydrolase activity, acting on glycosyl bonds
p227
I265
tp228
a(Vcytoskeleton-dependent intracellular transport
p229
I254
tp230
a(Vcirculatory system process
p231
I253
tp232
a(Vproteinaceous extracellular matrix
p233
I253
tp234
a(Vhistone binding
p235
I252
tp236
a(Vnuclear envelope
p237
I250
tp238
a(Vcell wall organization or biogenesis
p239
I243
tp240
a(VmRNA binding
p241
I233
tp242
a(Vchromosome segregation
p243
I203
tp244
a(Vprotein transporter activity
p245
I202
tp246
a(Vplasma membrane organization
p247
I200
tp248
a(Vperoxisome
p249
I198
tp250
a(Vmitosis
p251
I187
tp252
a(Vunfolded protein binding
p253
I183
tp254
a(Vtranslation
p255
I181
tp256
a(Vtranslation factor activity, nucleic acid binding
p257
I170
tp258
a(Vvacuolar transport
p259
I165
tp260
a(Vstructural constituent of ribosome
p261
I157
tp262
a(Vprotein binding, bridging
p263
I154
tp264
a(Vsmall conjugating protein binding
p265
I145
tp266
a(Vintracellular
p267
I144
tp268
a(Vlipid particle
p269
I130
tp270
a(Vribosome
p271
I127
tp272
a(Vtransferase activity, transferring alkyl or aryl (other than methyl) groups
p273
I125
tp274
a(Vpigmentation
p275
I98
tp276
a(VrRNA binding
p277
I87
tp278
a(Vnuclear chromosome
p279
I81
tp280
a(Vribosome biogenesis
p281
I61
tp282
a(Vnitrogen cycle metabolic process
p283
I45
tp284
a(Vtransposition
p285
I37
tp286
a(Vthylakoid
p287
I29
tp288
a(Vcell
p289
I10
tp290
a(Vphotosynthesis
p291
I3
tp292
a(Vcytoplasmic chromosome
p293
I1
tp294
a(VRNA modification guide activity
p295
I1
tp296
aa(lp297
(g3
L6372L
tp298
a(g5
L4365L
tp299
a(g7
L2787L
tp300
a(g9
L21685L
tp301
a(g11
L26888L
tp302
a(g13
L5491L
tp303
a(g15
L18268L
tp304
a(g17
L5801L
tp305
a(g19
L22689L
tp306
a(g21
L21630L
tp307
a(g23
L7192L
tp308
a(g25
L5613L
tp309
a(g27
L21693L
tp310
a(g29
L7190L
tp311
a(g31
L5168L
tp312
a(g33
L1781L
tp313
a(g35
L13924L
tp314
a(g37
L5326L
tp315
a(g39
L13633L
tp316
a(g41
L13690L
tp317
a(g43
L4599L
tp318
a(g45
L10598L
tp319
a(g47
L4644L
tp320
a(g49
L12968L
tp321
a(g51
L4995L
tp322
a(g53
L20507L
tp323
a(g55
L4514L
tp324
a(g57
L4725L
tp325
a(g59
L26682L
tp326
a(g61
L2790L
tp327
a(g63
L5218L
tp328
a(g65
L29927L
tp329
a(g67
L4422L
tp330
a(g69
L4507L
tp331
a(g71
L10381L
tp332
a(g73
L10466L
tp333
a(g75
L18282L
tp334
a(g77
L31581L
tp335
a(g79
L21086L
tp336
a(g81
L28228L
tp337
a(g83
L26901L
tp338
a(g85
L20503L
tp339
a(g87
L3827L
tp340
a(g89
L5165L
tp341
a(g91
L28535L
tp342
a(g93
L7881L
tp343
a(g95
L10963L
tp344
a(g97
L27837L
tp345
a(g99
L6320L
tp346
a(g101
L5663L
tp347
a(g103
L2830L
tp348
a(g105
L4515L
tp349
a(g107
L10950L
tp350
a(g109
L5791L
tp351
a(g111
L10229L
tp352
a(g113
L4621L
tp353
a(g115
L6500L
tp354
a(g117
L6448L
tp355
a(g119
L4567L
tp356
a(g121
L28144L
tp357
a(g123
L4556L
tp358
a(g125
L30984L
tp359
a(g127
L6436L
tp360
a(g129
L6494L
tp361
a(g131
L5471L
tp362
a(g133
L4542L
tp363
a(g135
L5896L
tp364
a(g137
L14001L
tp365
a(g139
L594L
tp366
a(g141
L6357L
tp367
a(g143
L4586L
tp368
a(g145
L759L
tp369
a(g147
L677L
tp370
a(g149
L4439L
tp371
a(g151
L4838L
tp372
a(g153
L4118L
tp373
a(g155
L4366L
tp374
a(g157
L10829L
tp375
a(g159
L10905L
tp376
a(g161
L5302L
tp377
a(g163
L10840L
tp378
a(g165
L3518L
tp379
a(g167
L4684L
tp380
a(g169
L10870L
tp381
a(g171
L4405L
tp382
a(g173
L13967L
tp383
a(g175
L3404L
tp384
a(g177
L22810L
tp385
a(g179
L5112L
tp386
a(g181
L4546L
tp387
a(g183
L5695L
tp388
a(g185
L14078L
tp389
a(g187
L4408L
tp390
a(g189
L6389L
tp391
a(g191
L28251L
tp392
a(g193
L10929L
tp393
a(g195
L3L
tp394
a(g197
L10860L
tp395
a(g199
L17965L
tp396
a(g201
L7644L
tp397
a(g203
L6169L
tp398
a(g205
L5582L
tp399
a(g207
L12827L
tp400
a(g209
L5161L
tp401
a(g211
L10886L
tp402
a(g213
L13274L
tp403
a(g215
L5658L
tp404
a(g217
L4475L
tp405
a(g219
L5114L
tp406
a(g221
L4538L
tp407
a(g223
L2991L
tp408
a(g225
L13644L
tp409
a(g227
L10876L
tp410
a(g229
L14427L
tp411
a(g231
L2364L
tp412
a(g233
L4368L
tp413
a(g235
L20900L
tp414
a(g237
L4423L
tp415
a(g239
L33137L
tp416
a(g241
L2835L
tp417
a(g243
L5705L
tp418
a(g245
L6747L
tp419
a(g247
L5662L
tp420
a(g249
L4550L
tp421
a(g251
L5712L
tp422
a(g253
L28040L
tp423
a(g255
L5126L
tp424
a(g257
L6358L
tp425
a(g259
L5682L
tp426
a(g261
L2841L
tp427
a(g263
L14396L
tp428
a(g265
L15840L
tp429
a(g267
L4411L
tp430
a(g269
L4583L
tp431
a(g271
L4609L
tp432
a(g273
L10848L
tp433
a(g275
L21900L
tp434
a(g277
L12918L
tp435
a(g279
L201L
tp436
a(g281
L20770L
tp437
a(g283
L33512L
tp438
a(g285
L15852L
tp439
a(g287
L7683L
tp440
a(g289
L4412L
tp441
a(g291
L10192L
tp442
a(g293
L202L
tp443
a(g295
L14288L
tp444
aaI645140
a.