(lp1
(lp2
(Vbiological_process
p3
I250361
tp4
a(Vcellular_component
p5
I84068
tp6
a(Vmolecular_function
p7
I75252
tp8
a(Vorganelle
p9
I21629
tp10
a(Vanatomical structure development
p11
I17264
tp12
a(Vtransport
p13
I15869
tp14
a(Vcellular nitrogen compound metabolic process
p15
I13518
tp16
a(Vsmall molecule metabolic process
p17
I11066
tp18
a(Vsignal transduction
p19
I11045
tp20
a(Vbiosynthetic process
p21
I9999
tp22
a(Vresponse to stress
p23
I9833
tp24
a(Vion binding
p25
I9456
tp26
a(Vprotein complex
p27
I9277
tp28
a(Vcatabolic process
p29
I7184
tp30
a(Vcellular protein modification process
p31
I6431
tp32
a(Vimmune system process
p33
I4554
tp34
a(Vlipid metabolic process
p35
I4546
tp36
a(Vcell differentiation
p37
I4130
tp38
a(Vcellular component assembly
p39
I4111
tp40
a(Vtransmembrane transporter activity
p41
I3966
tp42
a(Vcytosol
p43
I3951
tp44
a(Voxidoreductase activity
p45
I3736
tp46
a(Vplasma membrane
p47
I3543
tp48
a(Venzyme binding
p49
I3315
tp50
a(VDNA metabolic process
p51
I3293
tp52
a(Vcytoplasm
p53
I2910
tp54
a(Vtransmembrane transport
p55
I2826
tp56
a(Vcarbohydrate metabolic process
p57
I2820
tp58
a(Vnucleolus
p59
I2797
tp60
a(Vlocomotion
p61
I2785
tp62
a(Vnucleus
p63
I2768
tp64
a(VDNA binding
p65
I2744
tp66
a(Vvesicle-mediated transport
p67
I2612
tp68
a(Vcellular amino acid metabolic process
p69
I2559
tp70
a(Vchromosome organization
p71
I2545
tp72
a(Vanatomical structure formation involved in morphogenesis
p73
I2485
tp74
a(Vhomeostatic process
p75
I2358
tp76
a(Vmacromolecular complex assembly
p77
I2336
tp78
a(Vnucleobase-containing compound catabolic process
p79
I2310
tp80
a(Vsignal transducer activity
p81
I2189
tp82
a(Vkinase activity
p83
I2041
tp84
a(Vgrowth
p85
I1997
tp86
a(Vembryo development
p87
I1939
tp88
a(Vprotein complex assembly
p89
I1920
tp90
a(Vprotein maturation
p91
I1867
tp92
a(Vcell motility
p93
I1791
tp94
a(Vneurological system process
p95
I1764
tp96
a(Vcytoskeleton organization
p97
I1763
tp98
a(Vcytoskeletal protein binding
p99
I1757
tp100
a(VRNA binding
p101
I1728
tp102
a(Vmitochondrion
p103
I1647
tp104
a(VATPase activity
p105
I1550
tp106
a(Vcytoplasmic membrane-bounded vesicle
p107
I1423
tp108
a(Vlipid binding
p109
I1365
tp110
a(Vligase activity
p111
I1323
tp112
a(Vendoplasmic reticulum
p113
I1309
tp114
a(VGolgi apparatus
p115
I1306
tp116
a(Vpeptidase activity
p117
I1298
tp118
a(Vcytoskeleton
p119
I1257
tp120
a(Vcell-cell signaling
p121
I1245
tp122
a(Vcofactor metabolic process
p123
I1183
tp124
a(Vmembrane organization
p125
I1155
tp126
a(Vcell death
p127
I1152
tp128
a(Vcell adhesion
p129
I1104
tp130
a(Venzyme regulator activity
p131
I1103
tp132
a(Vendosome
p133
I1077
tp134
a(Vmicrotubule organizing center
p135
I1063
tp136
a(Vtranscription factor binding
p137
I1026
tp138
a(Vcell proliferation
p139
I1017
tp140
a(Vnucleoplasm
p141
I1001
tp142
a(Vnucleic acid binding transcription factor activity
p143
I1000
tp144
a(Vsulfur compound metabolic process
p145
I942
tp146
a(Vprotein binding transcription factor activity
p147
I937
tp148
a(Vgeneration of precursor metabolites and energy
p149
I911
tp150
a(Vcell morphogenesis
p151
I899
tp152
a(Vtransferase activity, transferring acyl groups
p153
I896
tp154
a(Vstructural molecule activity
p155
I785
tp156
a(Vextracellular region
p157
I782
tp158
a(Vlyase activity
p159
I753
tp160
a(Vprotein targeting
p161
I723
tp162
a(Vtransferase activity, transferring glycosyl groups
p163
I703
tp164
a(Vcell cycle
p165
I697
tp166
a(Vphosphatase activity
p167
I685
tp168
a(Vcilium
p169
I667
tp170
a(Vsymbiosis, encompassing mutualism through parasitism
p171
I645
tp172
a(VmRNA processing
p173
I638
tp174
a(Vnuclease activity
p175
I630
tp176
a(Vvacuole
p177
I583
tp178
a(Vreproduction
p179
I538
tp180
a(Vhelicase activity
p181
I533
tp182
a(Vcell division
p183
I528
tp184
a(Vexternal encapsulating structure
p185
I523
tp186
a(Vextracellular space
p187
I523
tp188
a(Vmethyltransferase activity
p189
I517
tp190
a(Vcell wall
p191
I504
tp192
a(Vextracellular matrix organization
p193
I494
tp194
a(Vsecondary metabolic process
p195
I461
tp196
a(Vplastid
p197
I461
tp198
a(Visomerase activity
p199
I457
tp200
a(Vnucleocytoplasmic transport
p201
I451
tp202
a(Vprotein folding
p203
I438
tp204
a(Vaging
p205
I435
tp206
a(Vcell junction organization
p207
I412
tp208
a(Vnucleotidyltransferase activity
p209
I406
tp210
a(Vmitochondrion organization
p211
I397
tp212
a(Vcirculatory system process
p213
I380
tp214
a(Vchromosome
p215
I379
tp216
a(Vhydrolase activity, acting on carbon-nitrogen (but not peptide) bonds
p217
I370
tp218
a(VtRNA metabolic process
p219
I357
tp220
a(Vdevelopmental maturation
p221
I355
tp222
a(Vcytoskeleton-dependent intracellular transport
p223
I352
tp224
a(VGTPase activity
p225
I339
tp226
a(Vlysosome
p227
I327
tp228
a(Vnuclear envelope
p229
I319
tp230
a(Vribonucleoprotein complex assembly
p231
I314
tp232
a(Vhistone binding
p233
I293
tp234
a(VmRNA binding
p235
I276
tp236
a(Vhydrolase activity, acting on glycosyl bonds
p237
I265
tp238
a(Vcell wall organization or biogenesis
p239
I264
tp240
a(Vchromosome segregation
p241
I245
tp242
a(Vperoxisome
p243
I239
tp244
a(Vplasma membrane organization
p245
I232
tp246
a(Vmitosis
p247
I231
tp248
a(Vvacuolar transport
p249
I222
tp250
a(Vstructural constituent of ribosome
p251
I206
tp252
a(Vunfolded protein binding
p253
I198
tp254
a(Vtranslation factor activity, nucleic acid binding
p255
I195
tp256
a(Vprotein transporter activity
p257
I191
tp258
a(Vtranslation
p259
I189
tp260
a(Vproteinaceous extracellular matrix
p261
I189
tp262
a(Vsmall conjugating protein binding
p263
I174
tp264
a(Vtransferase activity, transferring alkyl or aryl (other than methyl) groups
p265
I156
tp266
a(Vlipid particle
p267
I152
tp268
a(Vprotein binding, bridging
p269
I150
tp270
a(Vribosome
p271
I144
tp272
a(Vintracellular
p273
I141
tp274
a(Vnuclear chromosome
p275
I96
tp276
a(VrRNA binding
p277
I93
tp278
a(Vpigmentation
p279
I92
tp280
a(Vribosome biogenesis
p281
I91
tp282
a(Vnitrogen cycle metabolic process
p283
I46
tp284
a(Vthylakoid
p285
I39
tp286
a(Vtransposition
p287
I35
tp288
a(Vcell
p289
I11
tp290
a(Vphotosynthesis
p291
I6
tp292
a(VRNA modification guide activity
p293
I2
tp294
a(Vcytoplasmic chromosome
p295
I1
tp296
aa(lp297
(g3
L6372L
tp298
a(g5
L4365L
tp299
a(g7
L2787L
tp300
a(g9
L21685L
tp301
a(g11
L26888L
tp302
a(g13
L5491L
tp303
a(g15
L18268L
tp304
a(g17
L22689L
tp305
a(g19
L5801L
tp306
a(g21
L7192L
tp307
a(g23
L5613L
tp308
a(g25
L21630L
tp309
a(g27
L21693L
tp310
a(g29
L7190L
tp311
a(g31
L5168L
tp312
a(g33
L1781L
tp313
a(g35
L5326L
tp314
a(g37
L13924L
tp315
a(g39
L13633L
tp316
a(g41
L13690L
tp317
a(g43
L4599L
tp318
a(g45
L10598L
tp319
a(g47
L4644L
tp320
a(g49
L12968L
tp321
a(g51
L4995L
tp322
a(g53
L4514L
tp323
a(g55
L29927L
tp324
a(g57
L4725L
tp325
a(g59
L4507L
tp326
a(g61
L20507L
tp327
a(g63
L4422L
tp328
a(g65
L2790L
tp329
a(g67
L10381L
tp330
a(g69
L5218L
tp331
a(g71
L28228L
tp332
a(g73
L26682L
tp333
a(g75
L21086L
tp334
a(g77
L31581L
tp335
a(g79
L18282L
tp336
a(g81
L3827L
tp337
a(g83
L10466L
tp338
a(g85
L20503L
tp339
a(g87
L7881L
tp340
a(g89
L5165L
tp341
a(g91
L28535L
tp342
a(g93
L26901L
tp343
a(g95
L27837L
tp344
a(g97
L5663L
tp345
a(g99
L6320L
tp346
a(g101
L2830L
tp347
a(g103
L4515L
tp348
a(g105
L10963L
tp349
a(g107
L10229L
tp350
a(g109
L6500L
tp351
a(g111
L10950L
tp352
a(g113
L4556L
tp353
a(g115
L4567L
tp354
a(g117
L6448L
tp355
a(g119
L4621L
tp356
a(g121
L5896L
tp357
a(g123
L28144L
tp358
a(g125
L30984L
tp359
a(g127
L6436L
tp360
a(g129
L5791L
tp361
a(g131
L14001L
tp362
a(g133
L4542L
tp363
a(g135
L4586L
tp364
a(g137
L6357L
tp365
a(g139
L6494L
tp366
a(g141
L4439L
tp367
a(g143
L759L
tp368
a(g145
L5471L
tp369
a(g147
L677L
tp370
a(g149
L4838L
tp371
a(g151
L594L
tp372
a(g153
L10829L
tp373
a(g155
L4118L
tp374
a(g157
L4366L
tp375
a(g159
L10905L
tp376
a(g161
L5302L
tp377
a(g163
L10840L
tp378
a(g165
L5695L
tp379
a(g167
L10870L
tp380
a(g169
L4684L
tp381
a(g171
L22810L
tp382
a(g173
L5112L
tp383
a(g175
L3518L
tp384
a(g177
L4546L
tp385
a(g179
L3L
tp386
a(g181
L3404L
tp387
a(g183
L28251L
tp388
a(g185
L14078L
tp389
a(g187
L4405L
tp390
a(g189
L6389L
tp391
a(g191
L4408L
tp392
a(g193
L13967L
tp393
a(g195
L12827L
tp394
a(g197
L7644L
tp395
a(g199
L10929L
tp396
a(g201
L5582L
tp397
a(g203
L5161L
tp398
a(g205
L6169L
tp399
a(g207
L17965L
tp400
a(g209
L10860L
tp401
a(g211
L5658L
tp402
a(g213
L2364L
tp403
a(g215
L4475L
tp404
a(g217
L10886L
tp405
a(g219
L5114L
tp406
a(g221
L13274L
tp407
a(g223
L14427L
tp408
a(g225
L2991L
tp409
a(g227
L4538L
tp410
a(g229
L4423L
tp411
a(g231
L13644L
tp412
a(g233
L20900L
tp413
a(g235
L2835L
tp414
a(g237
L10876L
tp415
a(g239
L33137L
tp416
a(g241
L5705L
tp417
a(g243
L4550L
tp418
a(g245
L5662L
tp419
a(g247
L5712L
tp420
a(g249
L5682L
tp421
a(g251
L2841L
tp422
a(g253
L28040L
tp423
a(g255
L6358L
tp424
a(g257
L6747L
tp425
a(g259
L5126L
tp426
a(g261
L4368L
tp427
a(g263
L15840L
tp428
a(g265
L10848L
tp429
a(g267
L4583L
tp430
a(g269
L14396L
tp431
a(g271
L4609L
tp432
a(g273
L4411L
tp433
a(g275
L201L
tp434
a(g277
L12918L
tp435
a(g279
L21900L
tp436
a(g281
L20770L
tp437
a(g283
L33512L
tp438
a(g285
L7683L
tp439
a(g287
L15852L
tp440
a(g289
L4412L
tp441
a(g291
L10192L
tp442
a(g293
L14288L
tp443
a(g295
L202L
tp444
aaI703922
a.