(lp1
(lp2
(Vbiological_process
p3
I328452
tp4
a(Vcellular_component
p5
I109740
tp6
a(Vmolecular_function
p7
I97128
tp8
a(Vorganelle
p9
I28185
tp10
a(Vanatomical structure development
p11
I23496
tp12
a(Vtransport
p13
I20300
tp14
a(Vcellular nitrogen compound metabolic process
p15
I16633
tp16
a(Vsignal transduction
p17
I14486
tp18
a(Vsmall molecule metabolic process
p19
I13438
tp20
a(Vresponse to stress
p21
I12713
tp22
a(Vion binding
p23
I12533
tp24
a(Vbiosynthetic process
p25
I11750
tp26
a(Vprotein complex
p27
I11633
tp28
a(Vcatabolic process
p29
I8771
tp30
a(Vcellular protein modification process
p31
I8053
tp32
a(Vimmune system process
p33
I6598
tp34
a(Vcellular component assembly
p35
I5334
tp36
a(Vlipid metabolic process
p37
I5317
tp38
a(Vcell differentiation
p39
I5307
tp40
a(Vtransmembrane transporter activity
p41
I5202
tp42
a(Vcytosol
p43
I4900
tp44
a(Vplasma membrane
p45
I4453
tp46
a(Venzyme binding
p47
I4410
tp48
a(Voxidoreductase activity
p49
I4304
tp50
a(VDNA metabolic process
p51
I4176
tp52
a(Vlocomotion
p53
I3935
tp54
a(Vcytoplasm
p55
I3826
tp56
a(Vtransmembrane transport
p57
I3584
tp58
a(Vnucleolus
p59
I3529
tp60
a(Vnucleus
p61
I3506
tp62
a(Vcarbohydrate metabolic process
p63
I3429
tp64
a(Vvesicle-mediated transport
p65
I3411
tp66
a(VDNA binding
p67
I3358
tp68
a(Vanatomical structure formation involved in morphogenesis
p69
I3278
tp70
a(Vcellular amino acid metabolic process
p71
I3140
tp72
a(Vhomeostatic process
p73
I3079
tp74
a(Vchromosome organization
p75
I3038
tp76
a(Vmacromolecular complex assembly
p77
I3003
tp78
a(Vnucleobase-containing compound catabolic process
p79
I2924
tp80
a(Vkinase activity
p81
I2834
tp82
a(Vcell motility
p83
I2630
tp84
a(Vprotein maturation
p85
I2581
tp86
a(Vsignal transducer activity
p87
I2525
tp88
a(Vcytoskeletal protein binding
p89
I2514
tp90
a(Vneurological system process
p91
I2489
tp92
a(Vprotein complex assembly
p93
I2484
tp94
a(Vgrowth
p95
I2477
tp96
a(Vembryo development
p97
I2471
tp98
a(Vcytoskeleton organization
p99
I2260
tp100
a(VATPase activity
p101
I2170
tp102
a(VRNA binding
p103
I2120
tp104
a(VGolgi apparatus
p105
I1904
tp106
a(Vmitochondrion
p107
I1899
tp108
a(Vcytoskeleton
p109
I1828
tp110
a(Vcytoplasmic membrane-bounded vesicle
p111
I1824
tp112
a(Vpeptidase activity
p113
I1773
tp114
a(Vlipid binding
p115
I1769
tp116
a(Vcell adhesion
p117
I1767
tp118
a(Vligase activity
p119
I1703
tp120
a(Vendoplasmic reticulum
p121
I1559
tp122
a(Vmembrane organization
p123
I1519
tp124
a(Vcell-cell signaling
p125
I1479
tp126
a(Vcell death
p127
I1475
tp128
a(Vcell proliferation
p129
I1425
tp130
a(Venzyme regulator activity
p131
I1396
tp132
a(Vendosome
p133
I1393
tp134
a(Vcofactor metabolic process
p135
I1378
tp136
a(Vmicrotubule organizing center
p137
I1305
tp138
a(Vsulfur compound metabolic process
p139
I1254
tp140
a(Vcell morphogenesis
p141
I1224
tp142
a(Vnucleoplasm
p143
I1202
tp144
a(Vtranscription factor binding
p145
I1196
tp146
a(Vnucleic acid binding transcription factor activity
p147
I1128
tp148
a(Vprotein binding transcription factor activity
p149
I1092
tp150
a(Vstructural molecule activity
p151
I1060
tp152
a(Vgeneration of precursor metabolites and energy
p153
I1039
tp154
a(Vtransferase activity, transferring acyl groups
p155
I1031
tp156
a(Vextracellular region
p157
I1010
tp158
a(Vlyase activity
p159
I946
tp160
a(Vextracellular matrix organization
p161
I907
tp162
a(Vcilium
p163
I890
tp164
a(Vprotein targeting
p165
I890
tp166
a(Vextracellular space
p167
I842
tp168
a(Vcell cycle
p169
I825
tp170
a(VmRNA processing
p171
I819
tp172
a(Vhelicase activity
p173
I807
tp174
a(Vphosphatase activity
p175
I806
tp176
a(Vsymbiosis, encompassing mutualism through parasitism
p177
I795
tp178
a(Vvacuole
p179
I794
tp180
a(Vnuclease activity
p181
I776
tp182
a(Vtransferase activity, transferring glycosyl groups
p183
I772
tp184
a(Vcell division
p185
I657
tp186
a(Vreproduction
p187
I652
tp188
a(Vexternal encapsulating structure
p189
I630
tp190
a(Vmethyltransferase activity
p191
I622
tp192
a(Vcell wall
p193
I604
tp194
a(Vaging
p195
I601
tp196
a(Vplastid
p197
I577
tp198
a(Vnucleocytoplasmic transport
p199
I571
tp200
a(Visomerase activity
p201
I566
tp202
a(Vdevelopmental maturation
p203
I547
tp204
a(Vcell junction organization
p205
I531
tp206
a(Vnucleotidyltransferase activity
p207
I515
tp208
a(Vprotein folding
p209
I511
tp210
a(Vsecondary metabolic process
p211
I510
tp212
a(Vmitochondrion organization
p213
I471
tp214
a(Vcytoskeleton-dependent intracellular transport
p215
I462
tp216
a(Vcirculatory system process
p217
I458
tp218
a(Vhydrolase activity, acting on carbon-nitrogen (but not peptide) bonds
p219
I448
tp220
a(VtRNA metabolic process
p221
I439
tp222
a(Vlysosome
p223
I437
tp224
a(Vchromosome
p225
I435
tp226
a(Vribonucleoprotein complex assembly
p227
I409
tp228
a(VGTPase activity
p229
I395
tp230
a(Vnuclear envelope
p231
I381
tp232
a(Vhydrolase activity, acting on glycosyl bonds
p233
I372
tp234
a(Vproteinaceous extracellular matrix
p235
I367
tp236
a(Vhistone binding
p237
I363
tp238
a(Vplasma membrane organization
p239
I347
tp240
a(VmRNA binding
p241
I340
tp242
a(Vcell wall organization or biogenesis
p243
I304
tp244
a(Vchromosome segregation
p245
I286
tp246
a(Vmitosis
p247
I278
tp248
a(Vperoxisome
p249
I277
tp250
a(Vvacuolar transport
p251
I260
tp252
a(Vunfolded protein binding
p253
I243
tp254
a(Vprotein transporter activity
p255
I242
tp256
a(Vtranslation factor activity, nucleic acid binding
p257
I227
tp258
a(Vstructural constituent of ribosome
p259
I223
tp260
a(Vprotein binding, bridging
p261
I217
tp262
a(Vsmall conjugating protein binding
p263
I214
tp264
a(Vtranslation
p265
I212
tp266
a(Vlipid particle
p267
I183
tp268
a(Vtransferase activity, transferring alkyl or aryl (other than methyl) groups
p269
I177
tp270
a(Vribosome
p271
I175
tp272
a(Vintracellular
p273
I164
tp274
a(Vpigmentation
p275
I123
tp276
a(Vnuclear chromosome
p277
I118
tp278
a(VrRNA binding
p279
I113
tp280
a(Vribosome biogenesis
p281
I97
tp282
a(Vnitrogen cycle metabolic process
p283
I68
tp284
a(Vthylakoid
p285
I53
tp286
a(Vtransposition
p287
I40
tp288
a(Vcell
p289
I14
tp290
a(Vphotosynthesis
p291
I11
tp292
a(Vcytoplasmic chromosome
p293
I1
tp294
aa(lp295
(g3
L6372L
tp296
a(g5
L4365L
tp297
a(g7
L2787L
tp298
a(g9
L21685L
tp299
a(g11
L26888L
tp300
a(g13
L5491L
tp301
a(g15
L18268L
tp302
a(g17
L5801L
tp303
a(g19
L22689L
tp304
a(g21
L5613L
tp305
a(g23
L21630L
tp306
a(g25
L7192L
tp307
a(g27
L21693L
tp308
a(g29
L7190L
tp309
a(g31
L5168L
tp310
a(g33
L1781L
tp311
a(g35
L13633L
tp312
a(g37
L5326L
tp313
a(g39
L13924L
tp314
a(g41
L13690L
tp315
a(g43
L4599L
tp316
a(g45
L4644L
tp317
a(g47
L12968L
tp318
a(g49
L10598L
tp319
a(g51
L4995L
tp320
a(g53
L20507L
tp321
a(g55
L4514L
tp322
a(g57
L29927L
tp323
a(g59
L4507L
tp324
a(g61
L4422L
tp325
a(g63
L4725L
tp326
a(g65
L10381L
tp327
a(g67
L2790L
tp328
a(g69
L26682L
tp329
a(g71
L5218L
tp330
a(g73
L21086L
tp331
a(g75
L28228L
tp332
a(g77
L31581L
tp333
a(g79
L18282L
tp334
a(g81
L10466L
tp335
a(g83
L26901L
tp336
a(g85
L28535L
tp337
a(g87
L3827L
tp338
a(g89
L6320L
tp339
a(g91
L27837L
tp340
a(g93
L5165L
tp341
a(g95
L20503L
tp342
a(g97
L7881L
tp343
a(g99
L5663L
tp344
a(g101
L10963L
tp345
a(g103
L2830L
tp346
a(g105
L4567L
tp347
a(g107
L4515L
tp348
a(g109
L4621L
tp349
a(g111
L10229L
tp350
a(g113
L6448L
tp351
a(g115
L6500L
tp352
a(g117
L5791L
tp353
a(g119
L10950L
tp354
a(g121
L4556L
tp355
a(g123
L30984L
tp356
a(g125
L5896L
tp357
a(g127
L6436L
tp358
a(g129
L6494L
tp359
a(g131
L14001L
tp360
a(g133
L4542L
tp361
a(g135
L28144L
tp362
a(g137
L4586L
tp363
a(g139
L5471L
tp364
a(g141
L594L
tp365
a(g143
L4439L
tp366
a(g145
L6357L
tp367
a(g147
L759L
tp368
a(g149
L677L
tp369
a(g151
L4118L
tp370
a(g153
L4838L
tp371
a(g155
L10829L
tp372
a(g157
L4366L
tp373
a(g159
L10905L
tp374
a(g161
L13967L
tp375
a(g163
L4684L
tp376
a(g165
L5302L
tp377
a(g167
L4405L
tp378
a(g169
L5695L
tp379
a(g171
L5112L
tp380
a(g173
L3404L
tp381
a(g175
L10870L
tp382
a(g177
L22810L
tp383
a(g179
L4546L
tp384
a(g181
L3518L
tp385
a(g183
L10840L
tp386
a(g185
L28251L
tp387
a(g187
L3L
tp388
a(g189
L14078L
tp389
a(g191
L6389L
tp390
a(g193
L4408L
tp391
a(g195
L6169L
tp392
a(g197
L7644L
tp393
a(g199
L5582L
tp394
a(g201
L10929L
tp395
a(g203
L13274L
tp396
a(g205
L17965L
tp397
a(g207
L10860L
tp398
a(g209
L5161L
tp399
a(g211
L12827L
tp400
a(g213
L5658L
tp401
a(g215
L14427L
tp402
a(g217
L2364L
tp403
a(g219
L10886L
tp404
a(g221
L5114L
tp405
a(g223
L4538L
tp406
a(g225
L4475L
tp407
a(g227
L13644L
tp408
a(g229
L2991L
tp409
a(g231
L4423L
tp410
a(g233
L10876L
tp411
a(g235
L4368L
tp412
a(g237
L20900L
tp413
a(g239
L5662L
tp414
a(g241
L2835L
tp415
a(g243
L33137L
tp416
a(g245
L5705L
tp417
a(g247
L5712L
tp418
a(g249
L4550L
tp419
a(g251
L5682L
tp420
a(g253
L28040L
tp421
a(g255
L6747L
tp422
a(g257
L6358L
tp423
a(g259
L2841L
tp424
a(g261
L14396L
tp425
a(g263
L15840L
tp426
a(g265
L5126L
tp427
a(g267
L4583L
tp428
a(g269
L10848L
tp429
a(g271
L4609L
tp430
a(g273
L4411L
tp431
a(g275
L21900L
tp432
a(g277
L201L
tp433
a(g279
L12918L
tp434
a(g281
L20770L
tp435
a(g283
L33512L
tp436
a(g285
L7683L
tp437
a(g287
L15852L
tp438
a(g289
L4412L
tp439
a(g291
L10192L
tp440
a(g293
L202L
tp441
aaI911946
a.