(lp1
(lp2
(Vbiological_process
p3
I327823
tp4
a(Vcellular_component
p5
I110731
tp6
a(Vmolecular_function
p7
I89777
tp8
a(Vorganelle
p9
I29753
tp10
a(Vanatomical structure development
p11
I23620
tp12
a(Vtransport
p13
I18811
tp14
a(Vcellular nitrogen compound metabolic process
p15
I16723
tp16
a(Vsignal transduction
p17
I14980
tp18
a(Vresponse to stress
p19
I12983
tp20
a(Vprotein complex
p21
I12281
tp22
a(Vsmall molecule metabolic process
p23
I11442
tp24
a(Vbiosynthetic process
p25
I11434
tp26
a(Vion binding
p27
I10994
tp28
a(Vcatabolic process
p29
I8515
tp30
a(Vcellular protein modification process
p31
I8208
tp32
a(Vimmune system process
p33
I6673
tp34
a(Vcellular component assembly
p35
I5572
tp36
a(Vcytosol
p37
I5349
tp38
a(Vcell differentiation
p39
I5288
tp40
a(Vlipid metabolic process
p41
I5039
tp42
a(Venzyme binding
p43
I4588
tp44
a(Vplasma membrane
p45
I4215
tp46
a(Vnucleolus
p47
I4022
tp48
a(Vlocomotion
p49
I3911
tp50
a(Vtransmembrane transporter activity
p51
I3764
tp52
a(Vvesicle-mediated transport
p53
I3753
tp54
a(Vnucleus
p55
I3665
tp56
a(VDNA metabolic process
p57
I3533
tp58
a(Vanatomical structure formation involved in morphogenesis
p59
I3353
tp60
a(Vmacromolecular complex assembly
p61
I3302
tp62
a(Vhomeostatic process
p63
I3293
tp64
a(Vcarbohydrate metabolic process
p65
I3259
tp66
a(Vnucleobase-containing compound catabolic process
p67
I3156
tp68
a(Vchromosome organization
p69
I3114
tp70
a(VDNA binding
p71
I3107
tp72
a(Voxidoreductase activity
p73
I3068
tp74
a(Vembryo development
p75
I2921
tp76
a(Vcytoplasm
p77
I2869
tp78
a(Vtransmembrane transport
p79
I2858
tp80
a(Vneurological system process
p81
I2717
tp82
a(Vprotein maturation
p83
I2712
tp84
a(Vsignal transducer activity
p85
I2694
tp86
a(Vcell motility
p87
I2693
tp88
a(Vgrowth
p89
I2676
tp90
a(Vprotein complex assembly
p91
I2644
tp92
a(Vcytoskeletal protein binding
p93
I2560
tp94
a(VRNA binding
p95
I2488
tp96
a(Vcytoskeleton organization
p97
I2346
tp98
a(Vkinase activity
p99
I2301
tp100
a(VGolgi apparatus
p101
I2160
tp102
a(Vcellular amino acid metabolic process
p103
I2155
tp104
a(Vmitochondrion
p105
I2119
tp106
a(Vcytoplasmic membrane-bounded vesicle
p107
I2071
tp108
a(Vpeptidase activity
p109
I1842
tp110
a(Vcell-cell signaling
p111
I1812
tp112
a(Vendoplasmic reticulum
p113
I1782
tp114
a(Vlipid binding
p115
I1778
tp116
a(Vcell death
p117
I1728
tp118
a(Vcytoskeleton
p119
I1669
tp120
a(Vmembrane organization
p121
I1599
tp122
a(VATPase activity
p123
I1571
tp124
a(Vcell adhesion
p125
I1568
tp126
a(Vstructural molecule activity
p127
I1554
tp128
a(Vendosome
p129
I1552
tp130
a(Vprotein targeting
p131
I1499
tp132
a(Vligase activity
p133
I1477
tp134
a(Venzyme regulator activity
p135
I1473
tp136
a(Vnucleoplasm
p137
I1462
tp138
a(Vcell proliferation
p139
I1439
tp140
a(Vmicrotubule organizing center
p141
I1326
tp142
a(Vextracellular region
p143
I1307
tp144
a(Vtranscription factor binding
p145
I1277
tp146
a(Vsulfur compound metabolic process
p147
I1269
tp148
a(Vcell morphogenesis
p149
I1238
tp150
a(Vprotein binding transcription factor activity
p151
I1163
tp152
a(Vnucleic acid binding transcription factor activity
p153
I1127
tp154
a(Vgeneration of precursor metabolites and energy
p155
I1074
tp156
a(Vcofactor metabolic process
p157
I1042
tp158
a(VmRNA processing
p159
I984
tp160
a(Vextracellular space
p161
I968
tp162
a(Vsymbiosis, encompassing mutualism through parasitism
p163
I965
tp164
a(Vvacuole
p165
I939
tp166
a(Vtransferase activity, transferring acyl groups
p167
I907
tp168
a(Vextracellular matrix organization
p169
I893
tp170
a(Vplastid
p171
I854
tp172
a(Vcilium
p173
I791
tp174
a(Vreproduction
p175
I780
tp176
a(Vnucleocytoplasmic transport
p177
I716
tp178
a(Vphosphatase activity
p179
I713
tp180
a(Vcell cycle
p181
I702
tp182
a(Vcirculatory system process
p183
I666
tp184
a(Vtransferase activity, transferring glycosyl groups
p185
I652
tp186
a(Vaging
p187
I640
tp188
a(Vstructural constituent of ribosome
p189
I628
tp190
a(Vprotein folding
p191
I611
tp192
a(Vlyase activity
p193
I598
tp194
a(Vexternal encapsulating structure
p195
I594
tp196
a(Vcell wall
p197
I586
tp198
a(Vcell division
p199
I580
tp200
a(Vcell junction organization
p201
I577
tp202
a(Vhelicase activity
p203
I566
tp204
a(Vmethyltransferase activity
p205
I563
tp206
a(Vribonucleoprotein complex assembly
p207
I540
tp208
a(Vnuclease activity
p209
I524
tp210
a(VGTPase activity
p211
I502
tp212
a(Vdevelopmental maturation
p213
I499
tp214
a(Vsecondary metabolic process
p215
I497
tp216
a(Vlysosome
p217
I487
tp218
a(Vmitochondrion organization
p219
I466
tp220
a(Vchromosome
p221
I455
tp222
a(Vcytoskeleton-dependent intracellular transport
p223
I449
tp224
a(VmRNA binding
p225
I433
tp226
a(Vnuclear envelope
p227
I432
tp228
a(Visomerase activity
p229
I426
tp230
a(Vhydrolase activity, acting on glycosyl bonds
p231
I377
tp232
a(Vhistone binding
p233
I371
tp234
a(Vcell wall organization or biogenesis
p235
I360
tp236
a(Vnucleotidyltransferase activity
p237
I357
tp238
a(Vvacuolar transport
p239
I336
tp240
a(Vmitosis
p241
I336
tp242
a(Vproteinaceous extracellular matrix
p243
I335
tp244
a(Vchromosome segregation
p245
I311
tp246
a(Vplasma membrane organization
p247
I307
tp248
a(Vtranslation factor activity, nucleic acid binding
p249
I295
tp250
a(VtRNA metabolic process
p251
I293
tp252
a(Vprotein binding, bridging
p253
I288
tp254
a(Vperoxisome
p255
I279
tp256
a(Vhydrolase activity, acting on carbon-nitrogen (but not peptide) bonds
p257
I271
tp258
a(Vtranslation
p259
I247
tp260
a(Vunfolded protein binding
p261
I245
tp262
a(Vribosome
p263
I235
tp264
a(Vlipid particle
p265
I232
tp266
a(Vsmall conjugating protein binding
p267
I218
tp268
a(Vribosome biogenesis
p269
I189
tp270
a(Vprotein transporter activity
p271
I189
tp272
a(Vtransferase activity, transferring alkyl or aryl (other than methyl) groups
p273
I171
tp274
a(Vnuclear chromosome
p275
I155
tp276
a(Vintracellular
p277
I137
tp278
a(VrRNA binding
p279
I133
tp280
a(Vpigmentation
p281
I119
tp282
a(Vthylakoid
p283
I117
tp284
a(Vnitrogen cycle metabolic process
p285
I41
tp286
a(Vphotosynthesis
p287
I36
tp288
a(Vtransposition
p289
I24
tp290
a(Vcell
p291
I15
tp292
a(VRNA modification guide activity
p293
I1
tp294
a(Vcytoplasmic chromosome
p295
I1
tp296
aa(lp297
(g3
L6372L
tp298
a(g5
L4365L
tp299
a(g7
L2787L
tp300
a(g9
L21685L
tp301
a(g11
L26888L
tp302
a(g13
L5491L
tp303
a(g15
L18268L
tp304
a(g17
L5801L
tp305
a(g19
L5613L
tp306
a(g21
L21693L
tp307
a(g23
L22689L
tp308
a(g25
L7192L
tp309
a(g27
L21630L
tp310
a(g29
L7190L
tp311
a(g31
L5168L
tp312
a(g33
L1781L
tp313
a(g35
L13633L
tp314
a(g37
L4599L
tp315
a(g39
L13924L
tp316
a(g41
L5326L
tp317
a(g43
L12968L
tp318
a(g45
L4644L
tp319
a(g47
L4507L
tp320
a(g49
L20507L
tp321
a(g51
L13690L
tp322
a(g53
L10381L
tp323
a(g55
L4422L
tp324
a(g57
L4995L
tp325
a(g59
L26682L
tp326
a(g61
L31581L
tp327
a(g63
L21086L
tp328
a(g65
L4725L
tp329
a(g67
L18282L
tp330
a(g69
L28228L
tp331
a(g71
L2790L
tp332
a(g73
L10598L
tp333
a(g75
L7881L
tp334
a(g77
L4514L
tp335
a(g79
L29927L
tp336
a(g81
L27837L
tp337
a(g83
L28535L
tp338
a(g85
L3827L
tp339
a(g87
L26901L
tp340
a(g89
L20503L
tp341
a(g91
L5165L
tp342
a(g93
L6320L
tp343
a(g95
L2830L
tp344
a(g97
L5663L
tp345
a(g99
L10466L
tp346
a(g101
L4567L
tp347
a(g103
L5218L
tp348
a(g105
L4515L
tp349
a(g107
L10229L
tp350
a(g109
L6448L
tp351
a(g111
L5896L
tp352
a(g113
L4556L
tp353
a(g115
L6500L
tp354
a(g117
L6436L
tp355
a(g119
L4621L
tp356
a(g121
L30984L
tp357
a(g123
L10963L
tp358
a(g125
L5791L
tp359
a(g127
L4118L
tp360
a(g129
L4542L
tp361
a(g131
L5302L
tp362
a(g133
L10950L
tp363
a(g135
L14001L
tp364
a(g137
L4439L
tp365
a(g139
L6494L
tp366
a(g141
L4586L
tp367
a(g143
L4366L
tp368
a(g145
L6357L
tp369
a(g147
L5471L
tp370
a(g149
L594L
tp371
a(g151
L677L
tp372
a(g153
L759L
tp373
a(g155
L4838L
tp374
a(g157
L28144L
tp375
a(g159
L5112L
tp376
a(g161
L4405L
tp377
a(g163
L22810L
tp378
a(g165
L4546L
tp379
a(g167
L10829L
tp380
a(g169
L13967L
tp381
a(g171
L7644L
tp382
a(g173
L4684L
tp383
a(g175
L3L
tp384
a(g177
L5582L
tp385
a(g179
L10870L
tp386
a(g181
L5695L
tp387
a(g183
L2364L
tp388
a(g185
L10840L
tp389
a(g187
L6169L
tp390
a(g189
L2841L
tp391
a(g191
L5161L
tp392
a(g193
L10905L
tp393
a(g195
L14078L
tp394
a(g197
L4408L
tp395
a(g199
L28251L
tp396
a(g201
L17965L
tp397
a(g203
L3404L
tp398
a(g205
L6389L
tp399
a(g207
L13644L
tp400
a(g209
L3518L
tp401
a(g211
L2991L
tp402
a(g213
L13274L
tp403
a(g215
L12827L
tp404
a(g217
L4538L
tp405
a(g219
L5658L
tp406
a(g221
L4475L
tp407
a(g223
L14427L
tp408
a(g225
L2835L
tp409
a(g227
L4423L
tp410
a(g229
L10929L
tp411
a(g231
L10876L
tp412
a(g233
L20900L
tp413
a(g235
L33137L
tp414
a(g237
L10860L
tp415
a(g239
L5682L
tp416
a(g241
L5712L
tp417
a(g243
L4368L
tp418
a(g245
L5705L
tp419
a(g247
L5662L
tp420
a(g249
L6358L
tp421
a(g251
L5114L
tp422
a(g253
L14396L
tp423
a(g255
L4550L
tp424
a(g257
L10886L
tp425
a(g259
L5126L
tp426
a(g261
L28040L
tp427
a(g263
L4609L
tp428
a(g265
L4583L
tp429
a(g267
L15840L
tp430
a(g269
L20770L
tp431
a(g271
L6747L
tp432
a(g273
L10848L
tp433
a(g275
L201L
tp434
a(g277
L4411L
tp435
a(g279
L12918L
tp436
a(g281
L21900L
tp437
a(g283
L7683L
tp438
a(g285
L33512L
tp439
a(g287
L10192L
tp440
a(g289
L15852L
tp441
a(g291
L4412L
tp442
a(g293
L14288L
tp443
a(g295
L202L
tp444
aaI902915
a.