(lp1
(lp2
(Vbiological_process
p3
I100730
tp4
a(Vcellular_component
p5
I35928
tp6
a(Vmolecular_function
p7
I28765
tp8
a(Vorganelle
p9
I9976
tp10
a(Vanatomical structure development
p11
I6956
tp12
a(Vcellular nitrogen compound metabolic process
p13
I6535
tp14
a(Vtransport
p15
I5909
tp16
a(Vprotein complex
p17
I4652
tp18
a(Vsignal transduction
p19
I4515
tp20
a(Vresponse to stress
p21
I4232
tp22
a(Vbiosynthetic process
p23
I3926
tp24
a(Vsmall molecule metabolic process
p25
I3836
tp26
a(Vion binding
p27
I3570
tp28
a(Vcatabolic process
p29
I3005
tp30
a(Vcellular protein modification process
p31
I2925
tp32
a(Vimmune system process
p33
I2239
tp34
a(Vcytosol
p35
I2038
tp36
a(Vcellular component assembly
p37
I1951
tp38
a(Venzyme binding
p39
I1521
tp40
a(Vcell differentiation
p41
I1519
tp42
a(Vnucleolus
p43
I1470
tp44
a(Vlipid metabolic process
p45
I1453
tp46
a(VDNA metabolic process
p47
I1423
tp48
a(Vnucleus
p49
I1343
tp50
a(Vplasma membrane
p51
I1300
tp52
a(Vchromosome organization
p53
I1278
tp54
a(Vvesicle-mediated transport
p55
I1273
tp56
a(Vmacromolecular complex assembly
p57
I1213
tp58
a(Vnucleobase-containing compound catabolic process
p59
I1191
tp60
a(Vlocomotion
p61
I1181
tp62
a(Vembryo development
p63
I1166
tp64
a(Vcarbohydrate metabolic process
p65
I1132
tp66
a(VRNA binding
p67
I1057
tp68
a(Vtransmembrane transporter activity
p69
I1053
tp70
a(VDNA binding
p71
I1013
tp72
a(Vhomeostatic process
p73
I977
tp74
a(Vanatomical structure formation involved in morphogenesis
p75
I970
tp76
a(Vcytoplasm
p77
I944
tp78
a(Vprotein maturation
p79
I906
tp80
a(Vprotein complex assembly
p81
I894
tp82
a(Vtransmembrane transport
p83
I884
tp84
a(Vgrowth
p85
I854
tp86
a(Vcytoskeleton organization
p87
I846
tp88
a(Vcytoskeletal protein binding
p89
I824
tp90
a(Voxidoreductase activity
p91
I819
tp92
a(Vkinase activity
p93
I788
tp94
a(Vcellular amino acid metabolic process
p95
I786
tp96
a(Vcell motility
p97
I745
tp98
a(Vmitochondrion
p99
I742
tp100
a(VGolgi apparatus
p101
I696
tp102
a(Vneurological system process
p103
I684
tp104
a(Vcytoplasmic membrane-bounded vesicle
p105
I657
tp106
a(Vnucleoplasm
p107
I609
tp108
a(Vcell death
p109
I603
tp110
a(Vpeptidase activity
p111
I593
tp112
a(Vendoplasmic reticulum
p113
I572
tp114
a(Vlipid binding
p115
I572
tp116
a(VATPase activity
p117
I562
tp118
a(Vcytoskeleton
p119
I539
tp120
a(Vprotein targeting
p121
I530
tp122
a(Vmicrotubule organizing center
p123
I527
tp124
a(Venzyme regulator activity
p125
I508
tp126
a(Vstructural molecule activity
p127
I500
tp128
a(Vendosome
p129
I490
tp130
a(Vmembrane organization
p131
I485
tp132
a(Vligase activity
p133
I484
tp134
a(Vsignal transducer activity
p135
I478
tp136
a(VmRNA processing
p137
I464
tp138
a(Vcell proliferation
p139
I447
tp140
a(Vtranscription factor binding
p141
I446
tp142
a(Vcell adhesion
p143
I432
tp144
a(Vprotein binding transcription factor activity
p145
I412
tp146
a(Vcell-cell signaling
p147
I402
tp148
a(Vsymbiosis, encompassing mutualism through parasitism
p149
I395
tp150
a(Vgeneration of precursor metabolites and energy
p151
I388
tp152
a(Vsulfur compound metabolic process
p153
I368
tp154
a(Vcell morphogenesis
p155
I347
tp156
a(Vextracellular region
p157
I347
tp158
a(Vnucleic acid binding transcription factor activity
p159
I329
tp160
a(Vreproduction
p161
I326
tp162
a(Vcofactor metabolic process
p163
I322
tp164
a(Vtransferase activity, transferring acyl groups
p165
I309
tp166
a(Vnucleocytoplasmic transport
p167
I304
tp168
a(Vvacuole
p169
I295
tp170
a(Vcell cycle
p171
I273
tp172
a(Vribonucleoprotein complex assembly
p173
I273
tp174
a(Vprotein folding
p175
I264
tp176
a(Vplastid
p177
I261
tp178
a(Vphosphatase activity
p179
I243
tp180
a(Vhelicase activity
p181
I236
tp182
a(Vcilium
p183
I233
tp184
a(Vtransferase activity, transferring glycosyl groups
p185
I225
tp186
a(Vcell division
p187
I219
tp188
a(Vstructural constituent of ribosome
p189
I214
tp190
a(Vextracellular matrix organization
p191
I212
tp192
a(Vnuclease activity
p193
I210
tp194
a(VmRNA binding
p195
I196
tp196
a(Vlyase activity
p197
I192
tp198
a(Vexternal encapsulating structure
p199
I191
tp200
a(VGTPase activity
p201
I191
tp202
a(Vcell junction organization
p203
I189
tp204
a(Vcell wall
p205
I188
tp206
a(Vaging
p207
I185
tp208
a(Vextracellular space
p209
I182
tp210
a(Vmethyltransferase activity
p211
I181
tp212
a(Vchromosome
p213
I180
tp214
a(Vmitochondrion organization
p215
I178
tp216
a(Vcytoskeleton-dependent intracellular transport
p217
I178
tp218
a(Visomerase activity
p219
I164
tp220
a(Vdevelopmental maturation
p221
I160
tp222
a(Vlysosome
p223
I155
tp224
a(Vmitosis
p225
I154
tp226
a(Vchromosome segregation
p227
I147
tp228
a(Vnuclear envelope
p229
I145
tp230
a(Vsecondary metabolic process
p231
I144
tp232
a(VtRNA metabolic process
p233
I135
tp234
a(Vhistone binding
p235
I131
tp236
a(Vcirculatory system process
p237
I127
tp238
a(Vnucleotidyltransferase activity
p239
I126
tp240
a(Vtranslation factor activity, nucleic acid binding
p241
I123
tp242
a(Vvacuolar transport
p243
I123
tp244
a(Vhydrolase activity, acting on glycosyl bonds
p245
I122
tp246
a(Vcell wall organization or biogenesis
p247
I114
tp248
a(Vunfolded protein binding
p249
I110
tp250
a(Vtranslation
p251
I106
tp252
a(Vhydrolase activity, acting on carbon-nitrogen (but not peptide) bonds
p253
I93
tp254
a(Vplasma membrane organization
p255
I92
tp256
a(Vlipid particle
p257
I90
tp258
a(Vprotein binding, bridging
p259
I87
tp260
a(Vribosome
p261
I83
tp262
a(Vsmall conjugating protein binding
p263
I80
tp264
a(Vperoxisome
p265
I77
tp266
a(Vribosome biogenesis
p267
I75
tp268
a(Vtransferase activity, transferring alkyl or aryl (other than methyl) groups
p269
I73
tp270
a(Vprotein transporter activity
p271
I72
tp272
a(Vnuclear chromosome
p273
I60
tp274
a(Vproteinaceous extracellular matrix
p275
I55
tp276
a(VrRNA binding
p277
I51
tp278
a(Vpigmentation
p279
I44
tp280
a(Vintracellular
p281
I43
tp282
a(Vthylakoid
p283
I18
tp284
a(Vnitrogen cycle metabolic process
p285
I9
tp286
a(Vtransposition
p287
I5
tp288
a(Vphotosynthesis
p289
I4
tp290
a(Vcell
p291
I4
tp292
a(VRNA modification guide activity
p293
I2
tp294
aa(lp295
(g3
L6372L
tp296
a(g5
L4365L
tp297
a(g7
L2787L
tp298
a(g9
L21685L
tp299
a(g11
L26888L
tp300
a(g13
L18268L
tp301
a(g15
L5491L
tp302
a(g17
L21693L
tp303
a(g19
L5801L
tp304
a(g21
L5613L
tp305
a(g23
L7192L
tp306
a(g25
L22689L
tp307
a(g27
L21630L
tp308
a(g29
L7190L
tp309
a(g31
L5168L
tp310
a(g33
L1781L
tp311
a(g35
L4599L
tp312
a(g37
L13633L
tp313
a(g39
L12968L
tp314
a(g41
L13924L
tp315
a(g43
L4507L
tp316
a(g45
L5326L
tp317
a(g47
L4995L
tp318
a(g49
L4422L
tp319
a(g51
L4644L
tp320
a(g53
L28228L
tp321
a(g55
L10381L
tp322
a(g57
L31581L
tp323
a(g59
L18282L
tp324
a(g61
L20507L
tp325
a(g63
L7881L
tp326
a(g65
L4725L
tp327
a(g67
L2830L
tp328
a(g69
L13690L
tp329
a(g71
L2790L
tp330
a(g73
L21086L
tp331
a(g75
L26682L
tp332
a(g77
L4514L
tp333
a(g79
L28535L
tp334
a(g81
L5165L
tp335
a(g83
L29927L
tp336
a(g85
L20503L
tp337
a(g87
L5663L
tp338
a(g89
L6320L
tp339
a(g91
L10598L
tp340
a(g93
L10466L
tp341
a(g95
L5218L
tp342
a(g97
L26901L
tp343
a(g99
L4515L
tp344
a(g101
L4567L
tp345
a(g103
L27837L
tp346
a(g105
L10229L
tp347
a(g107
L4439L
tp348
a(g109
L6436L
tp349
a(g111
L6448L
tp350
a(g113
L4556L
tp351
a(g115
L6500L
tp352
a(g117
L10963L
tp353
a(g119
L4621L
tp354
a(g121
L5302L
tp355
a(g123
L4586L
tp356
a(g125
L14001L
tp357
a(g127
L4118L
tp358
a(g129
L4542L
tp359
a(g131
L30984L
tp360
a(g133
L10950L
tp361
a(g135
L3827L
tp362
a(g137
L5112L
tp363
a(g139
L6494L
tp364
a(g141
L6357L
tp365
a(g143
L5791L
tp366
a(g145
L677L
tp367
a(g147
L5896L
tp368
a(g149
L22810L
tp369
a(g151
L4838L
tp370
a(g153
L5471L
tp371
a(g155
L594L
tp372
a(g157
L4366L
tp373
a(g159
L759L
tp374
a(g161
L3L
tp375
a(g163
L28144L
tp376
a(g165
L10829L
tp377
a(g167
L5582L
tp378
a(g169
L4546L
tp379
a(g171
L5695L
tp380
a(g173
L13644L
tp381
a(g175
L5161L
tp382
a(g177
L7644L
tp383
a(g179
L10870L
tp384
a(g181
L3404L
tp385
a(g183
L4684L
tp386
a(g185
L10840L
tp387
a(g187
L28251L
tp388
a(g189
L2841L
tp389
a(g191
L13967L
tp390
a(g193
L3518L
tp391
a(g195
L2835L
tp392
a(g197
L10905L
tp393
a(g199
L14078L
tp394
a(g201
L2991L
tp395
a(g203
L17965L
tp396
a(g205
L4408L
tp397
a(g207
L6169L
tp398
a(g209
L4405L
tp399
a(g211
L6389L
tp400
a(g213
L4475L
tp401
a(g215
L5658L
tp402
a(g217
L14427L
tp403
a(g219
L10929L
tp404
a(g221
L13274L
tp405
a(g223
L4538L
tp406
a(g225
L5712L
tp407
a(g227
L5705L
tp408
a(g229
L4423L
tp409
a(g231
L12827L
tp410
a(g233
L5114L
tp411
a(g235
L20900L
tp412
a(g237
L2364L
tp413
a(g239
L10860L
tp414
a(g241
L6358L
tp415
a(g243
L5682L
tp416
a(g245
L10876L
tp417
a(g247
L33137L
tp418
a(g249
L28040L
tp419
a(g251
L5126L
tp420
a(g253
L10886L
tp421
a(g255
L5662L
tp422
a(g257
L4583L
tp423
a(g259
L14396L
tp424
a(g261
L4609L
tp425
a(g263
L15840L
tp426
a(g265
L4550L
tp427
a(g267
L20770L
tp428
a(g269
L10848L
tp429
a(g271
L6747L
tp430
a(g273
L201L
tp431
a(g275
L4368L
tp432
a(g277
L12918L
tp433
a(g279
L21900L
tp434
a(g281
L4411L
tp435
a(g283
L7683L
tp436
a(g285
L33512L
tp437
a(g287
L15852L
tp438
a(g289
L10192L
tp439
a(g291
L4412L
tp440
a(g293
L14288L
tp441
aaI290172
a.