(lp1
(lp2
(Vbiological_process
p3
I124195
tp4
a(Vcellular_component
p5
I43467
tp6
a(Vmolecular_function
p7
I35245
tp8
a(Vorganelle
p9
I11895
tp10
a(Vanatomical structure development
p11
I8812
tp12
a(Vcellular nitrogen compound metabolic process
p13
I7227
tp14
a(Vtransport
p15
I7091
tp16
a(Vsignal transduction
p17
I5611
tp18
a(Vprotein complex
p19
I5471
tp20
a(Vresponse to stress
p21
I5109
tp22
a(Vsmall molecule metabolic process
p23
I4691
tp24
a(Vbiosynthetic process
p25
I4538
tp26
a(Vion binding
p27
I4388
tp28
a(Vcatabolic process
p29
I3515
tp30
a(Vcellular protein modification process
p31
I3405
tp32
a(Vimmune system process
p33
I2703
tp34
a(Vcytosol
p35
I2435
tp36
a(Vcellular component assembly
p37
I2378
tp38
a(Vcell differentiation
p39
I1982
tp40
a(Venzyme binding
p41
I1882
tp42
a(Vlipid metabolic process
p43
I1857
tp44
a(Vnucleolus
p45
I1755
tp46
a(Vplasma membrane
p47
I1604
tp48
a(Vvesicle-mediated transport
p49
I1575
tp50
a(Vnucleus
p51
I1533
tp52
a(VDNA metabolic process
p53
I1492
tp54
a(Vmacromolecular complex assembly
p55
I1463
tp56
a(Vchromosome organization
p57
I1414
tp58
a(Vlocomotion
p59
I1408
tp60
a(Vcarbohydrate metabolic process
p61
I1353
tp62
a(Vembryo development
p63
I1336
tp64
a(Vnucleobase-containing compound catabolic process
p65
I1336
tp66
a(VDNA binding
p67
I1300
tp68
a(Vtransmembrane transporter activity
p69
I1239
tp70
a(Vanatomical structure formation involved in morphogenesis
p71
I1224
tp72
a(VRNA binding
p73
I1210
tp74
a(Vhomeostatic process
p75
I1206
tp76
a(Voxidoreductase activity
p77
I1103
tp78
a(Vprotein complex assembly
p79
I1100
tp80
a(Vcytoplasm
p81
I1096
tp82
a(Vprotein maturation
p83
I1094
tp84
a(Vgrowth
p85
I1056
tp86
a(Vtransmembrane transport
p87
I1007
tp88
a(Vcytoskeleton organization
p89
I1001
tp90
a(Vcytoskeletal protein binding
p91
I989
tp92
a(Vcellular amino acid metabolic process
p93
I970
tp94
a(Vcell motility
p95
I920
tp96
a(Vmitochondrion
p97
I901
tp98
a(Vkinase activity
p99
I876
tp100
a(Vneurological system process
p101
I828
tp102
a(VGolgi apparatus
p103
I815
tp104
a(Vcytoplasmic membrane-bounded vesicle
p105
I807
tp106
a(Vpeptidase activity
p107
I781
tp108
a(Vcell death
p109
I734
tp110
a(Vlipid binding
p111
I725
tp112
a(Vsignal transducer activity
p113
I713
tp114
a(Vnucleoplasm
p115
I703
tp116
a(Vendoplasmic reticulum
p117
I681
tp118
a(Venzyme regulator activity
p119
I645
tp120
a(Vcytoskeleton
p121
I641
tp122
a(Vstructural molecule activity
p123
I623
tp124
a(VATPase activity
p125
I618
tp126
a(Vprotein targeting
p127
I614
tp128
a(Vmembrane organization
p129
I607
tp130
a(Vmicrotubule organizing center
p131
I601
tp132
a(Vendosome
p133
I585
tp134
a(Vligase activity
p135
I563
tp136
a(Vcell proliferation
p137
I556
tp138
a(Vtranscription factor binding
p139
I554
tp140
a(Vcell-cell signaling
p141
I550
tp142
a(Vcell adhesion
p143
I536
tp144
a(Vprotein binding transcription factor activity
p145
I512
tp146
a(VmRNA processing
p147
I509
tp148
a(Vextracellular region
p149
I487
tp150
a(Vsulfur compound metabolic process
p151
I480
tp152
a(Vgeneration of precursor metabolites and energy
p153
I477
tp154
a(Vnucleic acid binding transcription factor activity
p155
I472
tp156
a(Vsymbiosis, encompassing mutualism through parasitism
p157
I466
tp158
a(Vcell morphogenesis
p159
I448
tp160
a(Vvacuole
p161
I393
tp162
a(Vtransferase activity, transferring acyl groups
p163
I387
tp164
a(Vcofactor metabolic process
p165
I383
tp166
a(Vreproduction
p167
I380
tp168
a(Vnucleocytoplasmic transport
p169
I347
tp170
a(Vcell cycle
p171
I318
tp172
a(Vribonucleoprotein complex assembly
p173
I313
tp174
a(Vextracellular matrix organization
p175
I311
tp176
a(Vprotein folding
p177
I309
tp178
a(Vplastid
p179
I302
tp180
a(Vextracellular space
p181
I300
tp182
a(Vcilium
p183
I286
tp184
a(Vphosphatase activity
p185
I269
tp186
a(Vcell division
p187
I264
tp188
a(Vtransferase activity, transferring glycosyl groups
p189
I255
tp190
a(Vstructural constituent of ribosome
p191
I252
tp192
a(Vlyase activity
p193
I247
tp194
a(Vhelicase activity
p195
I239
tp196
a(Vexternal encapsulating structure
p197
I233
tp198
a(Vcell junction organization
p199
I232
tp200
a(VGTPase activity
p201
I231
tp202
a(Vcell wall
p203
I230
tp204
a(VmRNA binding
p205
I228
tp206
a(Vdevelopmental maturation
p207
I216
tp208
a(Vaging
p209
I216
tp210
a(Vnuclease activity
p211
I215
tp212
a(Vlysosome
p213
I207
tp214
a(Vmitochondrion organization
p215
I207
tp216
a(Vcytoskeleton-dependent intracellular transport
p217
I204
tp218
a(Visomerase activity
p219
I202
tp220
a(Vchromosome
p221
I202
tp222
a(Vmethyltransferase activity
p223
I201
tp224
a(Vsecondary metabolic process
p225
I185
tp226
a(Vcirculatory system process
p227
I181
tp228
a(Vnuclear envelope
p229
I176
tp230
a(Vmitosis
p231
I163
tp232
a(Vhistone binding
p233
I160
tp234
a(Vhydrolase activity, acting on glycosyl bonds
p235
I160
tp236
a(Vnucleotidyltransferase activity
p237
I149
tp238
a(Vchromosome segregation
p239
I148
tp240
a(Vcell wall organization or biogenesis
p241
I147
tp242
a(Vtranslation factor activity, nucleic acid binding
p243
I145
tp244
a(VtRNA metabolic process
p245
I144
tp246
a(Vvacuolar transport
p247
I141
tp248
a(Vunfolded protein binding
p249
I129
tp250
a(Vtranslation
p251
I128
tp252
a(Vlipid particle
p253
I117
tp254
a(Vprotein binding, bridging
p255
I116
tp256
a(Vhydrolase activity, acting on carbon-nitrogen (but not peptide) bonds
p257
I110
tp258
a(Vplasma membrane organization
p259
I107
tp260
a(Vperoxisome
p261
I107
tp262
a(Vsmall conjugating protein binding
p263
I105
tp264
a(Vribosome
p265
I102
tp266
a(Vproteinaceous extracellular matrix
p267
I89
tp268
a(Vprotein transporter activity
p269
I88
tp270
a(Vribosome biogenesis
p271
I80
tp272
a(Vtransferase activity, transferring alkyl or aryl (other than methyl) groups
p273
I80
tp274
a(Vnuclear chromosome
p275
I67
tp276
a(VrRNA binding
p277
I62
tp278
a(Vpigmentation
p279
I55
tp280
a(Vintracellular
p281
I54
tp282
a(Vthylakoid
p283
I24
tp284
a(Vnitrogen cycle metabolic process
p285
I18
tp286
a(Vphotosynthesis
p287
I10
tp288
a(Vtransposition
p289
I5
tp290
a(Vcell
p291
I4
tp292
a(VRNA modification guide activity
p293
I1
tp294
a(Vcytoplasmic chromosome
p295
I1
tp296
aa(lp297
(g3
L6372L
tp298
a(g5
L4365L
tp299
a(g7
L2787L
tp300
a(g9
L21685L
tp301
a(g11
L26888L
tp302
a(g13
L18268L
tp303
a(g15
L5491L
tp304
a(g17
L5801L
tp305
a(g19
L21693L
tp306
a(g21
L5613L
tp307
a(g23
L22689L
tp308
a(g25
L7192L
tp309
a(g27
L21630L
tp310
a(g29
L7190L
tp311
a(g31
L5168L
tp312
a(g33
L1781L
tp313
a(g35
L4599L
tp314
a(g37
L13633L
tp315
a(g39
L13924L
tp316
a(g41
L12968L
tp317
a(g43
L5326L
tp318
a(g45
L4507L
tp319
a(g47
L4644L
tp320
a(g49
L10381L
tp321
a(g51
L4422L
tp322
a(g53
L4995L
tp323
a(g55
L31581L
tp324
a(g57
L28228L
tp325
a(g59
L20507L
tp326
a(g61
L4725L
tp327
a(g63
L7881L
tp328
a(g65
L18282L
tp329
a(g67
L2790L
tp330
a(g69
L13690L
tp331
a(g71
L26682L
tp332
a(g73
L2830L
tp333
a(g75
L21086L
tp334
a(g77
L10598L
tp335
a(g79
L5165L
tp336
a(g81
L4514L
tp337
a(g83
L28535L
tp338
a(g85
L20503L
tp339
a(g87
L29927L
tp340
a(g89
L5663L
tp341
a(g91
L6320L
tp342
a(g93
L5218L
tp343
a(g95
L26901L
tp344
a(g97
L4515L
tp345
a(g99
L10466L
tp346
a(g101
L27837L
tp347
a(g103
L4567L
tp348
a(g105
L10229L
tp349
a(g107
L6448L
tp350
a(g109
L6436L
tp351
a(g111
L6500L
tp352
a(g113
L3827L
tp353
a(g115
L4439L
tp354
a(g117
L4556L
tp355
a(g119
L14001L
tp356
a(g121
L4621L
tp357
a(g123
L4118L
tp358
a(g125
L10963L
tp359
a(g127
L5302L
tp360
a(g129
L30984L
tp361
a(g131
L4586L
tp362
a(g133
L4542L
tp363
a(g135
L10950L
tp364
a(g137
L6494L
tp365
a(g139
L6357L
tp366
a(g141
L5896L
tp367
a(g143
L5791L
tp368
a(g145
L677L
tp369
a(g147
L5112L
tp370
a(g149
L4366L
tp371
a(g151
L5471L
tp372
a(g153
L4838L
tp373
a(g155
L759L
tp374
a(g157
L22810L
tp375
a(g159
L594L
tp376
a(g161
L4546L
tp377
a(g163
L10829L
tp378
a(g165
L28144L
tp379
a(g167
L3L
tp380
a(g169
L5582L
tp381
a(g171
L5695L
tp382
a(g173
L13644L
tp383
a(g175
L13967L
tp384
a(g177
L5161L
tp385
a(g179
L7644L
tp386
a(g181
L4405L
tp387
a(g183
L4684L
tp388
a(g185
L10870L
tp389
a(g187
L28251L
tp390
a(g189
L10840L
tp391
a(g191
L2841L
tp392
a(g193
L10905L
tp393
a(g195
L3404L
tp394
a(g197
L14078L
tp395
a(g199
L17965L
tp396
a(g201
L2991L
tp397
a(g203
L4408L
tp398
a(g205
L2835L
tp399
a(g207
L13274L
tp400
a(g209
L6169L
tp401
a(g211
L3518L
tp402
a(g213
L4538L
tp403
a(g215
L5658L
tp404
a(g217
L14427L
tp405
a(g219
L10929L
tp406
a(g221
L4475L
tp407
a(g223
L6389L
tp408
a(g225
L12827L
tp409
a(g227
L2364L
tp410
a(g229
L4423L
tp411
a(g231
L5712L
tp412
a(g233
L20900L
tp413
a(g235
L10876L
tp414
a(g237
L10860L
tp415
a(g239
L5705L
tp416
a(g241
L33137L
tp417
a(g243
L6358L
tp418
a(g245
L5114L
tp419
a(g247
L5682L
tp420
a(g249
L28040L
tp421
a(g251
L5126L
tp422
a(g253
L4583L
tp423
a(g255
L14396L
tp424
a(g257
L10886L
tp425
a(g259
L5662L
tp426
a(g261
L4550L
tp427
a(g263
L15840L
tp428
a(g265
L4609L
tp429
a(g267
L4368L
tp430
a(g269
L6747L
tp431
a(g271
L20770L
tp432
a(g273
L10848L
tp433
a(g275
L201L
tp434
a(g277
L12918L
tp435
a(g279
L21900L
tp436
a(g281
L4411L
tp437
a(g283
L7683L
tp438
a(g285
L33512L
tp439
a(g287
L10192L
tp440
a(g289
L15852L
tp441
a(g291
L4412L
tp442
a(g293
L14288L
tp443
a(g295
L202L
tp444
aaI352926
a.