(lp1
(lp2
(Vbiological_process
p3
I233144
tp4
a(Vcellular_component
p5
I78460
tp6
a(Vmolecular_function
p7
I63772
tp8
a(Vorganelle
p9
I21102
tp10
a(Vanatomical structure development
p11
I17337
tp12
a(Vtransport
p13
I13072
tp14
a(Vcellular nitrogen compound metabolic process
p15
I11137
tp16
a(Vsignal transduction
p17
I10777
tp18
a(Vprotein complex
p19
I9149
tp20
a(Vresponse to stress
p21
I8759
tp22
a(Vion binding
p23
I7746
tp24
a(Vsmall molecule metabolic process
p25
I7447
tp26
a(Vbiosynthetic process
p27
I6983
tp28
a(Vcellular protein modification process
p29
I6201
tp30
a(Vcatabolic process
p31
I5390
tp32
a(Vimmune system process
p33
I5011
tp34
a(Vcell differentiation
p35
I4101
tp36
a(Vcellular component assembly
p37
I3943
tp38
a(Vcytosol
p39
I3756
tp40
a(Venzyme binding
p41
I3551
tp42
a(Vlipid metabolic process
p43
I3402
tp44
a(Vlocomotion
p45
I2876
tp46
a(Vnucleolus
p47
I2847
tp48
a(Vplasma membrane
p49
I2809
tp50
a(Vvesicle-mediated transport
p51
I2749
tp52
a(Vnucleus
p53
I2727
tp54
a(Vtransmembrane transporter activity
p55
I2617
tp56
a(VDNA metabolic process
p57
I2532
tp58
a(Vanatomical structure formation involved in morphogenesis
p59
I2500
tp60
a(Vchromosome organization
p61
I2371
tp62
a(Vhomeostatic process
p63
I2319
tp64
a(VDNA binding
p65
I2259
tp66
a(Vmacromolecular complex assembly
p67
I2243
tp68
a(Vcytoplasm
p69
I2154
tp70
a(Vcarbohydrate metabolic process
p71
I2076
tp72
a(Vtransmembrane transport
p73
I2048
tp74
a(Vcell motility
p75
I1971
tp76
a(Vembryo development
p77
I1960
tp78
a(Vnucleobase-containing compound catabolic process
p79
I1956
tp80
a(Vprotein maturation
p81
I1946
tp82
a(Vneurological system process
p83
I1931
tp84
a(Voxidoreductase activity
p85
I1925
tp86
a(Vcytoskeletal protein binding
p87
I1915
tp88
a(Vgrowth
p89
I1806
tp90
a(Vprotein complex assembly
p91
I1763
tp92
a(Vkinase activity
p93
I1726
tp94
a(Vcytoskeleton organization
p95
I1723
tp96
a(VRNA binding
p97
I1654
tp98
a(Vsignal transducer activity
p99
I1584
tp100
a(Vmitochondrion
p101
I1450
tp102
a(Vcytoplasmic membrane-bounded vesicle
p103
I1435
tp104
a(VGolgi apparatus
p105
I1420
tp106
a(Vlipid binding
p107
I1417
tp108
a(Vcellular amino acid metabolic process
p109
I1357
tp110
a(Vcytoskeleton
p111
I1283
tp112
a(Vpeptidase activity
p113
I1225
tp114
a(Vendoplasmic reticulum
p115
I1222
tp116
a(Vcell adhesion
p117
I1216
tp118
a(Vcell death
p119
I1197
tp120
a(Venzyme regulator activity
p121
I1180
tp122
a(Vendosome
p123
I1166
tp124
a(Vmembrane organization
p125
I1150
tp126
a(Vcell-cell signaling
p127
I1145
tp128
a(Vligase activity
p129
I1121
tp130
a(Vcell proliferation
p131
I1104
tp132
a(VATPase activity
p133
I1075
tp134
a(Vnucleoplasm
p135
I1061
tp136
a(Vmicrotubule organizing center
p137
I1035
tp138
a(Vtranscription factor binding
p139
I1000
tp140
a(Vprotein binding transcription factor activity
p141
I953
tp142
a(Vcell morphogenesis
p143
I893
tp144
a(Vnucleic acid binding transcription factor activity
p145
I836
tp146
a(Vstructural molecule activity
p147
I813
tp148
a(Vprotein targeting
p149
I810
tp150
a(Vextracellular region
p151
I786
tp152
a(VmRNA processing
p153
I728
tp154
a(Vsulfur compound metabolic process
p155
I722
tp156
a(Vsymbiosis, encompassing mutualism through parasitism
p157
I691
tp158
a(Vvacuole
p159
I651
tp160
a(Vtransferase activity, transferring acyl groups
p161
I642
tp162
a(Vgeneration of precursor metabolites and energy
p163
I625
tp164
a(Vcofactor metabolic process
p165
I607
tp166
a(Vextracellular space
p167
I600
tp168
a(Vcilium
p169
I595
tp170
a(Vextracellular matrix organization
p171
I585
tp172
a(Vphosphatase activity
p173
I576
tp174
a(Vcell cycle
p175
I553
tp176
a(Vnucleocytoplasmic transport
p177
I536
tp178
a(Vreproduction
p179
I506
tp180
a(Vtransferase activity, transferring glycosyl groups
p181
I498
tp182
a(Vcell junction organization
p183
I450
tp184
a(Vhelicase activity
p185
I443
tp186
a(Vcell division
p187
I438
tp188
a(Vdevelopmental maturation
p189
I420
tp190
a(Vaging
p191
I411
tp192
a(Vribonucleoprotein complex assembly
p193
I395
tp194
a(Vplastid
p195
I388
tp196
a(Vnuclease activity
p197
I387
tp198
a(Vcirculatory system process
p199
I380
tp200
a(Vlysosome
p201
I378
tp202
a(Vprotein folding
p203
I372
tp204
a(Vcytoskeleton-dependent intracellular transport
p205
I368
tp206
a(Vmitochondrion organization
p207
I367
tp208
a(Vmethyltransferase activity
p209
I362
tp210
a(Vlyase activity
p211
I359
tp212
a(VGTPase activity
p213
I317
tp214
a(Vchromosome
p215
I316
tp216
a(Vhistone binding
p217
I295
tp218
a(Vnuclear envelope
p219
I295
tp220
a(VmRNA binding
p221
I293
tp222
a(Vsecondary metabolic process
p223
I269
tp224
a(Vhydrolase activity, acting on glycosyl bonds
p225
I269
tp226
a(Vexternal encapsulating structure
p227
I262
tp228
a(Vcell wall
p229
I255
tp230
a(Visomerase activity
p231
I253
tp232
a(Vmitosis
p233
I247
tp234
a(Vplasma membrane organization
p235
I240
tp236
a(Vvacuolar transport
p237
I232
tp238
a(Vproteinaceous extracellular matrix
p239
I231
tp240
a(Vchromosome segregation
p241
I226
tp242
a(Vnucleotidyltransferase activity
p243
I213
tp244
a(Vhydrolase activity, acting on carbon-nitrogen (but not peptide) bonds
p245
I208
tp246
a(Vstructural constituent of ribosome
p247
I205
tp248
a(Vcell wall organization or biogenesis
p249
I202
tp250
a(Vprotein binding, bridging
p251
I202
tp252
a(VtRNA metabolic process
p253
I192
tp254
a(Vperoxisome
p255
I177
tp256
a(Vsmall conjugating protein binding
p257
I174
tp258
a(Vtranslation factor activity, nucleic acid binding
p259
I160
tp260
a(Vtranslation
p261
I159
tp262
a(Vunfolded protein binding
p263
I151
tp264
a(Vlipid particle
p265
I150
tp266
a(Vprotein transporter activity
p267
I136
tp268
a(Vribosome
p269
I131
tp270
a(Vintracellular
p271
I113
tp272
a(Vtransferase activity, transferring alkyl or aryl (other than methyl) groups
p273
I106
tp274
a(Vnuclear chromosome
p275
I95
tp276
a(Vribosome biogenesis
p277
I89
tp278
a(Vpigmentation
p279
I89
tp280
a(VrRNA binding
p281
I68
tp282
a(Vthylakoid
p283
I35
tp284
a(Vnitrogen cycle metabolic process
p285
I26
tp286
a(Vphotosynthesis
p287
I12
tp288
a(Vtransposition
p289
I10
tp290
a(Vcell
p291
I8
tp292
a(VRNA modification guide activity
p293
I1
tp294
aa(lp295
(g3
L6372L
tp296
a(g5
L4365L
tp297
a(g7
L2787L
tp298
a(g9
L21685L
tp299
a(g11
L26888L
tp300
a(g13
L5491L
tp301
a(g15
L18268L
tp302
a(g17
L5801L
tp303
a(g19
L21693L
tp304
a(g21
L5613L
tp305
a(g23
L21630L
tp306
a(g25
L22689L
tp307
a(g27
L7192L
tp308
a(g29
L5168L
tp309
a(g31
L7190L
tp310
a(g33
L1781L
tp311
a(g35
L13924L
tp312
a(g37
L13633L
tp313
a(g39
L4599L
tp314
a(g41
L12968L
tp315
a(g43
L5326L
tp316
a(g45
L20507L
tp317
a(g47
L4507L
tp318
a(g49
L4644L
tp319
a(g51
L10381L
tp320
a(g53
L4422L
tp321
a(g55
L13690L
tp322
a(g57
L4995L
tp323
a(g59
L26682L
tp324
a(g61
L28228L
tp325
a(g63
L21086L
tp326
a(g65
L2790L
tp327
a(g67
L31581L
tp328
a(g69
L4514L
tp329
a(g71
L4725L
tp330
a(g73
L29927L
tp331
a(g75
L26901L
tp332
a(g77
L7881L
tp333
a(g79
L18282L
tp334
a(g81
L28535L
tp335
a(g83
L27837L
tp336
a(g85
L10598L
tp337
a(g87
L6320L
tp338
a(g89
L20503L
tp339
a(g91
L5165L
tp340
a(g93
L10466L
tp341
a(g95
L5663L
tp342
a(g97
L2830L
tp343
a(g99
L3827L
tp344
a(g101
L4515L
tp345
a(g103
L10229L
tp346
a(g105
L4567L
tp347
a(g107
L6500L
tp348
a(g109
L5218L
tp349
a(g111
L4621L
tp350
a(g113
L6448L
tp351
a(g115
L4556L
tp352
a(g117
L5791L
tp353
a(g119
L6436L
tp354
a(g121
L14001L
tp355
a(g123
L4542L
tp356
a(g125
L30984L
tp357
a(g127
L5896L
tp358
a(g129
L10950L
tp359
a(g131
L6494L
tp360
a(g133
L10963L
tp361
a(g135
L4439L
tp362
a(g137
L4586L
tp363
a(g139
L6357L
tp364
a(g141
L677L
tp365
a(g143
L594L
tp366
a(g145
L759L
tp367
a(g147
L4118L
tp368
a(g149
L5302L
tp369
a(g151
L4366L
tp370
a(g153
L5112L
tp371
a(g155
L5471L
tp372
a(g157
L22810L
tp373
a(g159
L4546L
tp374
a(g161
L10829L
tp375
a(g163
L4838L
tp376
a(g165
L28144L
tp377
a(g167
L4405L
tp378
a(g169
L4684L
tp379
a(g171
L13967L
tp380
a(g173
L10870L
tp381
a(g175
L5695L
tp382
a(g177
L5582L
tp383
a(g179
L3L
tp384
a(g181
L10840L
tp385
a(g183
L17965L
tp386
a(g185
L3404L
tp387
a(g187
L28251L
tp388
a(g189
L13274L
tp389
a(g191
L6169L
tp390
a(g193
L13644L
tp391
a(g195
L7644L
tp392
a(g197
L3518L
tp393
a(g199
L2364L
tp394
a(g201
L4538L
tp395
a(g203
L5161L
tp396
a(g205
L14427L
tp397
a(g207
L5658L
tp398
a(g209
L6389L
tp399
a(g211
L10905L
tp400
a(g213
L2991L
tp401
a(g215
L4475L
tp402
a(g217
L20900L
tp403
a(g219
L4423L
tp404
a(g221
L2835L
tp405
a(g223
L12827L
tp406
a(g225
L10876L
tp407
a(g227
L14078L
tp408
a(g229
L4408L
tp409
a(g231
L10929L
tp410
a(g233
L5712L
tp411
a(g235
L5662L
tp412
a(g237
L5682L
tp413
a(g239
L4368L
tp414
a(g241
L5705L
tp415
a(g243
L10860L
tp416
a(g245
L10886L
tp417
a(g247
L2841L
tp418
a(g249
L33137L
tp419
a(g251
L14396L
tp420
a(g253
L5114L
tp421
a(g255
L4550L
tp422
a(g257
L15840L
tp423
a(g259
L6358L
tp424
a(g261
L5126L
tp425
a(g263
L28040L
tp426
a(g265
L4583L
tp427
a(g267
L6747L
tp428
a(g269
L4609L
tp429
a(g271
L4411L
tp430
a(g273
L10848L
tp431
a(g275
L201L
tp432
a(g277
L20770L
tp433
a(g279
L21900L
tp434
a(g281
L12918L
tp435
a(g283
L7683L
tp436
a(g285
L33512L
tp437
a(g287
L10192L
tp438
a(g289
L15852L
tp439
a(g291
L4412L
tp440
a(g293
L14288L
tp441
aaI636722
a.