(lp1
(lp2
(Vbiological_process
p3
I264754
tp4
a(Vcellular_component
p5
I89214
tp6
a(Vmolecular_function
p7
I73597
tp8
a(Vorganelle
p9
I23933
tp10
a(Vanatomical structure development
p11
I19777
tp12
a(Vtransport
p13
I14760
tp14
a(Vcellular nitrogen compound metabolic process
p15
I12668
tp16
a(Vsignal transduction
p17
I12110
tp18
a(Vprotein complex
p19
I10509
tp20
a(Vresponse to stress
p21
I9956
tp22
a(Vion binding
p23
I9085
tp24
a(Vsmall molecule metabolic process
p25
I8400
tp26
a(Vbiosynthetic process
p27
I7614
tp28
a(Vcellular protein modification process
p29
I7061
tp30
a(Vcatabolic process
p31
I6138
tp32
a(Vimmune system process
p33
I5492
tp34
a(Vcell differentiation
p35
I4718
tp36
a(Vcellular component assembly
p37
I4622
tp38
a(Vcytosol
p39
I4364
tp40
a(Venzyme binding
p41
I4111
tp42
a(Vlipid metabolic process
p43
I3817
tp44
a(Vlocomotion
p45
I3429
tp46
a(Vnucleolus
p47
I3281
tp48
a(Vvesicle-mediated transport
p49
I3169
tp50
a(Vplasma membrane
p51
I3107
tp52
a(Vnucleus
p53
I3071
tp54
a(VDNA metabolic process
p55
I3061
tp56
a(Vanatomical structure formation involved in morphogenesis
p57
I3035
tp58
a(Vtransmembrane transporter activity
p59
I2963
tp60
a(Vchromosome organization
p61
I2812
tp62
a(Vhomeostatic process
p63
I2638
tp64
a(VDNA binding
p65
I2633
tp66
a(Vmacromolecular complex assembly
p67
I2589
tp68
a(Vcytoplasm
p69
I2508
tp70
a(Vcell motility
p71
I2406
tp72
a(Vcarbohydrate metabolic process
p73
I2288
tp74
a(Vnucleobase-containing compound catabolic process
p75
I2269
tp76
a(Vtransmembrane transport
p77
I2262
tp78
a(Vembryo development
p79
I2216
tp80
a(Vneurological system process
p81
I2199
tp82
a(Vcytoskeletal protein binding
p83
I2197
tp84
a(Voxidoreductase activity
p85
I2146
tp86
a(Vprotein maturation
p87
I2096
tp88
a(Vgrowth
p89
I2068
tp90
a(Vkinase activity
p91
I2064
tp92
a(Vcytoskeleton organization
p93
I2053
tp94
a(Vprotein complex assembly
p95
I2049
tp96
a(Vsignal transducer activity
p97
I1869
tp98
a(VRNA binding
p99
I1806
tp100
a(VGolgi apparatus
p101
I1684
tp102
a(Vlipid binding
p103
I1656
tp104
a(Vcytoplasmic membrane-bounded vesicle
p105
I1655
tp106
a(Vmitochondrion
p107
I1629
tp108
a(Vcell adhesion
p109
I1561
tp110
a(Vcellular amino acid metabolic process
p111
I1536
tp112
a(Vcytoskeleton
p113
I1471
tp114
a(Vpeptidase activity
p115
I1402
tp116
a(Vendoplasmic reticulum
p117
I1364
tp118
a(Vendosome
p119
I1351
tp120
a(Vmembrane organization
p121
I1348
tp122
a(Vcell death
p123
I1325
tp124
a(VATPase activity
p125
I1309
tp126
a(Vcell-cell signaling
p127
I1309
tp128
a(Vligase activity
p129
I1302
tp130
a(Venzyme regulator activity
p131
I1294
tp132
a(Vcell proliferation
p133
I1242
tp134
a(Vnucleoplasm
p135
I1240
tp136
a(Vmicrotubule organizing center
p137
I1207
tp138
a(Vtranscription factor binding
p139
I1138
tp140
a(Vcell morphogenesis
p141
I1103
tp142
a(Vprotein binding transcription factor activity
p143
I1084
tp144
a(Vnucleic acid binding transcription factor activity
p145
I984
tp146
a(Vstructural molecule activity
p147
I979
tp148
a(Vprotein targeting
p149
I892
tp150
a(Vextracellular region
p151
I891
tp152
a(VmRNA processing
p153
I811
tp154
a(Vsulfur compound metabolic process
p155
I792
tp156
a(Vsymbiosis, encompassing mutualism through parasitism
p157
I764
tp158
a(Vcofactor metabolic process
p159
I718
tp160
a(Vcilium
p161
I713
tp162
a(Vtransferase activity, transferring acyl groups
p163
I709
tp164
a(Vvacuole
p165
I691
tp166
a(Vextracellular matrix organization
p167
I689
tp168
a(Vextracellular space
p169
I681
tp170
a(Vgeneration of precursor metabolites and energy
p171
I677
tp172
a(Vphosphatase activity
p173
I630
tp174
a(Vcell cycle
p175
I623
tp176
a(Vnucleocytoplasmic transport
p177
I609
tp178
a(Vreproduction
p179
I596
tp180
a(Vcell junction organization
p181
I557
tp182
a(Vtransferase activity, transferring glycosyl groups
p183
I549
tp184
a(Vhelicase activity
p185
I527
tp186
a(Vaging
p187
I521
tp188
a(Vcell division
p189
I520
tp190
a(Vnuclease activity
p191
I470
tp192
a(Vdevelopmental maturation
p193
I455
tp194
a(Vribonucleoprotein complex assembly
p195
I436
tp196
a(Vcytoskeleton-dependent intracellular transport
p197
I435
tp198
a(Vcirculatory system process
p199
I431
tp200
a(Vprotein folding
p201
I413
tp202
a(Vlyase activity
p203
I410
tp204
a(Vmitochondrion organization
p205
I403
tp206
a(Vmethyltransferase activity
p207
I403
tp208
a(Vplastid
p209
I402
tp210
a(Vlysosome
p211
I399
tp212
a(Vchromosome
p213
I365
tp214
a(Vhistone binding
p215
I354
tp216
a(Vnuclear envelope
p217
I342
tp218
a(VGTPase activity
p219
I333
tp220
a(VmRNA binding
p221
I313
tp222
a(Vsecondary metabolic process
p223
I310
tp224
a(Visomerase activity
p225
I291
tp226
a(Vexternal encapsulating structure
p227
I288
tp228
a(Vmitosis
p229
I285
tp230
a(Vproteinaceous extracellular matrix
p231
I283
tp232
a(Vplasma membrane organization
p233
I282
tp234
a(Vcell wall
p235
I280
tp236
a(Vnucleotidyltransferase activity
p237
I269
tp238
a(Vvacuolar transport
p239
I260
tp240
a(Vchromosome segregation
p241
I253
tp242
a(Vhydrolase activity, acting on glycosyl bonds
p243
I253
tp244
a(Vhydrolase activity, acting on carbon-nitrogen (but not peptide) bonds
p245
I235
tp246
a(Vprotein binding, bridging
p247
I235
tp248
a(Vcell wall organization or biogenesis
p249
I224
tp250
a(Vstructural constituent of ribosome
p251
I223
tp252
a(VtRNA metabolic process
p253
I221
tp254
a(Vsmall conjugating protein binding
p255
I214
tp256
a(Vprotein transporter activity
p257
I193
tp258
a(Vperoxisome
p259
I183
tp260
a(Vtranslation factor activity, nucleic acid binding
p261
I173
tp262
a(Vlipid particle
p263
I173
tp264
a(Vunfolded protein binding
p265
I168
tp266
a(Vtranslation
p267
I166
tp268
a(Vribosome
p269
I130
tp270
a(Vtransferase activity, transferring alkyl or aryl (other than methyl) groups
p271
I120
tp272
a(Vribosome biogenesis
p273
I106
tp274
a(Vnuclear chromosome
p275
I104
tp276
a(Vintracellular
p277
I103
tp278
a(Vpigmentation
p279
I102
tp280
a(VrRNA binding
p281
I70
tp282
a(Vthylakoid
p283
I35
tp284
a(Vnitrogen cycle metabolic process
p285
I29
tp286
a(Vcell
p287
I16
tp288
a(Vtransposition
p289
I9
tp290
a(Vphotosynthesis
p291
I8
tp292
a(VRNA modification guide activity
p293
I1
tp294
aa(lp295
(g3
L6372L
tp296
a(g5
L4365L
tp297
a(g7
L2787L
tp298
a(g9
L21685L
tp299
a(g11
L26888L
tp300
a(g13
L5491L
tp301
a(g15
L18268L
tp302
a(g17
L5801L
tp303
a(g19
L21693L
tp304
a(g21
L5613L
tp305
a(g23
L21630L
tp306
a(g25
L22689L
tp307
a(g27
L7192L
tp308
a(g29
L5168L
tp309
a(g31
L7190L
tp310
a(g33
L1781L
tp311
a(g35
L13924L
tp312
a(g37
L13633L
tp313
a(g39
L4599L
tp314
a(g41
L12968L
tp315
a(g43
L5326L
tp316
a(g45
L20507L
tp317
a(g47
L4507L
tp318
a(g49
L10381L
tp319
a(g51
L4644L
tp320
a(g53
L4422L
tp321
a(g55
L4995L
tp322
a(g57
L26682L
tp323
a(g59
L13690L
tp324
a(g61
L28228L
tp325
a(g63
L21086L
tp326
a(g65
L2790L
tp327
a(g67
L31581L
tp328
a(g69
L4514L
tp329
a(g71
L26901L
tp330
a(g73
L4725L
tp331
a(g75
L18282L
tp332
a(g77
L29927L
tp333
a(g79
L7881L
tp334
a(g81
L27837L
tp335
a(g83
L6320L
tp336
a(g85
L10598L
tp337
a(g87
L28535L
tp338
a(g89
L20503L
tp339
a(g91
L10466L
tp340
a(g93
L5663L
tp341
a(g95
L5165L
tp342
a(g97
L3827L
tp343
a(g99
L2830L
tp344
a(g101
L4567L
tp345
a(g103
L6500L
tp346
a(g105
L10229L
tp347
a(g107
L4515L
tp348
a(g109
L5791L
tp349
a(g111
L5218L
tp350
a(g113
L4621L
tp351
a(g115
L6448L
tp352
a(g117
L4556L
tp353
a(g119
L4542L
tp354
a(g121
L30984L
tp355
a(g123
L6436L
tp356
a(g125
L10963L
tp357
a(g127
L5896L
tp358
a(g129
L10950L
tp359
a(g131
L14001L
tp360
a(g133
L6494L
tp361
a(g135
L4439L
tp362
a(g137
L4586L
tp363
a(g139
L6357L
tp364
a(g141
L594L
tp365
a(g143
L677L
tp366
a(g145
L759L
tp367
a(g147
L4118L
tp368
a(g149
L5302L
tp369
a(g151
L4366L
tp370
a(g153
L5112L
tp371
a(g155
L5471L
tp372
a(g157
L22810L
tp373
a(g159
L28144L
tp374
a(g161
L4684L
tp375
a(g163
L10829L
tp376
a(g165
L4546L
tp377
a(g167
L13967L
tp378
a(g169
L4405L
tp379
a(g171
L4838L
tp380
a(g173
L10870L
tp381
a(g175
L5695L
tp382
a(g177
L5582L
tp383
a(g179
L3L
tp384
a(g181
L17965L
tp385
a(g183
L10840L
tp386
a(g185
L3404L
tp387
a(g187
L6169L
tp388
a(g189
L28251L
tp389
a(g191
L3518L
tp390
a(g193
L13274L
tp391
a(g195
L13644L
tp392
a(g197
L14427L
tp393
a(g199
L2364L
tp394
a(g201
L5161L
tp395
a(g203
L10905L
tp396
a(g205
L5658L
tp397
a(g207
L6389L
tp398
a(g209
L7644L
tp399
a(g211
L4538L
tp400
a(g213
L4475L
tp401
a(g215
L20900L
tp402
a(g217
L4423L
tp403
a(g219
L2991L
tp404
a(g221
L2835L
tp405
a(g223
L12827L
tp406
a(g225
L10929L
tp407
a(g227
L14078L
tp408
a(g229
L5712L
tp409
a(g231
L4368L
tp410
a(g233
L5662L
tp411
a(g235
L4408L
tp412
a(g237
L10860L
tp413
a(g239
L5682L
tp414
a(g241
L5705L
tp415
a(g243
L10876L
tp416
a(g245
L10886L
tp417
a(g247
L14396L
tp418
a(g249
L33137L
tp419
a(g251
L2841L
tp420
a(g253
L5114L
tp421
a(g255
L15840L
tp422
a(g257
L6747L
tp423
a(g259
L4550L
tp424
a(g261
L6358L
tp425
a(g263
L4583L
tp426
a(g265
L28040L
tp427
a(g267
L5126L
tp428
a(g269
L4609L
tp429
a(g271
L10848L
tp430
a(g273
L20770L
tp431
a(g275
L201L
tp432
a(g277
L4411L
tp433
a(g279
L21900L
tp434
a(g281
L12918L
tp435
a(g283
L7683L
tp436
a(g285
L33512L
tp437
a(g287
L4412L
tp438
a(g289
L15852L
tp439
a(g291
L10192L
tp440
a(g293
L14288L
tp441
aaI725976
a.