(lp1
(lp2
(Vbiological_process
p3
I338523
tp4
a(Vcellular_component
p5
I117504
tp6
a(Vmolecular_function
p7
I94725
tp8
a(Vorganelle
p9
I32471
tp10
a(Vanatomical structure development
p11
I22760
tp12
a(Vtransport
p13
I20409
tp14
a(Vcellular nitrogen compound metabolic process
p15
I18198
tp16
a(Vsignal transduction
p17
I14844
tp18
a(Vresponse to stress
p19
I14024
tp20
a(Vprotein complex
p21
I13406
tp22
a(Vbiosynthetic process
p23
I12808
tp24
a(Vsmall molecule metabolic process
p25
I12396
tp26
a(Vion binding
p27
I11628
tp28
a(Vcellular protein modification process
p29
I9763
tp30
a(Vcatabolic process
p31
I9143
tp32
a(Vimmune system process
p33
I6652
tp34
a(Vcellular component assembly
p35
I5927
tp36
a(Vcytosol
p37
I5838
tp38
a(Vlipid metabolic process
p39
I5491
tp40
a(Vcell differentiation
p41
I5172
tp42
a(Venzyme binding
p43
I4991
tp44
a(Vplasma membrane
p45
I4455
tp46
a(VDNA metabolic process
p47
I4379
tp48
a(Vtransmembrane transporter activity
p49
I4237
tp50
a(Vnucleus
p51
I4129
tp52
a(Vcarbohydrate metabolic process
p53
I4048
tp54
a(Vnucleolus
p55
I4006
tp56
a(Vvesicle-mediated transport
p57
I3962
tp58
a(Vlocomotion
p59
I3665
tp60
a(Vchromosome organization
p61
I3663
tp62
a(Vmacromolecular complex assembly
p63
I3428
tp64
a(Vanatomical structure formation involved in morphogenesis
p65
I3268
tp66
a(Voxidoreductase activity
p67
I3256
tp68
a(Vnucleobase-containing compound catabolic process
p69
I3212
tp70
a(Vcytoplasm
p71
I3192
tp72
a(Vkinase activity
p73
I3187
tp74
a(Vhomeostatic process
p75
I3132
tp76
a(Vtransmembrane transport
p77
I3101
tp78
a(VDNA binding
p79
I2931
tp80
a(Vembryo development
p81
I2922
tp82
a(Vgrowth
p83
I2889
tp84
a(Vcytoskeletal protein binding
p85
I2842
tp86
a(Vprotein complex assembly
p87
I2717
tp88
a(Vcytoskeleton organization
p89
I2691
tp90
a(Vprotein maturation
p91
I2666
tp92
a(VRNA binding
p93
I2608
tp94
a(Vcell motility
p95
I2492
tp96
a(Vcellular amino acid metabolic process
p97
I2332
tp98
a(Vmitochondrion
p99
I2308
tp100
a(Vneurological system process
p101
I2232
tp102
a(VGolgi apparatus
p103
I2148
tp104
a(VATPase activity
p105
I2096
tp106
a(Vcytoskeleton
p107
I1971
tp108
a(Vcytoplasmic membrane-bounded vesicle
p109
I1888
tp110
a(Vpeptidase activity
p111
I1792
tp112
a(Vendoplasmic reticulum
p113
I1789
tp114
a(Vlipid binding
p115
I1779
tp116
a(Vmicrotubule organizing center
p117
I1724
tp118
a(Vmembrane organization
p119
I1675
tp120
a(Vligase activity
p121
I1658
tp122
a(Vsignal transducer activity
p123
I1654
tp124
a(Vcell death
p125
I1633
tp126
a(Vendosome
p127
I1588
tp128
a(Vnucleoplasm
p129
I1553
tp130
a(Vcell-cell signaling
p131
I1507
tp132
a(Venzyme regulator activity
p133
I1490
tp134
a(Vcell adhesion
p135
I1465
tp136
a(Vprotein targeting
p137
I1402
tp138
a(Vcell morphogenesis
p139
I1389
tp140
a(Vcell proliferation
p141
I1340
tp142
a(Vsulfur compound metabolic process
p143
I1283
tp144
a(Vtranscription factor binding
p145
I1258
tp146
a(Vcofactor metabolic process
p147
I1245
tp148
a(Vstructural molecule activity
p149
I1211
tp150
a(Vextracellular region
p151
I1185
tp152
a(Vprotein binding transcription factor activity
p153
I1123
tp154
a(VmRNA processing
p155
I1123
tp156
a(Vtransferase activity, transferring acyl groups
p157
I1063
tp158
a(Vgeneration of precursor metabolites and energy
p159
I1055
tp160
a(Vcilium
p161
I1031
tp162
a(Vvacuole
p163
I1025
tp164
a(Vplastid
p165
I1019
tp166
a(Vcell cycle
p167
I1011
tp168
a(Vsymbiosis, encompassing mutualism through parasitism
p169
I924
tp170
a(Vnucleic acid binding transcription factor activity
p171
I905
tp172
a(Vhelicase activity
p173
I889
tp174
a(Vreproduction
p175
I873
tp176
a(Vphosphatase activity
p177
I864
tp178
a(Vnucleocytoplasmic transport
p179
I789
tp180
a(Vtransferase activity, transferring glycosyl groups
p181
I754
tp182
a(Vlyase activity
p183
I748
tp184
a(Vcell division
p185
I730
tp186
a(Vprotein folding
p187
I678
tp188
a(Vextracellular matrix organization
p189
I659
tp190
a(Vextracellular space
p191
I647
tp192
a(Vmethyltransferase activity
p193
I639
tp194
a(Vcytoskeleton-dependent intracellular transport
p195
I605
tp196
a(Vnuclease activity
p197
I604
tp198
a(Vaging
p199
I593
tp200
a(Vexternal encapsulating structure
p201
I590
tp202
a(Vcell wall
p203
I582
tp204
a(Vribonucleoprotein complex assembly
p205
I580
tp206
a(Vcell junction organization
p207
I563
tp208
a(Vdevelopmental maturation
p209
I560
tp210
a(Vchromosome
p211
I545
tp212
a(Vsecondary metabolic process
p213
I538
tp214
a(Visomerase activity
p215
I537
tp216
a(Vnuclear envelope
p217
I481
tp218
a(Vhydrolase activity, acting on glycosyl bonds
p219
I477
tp220
a(VmRNA binding
p221
I474
tp222
a(Vcirculatory system process
p223
I470
tp224
a(Vlysosome
p225
I467
tp226
a(Vmitochondrion organization
p227
I467
tp228
a(VGTPase activity
p229
I464
tp230
a(Vcell wall organization or biogenesis
p231
I458
tp232
a(Vnucleotidyltransferase activity
p233
I414
tp234
a(Vchromosome segregation
p235
I400
tp236
a(Vmitosis
p237
I370
tp238
a(Vhistone binding
p239
I357
tp240
a(Vvacuolar transport
p241
I345
tp242
a(Vplasma membrane organization
p243
I344
tp244
a(VtRNA metabolic process
p245
I343
tp246
a(Vperoxisome
p247
I340
tp248
a(Vprotein binding, bridging
p249
I324
tp250
a(Vhydrolase activity, acting on carbon-nitrogen (but not peptide) bonds
p251
I322
tp252
a(Vstructural constituent of ribosome
p253
I319
tp254
a(Vtranslation
p255
I276
tp256
a(Vtranslation factor activity, nucleic acid binding
p257
I276
tp258
a(Vsmall conjugating protein binding
p259
I275
tp260
a(Vunfolded protein binding
p261
I255
tp262
a(Vlipid particle
p263
I224
tp264
a(Vproteinaceous extracellular matrix
p265
I224
tp266
a(Vribosome
p267
I208
tp268
a(Vprotein transporter activity
p269
I191
tp270
a(Vtransferase activity, transferring alkyl or aryl (other than methyl) groups
p271
I176
tp272
a(Vintracellular
p273
I162
tp274
a(Vribosome biogenesis
p275
I160
tp276
a(Vnuclear chromosome
p277
I150
tp278
a(Vpigmentation
p279
I135
tp280
a(Vthylakoid
p281
I134
tp282
a(VrRNA binding
p283
I100
tp284
a(Vnitrogen cycle metabolic process
p285
I47
tp286
a(Vtransposition
p287
I43
tp288
a(Vphotosynthesis
p289
I39
tp290
a(Vcell
p291
I8
tp292
a(Vcytoplasmic chromosome
p293
I6
tp294
a(VRNA modification guide activity
p295
I3
tp296
aa(lp297
(g3
L6372L
tp298
a(g5
L4365L
tp299
a(g7
L2787L
tp300
a(g9
L21685L
tp301
a(g11
L26888L
tp302
a(g13
L5491L
tp303
a(g15
L18268L
tp304
a(g17
L5801L
tp305
a(g19
L5613L
tp306
a(g21
L21693L
tp307
a(g23
L7192L
tp308
a(g25
L22689L
tp309
a(g27
L21630L
tp310
a(g29
L5168L
tp311
a(g31
L7190L
tp312
a(g33
L1781L
tp313
a(g35
L13633L
tp314
a(g37
L4599L
tp315
a(g39
L5326L
tp316
a(g41
L13924L
tp317
a(g43
L12968L
tp318
a(g45
L4644L
tp319
a(g47
L4995L
tp320
a(g49
L13690L
tp321
a(g51
L4422L
tp322
a(g53
L4725L
tp323
a(g55
L4507L
tp324
a(g57
L10381L
tp325
a(g59
L20507L
tp326
a(g61
L28228L
tp327
a(g63
L31581L
tp328
a(g65
L26682L
tp329
a(g67
L10598L
tp330
a(g69
L18282L
tp331
a(g71
L4514L
tp332
a(g73
L10466L
tp333
a(g75
L21086L
tp334
a(g77
L29927L
tp335
a(g79
L2790L
tp336
a(g81
L7881L
tp337
a(g83
L20503L
tp338
a(g85
L6320L
tp339
a(g87
L5165L
tp340
a(g89
L5663L
tp341
a(g91
L28535L
tp342
a(g93
L2830L
tp343
a(g95
L26901L
tp344
a(g97
L5218L
tp345
a(g99
L4515L
tp346
a(g101
L27837L
tp347
a(g103
L4567L
tp348
a(g105
L10963L
tp349
a(g107
L4621L
tp350
a(g109
L10229L
tp351
a(g111
L6448L
tp352
a(g113
L4556L
tp353
a(g115
L6500L
tp354
a(g117
L4586L
tp355
a(g119
L30984L
tp356
a(g121
L10950L
tp357
a(g123
L3827L
tp358
a(g125
L6436L
tp359
a(g127
L4542L
tp360
a(g129
L4439L
tp361
a(g131
L5896L
tp362
a(g133
L14001L
tp363
a(g135
L5791L
tp364
a(g137
L5302L
tp365
a(g139
L594L
tp366
a(g141
L6494L
tp367
a(g143
L5471L
tp368
a(g145
L6357L
tp369
a(g147
L28144L
tp370
a(g149
L4118L
tp371
a(g151
L4366L
tp372
a(g153
L677L
tp373
a(g155
L5112L
tp374
a(g157
L10829L
tp375
a(g159
L4838L
tp376
a(g161
L4684L
tp377
a(g163
L4546L
tp378
a(g165
L7644L
tp379
a(g167
L5695L
tp380
a(g169
L22810L
tp381
a(g171
L759L
tp382
a(g173
L3404L
tp383
a(g175
L3L
tp384
a(g177
L10870L
tp385
a(g179
L5582L
tp386
a(g181
L10840L
tp387
a(g183
L10905L
tp388
a(g185
L28251L
tp389
a(g187
L5161L
tp390
a(g189
L13967L
tp391
a(g191
L4405L
tp392
a(g193
L6389L
tp393
a(g195
L14427L
tp394
a(g197
L3518L
tp395
a(g199
L6169L
tp396
a(g201
L14078L
tp397
a(g203
L4408L
tp398
a(g205
L13644L
tp399
a(g207
L17965L
tp400
a(g209
L13274L
tp401
a(g211
L4475L
tp402
a(g213
L12827L
tp403
a(g215
L10929L
tp404
a(g217
L4423L
tp405
a(g219
L10876L
tp406
a(g221
L2835L
tp407
a(g223
L2364L
tp408
a(g225
L4538L
tp409
a(g227
L5658L
tp410
a(g229
L2991L
tp411
a(g231
L33137L
tp412
a(g233
L10860L
tp413
a(g235
L5705L
tp414
a(g237
L5712L
tp415
a(g239
L20900L
tp416
a(g241
L5682L
tp417
a(g243
L5662L
tp418
a(g245
L5114L
tp419
a(g247
L4550L
tp420
a(g249
L14396L
tp421
a(g251
L10886L
tp422
a(g253
L2841L
tp423
a(g255
L5126L
tp424
a(g257
L6358L
tp425
a(g259
L15840L
tp426
a(g261
L28040L
tp427
a(g263
L4583L
tp428
a(g265
L4368L
tp429
a(g267
L4609L
tp430
a(g269
L6747L
tp431
a(g271
L10848L
tp432
a(g273
L4411L
tp433
a(g275
L20770L
tp434
a(g277
L201L
tp435
a(g279
L21900L
tp436
a(g281
L7683L
tp437
a(g283
L12918L
tp438
a(g285
L33512L
tp439
a(g287
L15852L
tp440
a(g289
L10192L
tp441
a(g291
L4412L
tp442
a(g293
L202L
tp443
a(g295
L14288L
tp444
aaI945920
a.