(lp1
(lp2
(Vbiological_process
p3
I245392
tp4
a(Vcellular_component
p5
I81253
tp6
a(Vmolecular_function
p7
I65812
tp8
a(Vorganelle
p9
I21429
tp10
a(Vanatomical structure development
p11
I18330
tp12
a(Vtransport
p13
I14216
tp14
a(Vcellular nitrogen compound metabolic process
p15
I11433
tp16
a(Vsignal transduction
p17
I10752
tp18
a(Vprotein complex
p19
I8916
tp20
a(Vresponse to stress
p21
I8846
tp22
a(Vion binding
p23
I8116
tp24
a(Vsmall molecule metabolic process
p25
I7947
tp26
a(Vbiosynthetic process
p27
I7563
tp28
a(Vcellular protein modification process
p29
I5892
tp30
a(Vcatabolic process
p31
I5447
tp32
a(Vimmune system process
p33
I4655
tp34
a(Vcell differentiation
p35
I4093
tp36
a(Vcellular component assembly
p37
I3983
tp38
a(Vcytosol
p39
I3724
tp40
a(Vlipid metabolic process
p41
I3353
tp42
a(Venzyme binding
p43
I3279
tp44
a(Vtransmembrane transporter activity
p45
I3103
tp46
a(Vplasma membrane
p47
I3043
tp48
a(Vlocomotion
p49
I2804
tp50
a(Vvesicle-mediated transport
p51
I2773
tp52
a(Vnucleus
p53
I2725
tp54
a(Vnucleolus
p55
I2723
tp56
a(Vanatomical structure formation involved in morphogenesis
p57
I2688
tp58
a(VDNA metabolic process
p59
I2605
tp60
a(Vsignal transducer activity
p61
I2491
tp62
a(Vchromosome organization
p63
I2372
tp64
a(Vhomeostatic process
p65
I2366
tp66
a(VDNA binding
p67
I2267
tp68
a(Vmacromolecular complex assembly
p69
I2253
tp70
a(Vtransmembrane transport
p71
I2223
tp72
a(Vcytoplasm
p73
I2208
tp74
a(Vcarbohydrate metabolic process
p75
I2149
tp76
a(Vneurological system process
p77
I2060
tp78
a(Vembryo development
p79
I2043
tp80
a(Voxidoreductase activity
p81
I1981
tp82
a(Vcell motility
p83
I1928
tp84
a(Vgrowth
p85
I1915
tp86
a(Vnucleobase-containing compound catabolic process
p87
I1904
tp88
a(Vprotein maturation
p89
I1814
tp90
a(Vprotein complex assembly
p91
I1776
tp92
a(Vcytoskeletal protein binding
p93
I1726
tp94
a(Vcytoskeleton organization
p95
I1706
tp96
a(VRNA binding
p97
I1615
tp98
a(Vcell-cell signaling
p99
I1593
tp100
a(Vkinase activity
p101
I1585
tp102
a(Vcytoplasmic membrane-bounded vesicle
p103
I1555
tp104
a(Vcellular amino acid metabolic process
p105
I1516
tp106
a(Vlipid binding
p107
I1459
tp108
a(Vmitochondrion
p109
I1423
tp110
a(Vpeptidase activity
p111
I1368
tp112
a(VGolgi apparatus
p113
I1326
tp114
a(Vendoplasmic reticulum
p115
I1226
tp116
a(Vcell adhesion
p117
I1223
tp118
a(Vcytoskeleton
p119
I1213
tp120
a(Vcell death
p121
I1141
tp122
a(Vmembrane organization
p123
I1107
tp124
a(Vendosome
p125
I1082
tp126
a(Venzyme regulator activity
p127
I1075
tp128
a(Vcell proliferation
p129
I1070
tp130
a(Vnucleoplasm
p131
I1046
tp132
a(Vmicrotubule organizing center
p133
I1037
tp134
a(Vligase activity
p135
I988
tp136
a(VATPase activity
p137
I970
tp138
a(Vtranscription factor binding
p139
I963
tp140
a(Vcell morphogenesis
p141
I946
tp142
a(Vextracellular region
p143
I928
tp144
a(Vprotein binding transcription factor activity
p145
I914
tp146
a(Vsulfur compound metabolic process
p147
I850
tp148
a(Vstructural molecule activity
p149
I829
tp150
a(Vnucleic acid binding transcription factor activity
p151
I791
tp152
a(Vprotein targeting
p153
I766
tp154
a(VmRNA processing
p155
I716
tp156
a(Vcirculatory system process
p157
I709
tp158
a(Vtransferase activity, transferring acyl groups
p159
I669
tp160
a(Vvacuole
p161
I655
tp162
a(Vcofactor metabolic process
p163
I654
tp164
a(Vextracellular space
p165
I650
tp166
a(Vextracellular matrix organization
p167
I650
tp168
a(Vsymbiosis, encompassing mutualism through parasitism
p169
I631
tp170
a(Vcilium
p171
I628
tp172
a(Vgeneration of precursor metabolites and energy
p173
I598
tp174
a(Vphosphatase activity
p175
I583
tp176
a(Vtransferase activity, transferring glycosyl groups
p177
I555
tp178
a(Vcell cycle
p179
I550
tp180
a(Vreproduction
p181
I513
tp182
a(Vnucleocytoplasmic transport
p183
I513
tp184
a(Vcell junction organization
p185
I454
tp186
a(Vcell division
p187
I448
tp188
a(Vlyase activity
p189
I443
tp190
a(Vhelicase activity
p191
I417
tp192
a(Vaging
p193
I413
tp194
a(Vnuclease activity
p195
I410
tp196
a(Vplastid
p197
I407
tp198
a(Vribonucleoprotein complex assembly
p199
I395
tp200
a(Vmethyltransferase activity
p201
I395
tp202
a(Vlysosome
p203
I381
tp204
a(Vprotein folding
p205
I374
tp206
a(Vdevelopmental maturation
p207
I356
tp208
a(VGTPase activity
p209
I351
tp210
a(Vcytoskeleton-dependent intracellular transport
p211
I346
tp212
a(Vmitochondrion organization
p213
I324
tp214
a(Vchromosome
p215
I324
tp216
a(Vproteinaceous extracellular matrix
p217
I302
tp218
a(Vnuclear envelope
p219
I298
tp220
a(Visomerase activity
p221
I297
tp222
a(VmRNA binding
p223
I294
tp224
a(Vexternal encapsulating structure
p225
I290
tp226
a(Vcell wall
p227
I284
tp228
a(Vhistone binding
p229
I271
tp230
a(Vsecondary metabolic process
p231
I270
tp232
a(Vhydrolase activity, acting on glycosyl bonds
p233
I261
tp234
a(Vmitosis
p235
I254
tp236
a(Vnucleotidyltransferase activity
p237
I238
tp238
a(Vchromosome segregation
p239
I236
tp240
a(Vstructural constituent of ribosome
p241
I234
tp242
a(Vplasma membrane organization
p243
I227
tp244
a(Vhydrolase activity, acting on carbon-nitrogen (but not peptide) bonds
p245
I224
tp246
a(VtRNA metabolic process
p247
I222
tp248
a(Vvacuolar transport
p249
I215
tp250
a(Vcell wall organization or biogenesis
p251
I203
tp252
a(Vperoxisome
p253
I189
tp254
a(Vtranslation
p255
I174
tp256
a(Vtranslation factor activity, nucleic acid binding
p257
I169
tp258
a(Vlipid particle
p259
I168
tp260
a(Vsmall conjugating protein binding
p261
I161
tp262
a(Vunfolded protein binding
p263
I158
tp264
a(Vprotein binding, bridging
p265
I158
tp266
a(Vprotein transporter activity
p267
I146
tp268
a(Vribosome
p269
I138
tp270
a(Vtransferase activity, transferring alkyl or aryl (other than methyl) groups
p271
I118
tp272
a(Vintracellular
p273
I102
tp274
a(Vnuclear chromosome
p275
I101
tp276
a(Vribosome biogenesis
p277
I94
tp278
a(Vpigmentation
p279
I86
tp280
a(VrRNA binding
p281
I82
tp282
a(Vthylakoid
p283
I37
tp284
a(Vnitrogen cycle metabolic process
p285
I27
tp286
a(Vcell
p287
I12
tp288
a(Vtransposition
p289
I8
tp290
a(Vphotosynthesis
p291
I6
tp292
a(VRNA modification guide activity
p293
I2
tp294
aa(lp295
(g3
L6372L
tp296
a(g5
L4365L
tp297
a(g7
L2787L
tp298
a(g9
L21685L
tp299
a(g11
L26888L
tp300
a(g13
L5491L
tp301
a(g15
L18268L
tp302
a(g17
L5801L
tp303
a(g19
L21693L
tp304
a(g21
L5613L
tp305
a(g23
L21630L
tp306
a(g25
L22689L
tp307
a(g27
L7192L
tp308
a(g29
L5168L
tp309
a(g31
L7190L
tp310
a(g33
L1781L
tp311
a(g35
L13924L
tp312
a(g37
L13633L
tp313
a(g39
L4599L
tp314
a(g41
L5326L
tp315
a(g43
L12968L
tp316
a(g45
L13690L
tp317
a(g47
L4644L
tp318
a(g49
L20507L
tp319
a(g51
L10381L
tp320
a(g53
L4422L
tp321
a(g55
L4507L
tp322
a(g57
L26682L
tp323
a(g59
L4995L
tp324
a(g61
L3827L
tp325
a(g63
L28228L
tp326
a(g65
L21086L
tp327
a(g67
L2790L
tp328
a(g69
L31581L
tp329
a(g71
L29927L
tp330
a(g73
L4514L
tp331
a(g75
L4725L
tp332
a(g77
L27837L
tp333
a(g79
L7881L
tp334
a(g81
L10598L
tp335
a(g83
L26901L
tp336
a(g85
L20503L
tp337
a(g87
L18282L
tp338
a(g89
L28535L
tp339
a(g91
L5165L
tp340
a(g93
L6320L
tp341
a(g95
L5663L
tp342
a(g97
L2830L
tp343
a(g99
L5896L
tp344
a(g101
L10466L
tp345
a(g103
L10229L
tp346
a(g105
L5218L
tp347
a(g107
L6500L
tp348
a(g109
L4515L
tp349
a(g111
L6448L
tp350
a(g113
L4567L
tp351
a(g115
L4556L
tp352
a(g117
L5791L
tp353
a(g119
L4621L
tp354
a(g121
L6436L
tp355
a(g123
L30984L
tp356
a(g125
L4542L
tp357
a(g127
L14001L
tp358
a(g129
L6494L
tp359
a(g131
L4439L
tp360
a(g133
L4586L
tp361
a(g135
L10950L
tp362
a(g137
L10963L
tp363
a(g139
L6357L
tp364
a(g141
L594L
tp365
a(g143
L4366L
tp366
a(g145
L677L
tp367
a(g147
L5471L
tp368
a(g149
L4118L
tp369
a(g151
L759L
tp370
a(g153
L5302L
tp371
a(g155
L5112L
tp372
a(g157
L2364L
tp373
a(g159
L10829L
tp374
a(g161
L4546L
tp375
a(g163
L28144L
tp376
a(g165
L4405L
tp377
a(g167
L13967L
tp378
a(g169
L22810L
tp379
a(g171
L4684L
tp380
a(g173
L4838L
tp381
a(g175
L10870L
tp382
a(g177
L10840L
tp383
a(g179
L5695L
tp384
a(g181
L3L
tp385
a(g183
L5582L
tp386
a(g185
L17965L
tp387
a(g187
L28251L
tp388
a(g189
L10905L
tp389
a(g191
L3404L
tp390
a(g193
L6169L
tp391
a(g195
L3518L
tp392
a(g197
L7644L
tp393
a(g199
L13644L
tp394
a(g201
L6389L
tp395
a(g203
L4538L
tp396
a(g205
L5161L
tp397
a(g207
L13274L
tp398
a(g209
L2991L
tp399
a(g211
L14427L
tp400
a(g213
L5658L
tp401
a(g215
L4475L
tp402
a(g217
L4368L
tp403
a(g219
L4423L
tp404
a(g221
L10929L
tp405
a(g223
L2835L
tp406
a(g225
L14078L
tp407
a(g227
L4408L
tp408
a(g229
L20900L
tp409
a(g231
L12827L
tp410
a(g233
L10876L
tp411
a(g235
L5712L
tp412
a(g237
L10860L
tp413
a(g239
L5705L
tp414
a(g241
L2841L
tp415
a(g243
L5662L
tp416
a(g245
L10886L
tp417
a(g247
L5114L
tp418
a(g249
L5682L
tp419
a(g251
L33137L
tp420
a(g253
L4550L
tp421
a(g255
L5126L
tp422
a(g257
L6358L
tp423
a(g259
L4583L
tp424
a(g261
L15840L
tp425
a(g263
L28040L
tp426
a(g265
L14396L
tp427
a(g267
L6747L
tp428
a(g269
L4609L
tp429
a(g271
L10848L
tp430
a(g273
L4411L
tp431
a(g275
L201L
tp432
a(g277
L20770L
tp433
a(g279
L21900L
tp434
a(g281
L12918L
tp435
a(g283
L7683L
tp436
a(g285
L33512L
tp437
a(g287
L4412L
tp438
a(g289
L15852L
tp439
a(g291
L10192L
tp440
a(g293
L14288L
tp441
aaI659950
a.