(lp1
(lp2
(Vbiological_process
p3
I196368
tp4
a(Vcellular_component
p5
I67664
tp6
a(Vmolecular_function
p7
I55836
tp8
a(Vorganelle
p9
I17967
tp10
a(Vanatomical structure development
p11
I14247
tp12
a(Vtransport
p13
I11280
tp14
a(Vcellular nitrogen compound metabolic process
p15
I10041
tp16
a(Vsignal transduction
p17
I9096
tp18
a(Vprotein complex
p19
I8230
tp20
a(Vresponse to stress
p21
I7612
tp22
a(Vion binding
p23
I7016
tp24
a(Vsmall molecule metabolic process
p25
I6925
tp26
a(Vbiosynthetic process
p27
I6260
tp28
a(Vcellular protein modification process
p29
I5304
tp30
a(Vcatabolic process
p31
I4953
tp32
a(Vimmune system process
p33
I4121
tp34
a(Vcellular component assembly
p35
I3623
tp36
a(Vcytosol
p37
I3554
tp38
a(Vcell differentiation
p39
I3259
tp40
a(Venzyme binding
p41
I3097
tp42
a(Vlipid metabolic process
p43
I2917
tp44
a(Vnucleolus
p45
I2542
tp46
a(Vlocomotion
p47
I2478
tp48
a(Vplasma membrane
p49
I2475
tp50
a(Vvesicle-mediated transport
p51
I2407
tp52
a(VDNA metabolic process
p53
I2314
tp54
a(Vnucleus
p55
I2308
tp56
a(Vanatomical structure formation involved in morphogenesis
p57
I2199
tp58
a(Vchromosome organization
p59
I2164
tp60
a(Vmacromolecular complex assembly
p61
I2151
tp62
a(Vtransmembrane transporter activity
p63
I2134
tp64
a(Vcarbohydrate metabolic process
p65
I2052
tp66
a(VDNA binding
p67
I2035
tp68
a(Vhomeostatic process
p69
I1995
tp70
a(Vnucleobase-containing compound catabolic process
p71
I1797
tp72
a(Vembryo development
p73
I1796
tp74
a(Vcell motility
p75
I1760
tp76
a(Vcytoplasm
p77
I1721
tp78
a(Vtransmembrane transport
p79
I1713
tp80
a(Vcytoskeleton organization
p81
I1658
tp82
a(Vprotein maturation
p83
I1655
tp84
a(Voxidoreductase activity
p85
I1655
tp86
a(Vcytoskeletal protein binding
p87
I1643
tp88
a(Vprotein complex assembly
p89
I1640
tp90
a(Vneurological system process
p91
I1633
tp92
a(Vgrowth
p93
I1605
tp94
a(VRNA binding
p95
I1534
tp96
a(Vkinase activity
p97
I1469
tp98
a(Vcellular amino acid metabolic process
p99
I1379
tp100
a(Vsignal transducer activity
p101
I1322
tp102
a(Vcytoplasmic membrane-bounded vesicle
p103
I1290
tp104
a(Vmitochondrion
p105
I1286
tp106
a(VGolgi apparatus
p107
I1256
tp108
a(Vlipid binding
p109
I1169
tp110
a(Vpeptidase activity
p111
I1119
tp112
a(Vmembrane organization
p113
I1069
tp114
a(Vcytoskeleton
p115
I1067
tp116
a(Vendoplasmic reticulum
p117
I1048
tp118
a(Venzyme regulator activity
p119
I1044
tp120
a(VATPase activity
p121
I1035
tp122
a(Vcell adhesion
p123
I1027
tp124
a(Vcell death
p125
I1004
tp126
a(Vnucleoplasm
p127
I967
tp128
a(Vendosome
p129
I961
tp130
a(Vmicrotubule organizing center
p131
I923
tp132
a(Vcell-cell signaling
p133
I919
tp134
a(Vligase activity
p135
I915
tp136
a(Vcell proliferation
p137
I889
tp138
a(Vtranscription factor binding
p139
I889
tp140
a(Vstructural molecule activity
p141
I884
tp142
a(Vprotein binding transcription factor activity
p143
I832
tp144
a(Vcell morphogenesis
p145
I776
tp146
a(Vsulfur compound metabolic process
p147
I745
tp148
a(Vprotein targeting
p149
I735
tp150
a(Vextracellular region
p151
I691
tp152
a(VmRNA processing
p153
I691
tp154
a(Vnucleic acid binding transcription factor activity
p155
I686
tp156
a(Vsymbiosis, encompassing mutualism through parasitism
p157
I613
tp158
a(Vgeneration of precursor metabolites and energy
p159
I613
tp160
a(Vcofactor metabolic process
p161
I584
tp162
a(Vtransferase activity, transferring acyl groups
p163
I584
tp164
a(Vextracellular matrix organization
p165
I569
tp166
a(Vvacuole
p167
I544
tp168
a(Vextracellular space
p169
I529
tp170
a(Vcilium
p171
I522
tp172
a(Vnucleocytoplasmic transport
p173
I496
tp174
a(Vreproduction
p175
I454
tp176
a(Vphosphatase activity
p177
I451
tp178
a(Vtransferase activity, transferring glycosyl groups
p179
I430
tp180
a(Vcell cycle
p181
I429
tp182
a(Vribonucleoprotein complex assembly
p183
I418
tp184
a(Vhelicase activity
p185
I402
tp186
a(Vcell junction organization
p187
I399
tp188
a(Vaging
p189
I395
tp190
a(Vplastid
p191
I375
tp192
a(Vlyase activity
p193
I371
tp194
a(Vprotein folding
p195
I370
tp196
a(Vcell division
p197
I363
tp198
a(Vdevelopmental maturation
p199
I339
tp200
a(Vcytoskeleton-dependent intracellular transport
p201
I332
tp202
a(Vmitochondrion organization
p203
I323
tp204
a(Vnuclease activity
p205
I322
tp206
a(Vcirculatory system process
p207
I312
tp208
a(Vmethyltransferase activity
p209
I312
tp210
a(Vlysosome
p211
I307
tp212
a(VGTPase activity
p213
I287
tp214
a(VmRNA binding
p215
I287
tp216
a(Vchromosome
p217
I275
tp218
a(Vnuclear envelope
p219
I270
tp220
a(Vexternal encapsulating structure
p221
I265
tp222
a(Vcell wall
p223
I259
tp224
a(Vhistone binding
p225
I259
tp226
a(Visomerase activity
p227
I255
tp228
a(Vsecondary metabolic process
p229
I254
tp230
a(Vhydrolase activity, acting on glycosyl bonds
p231
I243
tp232
a(Vstructural constituent of ribosome
p233
I224
tp234
a(Vchromosome segregation
p235
I213
tp236
a(Vnucleotidyltransferase activity
p237
I210
tp238
a(VtRNA metabolic process
p239
I206
tp240
a(Vmitosis
p241
I203
tp242
a(Vplasma membrane organization
p243
I202
tp244
a(Vproteinaceous extracellular matrix
p245
I200
tp246
a(Vvacuolar transport
p247
I195
tp248
a(Vcell wall organization or biogenesis
p249
I189
tp250
a(Vhydrolase activity, acting on carbon-nitrogen (but not peptide) bonds
p251
I186
tp252
a(Vprotein binding, bridging
p253
I180
tp254
a(Vsmall conjugating protein binding
p255
I173
tp256
a(Vtranslation factor activity, nucleic acid binding
p257
I164
tp258
a(Vunfolded protein binding
p259
I162
tp260
a(Vperoxisome
p261
I155
tp262
a(Vlipid particle
p263
I149
tp264
a(Vtranslation
p265
I146
tp266
a(Vprotein transporter activity
p267
I134
tp268
a(Vribosome
p269
I113
tp270
a(Vtransferase activity, transferring alkyl or aryl (other than methyl) groups
p271
I91
tp272
a(Vnuclear chromosome
p273
I89
tp274
a(Vintracellular
p275
I85
tp276
a(Vribosome biogenesis
p277
I82
tp278
a(Vpigmentation
p279
I73
tp280
a(VrRNA binding
p281
I65
tp282
a(Vthylakoid
p283
I30
tp284
a(Vnitrogen cycle metabolic process
p285
I29
tp286
a(Vcell
p287
I11
tp288
a(Vphotosynthesis
p289
I7
tp290
a(Vtransposition
p291
I6
tp292
a(VRNA modification guide activity
p293
I1
tp294
aa(lp295
(g3
L6372L
tp296
a(g5
L4365L
tp297
a(g7
L2787L
tp298
a(g9
L21685L
tp299
a(g11
L26888L
tp300
a(g13
L5491L
tp301
a(g15
L18268L
tp302
a(g17
L5801L
tp303
a(g19
L21693L
tp304
a(g21
L5613L
tp305
a(g23
L21630L
tp306
a(g25
L22689L
tp307
a(g27
L7192L
tp308
a(g29
L5168L
tp309
a(g31
L7190L
tp310
a(g33
L1781L
tp311
a(g35
L13633L
tp312
a(g37
L4599L
tp313
a(g39
L13924L
tp314
a(g41
L12968L
tp315
a(g43
L5326L
tp316
a(g45
L4507L
tp317
a(g47
L20507L
tp318
a(g49
L4644L
tp319
a(g51
L10381L
tp320
a(g53
L4995L
tp321
a(g55
L4422L
tp322
a(g57
L26682L
tp323
a(g59
L28228L
tp324
a(g61
L31581L
tp325
a(g63
L13690L
tp326
a(g65
L4725L
tp327
a(g67
L2790L
tp328
a(g69
L21086L
tp329
a(g71
L18282L
tp330
a(g73
L7881L
tp331
a(g75
L26901L
tp332
a(g77
L4514L
tp333
a(g79
L29927L
tp334
a(g81
L5663L
tp335
a(g83
L28535L
tp336
a(g85
L10598L
tp337
a(g87
L6320L
tp338
a(g89
L5165L
tp339
a(g91
L27837L
tp340
a(g93
L20503L
tp341
a(g95
L2830L
tp342
a(g97
L10466L
tp343
a(g99
L5218L
tp344
a(g101
L3827L
tp345
a(g103
L10229L
tp346
a(g105
L4515L
tp347
a(g107
L4567L
tp348
a(g109
L6500L
tp349
a(g111
L6448L
tp350
a(g113
L30984L
tp351
a(g115
L4621L
tp352
a(g117
L4556L
tp353
a(g119
L14001L
tp354
a(g121
L10963L
tp355
a(g123
L5791L
tp356
a(g125
L6436L
tp357
a(g127
L4439L
tp358
a(g129
L4542L
tp359
a(g131
L4586L
tp360
a(g133
L5896L
tp361
a(g135
L10950L
tp362
a(g137
L6494L
tp363
a(g139
L6357L
tp364
a(g141
L4118L
tp365
a(g143
L677L
tp366
a(g145
L594L
tp367
a(g147
L5471L
tp368
a(g149
L5302L
tp369
a(g151
L4366L
tp370
a(g153
L5112L
tp371
a(g155
L759L
tp372
a(g157
L22810L
tp373
a(g159
L4838L
tp374
a(g161
L28144L
tp375
a(g163
L10829L
tp376
a(g165
L13967L
tp377
a(g167
L4546L
tp378
a(g169
L4405L
tp379
a(g171
L4684L
tp380
a(g173
L5582L
tp381
a(g175
L3L
tp382
a(g177
L10870L
tp383
a(g179
L10840L
tp384
a(g181
L5695L
tp385
a(g183
L13644L
tp386
a(g185
L3404L
tp387
a(g187
L17965L
tp388
a(g189
L6169L
tp389
a(g191
L7644L
tp390
a(g193
L10905L
tp391
a(g195
L5161L
tp392
a(g197
L28251L
tp393
a(g199
L13274L
tp394
a(g201
L14427L
tp395
a(g203
L5658L
tp396
a(g205
L3518L
tp397
a(g207
L2364L
tp398
a(g209
L6389L
tp399
a(g211
L4538L
tp400
a(g213
L2991L
tp401
a(g215
L2835L
tp402
a(g217
L4475L
tp403
a(g219
L4423L
tp404
a(g221
L14078L
tp405
a(g223
L4408L
tp406
a(g225
L20900L
tp407
a(g227
L10929L
tp408
a(g229
L12827L
tp409
a(g231
L10876L
tp410
a(g233
L2841L
tp411
a(g235
L5705L
tp412
a(g237
L10860L
tp413
a(g239
L5114L
tp414
a(g241
L5712L
tp415
a(g243
L5662L
tp416
a(g245
L4368L
tp417
a(g247
L5682L
tp418
a(g249
L33137L
tp419
a(g251
L10886L
tp420
a(g253
L14396L
tp421
a(g255
L15840L
tp422
a(g257
L6358L
tp423
a(g259
L28040L
tp424
a(g261
L4550L
tp425
a(g263
L4583L
tp426
a(g265
L5126L
tp427
a(g267
L6747L
tp428
a(g269
L4609L
tp429
a(g271
L10848L
tp430
a(g273
L201L
tp431
a(g275
L4411L
tp432
a(g277
L20770L
tp433
a(g279
L21900L
tp434
a(g281
L12918L
tp435
a(g283
L7683L
tp436
a(g285
L33512L
tp437
a(g287
L4412L
tp438
a(g289
L10192L
tp439
a(g291
L15852L
tp440
a(g293
L14288L
tp441
aaI549306
a.