(lp1
(lp2
(Vbiological_process
p3
I156059
tp4
a(Vcellular_component
p5
I52158
tp6
a(Vmolecular_function
p7
I43660
tp8
a(Vorganelle
p9
I13768
tp10
a(Vanatomical structure development
p11
I11756
tp12
a(Vtransport
p13
I8441
tp14
a(Vcellular nitrogen compound metabolic process
p15
I8381
tp16
a(Vsignal transduction
p17
I7156
tp18
a(Vprotein complex
p19
I6189
tp20
a(Vresponse to stress
p21
I5963
tp22
a(Vsmall molecule metabolic process
p23
I5811
tp24
a(Vbiosynthetic process
p25
I5573
tp26
a(Vion binding
p27
I5389
tp28
a(Vcellular protein modification process
p29
I4114
tp30
a(Vcatabolic process
p31
I3922
tp32
a(Vimmune system process
p33
I3407
tp34
a(Vcell differentiation
p35
I2835
tp36
a(Vcellular component assembly
p37
I2740
tp38
a(Vcytosol
p39
I2598
tp40
a(Venzyme binding
p41
I2252
tp42
a(Vlipid metabolic process
p43
I2221
tp44
a(Vlocomotion
p45
I1939
tp46
a(VDNA metabolic process
p47
I1929
tp48
a(Vplasma membrane
p49
I1882
tp50
a(Vnucleolus
p51
I1808
tp52
a(Vnucleus
p53
I1799
tp54
a(Vvesicle-mediated transport
p55
I1798
tp56
a(Vanatomical structure formation involved in morphogenesis
p57
I1774
tp58
a(Vcarbohydrate metabolic process
p59
I1623
tp60
a(Vchromosome organization
p61
I1574
tp62
a(Vtransmembrane transporter activity
p63
I1569
tp64
a(Vmacromolecular complex assembly
p65
I1567
tp66
a(Vnucleobase-containing compound catabolic process
p67
I1500
tp68
a(Vcytoplasm
p69
I1486
tp70
a(VDNA binding
p71
I1469
tp72
a(Voxidoreductase activity
p73
I1431
tp74
a(Vhomeostatic process
p75
I1422
tp76
a(Vembryo development
p77
I1410
tp78
a(Vkinase activity
p79
I1385
tp80
a(Vcell motility
p81
I1382
tp82
a(Vgrowth
p83
I1303
tp84
a(Vcytoskeletal protein binding
p85
I1262
tp86
a(Vcytoskeleton organization
p87
I1234
tp88
a(Vcellular amino acid metabolic process
p89
I1229
tp90
a(Vtransmembrane transport
p91
I1224
tp92
a(Vprotein maturation
p93
I1222
tp94
a(Vprotein complex assembly
p95
I1203
tp96
a(Vneurological system process
p97
I1195
tp98
a(VRNA binding
p99
I1175
tp100
a(Vmitochondrion
p101
I991
tp102
a(Vsignal transducer activity
p103
I973
tp104
a(VATPase activity
p105
I956
tp106
a(Vcell adhesion
p107
I889
tp108
a(VGolgi apparatus
p109
I882
tp110
a(Vcytoplasmic membrane-bounded vesicle
p111
I879
tp112
a(Vcytoskeleton
p113
I851
tp114
a(Vcell death
p115
I845
tp116
a(Vpeptidase activity
p117
I842
tp118
a(Vlipid binding
p119
I804
tp120
a(Vendoplasmic reticulum
p121
I782
tp122
a(Vligase activity
p123
I756
tp124
a(Vmembrane organization
p125
I748
tp126
a(Vnucleoplasm
p127
I746
tp128
a(Vendosome
p129
I720
tp130
a(Vcell proliferation
p131
I699
tp132
a(Venzyme regulator activity
p133
I678
tp134
a(Vmicrotubule organizing center
p135
I670
tp136
a(Vsulfur compound metabolic process
p137
I635
tp138
a(Vtranscription factor binding
p139
I630
tp140
a(Vcell-cell signaling
p141
I630
tp142
a(Vstructural molecule activity
p143
I625
tp144
a(Vprotein binding transcription factor activity
p145
I618
tp146
a(Vcell morphogenesis
p147
I617
tp148
a(Vextracellular region
p149
I562
tp150
a(Vprotein targeting
p151
I558
tp152
a(VmRNA processing
p153
I522
tp154
a(Vcofactor metabolic process
p155
I489
tp156
a(Vnucleic acid binding transcription factor activity
p157
I484
tp158
a(Vsymbiosis, encompassing mutualism through parasitism
p159
I443
tp160
a(Vgeneration of precursor metabolites and energy
p161
I443
tp162
a(Vtransferase activity, transferring acyl groups
p163
I436
tp164
a(Vcilium
p165
I422
tp166
a(Vvacuole
p167
I414
tp168
a(Vtransferase activity, transferring glycosyl groups
p169
I399
tp170
a(Vextracellular matrix organization
p171
I398
tp172
a(Vcell cycle
p173
I375
tp174
a(Vhelicase activity
p175
I355
tp176
a(Vextracellular space
p177
I351
tp178
a(Vnucleocytoplasmic transport
p179
I348
tp180
a(Vreproduction
p181
I339
tp182
a(Vphosphatase activity
p183
I338
tp184
a(Vcell junction organization
p185
I327
tp186
a(Vlyase activity
p187
I323
tp188
a(Vcell division
p189
I313
tp190
a(Vribonucleoprotein complex assembly
p191
I306
tp192
a(Vnuclease activity
p193
I291
tp194
a(Vplastid
p195
I285
tp196
a(Vaging
p197
I275
tp198
a(Vprotein folding
p199
I269
tp200
a(Vmethyltransferase activity
p201
I243
tp202
a(Vdevelopmental maturation
p203
I239
tp204
a(Vexternal encapsulating structure
p205
I239
tp206
a(Vchromosome
p207
I239
tp208
a(Vcell wall
p209
I234
tp210
a(Vmitochondrion organization
p211
I231
tp212
a(Vlysosome
p213
I229
tp214
a(VGTPase activity
p215
I228
tp216
a(Visomerase activity
p217
I216
tp218
a(VmRNA binding
p219
I216
tp220
a(Vcytoskeleton-dependent intracellular transport
p221
I213
tp222
a(Vnucleotidyltransferase activity
p223
I209
tp224
a(Vhydrolase activity, acting on glycosyl bonds
p225
I201
tp226
a(Vnuclear envelope
p227
I200
tp228
a(VtRNA metabolic process
p229
I190
tp230
a(Vcirculatory system process
p231
I186
tp232
a(Vhistone binding
p233
I184
tp234
a(Vsecondary metabolic process
p235
I183
tp236
a(Vstructural constituent of ribosome
p237
I181
tp238
a(Vchromosome segregation
p239
I169
tp240
a(Vcell wall organization or biogenesis
p241
I162
tp242
a(Vhydrolase activity, acting on carbon-nitrogen (but not peptide) bonds
p243
I162
tp244
a(Vmitosis
p245
I160
tp246
a(Vproteinaceous extracellular matrix
p247
I159
tp248
a(Vtranslation
p249
I150
tp250
a(Vplasma membrane organization
p251
I138
tp252
a(Vtranslation factor activity, nucleic acid binding
p253
I130
tp254
a(Vvacuolar transport
p255
I126
tp256
a(Vprotein binding, bridging
p257
I126
tp258
a(Vunfolded protein binding
p259
I122
tp260
a(Vlipid particle
p261
I118
tp262
a(Vprotein transporter activity
p263
I115
tp264
a(Vsmall conjugating protein binding
p265
I107
tp266
a(Vperoxisome
p267
I103
tp268
a(Vribosome
p269
I94
tp270
a(Vintracellular
p271
I85
tp272
a(Vtransferase activity, transferring alkyl or aryl (other than methyl) groups
p273
I84
tp274
a(Vpigmentation
p275
I71
tp276
a(Vnuclear chromosome
p277
I68
tp278
a(VrRNA binding
p279
I62
tp280
a(Vribosome biogenesis
p281
I58
tp282
a(Vthylakoid
p283
I22
tp284
a(Vnitrogen cycle metabolic process
p285
I14
tp286
a(Vtransposition
p287
I7
tp288
a(Vcell
p289
I5
tp290
a(Vphotosynthesis
p291
I4
tp292
a(VRNA modification guide activity
p293
I2
tp294
aa(lp295
(g3
L6372L
tp296
a(g5
L4365L
tp297
a(g7
L2787L
tp298
a(g9
L21685L
tp299
a(g11
L26888L
tp300
a(g13
L5491L
tp301
a(g15
L18268L
tp302
a(g17
L5801L
tp303
a(g19
L21693L
tp304
a(g21
L5613L
tp305
a(g23
L22689L
tp306
a(g25
L7192L
tp307
a(g27
L21630L
tp308
a(g29
L5168L
tp309
a(g31
L7190L
tp310
a(g33
L1781L
tp311
a(g35
L13924L
tp312
a(g37
L13633L
tp313
a(g39
L4599L
tp314
a(g41
L12968L
tp315
a(g43
L5326L
tp316
a(g45
L20507L
tp317
a(g47
L4995L
tp318
a(g49
L4644L
tp319
a(g51
L4507L
tp320
a(g53
L4422L
tp321
a(g55
L10381L
tp322
a(g57
L26682L
tp323
a(g59
L4725L
tp324
a(g61
L28228L
tp325
a(g63
L13690L
tp326
a(g65
L31581L
tp327
a(g67
L18282L
tp328
a(g69
L4514L
tp329
a(g71
L2790L
tp330
a(g73
L10598L
tp331
a(g75
L21086L
tp332
a(g77
L7881L
tp333
a(g79
L10466L
tp334
a(g81
L26901L
tp335
a(g83
L20503L
tp336
a(g85
L6320L
tp337
a(g87
L5663L
tp338
a(g89
L5218L
tp339
a(g91
L29927L
tp340
a(g93
L28535L
tp341
a(g95
L5165L
tp342
a(g97
L27837L
tp343
a(g99
L2830L
tp344
a(g101
L4515L
tp345
a(g103
L3827L
tp346
a(g105
L10963L
tp347
a(g107
L5791L
tp348
a(g109
L4567L
tp349
a(g111
L10229L
tp350
a(g113
L4621L
tp351
a(g115
L6436L
tp352
a(g117
L6448L
tp353
a(g119
L6500L
tp354
a(g121
L4556L
tp355
a(g123
L10950L
tp356
a(g125
L30984L
tp357
a(g127
L4439L
tp358
a(g129
L4542L
tp359
a(g131
L6494L
tp360
a(g133
L14001L
tp361
a(g135
L4586L
tp362
a(g137
L5471L
tp363
a(g139
L6357L
tp364
a(g141
L5896L
tp365
a(g143
L4118L
tp366
a(g145
L677L
tp367
a(g147
L594L
tp368
a(g149
L4366L
tp369
a(g151
L5302L
tp370
a(g153
L5112L
tp371
a(g155
L28144L
tp372
a(g157
L759L
tp373
a(g159
L22810L
tp374
a(g161
L4838L
tp375
a(g163
L10829L
tp376
a(g165
L4684L
tp377
a(g167
L4546L
tp378
a(g169
L10840L
tp379
a(g171
L13967L
tp380
a(g173
L5695L
tp381
a(g175
L3404L
tp382
a(g177
L4405L
tp383
a(g179
L5582L
tp384
a(g181
L3L
tp385
a(g183
L10870L
tp386
a(g185
L17965L
tp387
a(g187
L10905L
tp388
a(g189
L28251L
tp389
a(g191
L13644L
tp390
a(g193
L3518L
tp391
a(g195
L7644L
tp392
a(g197
L6169L
tp393
a(g199
L5161L
tp394
a(g201
L6389L
tp395
a(g203
L13274L
tp396
a(g205
L14078L
tp397
a(g207
L4475L
tp398
a(g209
L4408L
tp399
a(g211
L5658L
tp400
a(g213
L4538L
tp401
a(g215
L2991L
tp402
a(g217
L10929L
tp403
a(g219
L2835L
tp404
a(g221
L14427L
tp405
a(g223
L10860L
tp406
a(g225
L10876L
tp407
a(g227
L4423L
tp408
a(g229
L5114L
tp409
a(g231
L2364L
tp410
a(g233
L20900L
tp411
a(g235
L12827L
tp412
a(g237
L2841L
tp413
a(g239
L5705L
tp414
a(g241
L33137L
tp415
a(g243
L10886L
tp416
a(g245
L5712L
tp417
a(g247
L4368L
tp418
a(g249
L5126L
tp419
a(g251
L5662L
tp420
a(g253
L6358L
tp421
a(g255
L5682L
tp422
a(g257
L14396L
tp423
a(g259
L28040L
tp424
a(g261
L4583L
tp425
a(g263
L6747L
tp426
a(g265
L15840L
tp427
a(g267
L4550L
tp428
a(g269
L4609L
tp429
a(g271
L4411L
tp430
a(g273
L10848L
tp431
a(g275
L21900L
tp432
a(g277
L201L
tp433
a(g279
L12918L
tp434
a(g281
L20770L
tp435
a(g283
L7683L
tp436
a(g285
L33512L
tp437
a(g287
L15852L
tp438
a(g289
L4412L
tp439
a(g291
L10192L
tp440
a(g293
L14288L
tp441
aaI431402
a.