(lp1
(lp2
(Vbiological_process
p3
I223128
tp4
a(Vcellular_component
p5
I73112
tp6
a(Vmolecular_function
p7
I60975
tp8
a(Vorganelle
p9
I19747
tp10
a(Vanatomical structure development
p11
I16747
tp12
a(Vtransport
p13
I11700
tp14
a(Vcellular nitrogen compound metabolic process
p15
I11011
tp16
a(Vsignal transduction
p17
I10815
tp18
a(Vresponse to stress
p19
I8806
tp20
a(Vprotein complex
p21
I8702
tp22
a(Vion binding
p23
I7801
tp24
a(Vsmall molecule metabolic process
p25
I7800
tp26
a(Vbiosynthetic process
p27
I7124
tp28
a(Vcellular protein modification process
p29
I5936
tp30
a(Vcatabolic process
p31
I5624
tp32
a(Vimmune system process
p33
I5213
tp34
a(Vcellular component assembly
p35
I3891
tp36
a(Vcell differentiation
p37
I3865
tp38
a(Vcytosol
p39
I3806
tp40
a(Vlipid metabolic process
p41
I3459
tp42
a(Venzyme binding
p43
I3240
tp44
a(Vnucleolus
p45
I2802
tp46
a(Vlocomotion
p47
I2691
tp48
a(Vplasma membrane
p49
I2643
tp50
a(Vnucleus
p51
I2549
tp52
a(VDNA metabolic process
p53
I2410
tp54
a(Vvesicle-mediated transport
p55
I2393
tp56
a(Vmacromolecular complex assembly
p57
I2389
tp58
a(Vtransmembrane transporter activity
p59
I2389
tp60
a(Vanatomical structure formation involved in morphogenesis
p61
I2389
tp62
a(VDNA binding
p63
I2247
tp64
a(Vchromosome organization
p65
I2219
tp66
a(Vhomeostatic process
p67
I2209
tp68
a(Vcarbohydrate metabolic process
p69
I2166
tp70
a(Voxidoreductase activity
p71
I2104
tp72
a(Vprotein maturation
p73
I2089
tp74
a(Vembryo development
p75
I2032
tp76
a(Vcytoplasm
p77
I1999
tp78
a(Vnucleobase-containing compound catabolic process
p79
I1968
tp80
a(Vprotein complex assembly
p81
I1892
tp82
a(Vcell motility
p83
I1886
tp84
a(Vtransmembrane transport
p85
I1829
tp86
a(VRNA binding
p87
I1814
tp88
a(Vgrowth
p89
I1767
tp90
a(Vkinase activity
p91
I1702
tp92
a(Vsignal transducer activity
p93
I1641
tp94
a(Vcellular amino acid metabolic process
p95
I1578
tp96
a(Vcytoskeleton organization
p97
I1564
tp98
a(Vneurological system process
p99
I1552
tp100
a(Vcytoskeletal protein binding
p101
I1540
tp102
a(Vmitochondrion
p103
I1482
tp104
a(VGolgi apparatus
p105
I1354
tp106
a(Vcytoplasmic membrane-bounded vesicle
p107
I1319
tp108
a(Vpeptidase activity
p109
I1271
tp110
a(Vcell adhesion
p111
I1203
tp112
a(Vlipid binding
p113
I1195
tp114
a(Vendoplasmic reticulum
p115
I1187
tp116
a(Vcell proliferation
p117
I1174
tp118
a(Vcell death
p119
I1174
tp120
a(Vcytoskeleton
p121
I1128
tp122
a(Vligase activity
p123
I1088
tp124
a(Vnucleoplasm
p125
I1067
tp126
a(Vcell-cell signaling
p127
I1050
tp128
a(VATPase activity
p129
I1020
tp130
a(Vendosome
p131
I1017
tp132
a(Vmembrane organization
p133
I1008
tp134
a(Venzyme regulator activity
p135
I992
tp136
a(Vmicrotubule organizing center
p137
I954
tp138
a(Vtranscription factor binding
p139
I934
tp140
a(Vstructural molecule activity
p141
I883
tp142
a(Vnucleic acid binding transcription factor activity
p143
I865
tp144
a(Vprotein binding transcription factor activity
p145
I853
tp146
a(Vcell morphogenesis
p147
I821
tp148
a(Vprotein targeting
p149
I812
tp150
a(Vextracellular region
p151
I796
tp152
a(Vsulfur compound metabolic process
p153
I794
tp154
a(VmRNA processing
p155
I730
tp156
a(Vsymbiosis, encompassing mutualism through parasitism
p157
I714
tp158
a(Vcofactor metabolic process
p159
I696
tp160
a(Vvacuole
p161
I659
tp162
a(Vgeneration of precursor metabolites and energy
p163
I645
tp164
a(Vtransferase activity, transferring acyl groups
p165
I644
tp166
a(Vextracellular matrix organization
p167
I585
tp168
a(Vextracellular space
p169
I549
tp170
a(Vreproduction
p171
I530
tp172
a(Vnucleocytoplasmic transport
p173
I510
tp174
a(Vtransferase activity, transferring glycosyl groups
p175
I485
tp176
a(Vcilium
p177
I483
tp178
a(Vphosphatase activity
p179
I471
tp180
a(Vcell cycle
p181
I462
tp182
a(Vplastid
p183
I456
tp184
a(Vprotein folding
p185
I452
tp186
a(Vdevelopmental maturation
p187
I449
tp188
a(Vcell division
p189
I447
tp190
a(Vaging
p191
I441
tp192
a(Vlyase activity
p193
I438
tp194
a(Vribonucleoprotein complex assembly
p195
I416
tp196
a(Vhelicase activity
p197
I406
tp198
a(Vlysosome
p199
I379
tp200
a(VGTPase activity
p201
I373
tp202
a(Vcell junction organization
p203
I370
tp204
a(Vcirculatory system process
p205
I367
tp206
a(Vexternal encapsulating structure
p207
I353
tp208
a(Vmethyltransferase activity
p209
I350
tp210
a(Vnuclease activity
p211
I346
tp212
a(Vcell wall
p213
I345
tp214
a(Vmitochondrion organization
p215
I343
tp216
a(VmRNA binding
p217
I324
tp218
a(Vchromosome
p219
I302
tp220
a(Vsecondary metabolic process
p221
I299
tp222
a(Vcytoskeleton-dependent intracellular transport
p223
I296
tp224
a(Visomerase activity
p225
I290
tp226
a(Vstructural constituent of ribosome
p227
I264
tp228
a(Vnuclear envelope
p229
I263
tp230
a(Vhydrolase activity, acting on glycosyl bonds
p231
I252
tp232
a(Vhistone binding
p233
I250
tp234
a(Vmitosis
p235
I238
tp236
a(Vchromosome segregation
p237
I232
tp238
a(VtRNA metabolic process
p239
I224
tp240
a(Vnucleotidyltransferase activity
p241
I206
tp242
a(Vhydrolase activity, acting on carbon-nitrogen (but not peptide) bonds
p243
I206
tp244
a(Vunfolded protein binding
p245
I205
tp246
a(Vcell wall organization or biogenesis
p247
I203
tp248
a(Vtranslation factor activity, nucleic acid binding
p249
I194
tp250
a(Vvacuolar transport
p251
I193
tp252
a(Vplasma membrane organization
p253
I190
tp254
a(Vlipid particle
p255
I187
tp256
a(Vperoxisome
p257
I182
tp258
a(Vtranslation
p259
I179
tp260
a(Vproteinaceous extracellular matrix
p261
I174
tp262
a(Vprotein binding, bridging
p263
I170
tp264
a(Vsmall conjugating protein binding
p265
I170
tp266
a(Vribosome
p267
I132
tp268
a(Vtransferase activity, transferring alkyl or aryl (other than methyl) groups
p269
I126
tp270
a(Vprotein transporter activity
p271
I108
tp272
a(Vnuclear chromosome
p273
I99
tp274
a(Vribosome biogenesis
p275
I97
tp276
a(Vintracellular
p277
I90
tp278
a(Vpigmentation
p279
I82
tp280
a(VrRNA binding
p281
I75
tp282
a(Vnitrogen cycle metabolic process
p283
I40
tp284
a(Vthylakoid
p285
I33
tp286
a(Vtransposition
p287
I13
tp288
a(Vphotosynthesis
p289
I11
tp290
a(Vcell
p291
I7
tp292
a(VRNA modification guide activity
p293
I1
tp294
aa(lp295
(g3
L6372L
tp296
a(g5
L4365L
tp297
a(g7
L2787L
tp298
a(g9
L21685L
tp299
a(g11
L26888L
tp300
a(g13
L5491L
tp301
a(g15
L18268L
tp302
a(g17
L5801L
tp303
a(g19
L5613L
tp304
a(g21
L21693L
tp305
a(g23
L21630L
tp306
a(g25
L22689L
tp307
a(g27
L7192L
tp308
a(g29
L5168L
tp309
a(g31
L7190L
tp310
a(g33
L1781L
tp311
a(g35
L13633L
tp312
a(g37
L13924L
tp313
a(g39
L4599L
tp314
a(g41
L5326L
tp315
a(g43
L12968L
tp316
a(g45
L4507L
tp317
a(g47
L20507L
tp318
a(g49
L4644L
tp319
a(g51
L4422L
tp320
a(g53
L4995L
tp321
a(g55
L10381L
tp322
a(g57
L31581L
tp323
a(g59
L13690L
tp324
a(g61
L26682L
tp325
a(g63
L2790L
tp326
a(g65
L28228L
tp327
a(g67
L21086L
tp328
a(g69
L4725L
tp329
a(g71
L10598L
tp330
a(g73
L28535L
tp331
a(g75
L7881L
tp332
a(g77
L4514L
tp333
a(g79
L18282L
tp334
a(g81
L5165L
tp335
a(g83
L26901L
tp336
a(g85
L29927L
tp337
a(g87
L2830L
tp338
a(g89
L20503L
tp339
a(g91
L10466L
tp340
a(g93
L3827L
tp341
a(g95
L5218L
tp342
a(g97
L5663L
tp343
a(g99
L27837L
tp344
a(g101
L6320L
tp345
a(g103
L4515L
tp346
a(g105
L4567L
tp347
a(g107
L10229L
tp348
a(g109
L6448L
tp349
a(g111
L5791L
tp350
a(g113
L6500L
tp351
a(g115
L4556L
tp352
a(g117
L6494L
tp353
a(g119
L6436L
tp354
a(g121
L4621L
tp355
a(g123
L10950L
tp356
a(g125
L4439L
tp357
a(g127
L5896L
tp358
a(g129
L10963L
tp359
a(g131
L4542L
tp360
a(g133
L30984L
tp361
a(g135
L14001L
tp362
a(g137
L4586L
tp363
a(g139
L6357L
tp364
a(g141
L4118L
tp365
a(g143
L759L
tp366
a(g145
L677L
tp367
a(g147
L594L
tp368
a(g149
L5302L
tp369
a(g151
L4366L
tp370
a(g153
L5471L
tp371
a(g155
L5112L
tp372
a(g157
L22810L
tp373
a(g159
L28144L
tp374
a(g161
L4546L
tp375
a(g163
L4838L
tp376
a(g165
L10829L
tp377
a(g167
L13967L
tp378
a(g169
L4405L
tp379
a(g171
L3L
tp380
a(g173
L5582L
tp381
a(g175
L10840L
tp382
a(g177
L4684L
tp383
a(g179
L10870L
tp384
a(g181
L5695L
tp385
a(g183
L7644L
tp386
a(g185
L5161L
tp387
a(g187
L13274L
tp388
a(g189
L28251L
tp389
a(g191
L6169L
tp390
a(g193
L10905L
tp391
a(g195
L13644L
tp392
a(g197
L3404L
tp393
a(g199
L4538L
tp394
a(g201
L2991L
tp395
a(g203
L17965L
tp396
a(g205
L2364L
tp397
a(g207
L14078L
tp398
a(g209
L6389L
tp399
a(g211
L3518L
tp400
a(g213
L4408L
tp401
a(g215
L5658L
tp402
a(g217
L2835L
tp403
a(g219
L4475L
tp404
a(g221
L12827L
tp405
a(g223
L14427L
tp406
a(g225
L10929L
tp407
a(g227
L2841L
tp408
a(g229
L4423L
tp409
a(g231
L10876L
tp410
a(g233
L20900L
tp411
a(g235
L5712L
tp412
a(g237
L5705L
tp413
a(g239
L5114L
tp414
a(g241
L10860L
tp415
a(g243
L10886L
tp416
a(g245
L28040L
tp417
a(g247
L33137L
tp418
a(g249
L6358L
tp419
a(g251
L5682L
tp420
a(g253
L5662L
tp421
a(g255
L4583L
tp422
a(g257
L4550L
tp423
a(g259
L5126L
tp424
a(g261
L4368L
tp425
a(g263
L14396L
tp426
a(g265
L15840L
tp427
a(g267
L4609L
tp428
a(g269
L10848L
tp429
a(g271
L6747L
tp430
a(g273
L201L
tp431
a(g275
L20770L
tp432
a(g277
L4411L
tp433
a(g279
L21900L
tp434
a(g281
L12918L
tp435
a(g283
L33512L
tp436
a(g285
L7683L
tp437
a(g287
L15852L
tp438
a(g289
L10192L
tp439
a(g291
L4412L
tp440
a(g293
L14288L
tp441
aaI611897
a.