(lp1
(lp2
(Vbiological_process
p3
I176654
tp4
a(Vcellular_component
p5
I60493
tp6
a(Vmolecular_function
p7
I48667
tp8
a(Vorganelle
p9
I16386
tp10
a(Vanatomical structure development
p11
I12593
tp12
a(Vtransport
p13
I10237
tp14
a(Vcellular nitrogen compound metabolic process
p15
I9732
tp16
a(Vsignal transduction
p17
I7723
tp18
a(Vprotein complex
p19
I7230
tp20
a(Vresponse to stress
p21
I6801
tp22
a(Vsmall molecule metabolic process
p23
I6608
tp24
a(Vbiosynthetic process
p25
I6446
tp26
a(Vion binding
p27
I5714
tp28
a(Vcellular protein modification process
p29
I4780
tp30
a(Vcatabolic process
p31
I4661
tp32
a(Vimmune system process
p33
I3361
tp34
a(Vcytosol
p35
I3065
tp36
a(Vcellular component assembly
p37
I3052
tp38
a(Vlipid metabolic process
p39
I2933
tp40
a(Vcell differentiation
p41
I2856
tp42
a(Venzyme binding
p43
I2492
tp44
a(Vnucleolus
p45
I2224
tp46
a(VDNA metabolic process
p47
I2184
tp48
a(Vplasma membrane
p49
I2133
tp50
a(Vchromosome organization
p51
I2115
tp52
a(Vnucleus
p53
I2091
tp54
a(Vvesicle-mediated transport
p55
I2063
tp56
a(Vtransmembrane transporter activity
p57
I1999
tp58
a(Vlocomotion
p59
I1900
tp60
a(Voxidoreductase activity
p61
I1827
tp62
a(Vcarbohydrate metabolic process
p63
I1814
tp64
a(Vmacromolecular complex assembly
p65
I1782
tp66
a(Vanatomical structure formation involved in morphogenesis
p67
I1712
tp68
a(Vhomeostatic process
p69
I1706
tp70
a(VDNA binding
p71
I1685
tp72
a(Vnucleobase-containing compound catabolic process
p73
I1664
tp74
a(Vembryo development
p75
I1651
tp76
a(Vcytoplasm
p77
I1625
tp78
a(Vtransmembrane transport
p79
I1535
tp80
a(Vgrowth
p81
I1435
tp82
a(VRNA binding
p83
I1431
tp84
a(Vcytoskeleton organization
p85
I1392
tp86
a(Vprotein maturation
p87
I1386
tp88
a(Vsignal transducer activity
p89
I1376
tp90
a(Vcytoskeletal protein binding
p91
I1363
tp92
a(Vprotein complex assembly
p93
I1359
tp94
a(Vneurological system process
p95
I1298
tp96
a(Vkinase activity
p97
I1269
tp98
a(Vcellular amino acid metabolic process
p99
I1261
tp100
a(Vmitochondrion
p101
I1234
tp102
a(Vcell motility
p103
I1212
tp104
a(Vcytoplasmic membrane-bounded vesicle
p105
I1088
tp106
a(VGolgi apparatus
p107
I1026
tp108
a(Vendoplasmic reticulum
p109
I990
tp110
a(Vlipid binding
p111
I967
tp112
a(Vcell death
p113
I953
tp114
a(Vpeptidase activity
p115
I950
tp116
a(Vcell-cell signaling
p117
I927
tp118
a(Vcytoskeleton
p119
I898
tp120
a(Vnucleoplasm
p121
I887
tp122
a(Vmicrotubule organizing center
p123
I848
tp124
a(Venzyme regulator activity
p125
I836
tp126
a(Vmembrane organization
p127
I824
tp128
a(Vendosome
p129
I823
tp130
a(VATPase activity
p131
I816
tp132
a(Vligase activity
p133
I773
tp134
a(Vtranscription factor binding
p135
I765
tp136
a(Vcell adhesion
p137
I727
tp138
a(Vcell proliferation
p139
I720
tp140
a(Vprotein binding transcription factor activity
p141
I682
tp142
a(Vprotein targeting
p143
I653
tp144
a(Vstructural molecule activity
p145
I644
tp146
a(Vcell morphogenesis
p147
I621
tp148
a(VmRNA processing
p149
I612
tp150
a(Vnucleic acid binding transcription factor activity
p151
I600
tp152
a(Vtransferase activity, transferring acyl groups
p153
I599
tp154
a(Vextracellular region
p155
I592
tp156
a(Vsulfur compound metabolic process
p157
I588
tp158
a(Vcofactor metabolic process
p159
I559
tp160
a(Vgeneration of precursor metabolites and energy
p161
I551
tp162
a(Vcell cycle
p163
I549
tp164
a(Vsymbiosis, encompassing mutualism through parasitism
p165
I538
tp166
a(Vcilium
p167
I515
tp168
a(Vtransferase activity, transferring glycosyl groups
p169
I501
tp170
a(Vvacuole
p171
I465
tp172
a(Vreproduction
p173
I461
tp174
a(Vphosphatase activity
p175
I457
tp176
a(Vnucleocytoplasmic transport
p177
I404
tp178
a(Vcell division
p179
I396
tp180
a(Vlyase activity
p181
I357
tp182
a(Vribonucleoprotein complex assembly
p183
I340
tp184
a(Vplastid
p185
I336
tp186
a(Vextracellular matrix organization
p187
I335
tp188
a(Vhelicase activity
p189
I332
tp190
a(Vprotein folding
p191
I331
tp192
a(Vnuclease activity
p193
I330
tp194
a(Vcell junction organization
p195
I329
tp196
a(Vcirculatory system process
p197
I313
tp198
a(Vextracellular space
p199
I311
tp200
a(Vcytoskeleton-dependent intracellular transport
p201
I311
tp202
a(Vmethyltransferase activity
p203
I309
tp204
a(Vaging
p205
I307
tp206
a(Vchromosome
p207
I291
tp208
a(Vmitochondrion organization
p209
I287
tp210
a(VGTPase activity
p211
I282
tp212
a(Vnuclear envelope
p213
I269
tp214
a(VmRNA binding
p215
I259
tp216
a(Vsecondary metabolic process
p217
I253
tp218
a(Vexternal encapsulating structure
p219
I246
tp220
a(Vlysosome
p221
I245
tp222
a(Vdevelopmental maturation
p223
I244
tp224
a(Vcell wall
p225
I243
tp226
a(Visomerase activity
p227
I239
tp228
a(Vstructural constituent of ribosome
p229
I230
tp230
a(Vhistone binding
p231
I225
tp232
a(VtRNA metabolic process
p233
I223
tp234
a(Vchromosome segregation
p235
I211
tp236
a(Vmitosis
p237
I204
tp238
a(Vnucleotidyltransferase activity
p239
I203
tp240
a(Vhydrolase activity, acting on glycosyl bonds
p241
I201
tp242
a(Vcell wall organization or biogenesis
p243
I183
tp244
a(Vvacuolar transport
p245
I183
tp246
a(Vplasma membrane organization
p247
I170
tp248
a(Vhydrolase activity, acting on carbon-nitrogen (but not peptide) bonds
p249
I166
tp250
a(Vtranslation
p251
I158
tp252
a(Vtranslation factor activity, nucleic acid binding
p253
I155
tp254
a(Vperoxisome
p255
I144
tp256
a(Vlipid particle
p257
I140
tp258
a(Vunfolded protein binding
p259
I137
tp260
a(Vsmall conjugating protein binding
p261
I136
tp262
a(Vprotein binding, bridging
p263
I122
tp264
a(Vtransferase activity, transferring alkyl or aryl (other than methyl) groups
p265
I115
tp266
a(Vribosome
p267
I111
tp268
a(Vprotein transporter activity
p269
I104
tp270
a(Vproteinaceous extracellular matrix
p271
I95
tp272
a(Vribosome biogenesis
p273
I88
tp274
a(Vnuclear chromosome
p275
I83
tp276
a(Vintracellular
p277
I82
tp278
a(VrRNA binding
p279
I68
tp280
a(Vpigmentation
p281
I65
tp282
a(Vthylakoid
p283
I32
tp284
a(Vnitrogen cycle metabolic process
p285
I15
tp286
a(Vphotosynthesis
p287
I7
tp288
a(Vcell
p289
I6
tp290
a(Vtransposition
p291
I5
tp292
a(VRNA modification guide activity
p293
I3
tp294
aa(lp295
(g3
L6372L
tp296
a(g5
L4365L
tp297
a(g7
L2787L
tp298
a(g9
L21685L
tp299
a(g11
L26888L
tp300
a(g13
L5491L
tp301
a(g15
L18268L
tp302
a(g17
L5801L
tp303
a(g19
L21693L
tp304
a(g21
L5613L
tp305
a(g23
L22689L
tp306
a(g25
L7192L
tp307
a(g27
L21630L
tp308
a(g29
L5168L
tp309
a(g31
L7190L
tp310
a(g33
L1781L
tp311
a(g35
L4599L
tp312
a(g37
L13633L
tp313
a(g39
L5326L
tp314
a(g41
L13924L
tp315
a(g43
L12968L
tp316
a(g45
L4507L
tp317
a(g47
L4995L
tp318
a(g49
L4644L
tp319
a(g51
L28228L
tp320
a(g53
L4422L
tp321
a(g55
L10381L
tp322
a(g57
L13690L
tp323
a(g59
L20507L
tp324
a(g61
L10598L
tp325
a(g63
L4725L
tp326
a(g65
L31581L
tp327
a(g67
L26682L
tp328
a(g69
L21086L
tp329
a(g71
L2790L
tp330
a(g73
L18282L
tp331
a(g75
L7881L
tp332
a(g77
L4514L
tp333
a(g79
L29927L
tp334
a(g81
L20503L
tp335
a(g83
L2830L
tp336
a(g85
L5663L
tp337
a(g87
L28535L
tp338
a(g89
L3827L
tp339
a(g91
L6320L
tp340
a(g93
L5165L
tp341
a(g95
L27837L
tp342
a(g97
L10466L
tp343
a(g99
L5218L
tp344
a(g101
L4515L
tp345
a(g103
L26901L
tp346
a(g105
L10229L
tp347
a(g107
L4567L
tp348
a(g109
L4556L
tp349
a(g111
L6500L
tp350
a(g113
L6436L
tp351
a(g115
L6448L
tp352
a(g117
L5896L
tp353
a(g119
L4621L
tp354
a(g121
L4439L
tp355
a(g123
L4586L
tp356
a(g125
L14001L
tp357
a(g127
L30984L
tp358
a(g129
L4542L
tp359
a(g131
L10963L
tp360
a(g133
L10950L
tp361
a(g135
L6357L
tp362
a(g137
L5791L
tp363
a(g139
L6494L
tp364
a(g141
L677L
tp365
a(g143
L5302L
tp366
a(g145
L4118L
tp367
a(g147
L594L
tp368
a(g149
L5112L
tp369
a(g151
L759L
tp370
a(g153
L10829L
tp371
a(g155
L4366L
tp372
a(g157
L5471L
tp373
a(g159
L28144L
tp374
a(g161
L4838L
tp375
a(g163
L5695L
tp376
a(g165
L22810L
tp377
a(g167
L4684L
tp378
a(g169
L10840L
tp379
a(g171
L4546L
tp380
a(g173
L3L
tp381
a(g175
L10870L
tp382
a(g177
L5582L
tp383
a(g179
L28251L
tp384
a(g181
L10905L
tp385
a(g183
L13644L
tp386
a(g185
L7644L
tp387
a(g187
L13967L
tp388
a(g189
L3404L
tp389
a(g191
L5161L
tp390
a(g193
L3518L
tp391
a(g195
L17965L
tp392
a(g197
L2364L
tp393
a(g199
L4405L
tp394
a(g201
L14427L
tp395
a(g203
L6389L
tp396
a(g205
L6169L
tp397
a(g207
L4475L
tp398
a(g209
L5658L
tp399
a(g211
L2991L
tp400
a(g213
L4423L
tp401
a(g215
L2835L
tp402
a(g217
L12827L
tp403
a(g219
L14078L
tp404
a(g221
L4538L
tp405
a(g223
L13274L
tp406
a(g225
L4408L
tp407
a(g227
L10929L
tp408
a(g229
L2841L
tp409
a(g231
L20900L
tp410
a(g233
L5114L
tp411
a(g235
L5705L
tp412
a(g237
L5712L
tp413
a(g239
L10860L
tp414
a(g241
L10876L
tp415
a(g243
L33137L
tp416
a(g245
L5682L
tp417
a(g247
L5662L
tp418
a(g249
L10886L
tp419
a(g251
L5126L
tp420
a(g253
L6358L
tp421
a(g255
L4550L
tp422
a(g257
L4583L
tp423
a(g259
L28040L
tp424
a(g261
L15840L
tp425
a(g263
L14396L
tp426
a(g265
L10848L
tp427
a(g267
L4609L
tp428
a(g269
L6747L
tp429
a(g271
L4368L
tp430
a(g273
L20770L
tp431
a(g275
L201L
tp432
a(g277
L4411L
tp433
a(g279
L12918L
tp434
a(g281
L21900L
tp435
a(g283
L7683L
tp436
a(g285
L33512L
tp437
a(g287
L10192L
tp438
a(g289
L4412L
tp439
a(g291
L15852L
tp440
a(g293
L14288L
tp441
aaI490184
a.