(lp1
(lp2
(Vbiological_process
p3
I254745
tp4
a(Vcellular_component
p5
I86165
tp6
a(Vmolecular_function
p7
I70543
tp8
a(Vorganelle
p9
I22942
tp10
a(Vanatomical structure development
p11
I18825
tp12
a(Vtransport
p13
I14668
tp14
a(Vcellular nitrogen compound metabolic process
p15
I12847
tp16
a(Vsignal transduction
p17
I11164
tp18
a(Vresponse to stress
p19
I9681
tp20
a(Vprotein complex
p21
I9586
tp22
a(Vsmall molecule metabolic process
p23
I8980
tp24
a(Vion binding
p25
I8791
tp26
a(Vbiosynthetic process
p27
I8197
tp28
a(Vcellular protein modification process
p29
I6402
tp30
a(Vcatabolic process
p31
I6248
tp32
a(Vimmune system process
p33
I5405
tp34
a(Vcellular component assembly
p35
I4275
tp36
a(Vcell differentiation
p37
I4033
tp38
a(Vcytosol
p39
I4014
tp40
a(Vlipid metabolic process
p41
I3704
tp42
a(Venzyme binding
p43
I3587
tp44
a(Vtransmembrane transporter activity
p45
I3235
tp46
a(VDNA metabolic process
p47
I3067
tp48
a(Vlocomotion
p49
I3050
tp50
a(Vplasma membrane
p51
I3043
tp52
a(Vnucleolus
p53
I2956
tp54
a(Vvesicle-mediated transport
p55
I2862
tp56
a(Vnucleus
p57
I2829
tp58
a(Vchromosome organization
p59
I2608
tp60
a(Vcytoplasm
p61
I2541
tp62
a(Vanatomical structure formation involved in morphogenesis
p63
I2505
tp64
a(Vmacromolecular complex assembly
p65
I2449
tp66
a(Vhomeostatic process
p67
I2427
tp68
a(Vcarbohydrate metabolic process
p69
I2423
tp70
a(Voxidoreductase activity
p71
I2395
tp72
a(VDNA binding
p73
I2299
tp74
a(Vtransmembrane transport
p75
I2293
tp76
a(Vnucleobase-containing compound catabolic process
p77
I2278
tp78
a(Vembryo development
p79
I2183
tp80
a(Vcytoskeletal protein binding
p81
I2120
tp82
a(Vprotein maturation
p83
I2100
tp84
a(Vkinase activity
p85
I2062
tp86
a(Vcell motility
p87
I2051
tp88
a(Vneurological system process
p89
I2023
tp90
a(Vprotein complex assembly
p91
I1923
tp92
a(Vgrowth
p93
I1915
tp94
a(Vcytoskeleton organization
p95
I1889
tp96
a(Vcellular amino acid metabolic process
p97
I1842
tp98
a(VRNA binding
p99
I1823
tp100
a(Vsignal transducer activity
p101
I1712
tp102
a(VGolgi apparatus
p103
I1624
tp104
a(Vcytoplasmic membrane-bounded vesicle
p105
I1489
tp106
a(Vmitochondrion
p107
I1486
tp108
a(Vcytoskeleton
p109
I1469
tp110
a(VATPase activity
p111
I1436
tp112
a(Vpeptidase activity
p113
I1425
tp114
a(Vcell adhesion
p115
I1390
tp116
a(Vlipid binding
p117
I1371
tp118
a(Vcell death
p119
I1276
tp120
a(Vendoplasmic reticulum
p121
I1240
tp122
a(Vmembrane organization
p123
I1188
tp124
a(Vcell-cell signaling
p125
I1161
tp126
a(Vligase activity
p127
I1153
tp128
a(Vendosome
p129
I1139
tp130
a(Venzyme regulator activity
p131
I1129
tp132
a(Vcell proliferation
p133
I1128
tp134
a(Vmicrotubule organizing center
p135
I1090
tp136
a(Vnucleoplasm
p137
I1088
tp138
a(Vcell morphogenesis
p139
I946
tp140
a(Vtranscription factor binding
p141
I935
tp142
a(Vstructural molecule activity
p143
I919
tp144
a(Vsulfur compound metabolic process
p145
I900
tp146
a(Vprotein binding transcription factor activity
p147
I837
tp148
a(Vextracellular region
p149
I820
tp150
a(Vprotein targeting
p151
I820
tp152
a(VmRNA processing
p153
I793
tp154
a(Vcofactor metabolic process
p155
I754
tp156
a(Vextracellular matrix organization
p157
I748
tp158
a(Vcilium
p159
I738
tp160
a(Vtransferase activity, transferring acyl groups
p161
I734
tp162
a(Vnucleic acid binding transcription factor activity
p163
I728
tp164
a(Vsymbiosis, encompassing mutualism through parasitism
p165
I688
tp166
a(Vgeneration of precursor metabolites and energy
p167
I679
tp168
a(Vcell cycle
p169
I677
tp170
a(Vvacuole
p171
I676
tp172
a(Vextracellular space
p173
I630
tp174
a(Vhelicase activity
p175
I606
tp176
a(Vphosphatase activity
p177
I578
tp178
a(Vreproduction
p179
I575
tp180
a(Vtransferase activity, transferring glycosyl groups
p181
I570
tp182
a(Vlyase activity
p183
I550
tp184
a(Vcell division
p185
I525
tp186
a(Vnucleocytoplasmic transport
p187
I524
tp188
a(Vnuclease activity
p189
I476
tp190
a(Vaging
p191
I473
tp192
a(Vplastid
p193
I452
tp194
a(Vcell junction organization
p195
I448
tp196
a(Vdevelopmental maturation
p197
I436
tp198
a(Vribonucleoprotein complex assembly
p199
I435
tp200
a(Vcytoskeleton-dependent intracellular transport
p201
I421
tp202
a(Vmethyltransferase activity
p203
I414
tp204
a(Vprotein folding
p205
I404
tp206
a(Vcirculatory system process
p207
I391
tp208
a(Vmitochondrion organization
p209
I361
tp210
a(Vlysosome
p211
I355
tp212
a(Vexternal encapsulating structure
p213
I353
tp214
a(Visomerase activity
p215
I348
tp216
a(Vchromosome
p217
I347
tp218
a(Vcell wall
p219
I343
tp220
a(VGTPase activity
p221
I338
tp222
a(Vnuclear envelope
p223
I331
tp224
a(VmRNA binding
p225
I323
tp226
a(Vnucleotidyltransferase activity
p227
I312
tp228
a(Vhydrolase activity, acting on glycosyl bonds
p229
I308
tp230
a(VtRNA metabolic process
p231
I305
tp232
a(Vsecondary metabolic process
p233
I302
tp234
a(Vhistone binding
p235
I295
tp236
a(Vplasma membrane organization
p237
I285
tp238
a(Vproteinaceous extracellular matrix
p239
I273
tp240
a(Vchromosome segregation
p241
I252
tp242
a(Vmitosis
p243
I251
tp244
a(Vstructural constituent of ribosome
p245
I247
tp246
a(Vhydrolase activity, acting on carbon-nitrogen (but not peptide) bonds
p247
I244
tp248
a(Vcell wall organization or biogenesis
p249
I223
tp250
a(Vvacuolar transport
p251
I221
tp252
a(Vprotein binding, bridging
p253
I189
tp254
a(Vtranslation factor activity, nucleic acid binding
p255
I187
tp256
a(Vunfolded protein binding
p257
I182
tp258
a(Vperoxisome
p259
I182
tp260
a(Vtranslation
p261
I181
tp262
a(Vsmall conjugating protein binding
p263
I176
tp264
a(Vlipid particle
p265
I171
tp266
a(Vprotein transporter activity
p267
I155
tp268
a(Vribosome
p269
I142
tp270
a(Vtransferase activity, transferring alkyl or aryl (other than methyl) groups
p271
I136
tp272
a(Vnuclear chromosome
p273
I105
tp274
a(Vintracellular
p275
I105
tp276
a(Vpigmentation
p277
I96
tp278
a(Vribosome biogenesis
p279
I94
tp280
a(VrRNA binding
p281
I88
tp282
a(Vthylakoid
p283
I46
tp284
a(Vnitrogen cycle metabolic process
p285
I37
tp286
a(Vphotosynthesis
p287
I12
tp288
a(Vtransposition
p289
I10
tp290
a(Vcell
p291
I9
tp292
a(VRNA modification guide activity
p293
I1
tp294
aa(lp295
(g3
L6372L
tp296
a(g5
L4365L
tp297
a(g7
L2787L
tp298
a(g9
L21685L
tp299
a(g11
L26888L
tp300
a(g13
L5491L
tp301
a(g15
L18268L
tp302
a(g17
L5801L
tp303
a(g19
L5613L
tp304
a(g21
L21693L
tp305
a(g23
L22689L
tp306
a(g25
L21630L
tp307
a(g27
L7192L
tp308
a(g29
L5168L
tp309
a(g31
L7190L
tp310
a(g33
L1781L
tp311
a(g35
L13633L
tp312
a(g37
L13924L
tp313
a(g39
L4599L
tp314
a(g41
L5326L
tp315
a(g43
L12968L
tp316
a(g45
L13690L
tp317
a(g47
L4995L
tp318
a(g49
L20507L
tp319
a(g51
L4644L
tp320
a(g53
L4507L
tp321
a(g55
L10381L
tp322
a(g57
L4422L
tp323
a(g59
L28228L
tp324
a(g61
L4514L
tp325
a(g63
L26682L
tp326
a(g65
L31581L
tp327
a(g67
L21086L
tp328
a(g69
L4725L
tp329
a(g71
L10598L
tp330
a(g73
L2790L
tp331
a(g75
L29927L
tp332
a(g77
L18282L
tp333
a(g79
L7881L
tp334
a(g81
L6320L
tp335
a(g83
L28535L
tp336
a(g85
L10466L
tp337
a(g87
L26901L
tp338
a(g89
L27837L
tp339
a(g91
L5165L
tp340
a(g93
L20503L
tp341
a(g95
L5663L
tp342
a(g97
L5218L
tp343
a(g99
L2830L
tp344
a(g101
L3827L
tp345
a(g103
L4567L
tp346
a(g105
L10229L
tp347
a(g107
L4515L
tp348
a(g109
L4621L
tp349
a(g111
L10963L
tp350
a(g113
L6448L
tp351
a(g115
L5791L
tp352
a(g117
L6500L
tp353
a(g119
L6436L
tp354
a(g121
L4556L
tp355
a(g123
L30984L
tp356
a(g125
L5896L
tp357
a(g127
L10950L
tp358
a(g129
L4542L
tp359
a(g131
L14001L
tp360
a(g133
L6494L
tp361
a(g135
L4586L
tp362
a(g137
L4439L
tp363
a(g139
L594L
tp364
a(g141
L6357L
tp365
a(g143
L4118L
tp366
a(g145
L5471L
tp367
a(g147
L677L
tp368
a(g149
L4366L
tp369
a(g151
L5302L
tp370
a(g153
L5112L
tp371
a(g155
L28144L
tp372
a(g157
L13967L
tp373
a(g159
L4684L
tp374
a(g161
L10829L
tp375
a(g163
L759L
tp376
a(g165
L22810L
tp377
a(g167
L4838L
tp378
a(g169
L5695L
tp379
a(g171
L4546L
tp380
a(g173
L4405L
tp381
a(g175
L3404L
tp382
a(g177
L10870L
tp383
a(g179
L3L
tp384
a(g181
L10840L
tp385
a(g183
L10905L
tp386
a(g185
L28251L
tp387
a(g187
L5582L
tp388
a(g189
L3518L
tp389
a(g191
L6169L
tp390
a(g193
L7644L
tp391
a(g195
L17965L
tp392
a(g197
L13274L
tp393
a(g199
L13644L
tp394
a(g201
L14427L
tp395
a(g203
L6389L
tp396
a(g205
L5161L
tp397
a(g207
L2364L
tp398
a(g209
L5658L
tp399
a(g211
L4538L
tp400
a(g213
L14078L
tp401
a(g215
L10929L
tp402
a(g217
L4475L
tp403
a(g219
L4408L
tp404
a(g221
L2991L
tp405
a(g223
L4423L
tp406
a(g225
L2835L
tp407
a(g227
L10860L
tp408
a(g229
L10876L
tp409
a(g231
L5114L
tp410
a(g233
L12827L
tp411
a(g235
L20900L
tp412
a(g237
L5662L
tp413
a(g239
L4368L
tp414
a(g241
L5705L
tp415
a(g243
L5712L
tp416
a(g245
L2841L
tp417
a(g247
L10886L
tp418
a(g249
L33137L
tp419
a(g251
L5682L
tp420
a(g253
L14396L
tp421
a(g255
L6358L
tp422
a(g257
L28040L
tp423
a(g259
L4550L
tp424
a(g261
L5126L
tp425
a(g263
L15840L
tp426
a(g265
L4583L
tp427
a(g267
L6747L
tp428
a(g269
L4609L
tp429
a(g271
L10848L
tp430
a(g273
L201L
tp431
a(g275
L4411L
tp432
a(g277
L21900L
tp433
a(g279
L20770L
tp434
a(g281
L12918L
tp435
a(g283
L7683L
tp436
a(g285
L33512L
tp437
a(g287
L10192L
tp438
a(g289
L15852L
tp439
a(g291
L4412L
tp440
a(g293
L14288L
tp441
aaI698208
a.