(lp1
(lp2
(Vbiological_process
p3
I242123
tp4
a(Vcellular_component
p5
I77914
tp6
a(Vmolecular_function
p7
I62272
tp8
a(Vorganelle
p9
I20668
tp10
a(Vanatomical structure development
p11
I18616
tp12
a(Vtransport
p13
I13388
tp14
a(Vsignal transduction
p15
I11005
tp16
a(Vcellular nitrogen compound metabolic process
p17
I10505
tp18
a(Vresponse to stress
p19
I8756
tp20
a(Vprotein complex
p21
I8486
tp22
a(Vion binding
p23
I7261
tp24
a(Vsmall molecule metabolic process
p25
I7130
tp26
a(Vbiosynthetic process
p27
I6764
tp28
a(Vcellular protein modification process
p29
I5800
tp30
a(Vcatabolic process
p31
I4987
tp32
a(Vimmune system process
p33
I4597
tp34
a(Vcell differentiation
p35
I4280
tp36
a(Vcellular component assembly
p37
I3752
tp38
a(Vcytosol
p39
I3413
tp40
a(Venzyme binding
p41
I3249
tp42
a(Vlipid metabolic process
p43
I3147
tp44
a(Vtransmembrane transporter activity
p45
I2911
tp46
a(Vplasma membrane
p47
I2849
tp48
a(Vlocomotion
p49
I2805
tp50
a(Vnucleus
p51
I2666
tp52
a(Vnucleolus
p53
I2657
tp54
a(Vvesicle-mediated transport
p55
I2563
tp56
a(Vanatomical structure formation involved in morphogenesis
p57
I2553
tp58
a(VDNA metabolic process
p59
I2480
tp60
a(Vhomeostatic process
p61
I2368
tp62
a(Vsignal transducer activity
p63
I2273
tp64
a(VDNA binding
p65
I2268
tp66
a(Vchromosome organization
p67
I2262
tp68
a(Vcytoplasm
p69
I2159
tp70
a(Vmacromolecular complex assembly
p71
I2133
tp72
a(Vtransmembrane transport
p73
I2096
tp74
a(Vneurological system process
p75
I2089
tp76
a(Vcarbohydrate metabolic process
p77
I1958
tp78
a(Vcell motility
p79
I1958
tp80
a(Vembryo development
p81
I1903
tp82
a(Vprotein maturation
p83
I1823
tp84
a(Vgrowth
p85
I1819
tp86
a(Vcytoskeletal protein binding
p87
I1773
tp88
a(Voxidoreductase activity
p89
I1749
tp90
a(Vnucleobase-containing compound catabolic process
p91
I1730
tp92
a(Vprotein complex assembly
p93
I1704
tp94
a(Vkinase activity
p95
I1624
tp96
a(Vcytoskeleton organization
p97
I1589
tp98
a(Vcell-cell signaling
p99
I1555
tp100
a(VRNA binding
p101
I1456
tp102
a(Vcytoplasmic membrane-bounded vesicle
p103
I1440
tp104
a(VGolgi apparatus
p105
I1364
tp106
a(Vlipid binding
p107
I1311
tp108
a(Vcellular amino acid metabolic process
p109
I1288
tp110
a(Vmitochondrion
p111
I1272
tp112
a(Vcell adhesion
p113
I1249
tp114
a(Vcytoskeleton
p115
I1234
tp116
a(Vpeptidase activity
p117
I1232
tp118
a(Vendoplasmic reticulum
p119
I1184
tp120
a(Vcell death
p121
I1174
tp122
a(Vcell proliferation
p123
I1087
tp124
a(Vmembrane organization
p125
I1082
tp126
a(Vendosome
p127
I1069
tp128
a(Vnucleoplasm
p129
I989
tp130
a(Venzyme regulator activity
p131
I989
tp132
a(Vmicrotubule organizing center
p133
I975
tp134
a(Vligase activity
p135
I975
tp136
a(Vtranscription factor binding
p137
I947
tp138
a(Vcell morphogenesis
p139
I927
tp140
a(VATPase activity
p141
I927
tp142
a(Vnucleic acid binding transcription factor activity
p143
I918
tp144
a(Vprotein binding transcription factor activity
p145
I888
tp146
a(Vextracellular region
p147
I814
tp148
a(Vsulfur compound metabolic process
p149
I775
tp150
a(Vstructural molecule activity
p151
I748
tp152
a(Vprotein targeting
p153
I684
tp154
a(Vtransferase activity, transferring acyl groups
p155
I640
tp156
a(Vvacuole
p157
I639
tp158
a(Vextracellular space
p159
I638
tp160
a(VmRNA processing
p161
I637
tp162
a(Vextracellular matrix organization
p163
I620
tp164
a(Vcilium
p165
I610
tp166
a(Vcirculatory system process
p167
I603
tp168
a(Vsymbiosis, encompassing mutualism through parasitism
p169
I594
tp170
a(Vcofactor metabolic process
p171
I574
tp172
a(Vcell cycle
p173
I555
tp174
a(Vgeneration of precursor metabolites and energy
p175
I520
tp176
a(Vphosphatase activity
p177
I519
tp178
a(Vtransferase activity, transferring glycosyl groups
p179
I511
tp180
a(Vreproduction
p181
I497
tp182
a(Vnucleocytoplasmic transport
p183
I476
tp184
a(Vcell division
p185
I462
tp186
a(Vaging
p187
I432
tp188
a(Vcell junction organization
p189
I417
tp190
a(Vhelicase activity
p191
I413
tp192
a(Vdevelopmental maturation
p193
I383
tp194
a(Vlysosome
p195
I374
tp196
a(Vnuclease activity
p197
I371
tp198
a(Vmethyltransferase activity
p199
I357
tp200
a(Vribonucleoprotein complex assembly
p201
I349
tp202
a(Vlyase activity
p203
I339
tp204
a(Vprotein folding
p205
I336
tp206
a(Vplastid
p207
I335
tp208
a(Vchromosome
p209
I326
tp210
a(Vmitochondrion organization
p211
I324
tp212
a(Vcytoskeleton-dependent intracellular transport
p213
I323
tp214
a(VGTPase activity
p215
I291
tp216
a(Vnuclear envelope
p217
I267
tp218
a(Vplasma membrane organization
p219
I264
tp220
a(Vhistone binding
p221
I263
tp222
a(VmRNA binding
p223
I261
tp224
a(Vsecondary metabolic process
p225
I259
tp226
a(Vhydrolase activity, acting on glycosyl bonds
p227
I258
tp228
a(Vproteinaceous extracellular matrix
p229
I251
tp230
a(Vexternal encapsulating structure
p231
I246
tp232
a(Visomerase activity
p233
I244
tp234
a(Vcell wall
p235
I237
tp236
a(Vmitosis
p237
I228
tp238
a(Vchromosome segregation
p239
I226
tp240
a(Vnucleotidyltransferase activity
p241
I209
tp242
a(Vhydrolase activity, acting on carbon-nitrogen (but not peptide) bonds
p243
I202
tp244
a(Vvacuolar transport
p245
I192
tp246
a(VtRNA metabolic process
p247
I189
tp248
a(Vprotein binding, bridging
p249
I188
tp250
a(Vcell wall organization or biogenesis
p251
I182
tp252
a(Vperoxisome
p253
I163
tp254
a(Vsmall conjugating protein binding
p255
I157
tp256
a(Vstructural constituent of ribosome
p257
I156
tp258
a(Vlipid particle
p259
I149
tp260
a(Vtranslation factor activity, nucleic acid binding
p261
I144
tp262
a(Vunfolded protein binding
p263
I143
tp264
a(Vtranslation
p265
I141
tp266
a(Vprotein transporter activity
p267
I123
tp268
a(Vribosome
p269
I118
tp270
a(Vtransferase activity, transferring alkyl or aryl (other than methyl) groups
p271
I117
tp272
a(Vintracellular
p273
I105
tp274
a(Vpigmentation
p275
I91
tp276
a(Vnuclear chromosome
p277
I90
tp278
a(Vribosome biogenesis
p279
I77
tp280
a(VrRNA binding
p281
I60
tp282
a(Vthylakoid
p283
I31
tp284
a(Vnitrogen cycle metabolic process
p285
I13
tp286
a(Vtransposition
p287
I9
tp288
a(Vcell
p289
I7
tp290
a(Vphotosynthesis
p291
I5
tp292
a(VRNA modification guide activity
p293
I1
tp294
aa(lp295
(g3
L6372L
tp296
a(g5
L4365L
tp297
a(g7
L2787L
tp298
a(g9
L21685L
tp299
a(g11
L26888L
tp300
a(g13
L5491L
tp301
a(g15
L5801L
tp302
a(g17
L18268L
tp303
a(g19
L5613L
tp304
a(g21
L21693L
tp305
a(g23
L21630L
tp306
a(g25
L22689L
tp307
a(g27
L7192L
tp308
a(g29
L5168L
tp309
a(g31
L7190L
tp310
a(g33
L1781L
tp311
a(g35
L13924L
tp312
a(g37
L13633L
tp313
a(g39
L4599L
tp314
a(g41
L12968L
tp315
a(g43
L5326L
tp316
a(g45
L13690L
tp317
a(g47
L4644L
tp318
a(g49
L20507L
tp319
a(g51
L4422L
tp320
a(g53
L4507L
tp321
a(g55
L10381L
tp322
a(g57
L26682L
tp323
a(g59
L4995L
tp324
a(g61
L21086L
tp325
a(g63
L3827L
tp326
a(g65
L2790L
tp327
a(g67
L28228L
tp328
a(g69
L4514L
tp329
a(g71
L31581L
tp330
a(g73
L29927L
tp331
a(g75
L27837L
tp332
a(g77
L4725L
tp333
a(g79
L26901L
tp334
a(g81
L7881L
tp335
a(g83
L28535L
tp336
a(g85
L20503L
tp337
a(g87
L6320L
tp338
a(g89
L10598L
tp339
a(g91
L18282L
tp340
a(g93
L5165L
tp341
a(g95
L10466L
tp342
a(g97
L5663L
tp343
a(g99
L5896L
tp344
a(g101
L2830L
tp345
a(g103
L10229L
tp346
a(g105
L4567L
tp347
a(g107
L6500L
tp348
a(g109
L5218L
tp349
a(g111
L4515L
tp350
a(g113
L5791L
tp351
a(g115
L4621L
tp352
a(g117
L6448L
tp353
a(g119
L4556L
tp354
a(g121
L6436L
tp355
a(g123
L6494L
tp356
a(g125
L30984L
tp357
a(g127
L4542L
tp358
a(g129
L4439L
tp359
a(g131
L14001L
tp360
a(g133
L4586L
tp361
a(g135
L10950L
tp362
a(g137
L6357L
tp363
a(g139
L594L
tp364
a(g141
L10963L
tp365
a(g143
L759L
tp366
a(g145
L677L
tp367
a(g147
L4366L
tp368
a(g149
L5471L
tp369
a(g151
L4118L
tp370
a(g153
L5302L
tp371
a(g155
L10829L
tp372
a(g157
L4546L
tp373
a(g159
L4405L
tp374
a(g161
L5112L
tp375
a(g163
L13967L
tp376
a(g165
L4684L
tp377
a(g167
L2364L
tp378
a(g169
L22810L
tp379
a(g171
L28144L
tp380
a(g173
L5695L
tp381
a(g175
L4838L
tp382
a(g177
L10870L
tp383
a(g179
L10840L
tp384
a(g181
L3L
tp385
a(g183
L5582L
tp386
a(g185
L28251L
tp387
a(g187
L6169L
tp388
a(g189
L17965L
tp389
a(g191
L3404L
tp390
a(g193
L13274L
tp391
a(g195
L4538L
tp392
a(g197
L3518L
tp393
a(g199
L6389L
tp394
a(g201
L13644L
tp395
a(g203
L10905L
tp396
a(g205
L5161L
tp397
a(g207
L7644L
tp398
a(g209
L4475L
tp399
a(g211
L5658L
tp400
a(g213
L14427L
tp401
a(g215
L2991L
tp402
a(g217
L4423L
tp403
a(g219
L5662L
tp404
a(g221
L20900L
tp405
a(g223
L2835L
tp406
a(g225
L12827L
tp407
a(g227
L10876L
tp408
a(g229
L4368L
tp409
a(g231
L14078L
tp410
a(g233
L10929L
tp411
a(g235
L4408L
tp412
a(g237
L5712L
tp413
a(g239
L5705L
tp414
a(g241
L10860L
tp415
a(g243
L10886L
tp416
a(g245
L5682L
tp417
a(g247
L5114L
tp418
a(g249
L14396L
tp419
a(g251
L33137L
tp420
a(g253
L4550L
tp421
a(g255
L15840L
tp422
a(g257
L2841L
tp423
a(g259
L4583L
tp424
a(g261
L6358L
tp425
a(g263
L28040L
tp426
a(g265
L5126L
tp427
a(g267
L6747L
tp428
a(g269
L4609L
tp429
a(g271
L10848L
tp430
a(g273
L4411L
tp431
a(g275
L21900L
tp432
a(g277
L201L
tp433
a(g279
L20770L
tp434
a(g281
L12918L
tp435
a(g283
L7683L
tp436
a(g285
L33512L
tp437
a(g287
L15852L
tp438
a(g289
L4412L
tp439
a(g291
L10192L
tp440
a(g293
L14288L
tp441
aaI637959
a.