(lp1
(lp2
(Vbiological_process
p3
I278582
tp4
a(Vcellular_component
p5
I92804
tp6
a(Vmolecular_function
p7
I75292
tp8
a(Vorganelle
p9
I24850
tp10
a(Vanatomical structure development
p11
I20250
tp12
a(Vtransport
p13
I15774
tp14
a(Vcellular nitrogen compound metabolic process
p15
I13396
tp16
a(Vsignal transduction
p17
I12957
tp18
a(Vresponse to stress
p19
I11024
tp20
a(Vprotein complex
p21
I10018
tp22
a(Vsmall molecule metabolic process
p23
I9755
tp24
a(Vbiosynthetic process
p25
I9726
tp26
a(Vion binding
p27
I9184
tp28
a(Vcatabolic process
p29
I7190
tp30
a(Vcellular protein modification process
p31
I6673
tp32
a(Vimmune system process
p33
I5768
tp34
a(Vcellular component assembly
p35
I4592
tp36
a(Vcell differentiation
p37
I4584
tp38
a(Vlipid metabolic process
p39
I4424
tp40
a(Vcytosol
p41
I4420
tp42
a(Venzyme binding
p43
I3792
tp44
a(Vplasma membrane
p45
I3601
tp46
a(Vlocomotion
p47
I3317
tp48
a(Vnucleolus
p49
I3315
tp50
a(Vvesicle-mediated transport
p51
I3156
tp52
a(Vtransmembrane transporter activity
p53
I3107
tp54
a(Vnucleus
p55
I2994
tp56
a(Vanatomical structure formation involved in morphogenesis
p57
I2865
tp58
a(Voxidoreductase activity
p59
I2797
tp60
a(Vhomeostatic process
p61
I2797
tp62
a(Vcarbohydrate metabolic process
p63
I2734
tp64
a(Vmacromolecular complex assembly
p65
I2731
tp66
a(VDNA metabolic process
p67
I2653
tp68
a(VDNA binding
p69
I2633
tp70
a(Vnucleobase-containing compound catabolic process
p71
I2608
tp72
a(Vsignal transducer activity
p73
I2509
tp74
a(Vembryo development
p75
I2411
tp76
a(Vcytoplasm
p77
I2373
tp78
a(Vtransmembrane transport
p79
I2329
tp80
a(Vchromosome organization
p81
I2326
tp82
a(Vcell motility
p83
I2317
tp84
a(Vgrowth
p85
I2302
tp86
a(Vneurological system process
p87
I2295
tp88
a(Vprotein maturation
p89
I2290
tp90
a(Vprotein complex assembly
p91
I2242
tp92
a(Vcytoskeletal protein binding
p93
I2071
tp94
a(VRNA binding
p95
I2024
tp96
a(Vkinase activity
p97
I1843
tp98
a(Vcytoskeleton organization
p99
I1841
tp100
a(Vcellular amino acid metabolic process
p101
I1829
tp102
a(VGolgi apparatus
p103
I1829
tp104
a(Vmitochondrion
p105
I1804
tp106
a(Vcytoplasmic membrane-bounded vesicle
p107
I1744
tp108
a(Vcell-cell signaling
p109
I1624
tp110
a(Vpeptidase activity
p111
I1567
tp112
a(Vendoplasmic reticulum
p113
I1485
tp114
a(Vlipid binding
p115
I1479
tp116
a(Vcell death
p117
I1452
tp118
a(Vcytoskeleton
p119
I1384
tp120
a(Vstructural molecule activity
p121
I1377
tp122
a(Vmembrane organization
p123
I1346
tp124
a(Vprotein targeting
p125
I1321
tp126
a(Vcell adhesion
p127
I1300
tp128
a(Vendosome
p129
I1283
tp130
a(VATPase activity
p131
I1251
tp132
a(Venzyme regulator activity
p133
I1228
tp134
a(Vcell proliferation
p135
I1225
tp136
a(Vligase activity
p137
I1216
tp138
a(Vnucleoplasm
p139
I1171
tp140
a(Vextracellular region
p141
I1166
tp142
a(Vsulfur compound metabolic process
p143
I1125
tp144
a(Vcell morphogenesis
p145
I1074
tp146
a(Vtranscription factor binding
p147
I1065
tp148
a(Vmicrotubule organizing center
p149
I1017
tp150
a(Vnucleic acid binding transcription factor activity
p151
I1005
tp152
a(Vgeneration of precursor metabolites and energy
p153
I971
tp154
a(Vprotein binding transcription factor activity
p155
I965
tp156
a(Vextracellular space
p157
I934
tp158
a(Vcofactor metabolic process
p159
I913
tp160
a(Vvacuole
p161
I826
tp162
a(Vsymbiosis, encompassing mutualism through parasitism
p163
I817
tp164
a(Vextracellular matrix organization
p165
I800
tp166
a(Vplastid
p167
I790
tp168
a(VmRNA processing
p169
I741
tp170
a(Vtransferase activity, transferring acyl groups
p171
I736
tp172
a(Vcilium
p173
I657
tp174
a(Vreproduction
p175
I656
tp176
a(Vcirculatory system process
p177
I611
tp178
a(Vstructural constituent of ribosome
p179
I594
tp180
a(Vphosphatase activity
p181
I578
tp182
a(Vcell cycle
p183
I556
tp184
a(Vnucleocytoplasmic transport
p185
I545
tp186
a(Vaging
p187
I544
tp188
a(Vexternal encapsulating structure
p189
I539
tp190
a(Vcell wall
p191
I534
tp192
a(Vprotein folding
p193
I528
tp194
a(Vlyase activity
p195
I527
tp196
a(Vtransferase activity, transferring glycosyl groups
p197
I505
tp198
a(Vmethyltransferase activity
p199
I472
tp200
a(Vcell junction organization
p201
I455
tp202
a(Vcell division
p203
I450
tp204
a(Vsecondary metabolic process
p205
I442
tp206
a(VGTPase activity
p207
I429
tp208
a(Vlysosome
p209
I420
tp210
a(Vdevelopmental maturation
p211
I417
tp212
a(Vhelicase activity
p213
I405
tp214
a(Vribonucleoprotein complex assembly
p215
I401
tp216
a(Vmitochondrion organization
p217
I397
tp218
a(Vnuclease activity
p219
I387
tp220
a(Visomerase activity
p221
I364
tp222
a(Vchromosome
p223
I361
tp224
a(Vnuclear envelope
p225
I346
tp226
a(Vcytoskeleton-dependent intracellular transport
p227
I343
tp228
a(VmRNA binding
p229
I337
tp230
a(Vcell wall organization or biogenesis
p231
I323
tp232
a(Vproteinaceous extracellular matrix
p233
I314
tp234
a(Vhydrolase activity, acting on glycosyl bonds
p235
I305
tp236
a(Vhistone binding
p237
I295
tp238
a(Vnucleotidyltransferase activity
p239
I286
tp240
a(Vvacuolar transport
p241
I281
tp242
a(Vtranslation factor activity, nucleic acid binding
p243
I266
tp244
a(Vperoxisome
p245
I258
tp246
a(Vmitosis
p247
I253
tp248
a(Vplasma membrane organization
p249
I252
tp250
a(Vprotein binding, bridging
p251
I246
tp252
a(Vhydrolase activity, acting on carbon-nitrogen (but not peptide) bonds
p253
I221
tp254
a(VtRNA metabolic process
p255
I221
tp256
a(Vribosome
p257
I213
tp258
a(Vchromosome segregation
p259
I213
tp260
a(Vunfolded protein binding
p261
I210
tp262
a(Vtranslation
p263
I195
tp264
a(Vlipid particle
p265
I193
tp266
a(Vsmall conjugating protein binding
p267
I177
tp268
a(Vribosome biogenesis
p269
I167
tp270
a(Vprotein transporter activity
p271
I157
tp272
a(Vtransferase activity, transferring alkyl or aryl (other than methyl) groups
p273
I147
tp274
a(Vnuclear chromosome
p275
I128
tp276
a(VrRNA binding
p277
I113
tp278
a(Vthylakoid
p279
I109
tp280
a(Vintracellular
p281
I109
tp282
a(Vpigmentation
p283
I100
tp284
a(Vnitrogen cycle metabolic process
p285
I43
tp286
a(Vphotosynthesis
p287
I40
tp288
a(Vtransposition
p289
I19
tp290
a(Vcell
p291
I11
tp292
a(Vcytoplasmic chromosome
p293
I2
tp294
aa(lp295
(g3
L6372L
tp296
a(g5
L4365L
tp297
a(g7
L2787L
tp298
a(g9
L21685L
tp299
a(g11
L26888L
tp300
a(g13
L5491L
tp301
a(g15
L18268L
tp302
a(g17
L5801L
tp303
a(g19
L5613L
tp304
a(g21
L21693L
tp305
a(g23
L22689L
tp306
a(g25
L7192L
tp307
a(g27
L21630L
tp308
a(g29
L7190L
tp309
a(g31
L5168L
tp310
a(g33
L1781L
tp311
a(g35
L13633L
tp312
a(g37
L13924L
tp313
a(g39
L5326L
tp314
a(g41
L4599L
tp315
a(g43
L12968L
tp316
a(g45
L4644L
tp317
a(g47
L20507L
tp318
a(g49
L4507L
tp319
a(g51
L10381L
tp320
a(g53
L13690L
tp321
a(g55
L4422L
tp322
a(g57
L26682L
tp323
a(g59
L10598L
tp324
a(g61
L21086L
tp325
a(g63
L4725L
tp326
a(g65
L31581L
tp327
a(g67
L4995L
tp328
a(g69
L2790L
tp329
a(g71
L18282L
tp330
a(g73
L3827L
tp331
a(g75
L7881L
tp332
a(g77
L4514L
tp333
a(g79
L29927L
tp334
a(g81
L28228L
tp335
a(g83
L26901L
tp336
a(g85
L20503L
tp337
a(g87
L27837L
tp338
a(g89
L28535L
tp339
a(g91
L5165L
tp340
a(g93
L6320L
tp341
a(g95
L2830L
tp342
a(g97
L10466L
tp343
a(g99
L5663L
tp344
a(g101
L5218L
tp345
a(g103
L4567L
tp346
a(g105
L4515L
tp347
a(g107
L10229L
tp348
a(g109
L5896L
tp349
a(g111
L6448L
tp350
a(g113
L4556L
tp351
a(g115
L6500L
tp352
a(g117
L6436L
tp353
a(g119
L4621L
tp354
a(g121
L4118L
tp355
a(g123
L30984L
tp356
a(g125
L5302L
tp357
a(g127
L5791L
tp358
a(g129
L4542L
tp359
a(g131
L10963L
tp360
a(g133
L14001L
tp361
a(g135
L6494L
tp362
a(g137
L10950L
tp363
a(g139
L4439L
tp364
a(g141
L4366L
tp365
a(g143
L5471L
tp366
a(g145
L594L
tp367
a(g147
L6357L
tp368
a(g149
L4586L
tp369
a(g151
L759L
tp370
a(g153
L4838L
tp371
a(g155
L677L
tp372
a(g157
L4405L
tp373
a(g159
L28144L
tp374
a(g161
L4546L
tp375
a(g163
L22810L
tp376
a(g165
L13967L
tp377
a(g167
L7644L
tp378
a(g169
L5112L
tp379
a(g171
L10829L
tp380
a(g173
L4684L
tp381
a(g175
L3L
tp382
a(g177
L2364L
tp383
a(g179
L2841L
tp384
a(g181
L10870L
tp385
a(g183
L5695L
tp386
a(g185
L5582L
tp387
a(g187
L6169L
tp388
a(g189
L14078L
tp389
a(g191
L4408L
tp390
a(g193
L5161L
tp391
a(g195
L10905L
tp392
a(g197
L10840L
tp393
a(g199
L6389L
tp394
a(g201
L17965L
tp395
a(g203
L28251L
tp396
a(g205
L12827L
tp397
a(g207
L2991L
tp398
a(g209
L4538L
tp399
a(g211
L13274L
tp400
a(g213
L3404L
tp401
a(g215
L13644L
tp402
a(g217
L5658L
tp403
a(g219
L3518L
tp404
a(g221
L10929L
tp405
a(g223
L4475L
tp406
a(g225
L4423L
tp407
a(g227
L14427L
tp408
a(g229
L2835L
tp409
a(g231
L33137L
tp410
a(g233
L4368L
tp411
a(g235
L10876L
tp412
a(g237
L20900L
tp413
a(g239
L10860L
tp414
a(g241
L5682L
tp415
a(g243
L6358L
tp416
a(g245
L4550L
tp417
a(g247
L5712L
tp418
a(g249
L5662L
tp419
a(g251
L14396L
tp420
a(g253
L10886L
tp421
a(g255
L5114L
tp422
a(g257
L4609L
tp423
a(g259
L5705L
tp424
a(g261
L28040L
tp425
a(g263
L5126L
tp426
a(g265
L4583L
tp427
a(g267
L15840L
tp428
a(g269
L20770L
tp429
a(g271
L6747L
tp430
a(g273
L10848L
tp431
a(g275
L201L
tp432
a(g277
L12918L
tp433
a(g279
L7683L
tp434
a(g281
L4411L
tp435
a(g283
L21900L
tp436
a(g285
L33512L
tp437
a(g287
L10192L
tp438
a(g289
L15852L
tp439
a(g291
L4412L
tp440
a(g293
L202L
tp441
aaI761063
a.