(lp1
(lp2
(Vbiological_process
p3
I296443
tp4
a(Vcellular_component
p5
I98973
tp6
a(Vmolecular_function
p7
I79177
tp8
a(Vorganelle
p9
I26787
tp10
a(Vanatomical structure development
p11
I20991
tp12
a(Vtransport
p13
I16774
tp14
a(Vcellular nitrogen compound metabolic process
p15
I14561
tp16
a(Vsignal transduction
p17
I13618
tp18
a(Vresponse to stress
p19
I11673
tp20
a(Vprotein complex
p21
I10516
tp22
a(Vbiosynthetic process
p23
I10462
tp24
a(Vsmall molecule metabolic process
p25
I10264
tp26
a(Vion binding
p27
I9575
tp28
a(Vcatabolic process
p29
I7641
tp30
a(Vcellular protein modification process
p31
I7480
tp32
a(Vimmune system process
p33
I6026
tp34
a(Vcellular component assembly
p35
I4875
tp36
a(Vcell differentiation
p37
I4734
tp38
a(Vlipid metabolic process
p39
I4569
tp40
a(Vcytosol
p41
I4562
tp42
a(Venzyme binding
p43
I3975
tp44
a(Vplasma membrane
p45
I3748
tp46
a(Vlocomotion
p47
I3500
tp48
a(Vnucleolus
p49
I3414
tp50
a(Vvesicle-mediated transport
p51
I3379
tp52
a(Vnucleus
p53
I3256
tp54
a(Vtransmembrane transporter activity
p55
I3231
tp56
a(VDNA metabolic process
p57
I3131
tp58
a(Vcarbohydrate metabolic process
p59
I3009
tp60
a(Vanatomical structure formation involved in morphogenesis
p61
I2969
tp62
a(Vhomeostatic process
p63
I2927
tp64
a(Voxidoreductase activity
p65
I2878
tp66
a(Vmacromolecular complex assembly
p67
I2799
tp68
a(Vnucleobase-containing compound catabolic process
p69
I2770
tp70
a(Vchromosome organization
p71
I2677
tp72
a(VDNA binding
p73
I2577
tp74
a(Vcytoplasm
p75
I2542
tp76
a(Vsignal transducer activity
p77
I2512
tp78
a(Vembryo development
p79
I2502
tp80
a(Vgrowth
p81
I2442
tp82
a(Vtransmembrane transport
p83
I2424
tp84
a(Vcell motility
p85
I2407
tp86
a(Vneurological system process
p87
I2380
tp88
a(Vprotein maturation
p89
I2322
tp90
a(Vprotein complex assembly
p91
I2318
tp92
a(Vcytoskeletal protein binding
p93
I2288
tp94
a(Vkinase activity
p95
I2287
tp96
a(Vcytoskeleton organization
p97
I2046
tp98
a(VRNA binding
p99
I2013
tp100
a(Vcellular amino acid metabolic process
p101
I1932
tp102
a(VGolgi apparatus
p103
I1906
tp104
a(Vmitochondrion
p105
I1895
tp106
a(Vcytoplasmic membrane-bounded vesicle
p107
I1771
tp108
a(Vcell-cell signaling
p109
I1632
tp110
a(Vendoplasmic reticulum
p111
I1588
tp112
a(Vcytoskeleton
p113
I1570
tp114
a(Vlipid binding
p115
I1564
tp116
a(Vpeptidase activity
p117
I1538
tp118
a(Vcell death
p119
I1516
tp120
a(Vmembrane organization
p121
I1421
tp122
a(Vendosome
p123
I1418
tp124
a(VATPase activity
p125
I1410
tp126
a(Vcell adhesion
p127
I1396
tp128
a(Vprotein targeting
p129
I1316
tp130
a(Vstructural molecule activity
p131
I1314
tp132
a(Vligase activity
p133
I1293
tp134
a(Venzyme regulator activity
p135
I1254
tp136
a(Vcell proliferation
p137
I1249
tp138
a(Vnucleoplasm
p139
I1198
tp140
a(Vcell morphogenesis
p141
I1196
tp142
a(Vmicrotubule organizing center
p143
I1151
tp144
a(Vsulfur compound metabolic process
p145
I1150
tp146
a(Vextracellular region
p147
I1130
tp148
a(Vtranscription factor binding
p149
I1064
tp150
a(Vcofactor metabolic process
p151
I948
tp152
a(Vprotein binding transcription factor activity
p153
I944
tp154
a(Vgeneration of precursor metabolites and energy
p155
I943
tp156
a(Vnucleic acid binding transcription factor activity
p157
I919
tp158
a(Vextracellular space
p159
I855
tp160
a(Vvacuole
p161
I841
tp162
a(Vplastid
p163
I815
tp164
a(Vtransferase activity, transferring acyl groups
p165
I795
tp166
a(Vsymbiosis, encompassing mutualism through parasitism
p167
I794
tp168
a(VmRNA processing
p169
I758
tp170
a(Vcilium
p171
I750
tp172
a(Vextracellular matrix organization
p173
I747
tp174
a(Vreproduction
p175
I722
tp176
a(Vcell cycle
p177
I713
tp178
a(Vphosphatase activity
p179
I712
tp180
a(Vcirculatory system process
p181
I612
tp182
a(Vtransferase activity, transferring glycosyl groups
p183
I591
tp184
a(Vlyase activity
p185
I580
tp186
a(Vaging
p187
I569
tp188
a(Vstructural constituent of ribosome
p189
I557
tp190
a(Vnucleocytoplasmic transport
p191
I551
tp192
a(Vexternal encapsulating structure
p193
I536
tp194
a(Vmethyltransferase activity
p195
I532
tp196
a(Vcell wall
p197
I531
tp198
a(Vprotein folding
p199
I519
tp200
a(Vcell division
p201
I514
tp202
a(Vhelicase activity
p203
I511
tp204
a(Vcell junction organization
p205
I500
tp206
a(Vnuclease activity
p207
I456
tp208
a(Vsecondary metabolic process
p209
I449
tp210
a(VGTPase activity
p211
I438
tp212
a(Vchromosome
p213
I424
tp214
a(Vlysosome
p215
I421
tp216
a(Vdevelopmental maturation
p217
I419
tp218
a(Vmitochondrion organization
p219
I409
tp220
a(Vcytoskeleton-dependent intracellular transport
p221
I406
tp222
a(Visomerase activity
p223
I392
tp224
a(Vribonucleoprotein complex assembly
p225
I387
tp226
a(Vnuclear envelope
p227
I378
tp228
a(Vhydrolase activity, acting on glycosyl bonds
p229
I370
tp230
a(Vcell wall organization or biogenesis
p231
I342
tp232
a(VmRNA binding
p233
I322
tp234
a(Vnucleotidyltransferase activity
p235
I310
tp236
a(Vhistone binding
p237
I307
tp238
a(Vvacuolar transport
p239
I301
tp240
a(Vproteinaceous extracellular matrix
p241
I300
tp242
a(Vmitosis
p243
I292
tp244
a(Vchromosome segregation
p245
I284
tp246
a(Vplasma membrane organization
p247
I281
tp248
a(VtRNA metabolic process
p249
I270
tp250
a(Vprotein binding, bridging
p251
I258
tp252
a(Vperoxisome
p253
I257
tp254
a(Vhydrolase activity, acting on carbon-nitrogen (but not peptide) bonds
p255
I244
tp256
a(Vtranslation factor activity, nucleic acid binding
p257
I243
tp258
a(Vribosome
p259
I202
tp260
a(Vtranslation
p261
I200
tp262
a(Vunfolded protein binding
p263
I193
tp264
a(Vlipid particle
p265
I190
tp266
a(Vsmall conjugating protein binding
p267
I180
tp268
a(Vribosome biogenesis
p269
I175
tp270
a(Vprotein transporter activity
p271
I153
tp272
a(Vtransferase activity, transferring alkyl or aryl (other than methyl) groups
p273
I150
tp274
a(Vnuclear chromosome
p275
I137
tp276
a(Vintracellular
p277
I129
tp278
a(Vthylakoid
p279
I113
tp280
a(VrRNA binding
p281
I111
tp282
a(Vpigmentation
p283
I96
tp284
a(Vnitrogen cycle metabolic process
p285
I42
tp286
a(Vphotosynthesis
p287
I35
tp288
a(Vtransposition
p289
I19
tp290
a(Vcell
p291
I12
tp292
a(Vcytoplasmic chromosome
p293
I1
tp294
a(VRNA modification guide activity
p295
I1
tp296
aa(lp297
(g3
L6372L
tp298
a(g5
L4365L
tp299
a(g7
L2787L
tp300
a(g9
L21685L
tp301
a(g11
L26888L
tp302
a(g13
L5491L
tp303
a(g15
L18268L
tp304
a(g17
L5801L
tp305
a(g19
L5613L
tp306
a(g21
L21693L
tp307
a(g23
L7192L
tp308
a(g25
L22689L
tp309
a(g27
L21630L
tp310
a(g29
L7190L
tp311
a(g31
L5168L
tp312
a(g33
L1781L
tp313
a(g35
L13633L
tp314
a(g37
L13924L
tp315
a(g39
L5326L
tp316
a(g41
L4599L
tp317
a(g43
L12968L
tp318
a(g45
L4644L
tp319
a(g47
L20507L
tp320
a(g49
L4507L
tp321
a(g51
L10381L
tp322
a(g53
L4422L
tp323
a(g55
L13690L
tp324
a(g57
L4995L
tp325
a(g59
L4725L
tp326
a(g61
L26682L
tp327
a(g63
L21086L
tp328
a(g65
L10598L
tp329
a(g67
L31581L
tp330
a(g69
L18282L
tp331
a(g71
L28228L
tp332
a(g73
L2790L
tp333
a(g75
L4514L
tp334
a(g77
L3827L
tp335
a(g79
L7881L
tp336
a(g81
L20503L
tp337
a(g83
L29927L
tp338
a(g85
L26901L
tp339
a(g87
L27837L
tp340
a(g89
L28535L
tp341
a(g91
L5165L
tp342
a(g93
L6320L
tp343
a(g95
L10466L
tp344
a(g97
L5663L
tp345
a(g99
L2830L
tp346
a(g101
L5218L
tp347
a(g103
L4567L
tp348
a(g105
L4515L
tp349
a(g107
L10229L
tp350
a(g109
L5896L
tp351
a(g111
L4556L
tp352
a(g113
L4621L
tp353
a(g115
L6500L
tp354
a(g117
L6448L
tp355
a(g119
L6436L
tp356
a(g121
L30984L
tp357
a(g123
L4542L
tp358
a(g125
L10963L
tp359
a(g127
L5791L
tp360
a(g129
L5302L
tp361
a(g131
L4118L
tp362
a(g133
L10950L
tp363
a(g135
L14001L
tp364
a(g137
L6494L
tp365
a(g139
L4439L
tp366
a(g141
L594L
tp367
a(g143
L4586L
tp368
a(g145
L5471L
tp369
a(g147
L4366L
tp370
a(g149
L6357L
tp371
a(g151
L28144L
tp372
a(g153
L677L
tp373
a(g155
L4838L
tp374
a(g157
L759L
tp375
a(g159
L4405L
tp376
a(g161
L4546L
tp377
a(g163
L7644L
tp378
a(g165
L10829L
tp379
a(g167
L22810L
tp380
a(g169
L5112L
tp381
a(g171
L4684L
tp382
a(g173
L13967L
tp383
a(g175
L3L
tp384
a(g177
L5695L
tp385
a(g179
L10870L
tp386
a(g181
L2364L
tp387
a(g183
L10840L
tp388
a(g185
L10905L
tp389
a(g187
L6169L
tp390
a(g189
L2841L
tp391
a(g191
L5582L
tp392
a(g193
L14078L
tp393
a(g195
L6389L
tp394
a(g197
L4408L
tp395
a(g199
L5161L
tp396
a(g201
L28251L
tp397
a(g203
L3404L
tp398
a(g205
L17965L
tp399
a(g207
L3518L
tp400
a(g209
L12827L
tp401
a(g211
L2991L
tp402
a(g213
L4475L
tp403
a(g215
L4538L
tp404
a(g217
L13274L
tp405
a(g219
L5658L
tp406
a(g221
L14427L
tp407
a(g223
L10929L
tp408
a(g225
L13644L
tp409
a(g227
L4423L
tp410
a(g229
L10876L
tp411
a(g231
L33137L
tp412
a(g233
L2835L
tp413
a(g235
L10860L
tp414
a(g237
L20900L
tp415
a(g239
L5682L
tp416
a(g241
L4368L
tp417
a(g243
L5712L
tp418
a(g245
L5705L
tp419
a(g247
L5662L
tp420
a(g249
L5114L
tp421
a(g251
L14396L
tp422
a(g253
L4550L
tp423
a(g255
L10886L
tp424
a(g257
L6358L
tp425
a(g259
L4609L
tp426
a(g261
L5126L
tp427
a(g263
L28040L
tp428
a(g265
L4583L
tp429
a(g267
L15840L
tp430
a(g269
L20770L
tp431
a(g271
L6747L
tp432
a(g273
L10848L
tp433
a(g275
L201L
tp434
a(g277
L4411L
tp435
a(g279
L7683L
tp436
a(g281
L12918L
tp437
a(g283
L21900L
tp438
a(g285
L33512L
tp439
a(g287
L10192L
tp440
a(g289
L15852L
tp441
a(g291
L4412L
tp442
a(g293
L202L
tp443
a(g295
L14288L
tp444
aaI806754
a.