(lp1
(lp2
(Vbiological_process
p3
I241105
tp4
a(Vcellular_component
p5
I80034
tp6
a(Vmolecular_function
p7
I64912
tp8
a(Vorganelle
p9
I21354
tp10
a(Vanatomical structure development
p11
I17529
tp12
a(Vtransport
p13
I13747
tp14
a(Vcellular nitrogen compound metabolic process
p15
I11446
tp16
a(Vsignal transduction
p17
I11163
tp18
a(Vresponse to stress
p19
I9449
tp20
a(Vprotein complex
p21
I8414
tp22
a(Vbiosynthetic process
p23
I8311
tp24
a(Vsmall molecule metabolic process
p25
I8253
tp26
a(Vion binding
p27
I7895
tp28
a(Vcatabolic process
p29
I6095
tp30
a(Vcellular protein modification process
p31
I5738
tp32
a(Vimmune system process
p33
I4869
tp34
a(Vcell differentiation
p35
I3945
tp36
a(Vcellular component assembly
p37
I3893
tp38
a(Vlipid metabolic process
p39
I3803
tp40
a(Vcytosol
p41
I3667
tp42
a(Venzyme binding
p43
I3249
tp44
a(Vplasma membrane
p45
I3106
tp46
a(Vlocomotion
p47
I2910
tp48
a(Vtransmembrane transporter activity
p49
I2816
tp50
a(Vnucleolus
p51
I2791
tp52
a(Vvesicle-mediated transport
p53
I2667
tp54
a(Vnucleus
p55
I2563
tp56
a(Vanatomical structure formation involved in morphogenesis
p57
I2497
tp58
a(Vhomeostatic process
p59
I2442
tp60
a(Voxidoreductase activity
p61
I2381
tp62
a(VDNA metabolic process
p63
I2347
tp64
a(Vcarbohydrate metabolic process
p65
I2320
tp66
a(Vmacromolecular complex assembly
p67
I2285
tp68
a(Vsignal transducer activity
p69
I2245
tp70
a(VDNA binding
p71
I2220
tp72
a(Vnucleobase-containing compound catabolic process
p73
I2214
tp74
a(Vneurological system process
p75
I2092
tp76
a(Vtransmembrane transport
p77
I2090
tp78
a(Vcytoplasm
p79
I2073
tp80
a(Vcell motility
p81
I2045
tp82
a(Vchromosome organization
p83
I2013
tp84
a(Vembryo development
p85
I1998
tp86
a(Vgrowth
p87
I1961
tp88
a(Vprotein maturation
p89
I1954
tp90
a(Vprotein complex assembly
p91
I1893
tp92
a(Vcytoskeletal protein binding
p93
I1821
tp94
a(VRNA binding
p95
I1651
tp96
a(Vkinase activity
p97
I1634
tp98
a(Vcytoskeleton organization
p99
I1593
tp100
a(VGolgi apparatus
p101
I1587
tp102
a(Vmitochondrion
p103
I1511
tp104
a(Vcellular amino acid metabolic process
p105
I1507
tp106
a(Vcytoplasmic membrane-bounded vesicle
p107
I1504
tp108
a(Vcell-cell signaling
p109
I1443
tp110
a(Vpeptidase activity
p111
I1314
tp112
a(Vendoplasmic reticulum
p113
I1293
tp114
a(Vlipid binding
p115
I1266
tp116
a(Vcell death
p117
I1223
tp118
a(Vcytoskeleton
p119
I1206
tp120
a(Vmembrane organization
p121
I1169
tp122
a(Vcell adhesion
p123
I1166
tp124
a(Vstructural molecule activity
p125
I1154
tp126
a(Vendosome
p127
I1125
tp128
a(Vprotein targeting
p129
I1103
tp130
a(VATPase activity
p131
I1102
tp132
a(Vligase activity
p133
I1065
tp134
a(Vcell proliferation
p135
I1054
tp136
a(Venzyme regulator activity
p137
I1028
tp138
a(Vextracellular region
p139
I993
tp140
a(Vnucleoplasm
p141
I965
tp142
a(Vsulfur compound metabolic process
p143
I957
tp144
a(Vcell morphogenesis
p145
I932
tp146
a(Vtranscription factor binding
p147
I894
tp148
a(Vmicrotubule organizing center
p149
I871
tp150
a(Vnucleic acid binding transcription factor activity
p151
I830
tp152
a(Vprotein binding transcription factor activity
p153
I808
tp154
a(Vextracellular space
p155
I801
tp156
a(Vcofactor metabolic process
p157
I786
tp158
a(Vgeneration of precursor metabolites and energy
p159
I784
tp160
a(Vextracellular matrix organization
p161
I691
tp162
a(Vvacuole
p163
I686
tp164
a(Vplastid
p165
I671
tp166
a(Vsymbiosis, encompassing mutualism through parasitism
p167
I658
tp168
a(Vtransferase activity, transferring acyl groups
p169
I628
tp170
a(VmRNA processing
p171
I608
tp172
a(Vcilium
p173
I581
tp174
a(Vcirculatory system process
p175
I548
tp176
a(Vreproduction
p177
I528
tp178
a(Vphosphatase activity
p179
I511
tp180
a(Vstructural constituent of ribosome
p181
I485
tp182
a(Vaging
p183
I484
tp184
a(Vcell cycle
p185
I470
tp186
a(Vnucleocytoplasmic transport
p187
I457
tp188
a(Vtransferase activity, transferring glycosyl groups
p189
I451
tp190
a(Vexternal encapsulating structure
p191
I450
tp192
a(Vcell wall
p193
I445
tp194
a(Vlyase activity
p195
I439
tp196
a(Vmethyltransferase activity
p197
I417
tp198
a(Vprotein folding
p199
I415
tp200
a(Vcell junction organization
p201
I400
tp202
a(Vcell division
p203
I383
tp204
a(Vsecondary metabolic process
p205
I377
tp206
a(Vhelicase activity
p207
I366
tp208
a(Vlysosome
p209
I350
tp210
a(VGTPase activity
p211
I350
tp212
a(Vdevelopmental maturation
p213
I350
tp214
a(Vnuclease activity
p215
I348
tp216
a(Vmitochondrion organization
p217
I328
tp218
a(Vribonucleoprotein complex assembly
p219
I314
tp220
a(Vchromosome
p221
I307
tp222
a(Vnuclear envelope
p223
I301
tp224
a(Visomerase activity
p225
I294
tp226
a(Vcytoskeleton-dependent intracellular transport
p227
I294
tp228
a(Vproteinaceous extracellular matrix
p229
I280
tp230
a(VmRNA binding
p231
I271
tp232
a(Vcell wall organization or biogenesis
p233
I268
tp234
a(Vhydrolase activity, acting on glycosyl bonds
p235
I261
tp236
a(Vhistone binding
p237
I253
tp238
a(Vnucleotidyltransferase activity
p239
I247
tp240
a(Vvacuolar transport
p241
I238
tp242
a(Vplasma membrane organization
p243
I226
tp244
a(Vperoxisome
p245
I215
tp246
a(Vmitosis
p247
I213
tp248
a(Vprotein binding, bridging
p249
I209
tp250
a(Vtranslation factor activity, nucleic acid binding
p251
I208
tp252
a(Vhydrolase activity, acting on carbon-nitrogen (but not peptide) bonds
p253
I191
tp254
a(Vchromosome segregation
p255
I188
tp256
a(VtRNA metabolic process
p257
I185
tp258
a(Vribosome
p259
I173
tp260
a(Vunfolded protein binding
p261
I163
tp262
a(Vtranslation
p263
I157
tp264
a(Vlipid particle
p265
I154
tp266
a(Vsmall conjugating protein binding
p267
I145
tp268
a(Vribosome biogenesis
p269
I138
tp270
a(Vprotein transporter activity
p271
I129
tp272
a(Vtransferase activity, transferring alkyl or aryl (other than methyl) groups
p273
I119
tp274
a(Vnuclear chromosome
p275
I108
tp276
a(Vthylakoid
p277
I101
tp278
a(Vintracellular
p279
I96
tp280
a(VrRNA binding
p281
I92
tp282
a(Vpigmentation
p283
I82
tp284
a(Vnitrogen cycle metabolic process
p285
I33
tp286
a(Vphotosynthesis
p287
I33
tp288
a(Vtransposition
p289
I19
tp290
a(Vcell
p291
I11
tp292
a(Vcytoplasmic chromosome
p293
I1
tp294
aa(lp295
(g3
L6372L
tp296
a(g5
L4365L
tp297
a(g7
L2787L
tp298
a(g9
L21685L
tp299
a(g11
L26888L
tp300
a(g13
L5491L
tp301
a(g15
L18268L
tp302
a(g17
L5801L
tp303
a(g19
L5613L
tp304
a(g21
L21693L
tp305
a(g23
L7192L
tp306
a(g25
L22689L
tp307
a(g27
L21630L
tp308
a(g29
L7190L
tp309
a(g31
L5168L
tp310
a(g33
L1781L
tp311
a(g35
L13924L
tp312
a(g37
L13633L
tp313
a(g39
L5326L
tp314
a(g41
L4599L
tp315
a(g43
L12968L
tp316
a(g45
L4644L
tp317
a(g47
L20507L
tp318
a(g49
L13690L
tp319
a(g51
L4507L
tp320
a(g53
L10381L
tp321
a(g55
L4422L
tp322
a(g57
L26682L
tp323
a(g59
L21086L
tp324
a(g61
L10598L
tp325
a(g63
L4995L
tp326
a(g65
L4725L
tp327
a(g67
L31581L
tp328
a(g69
L3827L
tp329
a(g71
L2790L
tp330
a(g73
L18282L
tp331
a(g75
L27837L
tp332
a(g77
L29927L
tp333
a(g79
L4514L
tp334
a(g81
L26901L
tp335
a(g83
L28228L
tp336
a(g85
L7881L
tp337
a(g87
L20503L
tp338
a(g89
L28535L
tp339
a(g91
L5165L
tp340
a(g93
L6320L
tp341
a(g95
L2830L
tp342
a(g97
L10466L
tp343
a(g99
L5663L
tp344
a(g101
L4567L
tp345
a(g103
L4515L
tp346
a(g105
L5218L
tp347
a(g107
L10229L
tp348
a(g109
L5896L
tp349
a(g111
L6448L
tp350
a(g113
L4556L
tp351
a(g115
L6500L
tp352
a(g117
L6436L
tp353
a(g119
L4621L
tp354
a(g121
L30984L
tp355
a(g123
L5791L
tp356
a(g125
L4118L
tp357
a(g127
L4542L
tp358
a(g129
L5302L
tp359
a(g131
L10963L
tp360
a(g133
L10950L
tp361
a(g135
L6494L
tp362
a(g137
L14001L
tp363
a(g139
L4366L
tp364
a(g141
L4439L
tp365
a(g143
L5471L
tp366
a(g145
L594L
tp367
a(g147
L6357L
tp368
a(g149
L4586L
tp369
a(g151
L759L
tp370
a(g153
L677L
tp371
a(g155
L4405L
tp372
a(g157
L28144L
tp373
a(g159
L4838L
tp374
a(g161
L13967L
tp375
a(g163
L4546L
tp376
a(g165
L7644L
tp377
a(g167
L22810L
tp378
a(g169
L10829L
tp379
a(g171
L5112L
tp380
a(g173
L4684L
tp381
a(g175
L2364L
tp382
a(g177
L3L
tp383
a(g179
L10870L
tp384
a(g181
L2841L
tp385
a(g183
L6169L
tp386
a(g185
L5695L
tp387
a(g187
L5582L
tp388
a(g189
L10840L
tp389
a(g191
L14078L
tp390
a(g193
L4408L
tp391
a(g195
L10905L
tp392
a(g197
L6389L
tp393
a(g199
L5161L
tp394
a(g201
L17965L
tp395
a(g203
L28251L
tp396
a(g205
L12827L
tp397
a(g207
L3404L
tp398
a(g209
L4538L
tp399
a(g211
L2991L
tp400
a(g213
L13274L
tp401
a(g215
L3518L
tp402
a(g217
L5658L
tp403
a(g219
L13644L
tp404
a(g221
L4475L
tp405
a(g223
L4423L
tp406
a(g225
L10929L
tp407
a(g227
L14427L
tp408
a(g229
L4368L
tp409
a(g231
L2835L
tp410
a(g233
L33137L
tp411
a(g235
L10876L
tp412
a(g237
L20900L
tp413
a(g239
L10860L
tp414
a(g241
L5682L
tp415
a(g243
L5662L
tp416
a(g245
L4550L
tp417
a(g247
L5712L
tp418
a(g249
L14396L
tp419
a(g251
L6358L
tp420
a(g253
L10886L
tp421
a(g255
L5705L
tp422
a(g257
L5114L
tp423
a(g259
L4609L
tp424
a(g261
L28040L
tp425
a(g263
L5126L
tp426
a(g265
L4583L
tp427
a(g267
L15840L
tp428
a(g269
L20770L
tp429
a(g271
L6747L
tp430
a(g273
L10848L
tp431
a(g275
L201L
tp432
a(g277
L7683L
tp433
a(g279
L4411L
tp434
a(g281
L12918L
tp435
a(g283
L21900L
tp436
a(g285
L33512L
tp437
a(g287
L10192L
tp438
a(g289
L15852L
tp439
a(g291
L4412L
tp440
a(g293
L202L
tp441
aaI655526
a.