(lp1
(lp2
(Vbiological_process
p3
I350755
tp4
a(Vcellular_component
p5
I117001
tp6
a(Vmolecular_function
p7
I95883
tp8
a(Vorganelle
p9
I30922
tp10
a(Vanatomical structure development
p11
I25685
tp12
a(Vtransport
p13
I19963
tp14
a(Vsignal transduction
p15
I16442
tp16
a(Vcellular nitrogen compound metabolic process
p17
I16210
tp18
a(Vresponse to stress
p19
I13527
tp20
a(Vprotein complex
p21
I12777
tp22
a(Vsmall molecule metabolic process
p23
I11989
tp24
a(Vion binding
p25
I11812
tp26
a(Vbiosynthetic process
p27
I11448
tp28
a(Vcatabolic process
p29
I8628
tp30
a(Vcellular protein modification process
p31
I8572
tp32
a(Vimmune system process
p33
I7186
tp34
a(Vcell differentiation
p35
I5861
tp36
a(Vcellular component assembly
p37
I5837
tp38
a(Vcytosol
p39
I5539
tp40
a(Vlipid metabolic process
p41
I5484
tp42
a(Venzyme binding
p43
I5007
tp44
a(Vplasma membrane
p45
I4472
tp46
a(Vlocomotion
p47
I4387
tp48
a(Vnucleolus
p49
I4102
tp50
a(Vtransmembrane transporter activity
p51
I4002
tp52
a(Vvesicle-mediated transport
p53
I3988
tp54
a(Vanatomical structure formation involved in morphogenesis
p55
I3840
tp56
a(Vnucleus
p57
I3769
tp58
a(Vhomeostatic process
p59
I3586
tp60
a(VDNA metabolic process
p61
I3475
tp62
a(Vcarbohydrate metabolic process
p63
I3433
tp64
a(Vmacromolecular complex assembly
p65
I3419
tp66
a(VDNA binding
p67
I3368
tp68
a(Voxidoreductase activity
p69
I3349
tp70
a(Vcell motility
p71
I3157
tp72
a(Vsignal transducer activity
p73
I3118
tp74
a(Vneurological system process
p75
I3100
tp76
a(Vchromosome organization
p77
I3076
tp78
a(Vnucleobase-containing compound catabolic process
p79
I3069
tp80
a(Vtransmembrane transport
p81
I3035
tp82
a(Vcytoplasm
p83
I2998
tp84
a(Vembryo development
p85
I2871
tp86
a(Vgrowth
p87
I2851
tp88
a(Vprotein maturation
p89
I2851
tp90
a(Vprotein complex assembly
p91
I2782
tp92
a(Vcytoskeletal protein binding
p93
I2725
tp94
a(Vcytoskeleton organization
p95
I2498
tp96
a(Vkinase activity
p97
I2436
tp98
a(VRNA binding
p99
I2348
tp100
a(VGolgi apparatus
p101
I2270
tp102
a(Vcellular amino acid metabolic process
p103
I2238
tp104
a(Vcytoplasmic membrane-bounded vesicle
p105
I2227
tp106
a(Vmitochondrion
p107
I2189
tp108
a(Vcell-cell signaling
p109
I1993
tp110
a(Vlipid binding
p111
I1923
tp112
a(Vpeptidase activity
p113
I1905
tp114
a(Vendoplasmic reticulum
p115
I1852
tp116
a(Vcytoskeleton
p117
I1810
tp118
a(Vmembrane organization
p119
I1808
tp120
a(Vcell adhesion
p121
I1791
tp122
a(Vcell death
p123
I1722
tp124
a(VATPase activity
p125
I1668
tp126
a(Vendosome
p127
I1659
tp128
a(Vstructural molecule activity
p129
I1638
tp130
a(Venzyme regulator activity
p131
I1627
tp132
a(Vligase activity
p133
I1568
tp134
a(Vcell proliferation
p135
I1558
tp136
a(Vprotein targeting
p137
I1442
tp138
a(Vnucleoplasm
p139
I1435
tp140
a(Vcell morphogenesis
p141
I1402
tp142
a(Vtranscription factor binding
p143
I1400
tp144
a(Vsulfur compound metabolic process
p145
I1390
tp146
a(Vextracellular region
p147
I1370
tp148
a(Vmicrotubule organizing center
p149
I1339
tp150
a(Vprotein binding transcription factor activity
p151
I1285
tp152
a(Vnucleic acid binding transcription factor activity
p153
I1219
tp154
a(Vextracellular space
p155
I1163
tp156
a(Vcofactor metabolic process
p157
I1114
tp158
a(Vgeneration of precursor metabolites and energy
p159
I1107
tp160
a(Vextracellular matrix organization
p161
I1058
tp162
a(Vvacuole
p163
I977
tp164
a(Vsymbiosis, encompassing mutualism through parasitism
p165
I964
tp166
a(Vtransferase activity, transferring acyl groups
p167
I933
tp168
a(VmRNA processing
p169
I923
tp170
a(Vcilium
p171
I893
tp172
a(Vplastid
p173
I863
tp174
a(Vphosphatase activity
p175
I760
tp176
a(Vcirculatory system process
p177
I742
tp178
a(Vreproduction
p179
I730
tp180
a(Vaging
p181
I723
tp182
a(Vnucleocytoplasmic transport
p183
I694
tp184
a(Vtransferase activity, transferring glycosyl groups
p185
I680
tp186
a(Vcell cycle
p187
I667
tp188
a(Vlyase activity
p189
I651
tp190
a(Vcell junction organization
p191
I622
tp192
a(Vprotein folding
p193
I589
tp194
a(Vmethyltransferase activity
p195
I583
tp196
a(Vexternal encapsulating structure
p197
I571
tp198
a(Vhelicase activity
p199
I568
tp200
a(Vstructural constituent of ribosome
p201
I566
tp202
a(Vcell wall
p203
I563
tp204
a(Vcell division
p205
I549
tp206
a(Vdevelopmental maturation
p207
I540
tp208
a(Vlysosome
p209
I520
tp210
a(Vmitochondrion organization
p211
I513
tp212
a(Vsecondary metabolic process
p213
I511
tp214
a(Vribonucleoprotein complex assembly
p215
I506
tp216
a(Vnuclease activity
p217
I494
tp218
a(VGTPase activity
p219
I485
tp220
a(Vcytoskeleton-dependent intracellular transport
p221
I471
tp222
a(Vnuclear envelope
p223
I440
tp224
a(Vchromosome
p225
I434
tp226
a(Vproteinaceous extracellular matrix
p227
I425
tp228
a(Visomerase activity
p229
I417
tp230
a(VmRNA binding
p231
I396
tp232
a(Vhistone binding
p233
I394
tp234
a(Vhydrolase activity, acting on glycosyl bonds
p235
I388
tp236
a(Vcell wall organization or biogenesis
p237
I365
tp238
a(Vnucleotidyltransferase activity
p239
I347
tp240
a(Vplasma membrane organization
p241
I347
tp242
a(Vvacuolar transport
p243
I335
tp244
a(Vprotein binding, bridging
p245
I310
tp246
a(Vperoxisome
p247
I306
tp248
a(Vhydrolase activity, acting on carbon-nitrogen (but not peptide) bonds
p249
I297
tp250
a(Vmitosis
p251
I293
tp252
a(Vtranslation factor activity, nucleic acid binding
p253
I285
tp254
a(VtRNA metabolic process
p255
I283
tp256
a(Vchromosome segregation
p257
I278
tp258
a(Vsmall conjugating protein binding
p259
I245
tp260
a(Vunfolded protein binding
p261
I243
tp262
a(Vlipid particle
p263
I225
tp264
a(Vribosome
p265
I224
tp266
a(Vtranslation
p267
I213
tp268
a(Vprotein transporter activity
p269
I203
tp270
a(Vribosome biogenesis
p271
I169
tp272
a(Vtransferase activity, transferring alkyl or aryl (other than methyl) groups
p273
I158
tp274
a(Vnuclear chromosome
p275
I150
tp276
a(Vintracellular
p277
I140
tp278
a(Vpigmentation
p279
I118
tp280
a(VrRNA binding
p281
I116
tp282
a(Vthylakoid
p283
I115
tp284
a(Vnitrogen cycle metabolic process
p285
I54
tp286
a(Vphotosynthesis
p287
I37
tp288
a(Vtransposition
p289
I20
tp290
a(Vcell
p291
I18
tp292
a(Vcytoplasmic chromosome
p293
I1
tp294
aa(lp295
(g3
L6372L
tp296
a(g5
L4365L
tp297
a(g7
L2787L
tp298
a(g9
L21685L
tp299
a(g11
L26888L
tp300
a(g13
L5491L
tp301
a(g15
L5801L
tp302
a(g17
L18268L
tp303
a(g19
L5613L
tp304
a(g21
L21693L
tp305
a(g23
L22689L
tp306
a(g25
L21630L
tp307
a(g27
L7192L
tp308
a(g29
L7190L
tp309
a(g31
L5168L
tp310
a(g33
L1781L
tp311
a(g35
L13924L
tp312
a(g37
L13633L
tp313
a(g39
L4599L
tp314
a(g41
L5326L
tp315
a(g43
L12968L
tp316
a(g45
L4644L
tp317
a(g47
L20507L
tp318
a(g49
L4507L
tp319
a(g51
L13690L
tp320
a(g53
L10381L
tp321
a(g55
L26682L
tp322
a(g57
L4422L
tp323
a(g59
L21086L
tp324
a(g61
L4995L
tp325
a(g63
L4725L
tp326
a(g65
L31581L
tp327
a(g67
L2790L
tp328
a(g69
L10598L
tp329
a(g71
L26901L
tp330
a(g73
L3827L
tp331
a(g75
L27837L
tp332
a(g77
L28228L
tp333
a(g79
L18282L
tp334
a(g81
L29927L
tp335
a(g83
L4514L
tp336
a(g85
L7881L
tp337
a(g87
L20503L
tp338
a(g89
L28535L
tp339
a(g91
L5165L
tp340
a(g93
L6320L
tp341
a(g95
L5663L
tp342
a(g97
L10466L
tp343
a(g99
L2830L
tp344
a(g101
L4567L
tp345
a(g103
L5218L
tp346
a(g105
L10229L
tp347
a(g107
L4515L
tp348
a(g109
L5896L
tp349
a(g111
L6500L
tp350
a(g113
L6448L
tp351
a(g115
L4556L
tp352
a(g117
L4621L
tp353
a(g119
L30984L
tp354
a(g121
L5791L
tp355
a(g123
L6436L
tp356
a(g125
L10963L
tp357
a(g127
L4542L
tp358
a(g129
L4118L
tp359
a(g131
L14001L
tp360
a(g133
L10950L
tp361
a(g135
L6494L
tp362
a(g137
L5302L
tp363
a(g139
L4439L
tp364
a(g141
L594L
tp365
a(g143
L6357L
tp366
a(g145
L5471L
tp367
a(g147
L4366L
tp368
a(g149
L4586L
tp369
a(g151
L677L
tp370
a(g153
L759L
tp371
a(g155
L4405L
tp372
a(g157
L28144L
tp373
a(g159
L4838L
tp374
a(g161
L13967L
tp375
a(g163
L4546L
tp376
a(g165
L22810L
tp377
a(g167
L10829L
tp378
a(g169
L5112L
tp379
a(g171
L4684L
tp380
a(g173
L7644L
tp381
a(g175
L10870L
tp382
a(g177
L2364L
tp383
a(g179
L3L
tp384
a(g181
L6169L
tp385
a(g183
L5582L
tp386
a(g185
L10840L
tp387
a(g187
L5695L
tp388
a(g189
L10905L
tp389
a(g191
L17965L
tp390
a(g193
L5161L
tp391
a(g195
L6389L
tp392
a(g197
L14078L
tp393
a(g199
L3404L
tp394
a(g201
L2841L
tp395
a(g203
L4408L
tp396
a(g205
L28251L
tp397
a(g207
L13274L
tp398
a(g209
L4538L
tp399
a(g211
L5658L
tp400
a(g213
L12827L
tp401
a(g215
L13644L
tp402
a(g217
L3518L
tp403
a(g219
L2991L
tp404
a(g221
L14427L
tp405
a(g223
L4423L
tp406
a(g225
L4475L
tp407
a(g227
L4368L
tp408
a(g229
L10929L
tp409
a(g231
L2835L
tp410
a(g233
L20900L
tp411
a(g235
L10876L
tp412
a(g237
L33137L
tp413
a(g239
L10860L
tp414
a(g241
L5662L
tp415
a(g243
L5682L
tp416
a(g245
L14396L
tp417
a(g247
L4550L
tp418
a(g249
L10886L
tp419
a(g251
L5712L
tp420
a(g253
L6358L
tp421
a(g255
L5114L
tp422
a(g257
L5705L
tp423
a(g259
L15840L
tp424
a(g261
L28040L
tp425
a(g263
L4583L
tp426
a(g265
L4609L
tp427
a(g267
L5126L
tp428
a(g269
L6747L
tp429
a(g271
L20770L
tp430
a(g273
L10848L
tp431
a(g275
L201L
tp432
a(g277
L4411L
tp433
a(g279
L21900L
tp434
a(g281
L12918L
tp435
a(g283
L7683L
tp436
a(g285
L33512L
tp437
a(g287
L10192L
tp438
a(g289
L15852L
tp439
a(g291
L4412L
tp440
a(g293
L202L
tp441
aaI957443
a.