(lp1
(lp2
(Vbiological_process
p3
I270686
tp4
a(Vcellular_component
p5
I90481
tp6
a(Vmolecular_function
p7
I73005
tp8
a(Vorganelle
p9
I24387
tp10
a(Vanatomical structure development
p11
I19550
tp12
a(Vtransport
p13
I15296
tp14
a(Vcellular nitrogen compound metabolic process
p15
I13139
tp16
a(Vsignal transduction
p17
I12482
tp18
a(Vresponse to stress
p19
I10705
tp20
a(Vprotein complex
p21
I9716
tp22
a(Vsmall molecule metabolic process
p23
I9461
tp24
a(Vbiosynthetic process
p25
I9387
tp26
a(Vion binding
p27
I8862
tp28
a(Vcatabolic process
p29
I7011
tp30
a(Vcellular protein modification process
p31
I6657
tp32
a(Vimmune system process
p33
I5549
tp34
a(Vcellular component assembly
p35
I4411
tp36
a(Vcell differentiation
p37
I4337
tp38
a(Vcytosol
p39
I4276
tp40
a(Vlipid metabolic process
p41
I4238
tp42
a(Venzyme binding
p43
I3652
tp44
a(Vplasma membrane
p45
I3462
tp46
a(Vlocomotion
p47
I3250
tp48
a(Vnucleolus
p49
I3228
tp50
a(Vtransmembrane transporter activity
p51
I3072
tp52
a(Vvesicle-mediated transport
p53
I2977
tp54
a(Vnucleus
p55
I2922
tp56
a(Vanatomical structure formation involved in morphogenesis
p57
I2751
tp58
a(VDNA metabolic process
p59
I2692
tp60
a(Vhomeostatic process
p61
I2682
tp62
a(Vcarbohydrate metabolic process
p63
I2662
tp64
a(Voxidoreductase activity
p65
I2653
tp66
a(Vmacromolecular complex assembly
p67
I2579
tp68
a(Vnucleobase-containing compound catabolic process
p69
I2487
tp70
a(VDNA binding
p71
I2470
tp72
a(Vchromosome organization
p73
I2394
tp74
a(Vsignal transducer activity
p75
I2359
tp76
a(Vembryo development
p77
I2318
tp78
a(Vcytoplasm
p79
I2313
tp80
a(Vtransmembrane transport
p81
I2294
tp82
a(Vprotein maturation
p83
I2268
tp84
a(Vcell motility
p85
I2260
tp86
a(Vneurological system process
p87
I2254
tp88
a(Vgrowth
p89
I2211
tp90
a(Vprotein complex assembly
p91
I2129
tp92
a(Vcytoskeletal protein binding
p93
I2019
tp94
a(VRNA binding
p95
I1954
tp96
a(Vkinase activity
p97
I1900
tp98
a(Vcellular amino acid metabolic process
p99
I1840
tp100
a(Vcytoskeleton organization
p101
I1838
tp102
a(VGolgi apparatus
p103
I1797
tp104
a(Vmitochondrion
p105
I1711
tp106
a(Vcytoplasmic membrane-bounded vesicle
p107
I1708
tp108
a(Vcell-cell signaling
p109
I1545
tp110
a(Vpeptidase activity
p111
I1539
tp112
a(Vendoplasmic reticulum
p113
I1438
tp114
a(Vcell death
p115
I1425
tp116
a(Vlipid binding
p117
I1401
tp118
a(Vcytoskeleton
p119
I1381
tp120
a(Vcell adhesion
p121
I1291
tp122
a(Vmembrane organization
p123
I1289
tp124
a(Vstructural molecule activity
p125
I1271
tp126
a(Vendosome
p127
I1266
tp128
a(Vligase activity
p129
I1247
tp130
a(VATPase activity
p131
I1239
tp132
a(Vprotein targeting
p133
I1213
tp134
a(Vcell proliferation
p135
I1183
tp136
a(Venzyme regulator activity
p137
I1160
tp138
a(Vnucleoplasm
p139
I1137
tp140
a(Vextracellular region
p141
I1100
tp142
a(Vsulfur compound metabolic process
p143
I1085
tp144
a(Vcell morphogenesis
p145
I1060
tp146
a(Vmicrotubule organizing center
p147
I1033
tp148
a(Vtranscription factor binding
p149
I1007
tp150
a(Vcofactor metabolic process
p151
I906
tp152
a(Vnucleic acid binding transcription factor activity
p153
I906
tp154
a(Vprotein binding transcription factor activity
p155
I900
tp156
a(Vgeneration of precursor metabolites and energy
p157
I883
tp158
a(Vextracellular space
p159
I851
tp160
a(Vvacuole
p161
I821
tp162
a(Vsymbiosis, encompassing mutualism through parasitism
p163
I761
tp164
a(VmRNA processing
p165
I738
tp166
a(Vplastid
p167
I738
tp168
a(Vextracellular matrix organization
p169
I738
tp170
a(Vtransferase activity, transferring acyl groups
p171
I703
tp172
a(Vcilium
p173
I651
tp174
a(Vreproduction
p175
I629
tp176
a(Vphosphatase activity
p177
I583
tp178
a(Vcirculatory system process
p179
I583
tp180
a(Vcell cycle
p181
I561
tp182
a(Vnucleocytoplasmic transport
p183
I541
tp184
a(Vaging
p185
I530
tp186
a(Vstructural constituent of ribosome
p187
I522
tp188
a(Vexternal encapsulating structure
p189
I511
tp190
a(Vcell wall
p191
I506
tp192
a(Vtransferase activity, transferring glycosyl groups
p193
I500
tp194
a(Vlyase activity
p195
I492
tp196
a(Vmethyltransferase activity
p197
I485
tp198
a(Vprotein folding
p199
I482
tp200
a(Vcell division
p201
I460
tp202
a(Vcell junction organization
p203
I458
tp204
a(Vhelicase activity
p205
I438
tp206
a(Vsecondary metabolic process
p207
I427
tp208
a(Vlysosome
p209
I411
tp210
a(Vnuclease activity
p211
I410
tp212
a(VGTPase activity
p213
I398
tp214
a(Vdevelopmental maturation
p215
I393
tp216
a(Vchromosome
p217
I372
tp218
a(Vmitochondrion organization
p219
I371
tp220
a(Vribonucleoprotein complex assembly
p221
I358
tp222
a(Vnuclear envelope
p223
I343
tp224
a(Vcytoskeleton-dependent intracellular transport
p225
I331
tp226
a(Visomerase activity
p227
I324
tp228
a(VmRNA binding
p229
I318
tp230
a(Vcell wall organization or biogenesis
p231
I310
tp232
a(Vhistone binding
p233
I296
tp234
a(Vproteinaceous extracellular matrix
p235
I290
tp236
a(Vhydrolase activity, acting on glycosyl bonds
p237
I287
tp238
a(Vnucleotidyltransferase activity
p239
I273
tp240
a(Vvacuolar transport
p241
I269
tp242
a(Vplasma membrane organization
p243
I252
tp244
a(Vmitosis
p245
I250
tp246
a(VtRNA metabolic process
p247
I244
tp248
a(Vperoxisome
p249
I239
tp250
a(Vtranslation factor activity, nucleic acid binding
p251
I237
tp252
a(Vhydrolase activity, acting on carbon-nitrogen (but not peptide) bonds
p253
I228
tp254
a(Vprotein binding, bridging
p255
I222
tp256
a(Vchromosome segregation
p257
I221
tp258
a(Vribosome
p259
I195
tp260
a(Vunfolded protein binding
p261
I193
tp262
a(Vtranslation
p263
I185
tp264
a(Vsmall conjugating protein binding
p265
I181
tp266
a(Vlipid particle
p267
I173
tp268
a(Vribosome biogenesis
p269
I155
tp270
a(Vprotein transporter activity
p271
I147
tp272
a(Vtransferase activity, transferring alkyl or aryl (other than methyl) groups
p273
I138
tp274
a(Vnuclear chromosome
p275
I129
tp276
a(Vintracellular
p277
I110
tp278
a(Vthylakoid
p279
I106
tp280
a(VrRNA binding
p281
I103
tp282
a(Vpigmentation
p283
I93
tp284
a(Vnitrogen cycle metabolic process
p285
I35
tp286
a(Vphotosynthesis
p287
I33
tp288
a(Vtransposition
p289
I19
tp290
a(Vcell
p291
I12
tp292
a(Vcytoplasmic chromosome
p293
I1
tp294
aa(lp295
(g3
L6372L
tp296
a(g5
L4365L
tp297
a(g7
L2787L
tp298
a(g9
L21685L
tp299
a(g11
L26888L
tp300
a(g13
L5491L
tp301
a(g15
L18268L
tp302
a(g17
L5801L
tp303
a(g19
L5613L
tp304
a(g21
L21693L
tp305
a(g23
L22689L
tp306
a(g25
L7192L
tp307
a(g27
L21630L
tp308
a(g29
L7190L
tp309
a(g31
L5168L
tp310
a(g33
L1781L
tp311
a(g35
L13633L
tp312
a(g37
L13924L
tp313
a(g39
L4599L
tp314
a(g41
L5326L
tp315
a(g43
L12968L
tp316
a(g45
L4644L
tp317
a(g47
L20507L
tp318
a(g49
L4507L
tp319
a(g51
L13690L
tp320
a(g53
L10381L
tp321
a(g55
L4422L
tp322
a(g57
L26682L
tp323
a(g59
L4995L
tp324
a(g61
L21086L
tp325
a(g63
L4725L
tp326
a(g65
L10598L
tp327
a(g67
L31581L
tp328
a(g69
L18282L
tp329
a(g71
L2790L
tp330
a(g73
L28228L
tp331
a(g75
L3827L
tp332
a(g77
L7881L
tp333
a(g79
L4514L
tp334
a(g81
L29927L
tp335
a(g83
L28535L
tp336
a(g85
L26901L
tp337
a(g87
L27837L
tp338
a(g89
L20503L
tp339
a(g91
L5165L
tp340
a(g93
L6320L
tp341
a(g95
L2830L
tp342
a(g97
L10466L
tp343
a(g99
L5218L
tp344
a(g101
L5663L
tp345
a(g103
L4567L
tp346
a(g105
L4515L
tp347
a(g107
L10229L
tp348
a(g109
L5896L
tp349
a(g111
L6448L
tp350
a(g113
L4556L
tp351
a(g115
L6436L
tp352
a(g117
L6500L
tp353
a(g119
L4621L
tp354
a(g121
L5791L
tp355
a(g123
L30984L
tp356
a(g125
L4118L
tp357
a(g127
L4542L
tp358
a(g129
L10950L
tp359
a(g131
L10963L
tp360
a(g133
L5302L
tp361
a(g135
L6494L
tp362
a(g137
L14001L
tp363
a(g139
L4439L
tp364
a(g141
L4366L
tp365
a(g143
L5471L
tp366
a(g145
L594L
tp367
a(g147
L4586L
tp368
a(g149
L6357L
tp369
a(g151
L28144L
tp370
a(g153
L759L
tp371
a(g155
L677L
tp372
a(g157
L4838L
tp373
a(g159
L4405L
tp374
a(g161
L4546L
tp375
a(g163
L22810L
tp376
a(g165
L5112L
tp377
a(g167
L7644L
tp378
a(g169
L13967L
tp379
a(g171
L10829L
tp380
a(g173
L4684L
tp381
a(g175
L3L
tp382
a(g177
L10870L
tp383
a(g179
L2364L
tp384
a(g181
L5695L
tp385
a(g183
L5582L
tp386
a(g185
L6169L
tp387
a(g187
L2841L
tp388
a(g189
L14078L
tp389
a(g191
L4408L
tp390
a(g193
L10840L
tp391
a(g195
L10905L
tp392
a(g197
L6389L
tp393
a(g199
L5161L
tp394
a(g201
L28251L
tp395
a(g203
L17965L
tp396
a(g205
L3404L
tp397
a(g207
L12827L
tp398
a(g209
L4538L
tp399
a(g211
L3518L
tp400
a(g213
L2991L
tp401
a(g215
L13274L
tp402
a(g217
L4475L
tp403
a(g219
L5658L
tp404
a(g221
L13644L
tp405
a(g223
L4423L
tp406
a(g225
L14427L
tp407
a(g227
L10929L
tp408
a(g229
L2835L
tp409
a(g231
L33137L
tp410
a(g233
L20900L
tp411
a(g235
L4368L
tp412
a(g237
L10876L
tp413
a(g239
L10860L
tp414
a(g241
L5682L
tp415
a(g243
L5662L
tp416
a(g245
L5712L
tp417
a(g247
L5114L
tp418
a(g249
L4550L
tp419
a(g251
L6358L
tp420
a(g253
L10886L
tp421
a(g255
L14396L
tp422
a(g257
L5705L
tp423
a(g259
L4609L
tp424
a(g261
L28040L
tp425
a(g263
L5126L
tp426
a(g265
L15840L
tp427
a(g267
L4583L
tp428
a(g269
L20770L
tp429
a(g271
L6747L
tp430
a(g273
L10848L
tp431
a(g275
L201L
tp432
a(g277
L4411L
tp433
a(g279
L7683L
tp434
a(g281
L12918L
tp435
a(g283
L21900L
tp436
a(g285
L33512L
tp437
a(g287
L10192L
tp438
a(g289
L15852L
tp439
a(g291
L4412L
tp440
a(g293
L202L
tp441
aaI739011
a.