(lp1
(lp2
(Vbiological_process
p3
I310446
tp4
a(Vcellular_component
p5
I101495
tp6
a(Vmolecular_function
p7
I83707
tp8
a(Vorganelle
p9
I26723
tp10
a(Vanatomical structure development
p11
I23194
tp12
a(Vtransport
p13
I17124
tp14
a(Vcellular nitrogen compound metabolic process
p15
I14550
tp16
a(Vsignal transduction
p17
I14502
tp18
a(Vresponse to stress
p19
I11878
tp20
a(Vsmall molecule metabolic process
p21
I10875
tp22
a(Vbiosynthetic process
p23
I10761
tp24
a(Vprotein complex
p25
I10736
tp26
a(Vion binding
p27
I10185
tp28
a(Vcatabolic process
p29
I7597
tp30
a(Vcellular protein modification process
p31
I7382
tp32
a(Vimmune system process
p33
I6472
tp34
a(Vcell differentiation
p35
I5437
tp36
a(Vcellular component assembly
p37
I4954
tp38
a(Vlipid metabolic process
p39
I4788
tp40
a(Vcytosol
p41
I4583
tp42
a(Venzyme binding
p43
I4162
tp44
a(Vplasma membrane
p45
I3879
tp46
a(Vlocomotion
p47
I3848
tp48
a(Vtransmembrane transporter activity
p49
I3437
tp50
a(Vanatomical structure formation involved in morphogenesis
p51
I3415
tp52
a(Vvesicle-mediated transport
p53
I3379
tp54
a(Vnucleolus
p55
I3368
tp56
a(Vnucleus
p57
I3260
tp58
a(Voxidoreductase activity
p59
I3125
tp60
a(VDNA metabolic process
p61
I3090
tp62
a(Vhomeostatic process
p63
I3013
tp64
a(Vcarbohydrate metabolic process
p65
I3004
tp66
a(Vmacromolecular complex assembly
p67
I2835
tp68
a(VDNA binding
p69
I2802
tp70
a(Vcell motility
p71
I2779
tp72
a(Vnucleobase-containing compound catabolic process
p73
I2772
tp74
a(Vsignal transducer activity
p75
I2769
tp76
a(Vcytoplasm
p77
I2763
tp78
a(Vneurological system process
p79
I2662
tp80
a(Vgrowth
p81
I2549
tp82
a(Vtransmembrane transport
p83
I2546
tp84
a(Vchromosome organization
p85
I2486
tp86
a(Vembryo development
p87
I2485
tp88
a(Vprotein maturation
p89
I2418
tp90
a(Vkinase activity
p91
I2352
tp92
a(Vprotein complex assembly
p93
I2345
tp94
a(Vcytoskeletal protein binding
p95
I2344
tp96
a(Vcellular amino acid metabolic process
p97
I2088
tp98
a(Vcytoskeleton organization
p99
I2074
tp100
a(VRNA binding
p101
I1989
tp102
a(VGolgi apparatus
p103
I1896
tp104
a(Vmitochondrion
p105
I1894
tp106
a(Vcytoplasmic membrane-bounded vesicle
p107
I1816
tp108
a(Vcell-cell signaling
p109
I1704
tp110
a(Vcell adhesion
p111
I1653
tp112
a(Vpeptidase activity
p113
I1628
tp114
a(Vcytoskeleton
p115
I1594
tp116
a(VATPase activity
p117
I1589
tp118
a(Vendoplasmic reticulum
p119
I1586
tp120
a(Vcell death
p121
I1563
tp122
a(Vlipid binding
p123
I1558
tp124
a(Vmembrane organization
p125
I1487
tp126
a(Vendosome
p127
I1418
tp128
a(Vligase activity
p129
I1409
tp130
a(Vstructural molecule activity
p131
I1379
tp132
a(Vcell proliferation
p133
I1368
tp134
a(Vsulfur compound metabolic process
p135
I1280
tp136
a(Vprotein targeting
p137
I1265
tp138
a(Venzyme regulator activity
p139
I1261
tp140
a(Vcell morphogenesis
p141
I1243
tp142
a(Vextracellular region
p143
I1241
tp144
a(Vnucleoplasm
p145
I1214
tp146
a(Vtranscription factor binding
p147
I1141
tp148
a(Vmicrotubule organizing center
p149
I1086
tp150
a(Vprotein binding transcription factor activity
p151
I1071
tp152
a(Vcofactor metabolic process
p153
I1019
tp154
a(Vnucleic acid binding transcription factor activity
p155
I1017
tp156
a(Vextracellular space
p157
I985
tp158
a(Vgeneration of precursor metabolites and energy
p159
I937
tp160
a(Vextracellular matrix organization
p161
I887
tp162
a(Vvacuole
p163
I847
tp164
a(Vsymbiosis, encompassing mutualism through parasitism
p165
I794
tp166
a(Vcilium
p167
I793
tp168
a(Vtransferase activity, transferring acyl groups
p169
I785
tp170
a(Vplastid
p171
I773
tp172
a(VmRNA processing
p173
I754
tp174
a(Vtransferase activity, transferring glycosyl groups
p175
I649
tp176
a(Vphosphatase activity
p177
I647
tp178
a(Vcirculatory system process
p179
I616
tp180
a(Vreproduction
p181
I615
tp182
a(Vcell cycle
p183
I613
tp184
a(Vaging
p185
I603
tp186
a(Vlyase activity
p187
I603
tp188
a(Vcell junction organization
p189
I550
tp190
a(Vnucleocytoplasmic transport
p191
I546
tp192
a(Vexternal encapsulating structure
p193
I545
tp194
a(Vcell wall
p195
I538
tp196
a(Vstructural constituent of ribosome
p197
I523
tp198
a(Vhelicase activity
p199
I521
tp200
a(Vmethyltransferase activity
p201
I514
tp202
a(Vcell division
p203
I499
tp204
a(Vprotein folding
p205
I488
tp206
a(Vnuclease activity
p207
I463
tp208
a(Vlysosome
p209
I442
tp210
a(Vsecondary metabolic process
p211
I440
tp212
a(Vdevelopmental maturation
p213
I440
tp214
a(VGTPase activity
p215
I426
tp216
a(Vmitochondrion organization
p217
I421
tp218
a(Vchromosome
p219
I398
tp220
a(Vribonucleoprotein complex assembly
p221
I394
tp222
a(Vproteinaceous extracellular matrix
p223
I384
tp224
a(Visomerase activity
p225
I378
tp226
a(Vnuclear envelope
p227
I370
tp228
a(Vcytoskeleton-dependent intracellular transport
p229
I352
tp230
a(Vhydrolase activity, acting on glycosyl bonds
p231
I346
tp232
a(Vnucleotidyltransferase activity
p233
I346
tp234
a(Vcell wall organization or biogenesis
p235
I338
tp236
a(VmRNA binding
p237
I325
tp238
a(Vhistone binding
p239
I319
tp240
a(Vplasma membrane organization
p241
I283
tp242
a(Vhydrolase activity, acting on carbon-nitrogen (but not peptide) bonds
p243
I273
tp244
a(VtRNA metabolic process
p245
I267
tp246
a(Vvacuolar transport
p247
I266
tp248
a(Vprotein binding, bridging
p249
I256
tp250
a(Vperoxisome
p251
I254
tp252
a(Vtranslation factor activity, nucleic acid binding
p253
I251
tp254
a(Vmitosis
p255
I250
tp256
a(Vchromosome segregation
p257
I234
tp258
a(Vtranslation
p259
I217
tp260
a(Vribosome
p261
I205
tp262
a(Vunfolded protein binding
p263
I203
tp264
a(Vlipid particle
p265
I194
tp266
a(Vprotein transporter activity
p267
I184
tp268
a(Vsmall conjugating protein binding
p269
I179
tp270
a(Vtransferase activity, transferring alkyl or aryl (other than methyl) groups
p271
I151
tp272
a(Vribosome biogenesis
p273
I145
tp274
a(Vintracellular
p275
I140
tp276
a(Vnuclear chromosome
p277
I129
tp278
a(Vpigmentation
p279
I116
tp280
a(VrRNA binding
p281
I113
tp282
a(Vthylakoid
p283
I107
tp284
a(Vnitrogen cycle metabolic process
p285
I39
tp286
a(Vphotosynthesis
p287
I34
tp288
a(Vtransposition
p289
I21
tp290
a(Vcell
p291
I12
tp292
a(Vcytoplasmic chromosome
p293
I1
tp294
a(VRNA modification guide activity
p295
I1
tp296
aa(lp297
(g3
L6372L
tp298
a(g5
L4365L
tp299
a(g7
L2787L
tp300
a(g9
L21685L
tp301
a(g11
L26888L
tp302
a(g13
L5491L
tp303
a(g15
L18268L
tp304
a(g17
L5801L
tp305
a(g19
L5613L
tp306
a(g21
L22689L
tp307
a(g23
L7192L
tp308
a(g25
L21693L
tp309
a(g27
L21630L
tp310
a(g29
L7190L
tp311
a(g31
L5168L
tp312
a(g33
L1781L
tp313
a(g35
L13924L
tp314
a(g37
L13633L
tp315
a(g39
L5326L
tp316
a(g41
L4599L
tp317
a(g43
L12968L
tp318
a(g45
L4644L
tp319
a(g47
L20507L
tp320
a(g49
L13690L
tp321
a(g51
L26682L
tp322
a(g53
L10381L
tp323
a(g55
L4507L
tp324
a(g57
L4422L
tp325
a(g59
L10598L
tp326
a(g61
L4995L
tp327
a(g63
L21086L
tp328
a(g65
L4725L
tp329
a(g67
L31581L
tp330
a(g69
L2790L
tp331
a(g71
L26901L
tp332
a(g73
L18282L
tp333
a(g75
L3827L
tp334
a(g77
L4514L
tp335
a(g79
L27837L
tp336
a(g81
L20503L
tp337
a(g83
L29927L
tp338
a(g85
L28228L
tp339
a(g87
L7881L
tp340
a(g89
L28535L
tp341
a(g91
L10466L
tp342
a(g93
L5165L
tp343
a(g95
L6320L
tp344
a(g97
L5218L
tp345
a(g99
L5663L
tp346
a(g101
L2830L
tp347
a(g103
L4567L
tp348
a(g105
L4515L
tp349
a(g107
L10229L
tp350
a(g109
L5896L
tp351
a(g111
L5791L
tp352
a(g113
L6448L
tp353
a(g115
L4621L
tp354
a(g117
L10963L
tp355
a(g119
L4556L
tp356
a(g121
L6436L
tp357
a(g123
L6500L
tp358
a(g125
L30984L
tp359
a(g127
L4542L
tp360
a(g129
L10950L
tp361
a(g131
L4118L
tp362
a(g133
L6494L
tp363
a(g135
L5471L
tp364
a(g137
L5302L
tp365
a(g139
L14001L
tp366
a(g141
L594L
tp367
a(g143
L4366L
tp368
a(g145
L4439L
tp369
a(g147
L6357L
tp370
a(g149
L4586L
tp371
a(g151
L677L
tp372
a(g153
L28144L
tp373
a(g155
L759L
tp374
a(g157
L4405L
tp375
a(g159
L4838L
tp376
a(g161
L13967L
tp377
a(g163
L4546L
tp378
a(g165
L22810L
tp379
a(g167
L4684L
tp380
a(g169
L10829L
tp381
a(g171
L7644L
tp382
a(g173
L5112L
tp383
a(g175
L10840L
tp384
a(g177
L10870L
tp385
a(g179
L2364L
tp386
a(g181
L3L
tp387
a(g183
L5695L
tp388
a(g185
L6169L
tp389
a(g187
L10905L
tp390
a(g189
L17965L
tp391
a(g191
L5582L
tp392
a(g193
L14078L
tp393
a(g195
L4408L
tp394
a(g197
L2841L
tp395
a(g199
L3404L
tp396
a(g201
L6389L
tp397
a(g203
L28251L
tp398
a(g205
L5161L
tp399
a(g207
L3518L
tp400
a(g209
L4538L
tp401
a(g211
L12827L
tp402
a(g213
L13274L
tp403
a(g215
L2991L
tp404
a(g217
L5658L
tp405
a(g219
L4475L
tp406
a(g221
L13644L
tp407
a(g223
L4368L
tp408
a(g225
L10929L
tp409
a(g227
L4423L
tp410
a(g229
L14427L
tp411
a(g231
L10876L
tp412
a(g233
L10860L
tp413
a(g235
L33137L
tp414
a(g237
L2835L
tp415
a(g239
L20900L
tp416
a(g241
L5662L
tp417
a(g243
L10886L
tp418
a(g245
L5114L
tp419
a(g247
L5682L
tp420
a(g249
L14396L
tp421
a(g251
L4550L
tp422
a(g253
L6358L
tp423
a(g255
L5712L
tp424
a(g257
L5705L
tp425
a(g259
L5126L
tp426
a(g261
L4609L
tp427
a(g263
L28040L
tp428
a(g265
L4583L
tp429
a(g267
L6747L
tp430
a(g269
L15840L
tp431
a(g271
L10848L
tp432
a(g273
L20770L
tp433
a(g275
L4411L
tp434
a(g277
L201L
tp435
a(g279
L21900L
tp436
a(g281
L12918L
tp437
a(g283
L7683L
tp438
a(g285
L33512L
tp439
a(g287
L10192L
tp440
a(g289
L15852L
tp441
a(g291
L4412L
tp442
a(g293
L202L
tp443
a(g295
L14288L
tp444
aaI839539
a.