(lp1
(lp2
(Vbiological_process
p3
I401302
tp4
a(Vcellular_component
p5
I134672
tp6
a(Vmolecular_function
p7
I110037
tp8
a(Vorganelle
p9
I36008
tp10
a(Vanatomical structure development
p11
I29384
tp12
a(Vtransport
p13
I22556
tp14
a(Vcellular nitrogen compound metabolic process
p15
I18739
tp16
a(Vsignal transduction
p17
I18601
tp18
a(Vresponse to stress
p19
I15430
tp20
a(Vprotein complex
p21
I14747
tp22
a(Vion binding
p23
I13663
tp24
a(Vsmall molecule metabolic process
p25
I13535
tp26
a(Vbiosynthetic process
p27
I13078
tp28
a(Vcellular protein modification process
p29
I9877
tp30
a(Vcatabolic process
p31
I9812
tp32
a(Vimmune system process
p33
I8052
tp34
a(Vcell differentiation
p35
I6819
tp36
a(Vcellular component assembly
p37
I6702
tp38
a(Vcytosol
p39
I6379
tp40
a(Vlipid metabolic process
p41
I6299
tp42
a(Venzyme binding
p43
I5712
tp44
a(Vplasma membrane
p45
I5065
tp46
a(Vlocomotion
p47
I4979
tp48
a(Vnucleolus
p49
I4851
tp50
a(Vvesicle-mediated transport
p51
I4642
tp52
a(Vtransmembrane transporter activity
p53
I4473
tp54
a(Vanatomical structure formation involved in morphogenesis
p55
I4366
tp56
a(Vnucleus
p57
I4331
tp58
a(Vhomeostatic process
p59
I4087
tp60
a(VDNA metabolic process
p61
I4051
tp62
a(Voxidoreductase activity
p63
I3897
tp64
a(VDNA binding
p65
I3841
tp66
a(Vmacromolecular complex assembly
p67
I3799
tp68
a(Vcarbohydrate metabolic process
p69
I3687
tp70
a(Vchromosome organization
p71
I3643
tp72
a(Vneurological system process
p73
I3560
tp74
a(Vcell motility
p75
I3547
tp76
a(Vsignal transducer activity
p77
I3545
tp78
a(Vcytoplasm
p79
I3527
tp80
a(Vnucleobase-containing compound catabolic process
p81
I3521
tp82
a(Vtransmembrane transport
p83
I3350
tp84
a(Vembryo development
p85
I3285
tp86
a(Vcytoskeletal protein binding
p87
I3245
tp88
a(Vprotein maturation
p89
I3212
tp90
a(Vgrowth
p91
I3207
tp92
a(Vprotein complex assembly
p93
I3102
tp94
a(Vcytoskeleton organization
p95
I2901
tp96
a(Vkinase activity
p97
I2827
tp98
a(VRNA binding
p99
I2739
tp100
a(VGolgi apparatus
p101
I2631
tp102
a(Vcytoplasmic membrane-bounded vesicle
p103
I2554
tp104
a(Vmitochondrion
p105
I2521
tp106
a(Vcellular amino acid metabolic process
p107
I2489
tp108
a(Vlipid binding
p109
I2385
tp110
a(Vcell-cell signaling
p111
I2274
tp112
a(Vcytoskeleton
p113
I2159
tp114
a(Vendoplasmic reticulum
p115
I2154
tp116
a(Vpeptidase activity
p117
I2146
tp118
a(Vcell adhesion
p119
I2036
tp120
a(Vcell death
p121
I2024
tp122
a(Vmembrane organization
p123
I2019
tp124
a(Vendosome
p125
I1955
tp126
a(Venzyme regulator activity
p127
I1863
tp128
a(VATPase activity
p129
I1831
tp130
a(Vstructural molecule activity
p131
I1820
tp132
a(Vcell proliferation
p133
I1791
tp134
a(Vligase activity
p135
I1785
tp136
a(Vnucleoplasm
p137
I1698
tp138
a(Vprotein targeting
p139
I1680
tp140
a(Vmicrotubule organizing center
p141
I1616
tp142
a(Vtranscription factor binding
p143
I1594
tp144
a(Vcell morphogenesis
p145
I1553
tp146
a(Vsulfur compound metabolic process
p147
I1544
tp148
a(Vextracellular region
p149
I1524
tp150
a(Vprotein binding transcription factor activity
p151
I1490
tp152
a(Vnucleic acid binding transcription factor activity
p153
I1479
tp154
a(Vextracellular space
p155
I1298
tp156
a(Vcofactor metabolic process
p157
I1253
tp158
a(Vgeneration of precursor metabolites and energy
p159
I1223
tp160
a(Vextracellular matrix organization
p161
I1178
tp162
a(Vvacuole
p163
I1125
tp164
a(Vtransferase activity, transferring acyl groups
p165
I1098
tp166
a(Vsymbiosis, encompassing mutualism through parasitism
p167
I1085
tp168
a(VmRNA processing
p169
I1078
tp170
a(Vcilium
p171
I1018
tp172
a(Vplastid
p173
I963
tp174
a(Vphosphatase activity
p175
I884
tp176
a(Vcirculatory system process
p177
I871
tp178
a(Vreproduction
p179
I848
tp180
a(Vaging
p181
I836
tp182
a(Vcell cycle
p183
I818
tp184
a(Vnucleocytoplasmic transport
p185
I788
tp186
a(Vtransferase activity, transferring glycosyl groups
p187
I766
tp188
a(Vcell junction organization
p189
I730
tp190
a(Vlyase activity
p191
I704
tp192
a(Vcell division
p193
I683
tp194
a(Vmethyltransferase activity
p195
I675
tp196
a(Vstructural constituent of ribosome
p197
I658
tp198
a(Vexternal encapsulating structure
p199
I655
tp200
a(Vcell wall
p201
I646
tp202
a(Vprotein folding
p203
I638
tp204
a(Vhelicase activity
p205
I630
tp206
a(Vdevelopmental maturation
p207
I620
tp208
a(Vlysosome
p209
I607
tp210
a(Vnuclease activity
p211
I601
tp212
a(Vmitochondrion organization
p213
I575
tp214
a(Vsecondary metabolic process
p215
I573
tp216
a(Vribonucleoprotein complex assembly
p217
I553
tp218
a(Vcytoskeleton-dependent intracellular transport
p219
I551
tp220
a(VGTPase activity
p221
I549
tp222
a(Vchromosome
p223
I526
tp224
a(Vnuclear envelope
p225
I513
tp226
a(Visomerase activity
p227
I477
tp228
a(Vproteinaceous extracellular matrix
p229
I476
tp230
a(Vhistone binding
p231
I473
tp232
a(VmRNA binding
p233
I456
tp234
a(Vcell wall organization or biogenesis
p235
I421
tp236
a(Vhydrolase activity, acting on glycosyl bonds
p237
I403
tp238
a(Vvacuolar transport
p239
I401
tp240
a(Vnucleotidyltransferase activity
p241
I393
tp242
a(Vplasma membrane organization
p243
I385
tp244
a(Vmitosis
p245
I373
tp246
a(Vperoxisome
p247
I354
tp248
a(Vprotein binding, bridging
p249
I352
tp250
a(Vhydrolase activity, acting on carbon-nitrogen (but not peptide) bonds
p251
I345
tp252
a(Vtranslation factor activity, nucleic acid binding
p253
I335
tp254
a(VtRNA metabolic process
p255
I329
tp256
a(Vchromosome segregation
p257
I324
tp258
a(Vsmall conjugating protein binding
p259
I269
tp260
a(Vunfolded protein binding
p261
I261
tp262
a(Vribosome
p263
I260
tp264
a(Vlipid particle
p265
I254
tp266
a(Vtranslation
p267
I248
tp268
a(Vprotein transporter activity
p269
I234
tp270
a(Vribosome biogenesis
p271
I206
tp272
a(Vtransferase activity, transferring alkyl or aryl (other than methyl) groups
p273
I189
tp274
a(Vnuclear chromosome
p275
I178
tp276
a(Vintracellular
p277
I151
tp278
a(VrRNA binding
p279
I141
tp280
a(Vpigmentation
p281
I135
tp282
a(Vthylakoid
p283
I124
tp284
a(Vnitrogen cycle metabolic process
p285
I51
tp286
a(Vphotosynthesis
p287
I38
tp288
a(Vtransposition
p289
I27
tp290
a(Vcell
p291
I16
tp292
a(Vcytoplasmic chromosome
p293
I1
tp294
aa(lp295
(g3
L6372L
tp296
a(g5
L4365L
tp297
a(g7
L2787L
tp298
a(g9
L21685L
tp299
a(g11
L26888L
tp300
a(g13
L5491L
tp301
a(g15
L18268L
tp302
a(g17
L5801L
tp303
a(g19
L5613L
tp304
a(g21
L21693L
tp305
a(g23
L21630L
tp306
a(g25
L22689L
tp307
a(g27
L7192L
tp308
a(g29
L5168L
tp309
a(g31
L7190L
tp310
a(g33
L1781L
tp311
a(g35
L13924L
tp312
a(g37
L13633L
tp313
a(g39
L4599L
tp314
a(g41
L5326L
tp315
a(g43
L12968L
tp316
a(g45
L4644L
tp317
a(g47
L20507L
tp318
a(g49
L4507L
tp319
a(g51
L10381L
tp320
a(g53
L13690L
tp321
a(g55
L26682L
tp322
a(g57
L4422L
tp323
a(g59
L21086L
tp324
a(g61
L4995L
tp325
a(g63
L10598L
tp326
a(g65
L2790L
tp327
a(g67
L31581L
tp328
a(g69
L4725L
tp329
a(g71
L28228L
tp330
a(g73
L27837L
tp331
a(g75
L26901L
tp332
a(g77
L3827L
tp333
a(g79
L4514L
tp334
a(g81
L18282L
tp335
a(g83
L29927L
tp336
a(g85
L7881L
tp337
a(g87
L6320L
tp338
a(g89
L28535L
tp339
a(g91
L20503L
tp340
a(g93
L5165L
tp341
a(g95
L5663L
tp342
a(g97
L10466L
tp343
a(g99
L2830L
tp344
a(g101
L4567L
tp345
a(g103
L10229L
tp346
a(g105
L4515L
tp347
a(g107
L5218L
tp348
a(g109
L6500L
tp349
a(g111
L5896L
tp350
a(g113
L4621L
tp351
a(g115
L4556L
tp352
a(g117
L6448L
tp353
a(g119
L5791L
tp354
a(g121
L6436L
tp355
a(g123
L30984L
tp356
a(g125
L4542L
tp357
a(g127
L14001L
tp358
a(g129
L10963L
tp359
a(g131
L4118L
tp360
a(g133
L6494L
tp361
a(g135
L10950L
tp362
a(g137
L4439L
tp363
a(g139
L5302L
tp364
a(g141
L4586L
tp365
a(g143
L6357L
tp366
a(g145
L594L
tp367
a(g147
L5471L
tp368
a(g149
L4366L
tp369
a(g151
L677L
tp370
a(g153
L759L
tp371
a(g155
L4405L
tp372
a(g157
L28144L
tp373
a(g159
L4838L
tp374
a(g161
L13967L
tp375
a(g163
L4546L
tp376
a(g165
L10829L
tp377
a(g167
L22810L
tp378
a(g169
L5112L
tp379
a(g171
L4684L
tp380
a(g173
L7644L
tp381
a(g175
L10870L
tp382
a(g177
L2364L
tp383
a(g179
L3L
tp384
a(g181
L6169L
tp385
a(g183
L5695L
tp386
a(g185
L5582L
tp387
a(g187
L10840L
tp388
a(g189
L17965L
tp389
a(g191
L10905L
tp390
a(g193
L28251L
tp391
a(g195
L6389L
tp392
a(g197
L2841L
tp393
a(g199
L14078L
tp394
a(g201
L4408L
tp395
a(g203
L5161L
tp396
a(g205
L3404L
tp397
a(g207
L13274L
tp398
a(g209
L4538L
tp399
a(g211
L3518L
tp400
a(g213
L5658L
tp401
a(g215
L12827L
tp402
a(g217
L13644L
tp403
a(g219
L14427L
tp404
a(g221
L2991L
tp405
a(g223
L4475L
tp406
a(g225
L4423L
tp407
a(g227
L10929L
tp408
a(g229
L4368L
tp409
a(g231
L20900L
tp410
a(g233
L2835L
tp411
a(g235
L33137L
tp412
a(g237
L10876L
tp413
a(g239
L5682L
tp414
a(g241
L10860L
tp415
a(g243
L5662L
tp416
a(g245
L5712L
tp417
a(g247
L4550L
tp418
a(g249
L14396L
tp419
a(g251
L10886L
tp420
a(g253
L6358L
tp421
a(g255
L5114L
tp422
a(g257
L5705L
tp423
a(g259
L15840L
tp424
a(g261
L28040L
tp425
a(g263
L4609L
tp426
a(g265
L4583L
tp427
a(g267
L5126L
tp428
a(g269
L6747L
tp429
a(g271
L20770L
tp430
a(g273
L10848L
tp431
a(g275
L201L
tp432
a(g277
L4411L
tp433
a(g279
L12918L
tp434
a(g281
L21900L
tp435
a(g283
L7683L
tp436
a(g285
L33512L
tp437
a(g287
L10192L
tp438
a(g289
L15852L
tp439
a(g291
L4412L
tp440
a(g293
L202L
tp441
aaI1097196
a.