(lp1
(lp2
(Vbiological_process
p3
I377515
tp4
a(Vcellular_component
p5
I122449
tp6
a(Vmolecular_function
p7
I101022
tp8
a(Vorganelle
p9
I32702
tp10
a(Vanatomical structure development
p11
I28185
tp12
a(Vtransport
p13
I20383
tp14
a(Vsignal transduction
p15
I18161
tp16
a(Vcellular nitrogen compound metabolic process
p17
I17180
tp18
a(Vresponse to stress
p19
I14721
tp20
a(Vprotein complex
p21
I13249
tp22
a(Vsmall molecule metabolic process
p23
I12864
tp24
a(Vion binding
p25
I12597
tp26
a(Vbiosynthetic process
p27
I12312
tp28
a(Vcatabolic process
p29
I9299
tp30
a(Vcellular protein modification process
p31
I9204
tp32
a(Vimmune system process
p33
I8278
tp34
a(Vcell differentiation
p35
I6467
tp36
a(Vcellular component assembly
p37
I6105
tp38
a(Vlipid metabolic process
p39
I6026
tp40
a(Vcytosol
p41
I5791
tp42
a(Venzyme binding
p43
I5150
tp44
a(Vplasma membrane
p45
I4640
tp46
a(Vlocomotion
p47
I4600
tp48
a(Vnucleolus
p49
I4362
tp50
a(Vtransmembrane transporter activity
p51
I4257
tp52
a(Vanatomical structure formation involved in morphogenesis
p53
I4030
tp54
a(Vnucleus
p55
I4010
tp56
a(Vvesicle-mediated transport
p57
I3974
tp58
a(Vhomeostatic process
p59
I3800
tp60
a(Voxidoreductase activity
p61
I3798
tp62
a(Vmacromolecular complex assembly
p63
I3657
tp64
a(VDNA binding
p65
I3580
tp66
a(VDNA metabolic process
p67
I3571
tp68
a(Vcarbohydrate metabolic process
p69
I3547
tp70
a(Vsignal transducer activity
p71
I3437
tp72
a(Vprotein maturation
p73
I3285
tp74
a(Vcell motility
p75
I3283
tp76
a(Vcytoplasm
p77
I3276
tp78
a(Vnucleobase-containing compound catabolic process
p79
I3240
tp80
a(Vtransmembrane transport
p81
I3151
tp82
a(Vchromosome organization
p83
I3131
tp84
a(Vembryo development
p85
I3107
tp86
a(Vprotein complex assembly
p87
I3034
tp88
a(Vneurological system process
p89
I3019
tp90
a(Vgrowth
p91
I3013
tp92
a(Vkinase activity
p93
I2669
tp94
a(VRNA binding
p95
I2628
tp96
a(Vcytoskeletal protein binding
p97
I2622
tp98
a(Vcellular amino acid metabolic process
p99
I2437
tp100
a(Vcytoskeleton organization
p101
I2404
tp102
a(Vmitochondrion
p103
I2385
tp104
a(VGolgi apparatus
p105
I2368
tp106
a(Vcytoplasmic membrane-bounded vesicle
p107
I2256
tp108
a(Vcell-cell signaling
p109
I2124
tp110
a(Vpeptidase activity
p111
I2057
tp112
a(Vendoplasmic reticulum
p113
I1991
tp114
a(Vcell adhesion
p115
I1967
tp116
a(Vlipid binding
p117
I1949
tp118
a(Vcell death
p119
I1892
tp120
a(Vcytoskeleton
p121
I1871
tp122
a(Vcell proliferation
p123
I1843
tp124
a(Vmembrane organization
p125
I1747
tp126
a(Vligase activity
p127
I1741
tp128
a(Vendosome
p129
I1715
tp130
a(VATPase activity
p131
I1653
tp132
a(Vstructural molecule activity
p133
I1637
tp134
a(Venzyme regulator activity
p135
I1575
tp136
a(Vnucleoplasm
p137
I1535
tp138
a(Vprotein targeting
p139
I1519
tp140
a(Vextracellular region
p141
I1475
tp142
a(Vcell morphogenesis
p143
I1447
tp144
a(Vtranscription factor binding
p145
I1445
tp146
a(Vsulfur compound metabolic process
p147
I1439
tp148
a(Vnucleic acid binding transcription factor activity
p149
I1398
tp150
a(Vmicrotubule organizing center
p151
I1370
tp152
a(Vprotein binding transcription factor activity
p153
I1306
tp154
a(Vcofactor metabolic process
p155
I1226
tp156
a(Vextracellular space
p157
I1183
tp158
a(Vgeneration of precursor metabolites and energy
p159
I1139
tp160
a(Vvacuole
p161
I1092
tp162
a(Vextracellular matrix organization
p163
I1074
tp164
a(Vsymbiosis, encompassing mutualism through parasitism
p165
I1065
tp166
a(Vtransferase activity, transferring acyl groups
p167
I993
tp168
a(VmRNA processing
p169
I962
tp170
a(Vplastid
p171
I944
tp172
a(Vcilium
p173
I854
tp174
a(Vreproduction
p175
I806
tp176
a(Vcirculatory system process
p177
I797
tp178
a(Vphosphatase activity
p179
I780
tp180
a(Vaging
p181
I769
tp182
a(Vtransferase activity, transferring glycosyl groups
p183
I735
tp184
a(Vlyase activity
p185
I718
tp186
a(Vnucleocytoplasmic transport
p187
I708
tp188
a(Vcell cycle
p189
I700
tp190
a(Vprotein folding
p191
I671
tp192
a(Vexternal encapsulating structure
p193
I659
tp194
a(Vdevelopmental maturation
p195
I650
tp196
a(Vcell wall
p197
I649
tp198
a(Vcell division
p199
I633
tp200
a(Vmethyltransferase activity
p201
I621
tp202
a(Vstructural constituent of ribosome
p203
I606
tp204
a(Vcell junction organization
p205
I593
tp206
a(Vlysosome
p207
I592
tp208
a(Vhelicase activity
p209
I572
tp210
a(VGTPase activity
p211
I571
tp212
a(Vsecondary metabolic process
p213
I556
tp214
a(Vmitochondrion organization
p215
I533
tp216
a(Vnuclease activity
p217
I518
tp218
a(Vribonucleoprotein complex assembly
p219
I504
tp220
a(Vchromosome
p221
I461
tp222
a(Visomerase activity
p223
I452
tp224
a(Vcytoskeleton-dependent intracellular transport
p225
I435
tp226
a(Vnuclear envelope
p227
I433
tp228
a(VmRNA binding
p229
I433
tp230
a(Vproteinaceous extracellular matrix
p231
I399
tp232
a(Vhydrolase activity, acting on glycosyl bonds
p233
I397
tp234
a(Vhistone binding
p235
I385
tp236
a(Vcell wall organization or biogenesis
p237
I379
tp238
a(Vnucleotidyltransferase activity
p239
I343
tp240
a(Vplasma membrane organization
p241
I335
tp242
a(Vvacuolar transport
p243
I333
tp244
a(Vperoxisome
p245
I333
tp246
a(Vmitosis
p247
I328
tp248
a(Vhydrolase activity, acting on carbon-nitrogen (but not peptide) bonds
p249
I317
tp250
a(Vtranslation factor activity, nucleic acid binding
p251
I315
tp252
a(VtRNA metabolic process
p253
I301
tp254
a(Vprotein binding, bridging
p255
I300
tp256
a(Vchromosome segregation
p257
I297
tp258
a(Vunfolded protein binding
p259
I286
tp260
a(Vlipid particle
p261
I263
tp262
a(Vtranslation
p263
I246
tp264
a(Vribosome
p265
I243
tp266
a(Vsmall conjugating protein binding
p267
I242
tp268
a(Vtransferase activity, transferring alkyl or aryl (other than methyl) groups
p269
I193
tp270
a(Vribosome biogenesis
p271
I184
tp272
a(Vprotein transporter activity
p273
I177
tp274
a(Vnuclear chromosome
p275
I160
tp276
a(Vintracellular
p277
I145
tp278
a(Vpigmentation
p279
I127
tp280
a(VrRNA binding
p281
I126
tp282
a(Vthylakoid
p283
I118
tp284
a(Vnitrogen cycle metabolic process
p285
I65
tp286
a(Vphotosynthesis
p287
I41
tp288
a(Vtransposition
p289
I27
tp290
a(Vcell
p291
I14
tp292
a(Vcytoplasmic chromosome
p293
I1
tp294
aa(lp295
(g3
L6372L
tp296
a(g5
L4365L
tp297
a(g7
L2787L
tp298
a(g9
L21685L
tp299
a(g11
L26888L
tp300
a(g13
L5491L
tp301
a(g15
L5801L
tp302
a(g17
L18268L
tp303
a(g19
L5613L
tp304
a(g21
L21693L
tp305
a(g23
L22689L
tp306
a(g25
L21630L
tp307
a(g27
L7192L
tp308
a(g29
L7190L
tp309
a(g31
L5168L
tp310
a(g33
L1781L
tp311
a(g35
L13924L
tp312
a(g37
L13633L
tp313
a(g39
L5326L
tp314
a(g41
L4599L
tp315
a(g43
L12968L
tp316
a(g45
L4644L
tp317
a(g47
L20507L
tp318
a(g49
L4507L
tp319
a(g51
L13690L
tp320
a(g53
L26682L
tp321
a(g55
L4422L
tp322
a(g57
L10381L
tp323
a(g59
L21086L
tp324
a(g61
L10598L
tp325
a(g63
L31581L
tp326
a(g65
L2790L
tp327
a(g67
L4995L
tp328
a(g69
L4725L
tp329
a(g71
L3827L
tp330
a(g73
L28535L
tp331
a(g75
L26901L
tp332
a(g77
L4514L
tp333
a(g79
L18282L
tp334
a(g81
L29927L
tp335
a(g83
L28228L
tp336
a(g85
L7881L
tp337
a(g87
L5165L
tp338
a(g89
L27837L
tp339
a(g91
L20503L
tp340
a(g93
L10466L
tp341
a(g95
L2830L
tp342
a(g97
L6320L
tp343
a(g99
L5218L
tp344
a(g101
L5663L
tp345
a(g103
L4515L
tp346
a(g105
L4567L
tp347
a(g107
L10229L
tp348
a(g109
L5896L
tp349
a(g111
L6448L
tp350
a(g113
L4556L
tp351
a(g115
L5791L
tp352
a(g117
L6500L
tp353
a(g119
L6436L
tp354
a(g121
L4621L
tp355
a(g123
L6494L
tp356
a(g125
L30984L
tp357
a(g127
L10950L
tp358
a(g129
L4542L
tp359
a(g131
L10963L
tp360
a(g133
L4118L
tp361
a(g135
L14001L
tp362
a(g137
L4439L
tp363
a(g139
L5302L
tp364
a(g141
L4366L
tp365
a(g143
L594L
tp366
a(g145
L6357L
tp367
a(g147
L5471L
tp368
a(g149
L759L
tp369
a(g151
L4586L
tp370
a(g153
L677L
tp371
a(g155
L28144L
tp372
a(g157
L4405L
tp373
a(g159
L4838L
tp374
a(g161
L4546L
tp375
a(g163
L13967L
tp376
a(g165
L22810L
tp377
a(g167
L10829L
tp378
a(g169
L5112L
tp379
a(g171
L7644L
tp380
a(g173
L4684L
tp381
a(g175
L3L
tp382
a(g177
L2364L
tp383
a(g179
L10870L
tp384
a(g181
L6169L
tp385
a(g183
L10840L
tp386
a(g185
L10905L
tp387
a(g187
L5582L
tp388
a(g189
L5695L
tp389
a(g191
L5161L
tp390
a(g193
L14078L
tp391
a(g195
L13274L
tp392
a(g197
L4408L
tp393
a(g199
L28251L
tp394
a(g201
L6389L
tp395
a(g203
L2841L
tp396
a(g205
L17965L
tp397
a(g207
L4538L
tp398
a(g209
L3404L
tp399
a(g211
L2991L
tp400
a(g213
L12827L
tp401
a(g215
L5658L
tp402
a(g217
L3518L
tp403
a(g219
L13644L
tp404
a(g221
L4475L
tp405
a(g223
L10929L
tp406
a(g225
L14427L
tp407
a(g227
L4423L
tp408
a(g229
L2835L
tp409
a(g231
L4368L
tp410
a(g233
L10876L
tp411
a(g235
L20900L
tp412
a(g237
L33137L
tp413
a(g239
L10860L
tp414
a(g241
L5662L
tp415
a(g243
L5682L
tp416
a(g245
L4550L
tp417
a(g247
L5712L
tp418
a(g249
L10886L
tp419
a(g251
L6358L
tp420
a(g253
L5114L
tp421
a(g255
L14396L
tp422
a(g257
L5705L
tp423
a(g259
L28040L
tp424
a(g261
L4583L
tp425
a(g263
L5126L
tp426
a(g265
L4609L
tp427
a(g267
L15840L
tp428
a(g269
L10848L
tp429
a(g271
L20770L
tp430
a(g273
L6747L
tp431
a(g275
L201L
tp432
a(g277
L4411L
tp433
a(g279
L21900L
tp434
a(g281
L12918L
tp435
a(g283
L7683L
tp436
a(g285
L33512L
tp437
a(g287
L10192L
tp438
a(g289
L15852L
tp439
a(g291
L4412L
tp440
a(g293
L202L
tp441
aaI1020034
a.