(lp1
(lp2
(Vbiological_process
p3
I69350
tp4
a(Vcellular_component
p5
I24170
tp6
a(Vmolecular_function
p7
I18165
tp8
a(Vorganelle
p9
I7010
tp10
a(Vcellular nitrogen compound metabolic process
p11
I4373
tp12
a(Vanatomical structure development
p13
I4327
tp14
a(Vtransport
p15
I3872
tp16
a(Vsignal transduction
p17
I3153
tp18
a(Vbiosynthetic process
p19
I2954
tp20
a(Vresponse to stress
p21
I2922
tp22
a(Vprotein complex
p23
I2887
tp24
a(Vsmall molecule metabolic process
p25
I2658
tp26
a(Vcellular protein modification process
p27
I2197
tp28
a(Vion binding
p29
I2151
tp30
a(Vcatabolic process
p31
I2131
tp32
a(Vimmune system process
p33
I1592
tp34
a(Vcellular component assembly
p35
I1254
tp36
a(Vcytosol
p37
I1251
tp38
a(VDNA metabolic process
p39
I1021
tp40
a(Vlipid metabolic process
p41
I983
tp42
a(Vcell differentiation
p43
I965
tp44
a(Vnucleus
p45
I934
tp46
a(Venzyme binding
p47
I908
tp48
a(Vvesicle-mediated transport
p49
I899
tp50
a(Vcarbohydrate metabolic process
p51
I882
tp52
a(Vnucleolus
p53
I862
tp54
a(Vchromosome organization
p55
I841
tp56
a(Vplasma membrane
p57
I833
tp58
a(Vnucleobase-containing compound catabolic process
p59
I805
tp60
a(Vkinase activity
p61
I774
tp62
a(Vlocomotion
p63
I770
tp64
a(Vembryo development
p65
I747
tp66
a(Vmacromolecular complex assembly
p67
I710
tp68
a(Voxidoreductase activity
p69
I629
tp70
a(Vgrowth
p71
I620
tp72
a(Vcytoplasm
p73
I617
tp74
a(Vhomeostatic process
p75
I611
tp76
a(Vanatomical structure formation involved in morphogenesis
p77
I586
tp78
a(VRNA binding
p79
I582
tp80
a(Vprotein complex assembly
p81
I568
tp82
a(Vcellular amino acid metabolic process
p83
I563
tp84
a(Vcytoskeletal protein binding
p85
I552
tp86
a(Vcytoskeleton organization
p87
I546
tp88
a(Vtransmembrane transporter activity
p89
I520
tp90
a(Vmitochondrion
p91
I518
tp92
a(Vprotein maturation
p93
I516
tp94
a(VDNA binding
p95
I483
tp96
a(Vcell motility
p97
I459
tp98
a(Vtransmembrane transport
p99
I450
tp100
a(VGolgi apparatus
p101
I442
tp102
a(Vcytoskeleton
p103
I440
tp104
a(VATPase activity
p105
I401
tp106
a(Vcell death
p107
I391
tp108
a(Vendoplasmic reticulum
p109
I378
tp110
a(Vlipid binding
p111
I358
tp112
a(Vcytoplasmic membrane-bounded vesicle
p113
I357
tp114
a(Vendosome
p115
I356
tp116
a(Vmicrotubule organizing center
p117
I352
tp118
a(Vprotein targeting
p119
I347
tp120
a(Vneurological system process
p121
I347
tp122
a(Vnucleoplasm
p123
I345
tp124
a(Vmembrane organization
p125
I307
tp126
a(Vcell morphogenesis
p127
I305
tp128
a(Vligase activity
p129
I300
tp130
a(Vsignal transducer activity
p131
I296
tp132
a(Vpeptidase activity
p133
I289
tp134
a(Venzyme regulator activity
p135
I289
tp136
a(Vcell cycle
p137
I284
tp138
a(Vreproduction
p139
I268
tp140
a(Vstructural molecule activity
p141
I260
tp142
a(Vcell adhesion
p143
I260
tp144
a(Vcell proliferation
p145
I257
tp146
a(Vgeneration of precursor metabolites and energy
p147
I257
tp148
a(Vsulfur compound metabolic process
p149
I249
tp150
a(Vphosphatase activity
p151
I242
tp152
a(VmRNA processing
p153
I238
tp154
a(Vtranscription factor binding
p155
I233
tp156
a(Vcofactor metabolic process
p157
I228
tp158
a(Vsymbiosis, encompassing mutualism through parasitism
p159
I224
tp160
a(Vcell-cell signaling
p161
I222
tp162
a(Vplastid
p163
I222
tp164
a(Vvacuole
p165
I197
tp166
a(Vtransferase activity, transferring acyl groups
p167
I197
tp168
a(Vprotein binding transcription factor activity
p169
I193
tp170
a(Vcilium
p171
I192
tp172
a(Vhelicase activity
p173
I181
tp174
a(Vlyase activity
p175
I174
tp176
a(Vprotein folding
p177
I172
tp178
a(Vextracellular region
p179
I170
tp180
a(Vtransferase activity, transferring glycosyl groups
p181
I164
tp182
a(Vcell division
p183
I153
tp184
a(Vmethyltransferase activity
p185
I150
tp186
a(Vchromosome
p187
I149
tp188
a(Vstructural constituent of ribosome
p189
I143
tp190
a(Vnuclease activity
p191
I142
tp192
a(Vnucleocytoplasmic transport
p193
I139
tp194
a(Vcytoskeleton-dependent intracellular transport
p195
I135
tp196
a(Vcell wall
p197
I133
tp198
a(Vexternal encapsulating structure
p199
I133
tp200
a(Visomerase activity
p201
I130
tp202
a(VGTPase activity
p203
I127
tp204
a(Vmitochondrion organization
p205
I121
tp206
a(Vnucleic acid binding transcription factor activity
p207
I121
tp208
a(Vchromosome segregation
p209
I120
tp210
a(Vribonucleoprotein complex assembly
p211
I120
tp212
a(Vhydrolase activity, acting on glycosyl bonds
p213
I115
tp214
a(Vaging
p215
I114
tp216
a(VtRNA metabolic process
p217
I112
tp218
a(Vcell junction organization
p219
I112
tp220
a(Vmitosis
p221
I110
tp222
a(Vcell wall organization or biogenesis
p223
I96
tp224
a(Vsecondary metabolic process
p225
I96
tp226
a(Vnuclear envelope
p227
I91
tp228
a(Vlysosome
p229
I89
tp230
a(Vvacuolar transport
p231
I88
tp232
a(VmRNA binding
p233
I85
tp234
a(Vdevelopmental maturation
p235
I80
tp236
a(Vnucleotidyltransferase activity
p237
I79
tp238
a(Vcirculatory system process
p239
I73
tp240
a(Vtranslation factor activity, nucleic acid binding
p241
I71
tp242
a(Vextracellular space
p243
I69
tp244
a(Vhistone binding
p245
I67
tp246
a(Vhydrolase activity, acting on carbon-nitrogen (but not peptide) bonds
p247
I66
tp248
a(Vextracellular matrix organization
p249
I66
tp250
a(Vplasma membrane organization
p251
I66
tp252
a(Vribosome biogenesis
p253
I61
tp254
a(Vtranslation
p255
I59
tp256
a(Vunfolded protein binding
p257
I58
tp258
a(Vprotein binding, bridging
p259
I57
tp260
a(Vperoxisome
p261
I55
tp262
a(Vtransferase activity, transferring alkyl or aryl (other than methyl) groups
p263
I52
tp264
a(Vribosome
p265
I50
tp266
a(Vlipid particle
p267
I48
tp268
a(Vnuclear chromosome
p269
I42
tp270
a(Vsmall conjugating protein binding
p271
I42
tp272
a(Vprotein transporter activity
p273
I36
tp274
a(Vintracellular
p275
I35
tp276
a(VrRNA binding
p277
I29
tp278
a(Vpigmentation
p279
I21
tp280
a(Vproteinaceous extracellular matrix
p281
I20
tp282
a(Vthylakoid
p283
I14
tp284
a(Vnitrogen cycle metabolic process
p285
I10
tp286
a(Vphotosynthesis
p287
I3
tp288
a(VRNA modification guide activity
p289
I2
tp290
a(Vcell
p291
I1
tp292
aa(lp293
(g3
L6372L
tp294
a(g5
L4365L
tp295
a(g7
L2787L
tp296
a(g9
L21685L
tp297
a(g11
L18268L
tp298
a(g13
L26888L
tp299
a(g15
L5491L
tp300
a(g17
L5801L
tp301
a(g19
L7192L
tp302
a(g21
L5613L
tp303
a(g23
L21693L
tp304
a(g25
L22689L
tp305
a(g27
L5168L
tp306
a(g29
L21630L
tp307
a(g31
L7190L
tp308
a(g33
L1781L
tp309
a(g35
L13633L
tp310
a(g37
L4599L
tp311
a(g39
L4995L
tp312
a(g41
L5326L
tp313
a(g43
L13924L
tp314
a(g45
L4422L
tp315
a(g47
L12968L
tp316
a(g49
L10381L
tp317
a(g51
L4725L
tp318
a(g53
L4507L
tp319
a(g55
L28228L
tp320
a(g57
L4644L
tp321
a(g59
L18282L
tp322
a(g61
L10466L
tp323
a(g63
L20507L
tp324
a(g65
L7881L
tp325
a(g67
L31581L
tp326
a(g69
L10598L
tp327
a(g71
L20503L
tp328
a(g73
L4514L
tp329
a(g75
L21086L
tp330
a(g77
L26682L
tp331
a(g79
L2830L
tp332
a(g81
L5165L
tp333
a(g83
L5218L
tp334
a(g85
L6320L
tp335
a(g87
L5663L
tp336
a(g89
L13690L
tp337
a(g91
L4515L
tp338
a(g93
L28535L
tp339
a(g95
L2790L
tp340
a(g97
L26901L
tp341
a(g99
L29927L
tp342
a(g101
L4567L
tp343
a(g103
L4621L
tp344
a(g105
L10963L
tp345
a(g107
L6436L
tp346
a(g109
L4556L
tp347
a(g111
L6500L
tp348
a(g113
L10229L
tp349
a(g115
L4542L
tp350
a(g117
L4586L
tp351
a(g119
L5302L
tp352
a(g121
L27837L
tp353
a(g123
L4439L
tp354
a(g125
L30984L
tp355
a(g127
L594L
tp356
a(g129
L10950L
tp357
a(g131
L3827L
tp358
a(g133
L6448L
tp359
a(g135
L14001L
tp360
a(g137
L5695L
tp361
a(g139
L3L
tp362
a(g141
L4118L
tp363
a(g143
L5791L
tp364
a(g145
L6494L
tp365
a(g147
L4838L
tp366
a(g149
L5471L
tp367
a(g151
L10870L
tp368
a(g153
L5112L
tp369
a(g155
L6357L
tp370
a(g157
L28144L
tp371
a(g159
L22810L
tp372
a(g161
L5896L
tp373
a(g163
L7644L
tp374
a(g165
L4546L
tp375
a(g167
L10829L
tp376
a(g169
L677L
tp377
a(g171
L4684L
tp378
a(g173
L3404L
tp379
a(g175
L10905L
tp380
a(g177
L5161L
tp381
a(g179
L4366L
tp382
a(g181
L10840L
tp383
a(g183
L28251L
tp384
a(g185
L6389L
tp385
a(g187
L4475L
tp386
a(g189
L2841L
tp387
a(g191
L3518L
tp388
a(g193
L5582L
tp389
a(g195
L14427L
tp390
a(g197
L4408L
tp391
a(g199
L14078L
tp392
a(g201
L10929L
tp393
a(g203
L2991L
tp394
a(g205
L5658L
tp395
a(g207
L759L
tp396
a(g209
L5705L
tp397
a(g211
L13644L
tp398
a(g213
L10876L
tp399
a(g215
L6169L
tp400
a(g217
L5114L
tp401
a(g219
L17965L
tp402
a(g221
L5712L
tp403
a(g223
L33137L
tp404
a(g225
L12827L
tp405
a(g227
L4423L
tp406
a(g229
L4538L
tp407
a(g231
L5682L
tp408
a(g233
L2835L
tp409
a(g235
L13274L
tp410
a(g237
L10860L
tp411
a(g239
L2364L
tp412
a(g241
L6358L
tp413
a(g243
L4405L
tp414
a(g245
L20900L
tp415
a(g247
L10886L
tp416
a(g249
L13967L
tp417
a(g251
L5662L
tp418
a(g253
L20770L
tp419
a(g255
L5126L
tp420
a(g257
L28040L
tp421
a(g259
L14396L
tp422
a(g261
L4550L
tp423
a(g263
L10848L
tp424
a(g265
L4609L
tp425
a(g267
L4583L
tp426
a(g269
L201L
tp427
a(g271
L15840L
tp428
a(g273
L6747L
tp429
a(g275
L4411L
tp430
a(g277
L12918L
tp431
a(g279
L21900L
tp432
a(g281
L4368L
tp433
a(g283
L7683L
tp434
a(g285
L33512L
tp435
a(g287
L10192L
tp436
a(g289
L14288L
tp437
a(g291
L4412L
tp438
aaI194011
a.