(lp1
(lp2
(Vbiological_process
p3
I14012
tp4
a(Vcellular_component
p5
I5231
tp6
a(Vmolecular_function
p7
I3900
tp8
a(Vorganelle
p9
I1577
tp10
a(Vcellular nitrogen compound metabolic process
p11
I1258
tp12
a(Vanatomical structure development
p13
I865
tp14
a(Vtransport
p15
I845
tp16
a(Vbiosynthetic process
p17
I803
tp18
a(Vprotein complex
p19
I785
tp20
a(Vresponse to stress
p21
I698
tp22
a(Vsignal transduction
p23
I698
tp24
a(Vsmall molecule metabolic process
p25
I647
tp26
a(Vcatabolic process
p27
I585
tp28
a(Vion binding
p29
I471
tp30
a(Vcellular protein modification process
p31
I455
tp32
a(Vimmune system process
p33
I435
tp34
a(Vcytosol
p35
I356
tp36
a(Vcellular component assembly
p37
I272
tp38
a(Vnucleobase-containing compound catabolic process
p39
I249
tp40
a(Vembryo development
p41
I243
tp42
a(Vnucleus
p43
I241
tp44
a(Vnucleolus
p45
I239
tp46
a(VDNA metabolic process
p47
I237
tp48
a(VRNA binding
p49
I220
tp50
a(Vlipid metabolic process
p51
I217
tp52
a(Vmacromolecular complex assembly
p53
I196
tp54
a(Vcarbohydrate metabolic process
p55
I193
tp56
a(Vplasma membrane
p57
I191
tp58
a(Vvesicle-mediated transport
p59
I187
tp60
a(Venzyme binding
p61
I182
tp62
a(Vlocomotion
p63
I180
tp64
a(Vchromosome organization
p65
I177
tp66
a(Vcell differentiation
p67
I176
tp68
a(Vcytoplasm
p69
I148
tp70
a(Vprotein maturation
p71
I148
tp72
a(Vprotein complex assembly
p73
I143
tp74
a(Vgrowth
p75
I139
tp76
a(Vcellular amino acid metabolic process
p77
I138
tp78
a(Vprotein targeting
p79
I134
tp80
a(Vmitochondrion
p81
I134
tp82
a(Voxidoreductase activity
p83
I132
tp84
a(VDNA binding
p85
I126
tp86
a(Vhomeostatic process
p87
I126
tp88
a(VGolgi apparatus
p89
I123
tp90
a(Vkinase activity
p91
I121
tp92
a(Vtransmembrane transport
p93
I116
tp94
a(Vanatomical structure formation involved in morphogenesis
p95
I114
tp96
a(Vnucleoplasm
p97
I112
tp98
a(Vtransmembrane transporter activity
p99
I105
tp100
a(Vstructural molecule activity
p101
I100
tp102
a(Vcell death
p103
I98
tp104
a(Vgeneration of precursor metabolites and energy
p105
I98
tp106
a(Vcell motility
p107
I97
tp108
a(VATPase activity
p109
I93
tp110
a(Vcytoskeleton organization
p111
I93
tp112
a(Vcytoplasmic membrane-bounded vesicle
p113
I90
tp114
a(VmRNA processing
p115
I88
tp116
a(Vsymbiosis, encompassing mutualism through parasitism
p117
I88
tp118
a(Vcytoskeletal protein binding
p119
I85
tp120
a(Vendoplasmic reticulum
p121
I83
tp122
a(Vplastid
p123
I78
tp124
a(Vcytoskeleton
p125
I76
tp126
a(Vreproduction
p127
I74
tp128
a(Vmicrotubule organizing center
p129
I72
tp130
a(Vligase activity
p131
I72
tp132
a(Vstructural constituent of ribosome
p133
I71
tp134
a(Vprotein folding
p135
I68
tp136
a(Vcofactor metabolic process
p137
I66
tp138
a(Vpeptidase activity
p139
I65
tp140
a(Vendosome
p141
I63
tp142
a(Vtranscription factor binding
p143
I63
tp144
a(Venzyme regulator activity
p145
I63
tp146
a(Vcell proliferation
p147
I62
tp148
a(Vlipid binding
p149
I60
tp150
a(Vneurological system process
p151
I59
tp152
a(Vprotein binding transcription factor activity
p153
I57
tp154
a(Vsulfur compound metabolic process
p155
I56
tp156
a(Vmembrane organization
p157
I55
tp158
a(Vribonucleoprotein complex assembly
p159
I47
tp160
a(Vcell wall
p161
I47
tp162
a(Vexternal encapsulating structure
p163
I47
tp164
a(Vnucleocytoplasmic transport
p165
I45
tp166
a(Vvacuole
p167
I42
tp168
a(Vcell cycle
p169
I41
tp170
a(Vphosphatase activity
p171
I41
tp172
a(Vcell morphogenesis
p173
I41
tp174
a(Vmitochondrion organization
p175
I40
tp176
a(VGTPase activity
p177
I39
tp178
a(Vhelicase activity
p179
I36
tp180
a(Vtranslation factor activity, nucleic acid binding
p181
I36
tp182
a(Vmethyltransferase activity
p183
I35
tp184
a(VmRNA binding
p185
I34
tp186
a(Vnuclease activity
p187
I34
tp188
a(Vcell-cell signaling
p189
I33
tp190
a(Vextracellular region
p191
I33
tp192
a(Vlyase activity
p193
I33
tp194
a(Vnucleic acid binding transcription factor activity
p195
I32
tp196
a(Vchromosome
p197
I32
tp198
a(Visomerase activity
p199
I32
tp200
a(Vmitosis
p201
I31
tp202
a(Vtransferase activity, transferring acyl groups
p203
I30
tp204
a(Vcell adhesion
p205
I30
tp206
a(Vsignal transducer activity
p207
I29
tp208
a(Vaging
p209
I29
tp210
a(Vunfolded protein binding
p211
I28
tp212
a(VtRNA metabolic process
p213
I27
tp214
a(Vvacuolar transport
p215
I25
tp216
a(Vtransferase activity, transferring glycosyl groups
p217
I24
tp218
a(Vchromosome segregation
p219
I24
tp220
a(Vribosome biogenesis
p221
I24
tp222
a(Vsecondary metabolic process
p223
I24
tp224
a(Vcilium
p225
I23
tp226
a(Vcytoskeleton-dependent intracellular transport
p227
I23
tp228
a(Vcell division
p229
I22
tp230
a(Vcell wall organization or biogenesis
p231
I22
tp232
a(Vribosome
p233
I21
tp234
a(Vtransferase activity, transferring alkyl or aryl (other than methyl) groups
p235
I21
tp236
a(Vlysosome
p237
I18
tp238
a(Vnucleotidyltransferase activity
p239
I16
tp240
a(Vtranslation
p241
I16
tp242
a(Vextracellular space
p243
I15
tp244
a(Vnuclear envelope
p245
I14
tp246
a(Vhistone binding
p247
I13
tp248
a(Vhydrolase activity, acting on carbon-nitrogen (but not peptide) bonds
p249
I13
tp250
a(Vnuclear chromosome
p251
I13
tp252
a(Vperoxisome
p253
I13
tp254
a(Vprotein transporter activity
p255
I12
tp256
a(Vlipid particle
p257
I12
tp258
a(Vcell junction organization
p259
I12
tp260
a(Vdevelopmental maturation
p261
I11
tp262
a(Vplasma membrane organization
p263
I11
tp264
a(VrRNA binding
p265
I10
tp266
a(Vextracellular matrix organization
p267
I10
tp268
a(Vcirculatory system process
p269
I9
tp270
a(Vprotein binding, bridging
p271
I8
tp272
a(Vsmall conjugating protein binding
p273
I7
tp274
a(Vpigmentation
p275
I7
tp276
a(Vhydrolase activity, acting on glycosyl bonds
p277
I6
tp278
a(Vthylakoid
p279
I2
tp280
a(Vintracellular
p281
I2
tp282
a(Vphotosynthesis
p283
I1
tp284
a(VRNA modification guide activity
p285
I1
tp286
a(Vnitrogen cycle metabolic process
p287
I1
tp288
aa(lp289
(g3
L6372L
tp290
a(g5
L4365L
tp291
a(g7
L2787L
tp292
a(g9
L21685L
tp293
a(g11
L18268L
tp294
a(g13
L26888L
tp295
a(g15
L5491L
tp296
a(g17
L7192L
tp297
a(g19
L21693L
tp298
a(g21
L5613L
tp299
a(g23
L5801L
tp300
a(g25
L22689L
tp301
a(g27
L7190L
tp302
a(g29
L21630L
tp303
a(g31
L5168L
tp304
a(g33
L1781L
tp305
a(g35
L4599L
tp306
a(g37
L13633L
tp307
a(g39
L18282L
tp308
a(g41
L7881L
tp309
a(g43
L4422L
tp310
a(g45
L4507L
tp311
a(g47
L4995L
tp312
a(g49
L2830L
tp313
a(g51
L5326L
tp314
a(g53
L31581L
tp315
a(g55
L4725L
tp316
a(g57
L4644L
tp317
a(g59
L10381L
tp318
a(g61
L12968L
tp319
a(g63
L20507L
tp320
a(g65
L28228L
tp321
a(g67
L13924L
tp322
a(g69
L4514L
tp323
a(g71
L28535L
tp324
a(g73
L5165L
tp325
a(g75
L20503L
tp326
a(g77
L5218L
tp327
a(g79
L5302L
tp328
a(g81
L4515L
tp329
a(g83
L10598L
tp330
a(g85
L2790L
tp331
a(g87
L21086L
tp332
a(g89
L4567L
tp333
a(g91
L10466L
tp334
a(g93
L29927L
tp335
a(g95
L26682L
tp336
a(g97
L4439L
tp337
a(g99
L13690L
tp338
a(g101
L4118L
tp339
a(g103
L6436L
tp340
a(g105
L4838L
tp341
a(g107
L26901L
tp342
a(g109
L10963L
tp343
a(g111
L5663L
tp344
a(g113
L10229L
tp345
a(g115
L5112L
tp346
a(g117
L22810L
tp347
a(g119
L6320L
tp348
a(g121
L4556L
tp349
a(g123
L7644L
tp350
a(g125
L4621L
tp351
a(g127
L3L
tp352
a(g129
L4586L
tp353
a(g131
L10950L
tp354
a(g133
L2841L
tp355
a(g135
L5161L
tp356
a(g137
L28144L
tp357
a(g139
L6448L
tp358
a(g141
L4542L
tp359
a(g143
L6357L
tp360
a(g145
L14001L
tp361
a(g147
L6494L
tp362
a(g149
L6500L
tp363
a(g151
L27837L
tp364
a(g153
L677L
tp365
a(g155
L5471L
tp366
a(g157
L30984L
tp367
a(g159
L13644L
tp368
a(g161
L4408L
tp369
a(g163
L14078L
tp370
a(g165
L5582L
tp371
a(g167
L4546L
tp372
a(g169
L5695L
tp373
a(g171
L10870L
tp374
a(g173
L594L
tp375
a(g175
L5658L
tp376
a(g177
L2991L
tp377
a(g179
L3404L
tp378
a(g181
L6358L
tp379
a(g183
L6389L
tp380
a(g185
L2835L
tp381
a(g187
L3518L
tp382
a(g189
L5896L
tp383
a(g191
L4366L
tp384
a(g193
L10905L
tp385
a(g195
L759L
tp386
a(g197
L4475L
tp387
a(g199
L10929L
tp388
a(g201
L5712L
tp389
a(g203
L10829L
tp390
a(g205
L5791L
tp391
a(g207
L3827L
tp392
a(g209
L6169L
tp393
a(g211
L28040L
tp394
a(g213
L5114L
tp395
a(g215
L5682L
tp396
a(g217
L10840L
tp397
a(g219
L5705L
tp398
a(g221
L20770L
tp399
a(g223
L12827L
tp400
a(g225
L4684L
tp401
a(g227
L14427L
tp402
a(g229
L28251L
tp403
a(g231
L33137L
tp404
a(g233
L4609L
tp405
a(g235
L10848L
tp406
a(g237
L4538L
tp407
a(g239
L10860L
tp408
a(g241
L5126L
tp409
a(g243
L4405L
tp410
a(g245
L4423L
tp411
a(g247
L20900L
tp412
a(g249
L10886L
tp413
a(g251
L201L
tp414
a(g253
L4550L
tp415
a(g255
L6747L
tp416
a(g257
L4583L
tp417
a(g259
L17965L
tp418
a(g261
L13274L
tp419
a(g263
L5662L
tp420
a(g265
L12918L
tp421
a(g267
L13967L
tp422
a(g269
L2364L
tp423
a(g271
L14396L
tp424
a(g273
L15840L
tp425
a(g275
L21900L
tp426
a(g277
L10876L
tp427
a(g279
L7683L
tp428
a(g281
L4411L
tp429
a(g283
L10192L
tp430
a(g285
L14288L
tp431
a(g287
L33512L
tp432
aaI42783
a.