(lp1
(lp2
(Vbiological_process
p3
I244187
tp4
a(Vcellular_component
p5
I79989
tp6
a(Vmolecular_function
p7
I65107
tp8
a(Vorganelle
p9
I21395
tp10
a(Vanatomical structure development
p11
I18803
tp12
a(Vtransport
p13
I13317
tp14
a(Vcellular nitrogen compound metabolic process
p15
I11659
tp16
a(Vsignal transduction
p17
I10945
tp18
a(Vresponse to stress
p19
I9363
tp20
a(Vprotein complex
p21
I8678
tp22
a(Vion binding
p23
I7971
tp24
a(Vbiosynthetic process
p25
I7825
tp26
a(Vsmall molecule metabolic process
p27
I7765
tp28
a(Vcellular protein modification process
p29
I6179
tp30
a(Vcatabolic process
p31
I5832
tp32
a(Vimmune system process
p33
I4943
tp34
a(Vcell differentiation
p35
I4397
tp36
a(Vcytosol
p37
I3672
tp38
a(Vcellular component assembly
p39
I3654
tp40
a(Vlipid metabolic process
p41
I3545
tp42
a(Venzyme binding
p43
I3350
tp44
a(VDNA metabolic process
p45
I2951
tp46
a(Vlocomotion
p47
I2931
tp48
a(Vplasma membrane
p49
I2921
tp50
a(Vanatomical structure formation involved in morphogenesis
p51
I2896
tp52
a(Vtransmembrane transporter activity
p53
I2821
tp54
a(Vnucleolus
p55
I2690
tp56
a(Vnucleus
p57
I2653
tp58
a(Vvesicle-mediated transport
p59
I2619
tp60
a(Vcarbohydrate metabolic process
p61
I2302
tp62
a(Vhomeostatic process
p63
I2259
tp64
a(Voxidoreductase activity
p65
I2217
tp66
a(Vchromosome organization
p67
I2195
tp68
a(VDNA binding
p69
I2167
tp70
a(Vcytoplasm
p71
I2117
tp72
a(Vmacromolecular complex assembly
p73
I2107
tp74
a(Vtransmembrane transport
p75
I2092
tp76
a(Vnucleobase-containing compound catabolic process
p77
I2076
tp78
a(Vembryo development
p79
I2049
tp80
a(Vgrowth
p81
I2020
tp82
a(Vcell motility
p83
I2014
tp84
a(Vprotein maturation
p85
I1920
tp86
a(Vsignal transducer activity
p87
I1884
tp88
a(Vneurological system process
p89
I1848
tp90
a(Vkinase activity
p91
I1768
tp92
a(Vprotein complex assembly
p93
I1707
tp94
a(VRNA binding
p95
I1682
tp96
a(Vcytoskeletal protein binding
p97
I1681
tp98
a(Vcytoskeleton organization
p99
I1594
tp100
a(VGolgi apparatus
p101
I1508
tp102
a(Vmitochondrion
p103
I1439
tp104
a(Vcytoplasmic membrane-bounded vesicle
p105
I1407
tp106
a(Vcellular amino acid metabolic process
p107
I1405
tp108
a(Vlipid binding
p109
I1397
tp110
a(Vcell adhesion
p111
I1291
tp112
a(Vpeptidase activity
p113
I1251
tp114
a(Vcytoskeleton
p115
I1250
tp116
a(Vendoplasmic reticulum
p117
I1221
tp118
a(Vcell death
p119
I1173
tp120
a(Vcell-cell signaling
p121
I1154
tp122
a(Vcell proliferation
p123
I1144
tp124
a(Vligase activity
p125
I1096
tp126
a(VATPase activity
p127
I1094
tp128
a(Vmembrane organization
p129
I1079
tp130
a(Vendosome
p131
I1076
tp132
a(Vnucleoplasm
p133
I1059
tp134
a(Venzyme regulator activity
p135
I1038
tp136
a(Vmicrotubule organizing center
p137
I1022
tp138
a(Vcell morphogenesis
p139
I1008
tp140
a(Vtranscription factor binding
p141
I925
tp142
a(Vextracellular region
p143
I893
tp144
a(Vprotein targeting
p145
I878
tp146
a(Vstructural molecule activity
p147
I870
tp148
a(Vsulfur compound metabolic process
p149
I857
tp150
a(Vprotein binding transcription factor activity
p151
I816
tp152
a(Vnucleic acid binding transcription factor activity
p153
I753
tp154
a(Vcofactor metabolic process
p155
I721
tp156
a(Vextracellular space
p157
I693
tp158
a(Vcilium
p159
I671
tp160
a(Vgeneration of precursor metabolites and energy
p161
I671
tp162
a(Vextracellular matrix organization
p163
I657
tp164
a(VmRNA processing
p165
I651
tp166
a(Vvacuole
p167
I628
tp168
a(Vtransferase activity, transferring acyl groups
p169
I621
tp170
a(Vsymbiosis, encompassing mutualism through parasitism
p171
I605
tp172
a(Vplastid
p173
I566
tp174
a(Vcell cycle
p175
I535
tp176
a(Vphosphatase activity
p177
I535
tp178
a(Vreproduction
p179
I525
tp180
a(Vhelicase activity
p181
I494
tp182
a(Vaging
p183
I488
tp184
a(Vtransferase activity, transferring glycosyl groups
p185
I474
tp186
a(Vlyase activity
p187
I447
tp188
a(Vcell division
p189
I440
tp190
a(Vnuclease activity
p191
I436
tp192
a(Vnucleocytoplasmic transport
p193
I419
tp194
a(Vcirculatory system process
p195
I399
tp196
a(Vexternal encapsulating structure
p197
I383
tp198
a(Vcell wall
p199
I376
tp200
a(Vprotein folding
p201
I371
tp202
a(Vmethyltransferase activity
p203
I364
tp204
a(Vdevelopmental maturation
p205
I353
tp206
a(Vcell junction organization
p207
I345
tp208
a(Vchromosome
p209
I339
tp210
a(Vlysosome
p211
I334
tp212
a(Vsecondary metabolic process
p213
I326
tp214
a(Vribonucleoprotein complex assembly
p215
I323
tp216
a(Vcytoskeleton-dependent intracellular transport
p217
I318
tp218
a(Vproteinaceous extracellular matrix
p219
I310
tp220
a(Vmitochondrion organization
p221
I308
tp222
a(VGTPase activity
p223
I303
tp224
a(Vstructural constituent of ribosome
p225
I293
tp226
a(Vnuclear envelope
p227
I282
tp228
a(Visomerase activity
p229
I270
tp230
a(Vhydrolase activity, acting on glycosyl bonds
p231
I262
tp232
a(VmRNA binding
p233
I250
tp234
a(Vcell wall organization or biogenesis
p235
I249
tp236
a(Vnucleotidyltransferase activity
p237
I240
tp238
a(Vhistone binding
p239
I238
tp240
a(Vmitosis
p241
I235
tp242
a(Vplasma membrane organization
p243
I235
tp244
a(Vchromosome segregation
p245
I221
tp246
a(VtRNA metabolic process
p247
I214
tp248
a(Vhydrolase activity, acting on carbon-nitrogen (but not peptide) bonds
p249
I212
tp250
a(Vtranslation factor activity, nucleic acid binding
p251
I199
tp252
a(Vvacuolar transport
p253
I198
tp254
a(Vperoxisome
p255
I198
tp256
a(Vprotein binding, bridging
p257
I186
tp258
a(Vsmall conjugating protein binding
p259
I178
tp260
a(Vunfolded protein binding
p261
I159
tp262
a(Vribosome
p263
I153
tp264
a(Vlipid particle
p265
I148
tp266
a(Vprotein transporter activity
p267
I145
tp268
a(Vtranslation
p269
I129
tp270
a(Vtransferase activity, transferring alkyl or aryl (other than methyl) groups
p271
I117
tp272
a(Vribosome biogenesis
p273
I116
tp274
a(Vnuclear chromosome
p275
I116
tp276
a(Vintracellular
p277
I87
tp278
a(Vpigmentation
p279
I86
tp280
a(Vthylakoid
p281
I74
tp282
a(VrRNA binding
p283
I71
tp284
a(Vtransposition
p285
I29
tp286
a(Vnitrogen cycle metabolic process
p287
I27
tp288
a(Vphotosynthesis
p289
I25
tp290
a(Vcell
p291
I10
tp292
a(VRNA modification guide activity
p293
I3
tp294
aa(lp295
(g3
L6372L
tp296
a(g5
L4365L
tp297
a(g7
L2787L
tp298
a(g9
L21685L
tp299
a(g11
L26888L
tp300
a(g13
L5491L
tp301
a(g15
L18268L
tp302
a(g17
L5801L
tp303
a(g19
L5613L
tp304
a(g21
L21693L
tp305
a(g23
L21630L
tp306
a(g25
L7192L
tp307
a(g27
L22689L
tp308
a(g29
L5168L
tp309
a(g31
L7190L
tp310
a(g33
L1781L
tp311
a(g35
L13924L
tp312
a(g37
L4599L
tp313
a(g39
L13633L
tp314
a(g41
L5326L
tp315
a(g43
L12968L
tp316
a(g45
L4995L
tp317
a(g47
L20507L
tp318
a(g49
L4644L
tp319
a(g51
L26682L
tp320
a(g53
L13690L
tp321
a(g55
L4507L
tp322
a(g57
L4422L
tp323
a(g59
L10381L
tp324
a(g61
L4725L
tp325
a(g63
L21086L
tp326
a(g65
L10598L
tp327
a(g67
L28228L
tp328
a(g69
L2790L
tp329
a(g71
L4514L
tp330
a(g73
L31581L
tp331
a(g75
L29927L
tp332
a(g77
L18282L
tp333
a(g79
L7881L
tp334
a(g81
L20503L
tp335
a(g83
L26901L
tp336
a(g85
L28535L
tp337
a(g87
L3827L
tp338
a(g89
L27837L
tp339
a(g91
L10466L
tp340
a(g93
L5165L
tp341
a(g95
L2830L
tp342
a(g97
L6320L
tp343
a(g99
L5663L
tp344
a(g101
L4567L
tp345
a(g103
L4515L
tp346
a(g105
L10229L
tp347
a(g107
L5218L
tp348
a(g109
L6500L
tp349
a(g111
L5791L
tp350
a(g113
L6448L
tp351
a(g115
L4621L
tp352
a(g117
L4556L
tp353
a(g119
L6436L
tp354
a(g121
L5896L
tp355
a(g123
L6494L
tp356
a(g125
L10950L
tp357
a(g127
L10963L
tp358
a(g129
L30984L
tp359
a(g131
L4542L
tp360
a(g133
L4439L
tp361
a(g135
L14001L
tp362
a(g137
L4586L
tp363
a(g139
L594L
tp364
a(g141
L6357L
tp365
a(g143
L4366L
tp366
a(g145
L5302L
tp367
a(g147
L4118L
tp368
a(g149
L5471L
tp369
a(g151
L677L
tp370
a(g153
L759L
tp371
a(g155
L28144L
tp372
a(g157
L4405L
tp373
a(g159
L4684L
tp374
a(g161
L4838L
tp375
a(g163
L13967L
tp376
a(g165
L5112L
tp377
a(g167
L4546L
tp378
a(g169
L10829L
tp379
a(g171
L22810L
tp380
a(g173
L7644L
tp381
a(g175
L5695L
tp382
a(g177
L10870L
tp383
a(g179
L3L
tp384
a(g181
L3404L
tp385
a(g183
L6169L
tp386
a(g185
L10840L
tp387
a(g187
L10905L
tp388
a(g189
L28251L
tp389
a(g191
L3518L
tp390
a(g193
L5582L
tp391
a(g195
L2364L
tp392
a(g197
L14078L
tp393
a(g199
L4408L
tp394
a(g201
L5161L
tp395
a(g203
L6389L
tp396
a(g205
L13274L
tp397
a(g207
L17965L
tp398
a(g209
L4475L
tp399
a(g211
L4538L
tp400
a(g213
L12827L
tp401
a(g215
L13644L
tp402
a(g217
L14427L
tp403
a(g219
L4368L
tp404
a(g221
L5658L
tp405
a(g223
L2991L
tp406
a(g225
L2841L
tp407
a(g227
L4423L
tp408
a(g229
L10929L
tp409
a(g231
L10876L
tp410
a(g233
L2835L
tp411
a(g235
L33137L
tp412
a(g237
L10860L
tp413
a(g239
L20900L
tp414
a(g241
L5712L
tp415
a(g243
L5662L
tp416
a(g245
L5705L
tp417
a(g247
L5114L
tp418
a(g249
L10886L
tp419
a(g251
L6358L
tp420
a(g253
L5682L
tp421
a(g255
L4550L
tp422
a(g257
L14396L
tp423
a(g259
L15840L
tp424
a(g261
L28040L
tp425
a(g263
L4609L
tp426
a(g265
L4583L
tp427
a(g267
L6747L
tp428
a(g269
L5126L
tp429
a(g271
L10848L
tp430
a(g273
L20770L
tp431
a(g275
L201L
tp432
a(g277
L4411L
tp433
a(g279
L21900L
tp434
a(g281
L7683L
tp435
a(g283
L12918L
tp436
a(g285
L15852L
tp437
a(g287
L33512L
tp438
a(g289
L10192L
tp439
a(g291
L4412L
tp440
a(g293
L14288L
tp441
aaI656945
a.