(lp1
(lp2
(Vbiological_process
p3
I51489
tp4
a(Vcellular_component
p5
I18001
tp6
a(Vmolecular_function
p7
I14280
tp8
a(Vorganelle
p9
I5073
tp10
a(Vanatomical structure development
p11
I3586
tp12
a(Vcellular nitrogen compound metabolic process
p13
I3208
tp14
a(Vtransport
p15
I2872
tp16
a(Vsignal transduction
p17
I2492
tp18
a(Vprotein complex
p19
I2389
tp20
a(Vresponse to stress
p21
I2273
tp22
a(Vbiosynthetic process
p23
I2218
tp24
a(Vsmall molecule metabolic process
p25
I2149
tp26
a(Vion binding
p27
I1760
tp28
a(Vcatabolic process
p29
I1680
tp30
a(Vcellular protein modification process
p31
I1390
tp32
a(Vimmune system process
p33
I1334
tp34
a(Vcytosol
p35
I1109
tp36
a(Vcellular component assembly
p37
I971
tp38
a(Vlipid metabolic process
p39
I838
tp40
a(Vcell differentiation
p41
I815
tp42
a(Vnucleolus
p43
I763
tp44
a(Venzyme binding
p45
I725
tp46
a(Vplasma membrane
p47
I686
tp48
a(Vvesicle-mediated transport
p49
I676
tp50
a(Vnucleus
p51
I672
tp52
a(Vembryo development
p53
I656
tp54
a(Vnucleobase-containing compound catabolic process
p55
I643
tp56
a(Vmacromolecular complex assembly
p57
I642
tp58
a(Vcarbohydrate metabolic process
p59
I607
tp60
a(VRNA binding
p61
I593
tp62
a(Vlocomotion
p63
I587
tp64
a(Voxidoreductase activity
p65
I548
tp66
a(VDNA metabolic process
p67
I543
tp68
a(VDNA binding
p69
I539
tp70
a(Vprotein complex assembly
p71
I492
tp72
a(Vchromosome organization
p73
I490
tp74
a(Vprotein maturation
p75
I484
tp76
a(Vanatomical structure formation involved in morphogenesis
p77
I482
tp78
a(Vhomeostatic process
p79
I481
tp80
a(Vgrowth
p81
I480
tp82
a(Vcellular amino acid metabolic process
p83
I460
tp84
a(Vcytoplasm
p85
I448
tp86
a(Vmitochondrion
p87
I427
tp88
a(Vtransmembrane transporter activity
p89
I396
tp90
a(Vcell motility
p91
I369
tp92
a(VGolgi apparatus
p93
I365
tp94
a(Vtransmembrane transport
p95
I355
tp96
a(Vprotein targeting
p97
I352
tp98
a(Vcytoskeleton organization
p99
I341
tp100
a(Vcytoskeletal protein binding
p101
I335
tp102
a(Vkinase activity
p103
I330
tp104
a(Vcytoplasmic membrane-bounded vesicle
p105
I330
tp106
a(Vcell death
p107
I327
tp108
a(Vstructural molecule activity
p109
I323
tp110
a(Vnucleoplasm
p111
I318
tp112
a(Vpeptidase activity
p113
I318
tp114
a(Vsignal transducer activity
p115
I293
tp116
a(Vgeneration of precursor metabolites and energy
p117
I285
tp118
a(Vendoplasmic reticulum
p119
I275
tp120
a(Vlipid binding
p121
I273
tp122
a(Venzyme regulator activity
p123
I263
tp124
a(Vneurological system process
p125
I262
tp126
a(Vcytoskeleton
p127
I254
tp128
a(Vsymbiosis, encompassing mutualism through parasitism
p129
I247
tp130
a(VATPase activity
p131
I242
tp132
a(Vtranscription factor binding
p133
I234
tp134
a(Vcell proliferation
p135
I233
tp136
a(Vmembrane organization
p137
I232
tp138
a(Vsulfur compound metabolic process
p139
I224
tp140
a(Vligase activity
p141
I223
tp142
a(VmRNA processing
p143
I221
tp144
a(Vendosome
p145
I221
tp146
a(Vmicrotubule organizing center
p147
I218
tp148
a(Vcell-cell signaling
p149
I214
tp150
a(Vprotein binding transcription factor activity
p151
I214
tp152
a(Vnucleic acid binding transcription factor activity
p153
I207
tp154
a(Vextracellular region
p155
I206
tp156
a(Vreproduction
p157
I202
tp158
a(Vplastid
p159
I197
tp160
a(Vcofactor metabolic process
p161
I193
tp162
a(Vcell morphogenesis
p163
I183
tp164
a(Vvacuole
p165
I182
tp166
a(Vprotein folding
p167
I181
tp168
a(Vstructural constituent of ribosome
p169
I180
tp170
a(Vcell adhesion
p171
I164
tp172
a(Vextracellular space
p173
I148
tp174
a(Vtransferase activity, transferring acyl groups
p175
I138
tp176
a(Vcell wall
p177
I136
tp178
a(Vexternal encapsulating structure
p179
I136
tp180
a(Vribonucleoprotein complex assembly
p181
I134
tp182
a(Vnucleocytoplasmic transport
p183
I133
tp184
a(Vcell cycle
p185
I127
tp186
a(Vlyase activity
p187
I121
tp188
a(Vextracellular matrix organization
p189
I119
tp190
a(VGTPase activity
p191
I118
tp192
a(Vmitochondrion organization
p193
I109
tp194
a(Vphosphatase activity
p195
I108
tp196
a(Visomerase activity
p197
I102
tp198
a(VmRNA binding
p199
I100
tp200
a(Vcilium
p201
I99
tp202
a(Vtranslation factor activity, nucleic acid binding
p203
I94
tp204
a(Vmethyltransferase activity
p205
I90
tp206
a(Vcell division
p207
I89
tp208
a(Vaging
p209
I89
tp210
a(Vsecondary metabolic process
p211
I89
tp212
a(Vlysosome
p213
I88
tp214
a(Vchromosome
p215
I86
tp216
a(Vtransferase activity, transferring glycosyl groups
p217
I78
tp218
a(Vdevelopmental maturation
p219
I78
tp220
a(Vcell wall organization or biogenesis
p221
I77
tp222
a(Vunfolded protein binding
p223
I75
tp224
a(Vhelicase activity
p225
I75
tp226
a(Vnuclease activity
p227
I73
tp228
a(Vcytoskeleton-dependent intracellular transport
p229
I72
tp230
a(Vcirculatory system process
p231
I72
tp232
a(Vmitosis
p233
I71
tp234
a(Vvacuolar transport
p235
I68
tp236
a(Vcell junction organization
p237
I67
tp238
a(VtRNA metabolic process
p239
I63
tp240
a(Vribosome
p241
I61
tp242
a(Vnuclear envelope
p243
I59
tp244
a(Vperoxisome
p245
I56
tp246
a(Vhistone binding
p247
I55
tp248
a(Vnucleotidyltransferase activity
p249
I55
tp250
a(Vtranslation
p251
I54
tp252
a(Vribosome biogenesis
p253
I53
tp254
a(Vlipid particle
p255
I51
tp256
a(Vhydrolase activity, acting on glycosyl bonds
p257
I50
tp258
a(Vchromosome segregation
p259
I49
tp260
a(Vtransferase activity, transferring alkyl or aryl (other than methyl) groups
p261
I49
tp262
a(Vprotein binding, bridging
p263
I45
tp264
a(Vhydrolase activity, acting on carbon-nitrogen (but not peptide) bonds
p265
I43
tp266
a(Vprotein transporter activity
p267
I40
tp268
a(Vsmall conjugating protein binding
p269
I39
tp270
a(Vplasma membrane organization
p271
I37
tp272
a(Vproteinaceous extracellular matrix
p273
I34
tp274
a(Vnuclear chromosome
p275
I33
tp276
a(VrRNA binding
p277
I31
tp278
a(Vpigmentation
p279
I25
tp280
a(Vintracellular
p281
I15
tp282
a(Vnitrogen cycle metabolic process
p283
I11
tp284
a(Vthylakoid
p285
I10
tp286
a(Vphotosynthesis
p287
I8
tp288
a(VRNA modification guide activity
p289
I1
tp290
a(Vcytoplasmic chromosome
p291
I1
tp292
aa(lp293
(g3
L6372L
tp294
a(g5
L4365L
tp295
a(g7
L2787L
tp296
a(g9
L21685L
tp297
a(g11
L26888L
tp298
a(g13
L18268L
tp299
a(g15
L5491L
tp300
a(g17
L5801L
tp301
a(g19
L21693L
tp302
a(g21
L5613L
tp303
a(g23
L7192L
tp304
a(g25
L22689L
tp305
a(g27
L21630L
tp306
a(g29
L7190L
tp307
a(g31
L5168L
tp308
a(g33
L1781L
tp309
a(g35
L4599L
tp310
a(g37
L13633L
tp311
a(g39
L5326L
tp312
a(g41
L13924L
tp313
a(g43
L4507L
tp314
a(g45
L12968L
tp315
a(g47
L4644L
tp316
a(g49
L10381L
tp317
a(g51
L4422L
tp318
a(g53
L7881L
tp319
a(g55
L18282L
tp320
a(g57
L31581L
tp321
a(g59
L4725L
tp322
a(g61
L2830L
tp323
a(g63
L20507L
tp324
a(g65
L10598L
tp325
a(g67
L4995L
tp326
a(g69
L2790L
tp327
a(g71
L5165L
tp328
a(g73
L28228L
tp329
a(g75
L28535L
tp330
a(g77
L26682L
tp331
a(g79
L21086L
tp332
a(g81
L20503L
tp333
a(g83
L5218L
tp334
a(g85
L4514L
tp335
a(g87
L4515L
tp336
a(g89
L13690L
tp337
a(g91
L26901L
tp338
a(g93
L4567L
tp339
a(g95
L29927L
tp340
a(g97
L5302L
tp341
a(g99
L5663L
tp342
a(g101
L6320L
tp343
a(g103
L10466L
tp344
a(g105
L10229L
tp345
a(g107
L6436L
tp346
a(g109
L4118L
tp347
a(g111
L4439L
tp348
a(g113
L6448L
tp349
a(g115
L3827L
tp350
a(g117
L4838L
tp351
a(g119
L4556L
tp352
a(g121
L6500L
tp353
a(g123
L14001L
tp354
a(g125
L27837L
tp355
a(g127
L4621L
tp356
a(g129
L22810L
tp357
a(g131
L10963L
tp358
a(g133
L6357L
tp359
a(g135
L6494L
tp360
a(g137
L30984L
tp361
a(g139
L5471L
tp362
a(g141
L10950L
tp363
a(g143
L5112L
tp364
a(g145
L4542L
tp365
a(g147
L4586L
tp366
a(g149
L5896L
tp367
a(g151
L677L
tp368
a(g153
L759L
tp369
a(g155
L4366L
tp370
a(g157
L3L
tp371
a(g159
L7644L
tp372
a(g161
L28144L
tp373
a(g163
L594L
tp374
a(g165
L4546L
tp375
a(g167
L5161L
tp376
a(g169
L2841L
tp377
a(g171
L5791L
tp378
a(g173
L4405L
tp379
a(g175
L10829L
tp380
a(g177
L4408L
tp381
a(g179
L14078L
tp382
a(g181
L13644L
tp383
a(g183
L5582L
tp384
a(g185
L5695L
tp385
a(g187
L10905L
tp386
a(g189
L13967L
tp387
a(g191
L2991L
tp388
a(g193
L5658L
tp389
a(g195
L10870L
tp390
a(g197
L10929L
tp391
a(g199
L2835L
tp392
a(g201
L4684L
tp393
a(g203
L6358L
tp394
a(g205
L6389L
tp395
a(g207
L28251L
tp396
a(g209
L6169L
tp397
a(g211
L12827L
tp398
a(g213
L4538L
tp399
a(g215
L4475L
tp400
a(g217
L10840L
tp401
a(g219
L13274L
tp402
a(g221
L33137L
tp403
a(g223
L28040L
tp404
a(g225
L3404L
tp405
a(g227
L3518L
tp406
a(g229
L14427L
tp407
a(g231
L2364L
tp408
a(g233
L5712L
tp409
a(g235
L5682L
tp410
a(g237
L17965L
tp411
a(g239
L5114L
tp412
a(g241
L4609L
tp413
a(g243
L4423L
tp414
a(g245
L4550L
tp415
a(g247
L20900L
tp416
a(g249
L10860L
tp417
a(g251
L5126L
tp418
a(g253
L20770L
tp419
a(g255
L4583L
tp420
a(g257
L10876L
tp421
a(g259
L5705L
tp422
a(g261
L10848L
tp423
a(g263
L14396L
tp424
a(g265
L10886L
tp425
a(g267
L6747L
tp426
a(g269
L15840L
tp427
a(g271
L5662L
tp428
a(g273
L4368L
tp429
a(g275
L201L
tp430
a(g277
L12918L
tp431
a(g279
L21900L
tp432
a(g281
L4411L
tp433
a(g283
L33512L
tp434
a(g285
L7683L
tp435
a(g287
L10192L
tp436
a(g289
L14288L
tp437
a(g291
L202L
tp438
aaI148320
a.