(lp1
(lp2
(Vbiological_process
p3
I174209
tp4
a(Vcellular_component
p5
I59869
tp6
a(Vmolecular_function
p7
I49025
tp8
a(Vorganelle
p9
I16231
tp10
a(Vanatomical structure development
p11
I12720
tp12
a(Vtransport
p13
I9654
tp14
a(Vcellular nitrogen compound metabolic process
p15
I8551
tp16
a(Vsignal transduction
p17
I8136
tp18
a(Vprotein complex
p19
I7118
tp20
a(Vresponse to stress
p21
I6679
tp22
a(Vion binding
p23
I6239
tp24
a(Vsmall molecule metabolic process
p25
I5929
tp26
a(Vbiosynthetic process
p27
I5570
tp28
a(Vcellular protein modification process
p29
I4594
tp30
a(Vcatabolic process
p31
I4302
tp32
a(Vimmune system process
p33
I3618
tp34
a(Vcellular component assembly
p35
I3081
tp36
a(Vcytosol
p37
I3068
tp38
a(Vcell differentiation
p39
I3050
tp40
a(Vlipid metabolic process
p41
I2713
tp42
a(Venzyme binding
p43
I2645
tp44
a(Vnucleolus
p45
I2299
tp46
a(Vlocomotion
p47
I2249
tp48
a(Vvesicle-mediated transport
p49
I2162
tp50
a(Vplasma membrane
p51
I2150
tp52
a(Vnucleus
p53
I2009
tp54
a(Vanatomical structure formation involved in morphogenesis
p55
I1983
tp56
a(VDNA metabolic process
p57
I1941
tp58
a(Vchromosome organization
p59
I1807
tp60
a(Vhomeostatic process
p61
I1771
tp62
a(Vtransmembrane transporter activity
p63
I1762
tp64
a(VDNA binding
p65
I1747
tp66
a(Vmacromolecular complex assembly
p67
I1710
tp68
a(Voxidoreductase activity
p69
I1648
tp70
a(Vcytoplasm
p71
I1602
tp72
a(Vcell motility
p73
I1599
tp74
a(Vcarbohydrate metabolic process
p75
I1560
tp76
a(Vnucleobase-containing compound catabolic process
p77
I1556
tp78
a(Vembryo development
p79
I1530
tp80
a(Vneurological system process
p81
I1527
tp82
a(Vcytoskeletal protein binding
p83
I1509
tp84
a(Vprotein maturation
p85
I1406
tp86
a(Vcytoskeleton organization
p87
I1401
tp88
a(Vgrowth
p89
I1385
tp90
a(Vtransmembrane transport
p91
I1376
tp92
a(Vprotein complex assembly
p93
I1352
tp94
a(Vsignal transducer activity
p95
I1329
tp96
a(Vkinase activity
p97
I1314
tp98
a(VRNA binding
p99
I1308
tp100
a(Vlipid binding
p101
I1179
tp102
a(VGolgi apparatus
p103
I1167
tp104
a(Vmitochondrion
p105
I1144
tp106
a(Vcytoplasmic membrane-bounded vesicle
p107
I1140
tp108
a(Vcellular amino acid metabolic process
p109
I1120
tp110
a(Vcytoskeleton
p111
I1029
tp112
a(Vendoplasmic reticulum
p113
I944
tp114
a(Vmembrane organization
p115
I905
tp116
a(Vcell adhesion
p117
I900
tp118
a(Vcell death
p119
I899
tp120
a(Venzyme regulator activity
p121
I898
tp122
a(Vpeptidase activity
p123
I897
tp124
a(Vendosome
p125
I893
tp126
a(Vcell-cell signaling
p127
I864
tp128
a(Vnucleoplasm
p129
I845
tp130
a(VATPase activity
p131
I822
tp132
a(Vmicrotubule organizing center
p133
I817
tp134
a(Vcell proliferation
p135
I799
tp136
a(Vligase activity
p137
I792
tp138
a(Vstructural molecule activity
p139
I766
tp140
a(Vtranscription factor binding
p141
I763
tp142
a(Vprotein binding transcription factor activity
p143
I739
tp144
a(Vprotein targeting
p145
I711
tp146
a(Vnucleic acid binding transcription factor activity
p147
I681
tp148
a(Vcell morphogenesis
p149
I662
tp150
a(Vsulfur compound metabolic process
p151
I643
tp152
a(Vextracellular region
p153
I564
tp154
a(VmRNA processing
p155
I558
tp156
a(Vgeneration of precursor metabolites and energy
p157
I537
tp158
a(Vcofactor metabolic process
p159
I533
tp160
a(Vsymbiosis, encompassing mutualism through parasitism
p161
I515
tp162
a(Vextracellular space
p163
I512
tp164
a(Vtransferase activity, transferring acyl groups
p165
I500
tp166
a(Vextracellular matrix organization
p167
I497
tp168
a(Vvacuole
p169
I481
tp170
a(Vcilium
p171
I460
tp172
a(Vphosphatase activity
p173
I414
tp174
a(Vreproduction
p175
I394
tp176
a(Vcell cycle
p177
I389
tp178
a(Vaging
p179
I381
tp180
a(Vnucleocytoplasmic transport
p181
I376
tp182
a(Vplastid
p183
I370
tp184
a(Vcell junction organization
p185
I342
tp186
a(Vtransferase activity, transferring glycosyl groups
p187
I339
tp188
a(Vcirculatory system process
p189
I332
tp190
a(Vcell division
p191
I322
tp192
a(Vhelicase activity
p193
I300
tp194
a(Vlyase activity
p195
I298
tp196
a(Vmethyltransferase activity
p197
I293
tp198
a(Vprotein folding
p199
I291
tp200
a(Vmitochondrion organization
p201
I287
tp202
a(Vnuclease activity
p203
I287
tp204
a(Vribonucleoprotein complex assembly
p205
I286
tp206
a(Vdevelopmental maturation
p207
I281
tp208
a(Vcytoskeleton-dependent intracellular transport
p209
I280
tp210
a(Vlysosome
p211
I275
tp212
a(Vexternal encapsulating structure
p213
I252
tp214
a(Vchromosome
p215
I251
tp216
a(Vcell wall
p217
I248
tp218
a(Vstructural constituent of ribosome
p219
I244
tp220
a(VGTPase activity
p221
I238
tp222
a(Vhistone binding
p223
I233
tp224
a(Vnuclear envelope
p225
I226
tp226
a(Vsecondary metabolic process
p227
I220
tp228
a(VmRNA binding
p229
I219
tp230
a(Visomerase activity
p231
I215
tp232
a(Vproteinaceous extracellular matrix
p233
I196
tp234
a(Vmitosis
p235
I191
tp236
a(Vvacuolar transport
p237
I188
tp238
a(Vcell wall organization or biogenesis
p239
I175
tp240
a(VtRNA metabolic process
p241
I171
tp242
a(Vplasma membrane organization
p243
I170
tp244
a(Vhydrolase activity, acting on carbon-nitrogen (but not peptide) bonds
p245
I167
tp246
a(Vtranslation factor activity, nucleic acid binding
p247
I163
tp248
a(Vnucleotidyltransferase activity
p249
I162
tp250
a(Vchromosome segregation
p251
I160
tp252
a(Vperoxisome
p253
I152
tp254
a(Vprotein binding, bridging
p255
I151
tp256
a(Vhydrolase activity, acting on glycosyl bonds
p257
I148
tp258
a(Vsmall conjugating protein binding
p259
I131
tp260
a(Vunfolded protein binding
p261
I126
tp262
a(Vprotein transporter activity
p263
I117
tp264
a(Vlipid particle
p265
I112
tp266
a(Vribosome
p267
I108
tp268
a(Vtranslation
p269
I107
tp270
a(Vribosome biogenesis
p271
I92
tp272
a(Vtransferase activity, transferring alkyl or aryl (other than methyl) groups
p273
I91
tp274
a(Vnuclear chromosome
p275
I83
tp276
a(Vpigmentation
p277
I60
tp278
a(VrRNA binding
p279
I59
tp280
a(Vintracellular
p281
I57
tp282
a(Vthylakoid
p283
I25
tp284
a(Vnitrogen cycle metabolic process
p285
I19
tp286
a(Vtransposition
p287
I8
tp288
a(Vphotosynthesis
p289
I6
tp290
a(Vcell
p291
I5
tp292
a(VRNA modification guide activity
p293
I1
tp294
aa(lp295
(g3
L6372L
tp296
a(g5
L4365L
tp297
a(g7
L2787L
tp298
a(g9
L21685L
tp299
a(g11
L26888L
tp300
a(g13
L5491L
tp301
a(g15
L18268L
tp302
a(g17
L5801L
tp303
a(g19
L21693L
tp304
a(g21
L5613L
tp305
a(g23
L21630L
tp306
a(g25
L22689L
tp307
a(g27
L7192L
tp308
a(g29
L5168L
tp309
a(g31
L7190L
tp310
a(g33
L1781L
tp311
a(g35
L13633L
tp312
a(g37
L4599L
tp313
a(g39
L13924L
tp314
a(g41
L5326L
tp315
a(g43
L12968L
tp316
a(g45
L4507L
tp317
a(g47
L20507L
tp318
a(g49
L10381L
tp319
a(g51
L4644L
tp320
a(g53
L4422L
tp321
a(g55
L26682L
tp322
a(g57
L4995L
tp323
a(g59
L28228L
tp324
a(g61
L21086L
tp325
a(g63
L13690L
tp326
a(g65
L2790L
tp327
a(g67
L31581L
tp328
a(g69
L10598L
tp329
a(g71
L4514L
tp330
a(g73
L26901L
tp331
a(g75
L4725L
tp332
a(g77
L18282L
tp333
a(g79
L7881L
tp334
a(g81
L27837L
tp335
a(g83
L6320L
tp336
a(g85
L28535L
tp337
a(g87
L5663L
tp338
a(g89
L20503L
tp339
a(g91
L29927L
tp340
a(g93
L5165L
tp341
a(g95
L3827L
tp342
a(g97
L10466L
tp343
a(g99
L2830L
tp344
a(g101
L6500L
tp345
a(g103
L4567L
tp346
a(g105
L4515L
tp347
a(g107
L10229L
tp348
a(g109
L5218L
tp349
a(g111
L4621L
tp350
a(g113
L4556L
tp351
a(g115
L30984L
tp352
a(g117
L5791L
tp353
a(g119
L6436L
tp354
a(g121
L14001L
tp355
a(g123
L6448L
tp356
a(g125
L4542L
tp357
a(g127
L5896L
tp358
a(g129
L4439L
tp359
a(g131
L10963L
tp360
a(g133
L4586L
tp361
a(g135
L6494L
tp362
a(g137
L10950L
tp363
a(g139
L4118L
tp364
a(g141
L6357L
tp365
a(g143
L677L
tp366
a(g145
L5302L
tp367
a(g147
L759L
tp368
a(g149
L594L
tp369
a(g151
L5471L
tp370
a(g153
L4366L
tp371
a(g155
L5112L
tp372
a(g157
L4838L
tp373
a(g159
L28144L
tp374
a(g161
L22810L
tp375
a(g163
L4405L
tp376
a(g165
L10829L
tp377
a(g167
L13967L
tp378
a(g169
L4546L
tp379
a(g171
L4684L
tp380
a(g173
L10870L
tp381
a(g175
L3L
tp382
a(g177
L5695L
tp383
a(g179
L6169L
tp384
a(g181
L5582L
tp385
a(g183
L7644L
tp386
a(g185
L17965L
tp387
a(g187
L10840L
tp388
a(g189
L2364L
tp389
a(g191
L28251L
tp390
a(g193
L3404L
tp391
a(g195
L10905L
tp392
a(g197
L6389L
tp393
a(g199
L5161L
tp394
a(g201
L5658L
tp395
a(g203
L3518L
tp396
a(g205
L13644L
tp397
a(g207
L13274L
tp398
a(g209
L14427L
tp399
a(g211
L4538L
tp400
a(g213
L14078L
tp401
a(g215
L4475L
tp402
a(g217
L4408L
tp403
a(g219
L2841L
tp404
a(g221
L2991L
tp405
a(g223
L20900L
tp406
a(g225
L4423L
tp407
a(g227
L12827L
tp408
a(g229
L2835L
tp409
a(g231
L10929L
tp410
a(g233
L4368L
tp411
a(g235
L5712L
tp412
a(g237
L5682L
tp413
a(g239
L33137L
tp414
a(g241
L5114L
tp415
a(g243
L5662L
tp416
a(g245
L10886L
tp417
a(g247
L6358L
tp418
a(g249
L10860L
tp419
a(g251
L5705L
tp420
a(g253
L4550L
tp421
a(g255
L14396L
tp422
a(g257
L10876L
tp423
a(g259
L15840L
tp424
a(g261
L28040L
tp425
a(g263
L6747L
tp426
a(g265
L4583L
tp427
a(g267
L4609L
tp428
a(g269
L5126L
tp429
a(g271
L20770L
tp430
a(g273
L10848L
tp431
a(g275
L201L
tp432
a(g277
L21900L
tp433
a(g279
L12918L
tp434
a(g281
L4411L
tp435
a(g283
L7683L
tp436
a(g285
L33512L
tp437
a(g287
L15852L
tp438
a(g289
L10192L
tp439
a(g291
L4412L
tp440
a(g293
L14288L
tp441
aaI484453
a.