(lp1
(lp2
(Vbiological_process
p3
I83353
tp4
a(Vcellular_component
p5
I26692
tp6
a(Vmolecular_function
p7
I22695
tp8
a(Vorganelle
p9
I6946
tp10
a(Vanatomical structure development
p11
I6530
tp12
a(Vcellular nitrogen compound metabolic process
p13
I4362
tp14
a(Vtransport
p15
I4222
tp16
a(Vsignal transduction
p17
I4037
tp18
a(Vsmall molecule metabolic process
p19
I3269
tp20
a(Vbiosynthetic process
p21
I3253
tp22
a(Vresponse to stress
p23
I3127
tp24
a(Vprotein complex
p25
I3107
tp26
a(Vion binding
p27
I2761
tp28
a(Vcellular protein modification process
p29
I2099
tp30
a(Vcatabolic process
p31
I2087
tp32
a(Vimmune system process
p33
I2038
tp34
a(Vcell differentiation
p35
I1668
tp36
a(Vcellular component assembly
p37
I1333
tp38
a(Vcytosol
p39
I1272
tp40
a(Vlipid metabolic process
p41
I1202
tp42
a(Vlocomotion
p43
I1118
tp44
a(Venzyme binding
p45
I1095
tp46
a(Vanatomical structure formation involved in morphogenesis
p47
I1032
tp48
a(VDNA metabolic process
p49
I980
tp50
a(Vplasma membrane
p51
I964
tp52
a(Vnucleus
p53
I938
tp54
a(Vvesicle-mediated transport
p55
I899
tp56
a(Vcarbohydrate metabolic process
p57
I877
tp58
a(Voxidoreductase activity
p59
I876
tp60
a(Vkinase activity
p61
I839
tp62
a(Vcytoplasm
p63
I838
tp64
a(Vcell motility
p65
I831
tp66
a(Vnucleolus
p67
I816
tp68
a(Vnucleobase-containing compound catabolic process
p69
I807
tp70
a(Vmacromolecular complex assembly
p71
I746
tp72
a(Vembryo development
p73
I730
tp74
a(Vgrowth
p75
I727
tp76
a(Vtransmembrane transporter activity
p77
I726
tp78
a(Vcellular amino acid metabolic process
p79
I719
tp80
a(VDNA binding
p81
I708
tp82
a(Vhomeostatic process
p83
I697
tp84
a(Vchromosome organization
p85
I650
tp86
a(Vneurological system process
p87
I629
tp88
a(Vprotein maturation
p89
I612
tp90
a(Vcytoskeletal protein binding
p91
I608
tp92
a(Vprotein complex assembly
p93
I595
tp94
a(VATPase activity
p95
I580
tp96
a(Vcytoskeleton organization
p97
I574
tp98
a(Vtransmembrane transport
p99
I572
tp100
a(VRNA binding
p101
I558
tp102
a(Vsignal transducer activity
p103
I553
tp104
a(Vmitochondrion
p105
I517
tp106
a(Vcell adhesion
p107
I517
tp108
a(Vcytoskeleton
p109
I464
tp110
a(Vcell death
p111
I438
tp112
a(VGolgi apparatus
p113
I432
tp114
a(Vligase activity
p115
I416
tp116
a(Vcytoplasmic membrane-bounded vesicle
p117
I402
tp118
a(Vpeptidase activity
p119
I379
tp120
a(Vsulfur compound metabolic process
p121
I379
tp122
a(Vendoplasmic reticulum
p123
I376
tp124
a(Vcell proliferation
p125
I376
tp126
a(Vmembrane organization
p127
I373
tp128
a(Vnucleoplasm
p129
I361
tp130
a(Vendosome
p131
I356
tp132
a(Vlipid binding
p133
I352
tp134
a(Vcell morphogenesis
p135
I352
tp136
a(Vstructural molecule activity
p137
I325
tp138
a(Vprotein binding transcription factor activity
p139
I320
tp140
a(Vtranscription factor binding
p141
I310
tp142
a(Vcofactor metabolic process
p143
I299
tp144
a(Vprotein targeting
p145
I296
tp146
a(Venzyme regulator activity
p147
I296
tp148
a(Vcell-cell signaling
p149
I294
tp150
a(Vmicrotubule organizing center
p151
I287
tp152
a(Vextracellular region
p153
I281
tp154
a(Vgeneration of precursor metabolites and energy
p155
I251
tp156
a(Vcilium
p157
I235
tp158
a(VmRNA processing
p159
I234
tp160
a(Vsymbiosis, encompassing mutualism through parasitism
p161
I224
tp162
a(Vtransferase activity, transferring glycosyl groups
p163
I222
tp164
a(Vnucleic acid binding transcription factor activity
p165
I219
tp166
a(Vextracellular matrix organization
p167
I206
tp168
a(Vvacuole
p169
I203
tp170
a(Vextracellular space
p171
I199
tp172
a(Vlyase activity
p173
I197
tp174
a(Vhelicase activity
p175
I191
tp176
a(Vtransferase activity, transferring acyl groups
p177
I187
tp178
a(Vcell cycle
p179
I184
tp180
a(Vplastid
p181
I180
tp182
a(Vphosphatase activity
p183
I177
tp184
a(Vcell junction organization
p185
I162
tp186
a(Vreproduction
p187
I161
tp188
a(Vnuclease activity
p189
I149
tp190
a(Vaging
p191
I148
tp192
a(Vexternal encapsulating structure
p193
I142
tp194
a(Vprotein folding
p195
I141
tp196
a(Vcell wall
p197
I140
tp198
a(Vcell division
p199
I138
tp200
a(Vnucleocytoplasmic transport
p201
I134
tp202
a(Vmitochondrion organization
p203
I133
tp204
a(Vmethyltransferase activity
p205
I132
tp206
a(Vribonucleoprotein complex assembly
p207
I127
tp208
a(Vchromosome
p209
I123
tp210
a(Visomerase activity
p211
I116
tp212
a(Vnucleotidyltransferase activity
p213
I115
tp214
a(VGTPase activity
p215
I115
tp216
a(Vlysosome
p217
I110
tp218
a(Vstructural constituent of ribosome
p219
I109
tp220
a(VtRNA metabolic process
p221
I109
tp222
a(Vproteinaceous extracellular matrix
p223
I104
tp224
a(Vdevelopmental maturation
p225
I101
tp226
a(Vhydrolase activity, acting on carbon-nitrogen (but not peptide) bonds
p227
I95
tp228
a(Vcell wall organization or biogenesis
p229
I92
tp230
a(Vhydrolase activity, acting on glycosyl bonds
p231
I91
tp232
a(VmRNA binding
p233
I88
tp234
a(Vsecondary metabolic process
p235
I87
tp236
a(Vnuclear envelope
p237
I83
tp238
a(Vcytoskeleton-dependent intracellular transport
p239
I81
tp240
a(Vhistone binding
p241
I79
tp242
a(Vtranslation factor activity, nucleic acid binding
p243
I79
tp244
a(Vcirculatory system process
p245
I77
tp246
a(Vtranslation
p247
I76
tp248
a(Vchromosome segregation
p249
I70
tp250
a(Vunfolded protein binding
p251
I68
tp252
a(Vmitosis
p253
I68
tp254
a(Vplasma membrane organization
p255
I68
tp256
a(Vprotein transporter activity
p257
I67
tp258
a(Vprotein binding, bridging
p259
I55
tp260
a(Vvacuolar transport
p261
I53
tp262
a(Vribosome
p263
I53
tp264
a(Vtransferase activity, transferring alkyl or aryl (other than methyl) groups
p265
I53
tp266
a(Vlipid particle
p267
I52
tp268
a(Vperoxisome
p269
I52
tp270
a(Vintracellular
p271
I46
tp272
a(Vsmall conjugating protein binding
p273
I41
tp274
a(Vpigmentation
p275
I41
tp276
a(Vnuclear chromosome
p277
I34
tp278
a(VrRNA binding
p279
I31
tp280
a(Vribosome biogenesis
p281
I31
tp282
a(Vthylakoid
p283
I8
tp284
a(Vnitrogen cycle metabolic process
p285
I7
tp286
a(Vphotosynthesis
p287
I2
tp288
a(VRNA modification guide activity
p289
I2
tp290
a(Vtransposition
p291
I2
tp292
a(Vcell
p293
I1
tp294
aa(lp295
(g3
L6372L
tp296
a(g5
L4365L
tp297
a(g7
L2787L
tp298
a(g9
L21685L
tp299
a(g11
L26888L
tp300
a(g13
L18268L
tp301
a(g15
L5491L
tp302
a(g17
L5801L
tp303
a(g19
L22689L
tp304
a(g21
L7192L
tp305
a(g23
L5613L
tp306
a(g25
L21693L
tp307
a(g27
L21630L
tp308
a(g29
L5168L
tp309
a(g31
L7190L
tp310
a(g33
L1781L
tp311
a(g35
L13924L
tp312
a(g37
L13633L
tp313
a(g39
L4599L
tp314
a(g41
L5326L
tp315
a(g43
L20507L
tp316
a(g45
L12968L
tp317
a(g47
L26682L
tp318
a(g49
L4995L
tp319
a(g51
L4644L
tp320
a(g53
L4422L
tp321
a(g55
L10381L
tp322
a(g57
L4725L
tp323
a(g59
L10598L
tp324
a(g61
L10466L
tp325
a(g63
L4514L
tp326
a(g65
L26901L
tp327
a(g67
L4507L
tp328
a(g69
L18282L
tp329
a(g71
L31581L
tp330
a(g73
L7881L
tp331
a(g75
L20503L
tp332
a(g77
L13690L
tp333
a(g79
L5218L
tp334
a(g81
L2790L
tp335
a(g83
L21086L
tp336
a(g85
L28228L
tp337
a(g87
L27837L
tp338
a(g89
L28535L
tp339
a(g91
L6320L
tp340
a(g93
L5165L
tp341
a(g95
L10963L
tp342
a(g97
L5663L
tp343
a(g99
L29927L
tp344
a(g101
L2830L
tp345
a(g103
L3827L
tp346
a(g105
L4515L
tp347
a(g107
L5791L
tp348
a(g109
L4621L
tp349
a(g111
L6436L
tp350
a(g113
L4567L
tp351
a(g115
L10950L
tp352
a(g117
L10229L
tp353
a(g119
L6448L
tp354
a(g121
L5471L
tp355
a(g123
L4556L
tp356
a(g125
L6494L
tp357
a(g127
L30984L
tp358
a(g129
L4439L
tp359
a(g131
L4542L
tp360
a(g133
L6500L
tp361
a(g135
L594L
tp362
a(g137
L4118L
tp363
a(g139
L677L
tp364
a(g141
L6357L
tp365
a(g143
L28144L
tp366
a(g145
L5302L
tp367
a(g147
L14001L
tp368
a(g149
L5896L
tp369
a(g151
L4586L
tp370
a(g153
L4366L
tp371
a(g155
L4838L
tp372
a(g157
L4684L
tp373
a(g159
L5112L
tp374
a(g161
L22810L
tp375
a(g163
L10840L
tp376
a(g165
L759L
tp377
a(g167
L13967L
tp378
a(g169
L4546L
tp379
a(g171
L4405L
tp380
a(g173
L10905L
tp381
a(g175
L3404L
tp382
a(g177
L10829L
tp383
a(g179
L5695L
tp384
a(g181
L7644L
tp385
a(g183
L10870L
tp386
a(g185
L17965L
tp387
a(g187
L3L
tp388
a(g189
L3518L
tp389
a(g191
L6169L
tp390
a(g193
L14078L
tp391
a(g195
L5161L
tp392
a(g197
L4408L
tp393
a(g199
L28251L
tp394
a(g201
L5582L
tp395
a(g203
L5658L
tp396
a(g205
L6389L
tp397
a(g207
L13644L
tp398
a(g209
L4475L
tp399
a(g211
L10929L
tp400
a(g213
L10860L
tp401
a(g215
L2991L
tp402
a(g217
L4538L
tp403
a(g219
L2841L
tp404
a(g221
L5114L
tp405
a(g223
L4368L
tp406
a(g225
L13274L
tp407
a(g227
L10886L
tp408
a(g229
L33137L
tp409
a(g231
L10876L
tp410
a(g233
L2835L
tp411
a(g235
L12827L
tp412
a(g237
L4423L
tp413
a(g239
L14427L
tp414
a(g241
L20900L
tp415
a(g243
L6358L
tp416
a(g245
L2364L
tp417
a(g247
L5126L
tp418
a(g249
L5705L
tp419
a(g251
L28040L
tp420
a(g253
L5712L
tp421
a(g255
L5662L
tp422
a(g257
L6747L
tp423
a(g259
L14396L
tp424
a(g261
L5682L
tp425
a(g263
L4609L
tp426
a(g265
L10848L
tp427
a(g267
L4583L
tp428
a(g269
L4550L
tp429
a(g271
L4411L
tp430
a(g273
L15840L
tp431
a(g275
L21900L
tp432
a(g277
L201L
tp433
a(g279
L12918L
tp434
a(g281
L20770L
tp435
a(g283
L7683L
tp436
a(g285
L33512L
tp437
a(g287
L10192L
tp438
a(g289
L14288L
tp439
a(g291
L15852L
tp440
a(g293
L4412L
tp441
aaI226796
a.