(lp1
(lp2
(Vbiological_process
p3
I192048
tp4
a(Vcellular_component
p5
I63748
tp6
a(Vmolecular_function
p7
I52632
tp8
a(Vorganelle
p9
I17111
tp10
a(Vanatomical structure development
p11
I14551
tp12
a(Vtransport
p13
I10541
tp14
a(Vsignal transduction
p15
I8991
tp16
a(Vcellular nitrogen compound metabolic process
p17
I8649
tp18
a(Vprotein complex
p19
I7427
tp20
a(Vresponse to stress
p21
I7120
tp22
a(Vion binding
p23
I6457
tp24
a(Vsmall molecule metabolic process
p25
I5858
tp26
a(Vbiosynthetic process
p27
I5294
tp28
a(Vcellular protein modification process
p29
I5046
tp30
a(Vcatabolic process
p31
I4303
tp32
a(Vimmune system process
p33
I4123
tp34
a(Vcell differentiation
p35
I3551
tp36
a(Vcellular component assembly
p37
I3215
tp38
a(Vcytosol
p39
I3038
tp40
a(Venzyme binding
p41
I2954
tp42
a(Vlipid metabolic process
p43
I2798
tp44
a(Vlocomotion
p45
I2608
tp46
a(Vanatomical structure formation involved in morphogenesis
p47
I2293
tp48
a(Vnucleolus
p49
I2289
tp50
a(Vvesicle-mediated transport
p51
I2270
tp52
a(Vnucleus
p53
I2210
tp54
a(Vplasma membrane
p55
I2189
tp56
a(Vtransmembrane transporter activity
p57
I2120
tp58
a(VDNA metabolic process
p59
I2112
tp60
a(Vhomeostatic process
p61
I1913
tp62
a(Vchromosome organization
p63
I1888
tp64
a(VDNA binding
p65
I1872
tp66
a(Vcytoplasm
p67
I1860
tp68
a(Vcell motility
p69
I1855
tp70
a(Vmacromolecular complex assembly
p71
I1768
tp72
a(Vneurological system process
p73
I1633
tp74
a(Vtransmembrane transport
p75
I1610
tp76
a(Voxidoreductase activity
p77
I1591
tp78
a(Vnucleobase-containing compound catabolic process
p79
I1576
tp80
a(Vcytoskeletal protein binding
p81
I1543
tp82
a(Vcarbohydrate metabolic process
p83
I1542
tp84
a(Vembryo development
p85
I1536
tp86
a(Vkinase activity
p87
I1518
tp88
a(Vgrowth
p89
I1492
tp90
a(Vprotein maturation
p91
I1486
tp92
a(Vsignal transducer activity
p93
I1449
tp94
a(Vprotein complex assembly
p95
I1441
tp96
a(Vcytoskeleton organization
p97
I1393
tp98
a(VGolgi apparatus
p99
I1234
tp100
a(Vlipid binding
p101
I1204
tp102
a(VRNA binding
p103
I1189
tp104
a(Vcell adhesion
p105
I1189
tp106
a(Vcytoplasmic membrane-bounded vesicle
p107
I1178
tp108
a(Vmitochondrion
p109
I1155
tp110
a(Vcytoskeleton
p111
I1084
tp112
a(Vcellular amino acid metabolic process
p113
I1026
tp114
a(Vendosome
p115
I987
tp116
a(Vcell-cell signaling
p117
I973
tp118
a(Vmembrane organization
p119
I973
tp120
a(Vligase activity
p121
I962
tp122
a(Vendoplasmic reticulum
p123
I958
tp124
a(Vpeptidase activity
p125
I939
tp126
a(VATPase activity
p127
I933
tp128
a(Vcell proliferation
p129
I919
tp130
a(Vcell death
p131
I918
tp132
a(Venzyme regulator activity
p133
I912
tp134
a(Vnucleoplasm
p135
I855
tp136
a(Vcell morphogenesis
p137
I838
tp138
a(Vmicrotubule organizing center
p139
I824
tp140
a(Vtranscription factor binding
p141
I818
tp142
a(Vprotein binding transcription factor activity
p143
I786
tp144
a(Vnucleic acid binding transcription factor activity
p145
I719
tp146
a(Vstructural molecule activity
p147
I679
tp148
a(Vprotein targeting
p149
I630
tp150
a(Vextracellular region
p151
I610
tp152
a(Vsymbiosis, encompassing mutualism through parasitism
p153
I545
tp154
a(Vsulfur compound metabolic process
p155
I536
tp156
a(Vextracellular space
p157
I529
tp158
a(Vcofactor metabolic process
p159
I528
tp160
a(Vcilium
p161
I526
tp162
a(VmRNA processing
p163
I523
tp164
a(Vextracellular matrix organization
p165
I497
tp166
a(Vgeneration of precursor metabolites and energy
p167
I485
tp168
a(Vvacuole
p169
I480
tp170
a(Vphosphatase activity
p171
I469
tp172
a(Vtransferase activity, transferring acyl groups
p173
I460
tp174
a(Vcell cycle
p175
I432
tp176
a(Vreproduction
p177
I418
tp178
a(Vnucleocytoplasmic transport
p179
I395
tp180
a(Vaging
p181
I394
tp182
a(Vcell junction organization
p183
I392
tp184
a(Vtransferase activity, transferring glycosyl groups
p185
I372
tp186
a(Vhelicase activity
p187
I363
tp188
a(Vcell division
p189
I345
tp190
a(Vnuclease activity
p191
I328
tp192
a(Vcirculatory system process
p193
I322
tp194
a(Vdevelopmental maturation
p195
I317
tp196
a(Vmitochondrion organization
p197
I305
tp198
a(Vcytoskeleton-dependent intracellular transport
p199
I303
tp200
a(Vplastid
p201
I297
tp202
a(Vmethyltransferase activity
p203
I292
tp204
a(Vprotein folding
p205
I285
tp206
a(Vlyase activity
p207
I284
tp208
a(Vlysosome
p209
I280
tp210
a(Vribonucleoprotein complex assembly
p211
I257
tp212
a(Vhistone binding
p213
I249
tp214
a(Vchromosome
p215
I249
tp216
a(Vproteinaceous extracellular matrix
p217
I228
tp218
a(Vnuclear envelope
p219
I225
tp220
a(VGTPase activity
p221
I220
tp222
a(Vsecondary metabolic process
p223
I214
tp224
a(Vplasma membrane organization
p225
I212
tp226
a(Vmitosis
p227
I193
tp228
a(Vexternal encapsulating structure
p229
I191
tp230
a(Visomerase activity
p231
I191
tp232
a(Vvacuolar transport
p233
I187
tp234
a(Vcell wall
p235
I186
tp236
a(VmRNA binding
p237
I185
tp238
a(Vnucleotidyltransferase activity
p239
I175
tp240
a(Vhydrolase activity, acting on carbon-nitrogen (but not peptide) bonds
p241
I168
tp242
a(Vprotein binding, bridging
p243
I164
tp244
a(Vchromosome segregation
p245
I154
tp246
a(Vcell wall organization or biogenesis
p247
I154
tp248
a(Vstructural constituent of ribosome
p249
I151
tp250
a(Vsmall conjugating protein binding
p251
I148
tp252
a(Vprotein transporter activity
p253
I145
tp254
a(Vhydrolase activity, acting on glycosyl bonds
p255
I143
tp256
a(VtRNA metabolic process
p257
I140
tp258
a(Vperoxisome
p259
I132
tp260
a(Vtranslation factor activity, nucleic acid binding
p261
I122
tp262
a(Vunfolded protein binding
p263
I114
tp264
a(Vlipid particle
p265
I107
tp266
a(Vtranslation
p267
I92
tp268
a(Vribosome
p269
I89
tp270
a(Vtransferase activity, transferring alkyl or aryl (other than methyl) groups
p271
I89
tp272
a(Vribosome biogenesis
p273
I79
tp274
a(Vpigmentation
p275
I72
tp276
a(Vnuclear chromosome
p277
I70
tp278
a(Vintracellular
p279
I64
tp280
a(VrRNA binding
p281
I39
tp282
a(Vnitrogen cycle metabolic process
p283
I22
tp284
a(Vthylakoid
p285
I21
tp286
a(Vcell
p287
I12
tp288
a(Vphotosynthesis
p289
I6
tp290
a(Vtransposition
p291
I4
tp292
a(VRNA modification guide activity
p293
I1
tp294
aa(lp295
(g3
L6372L
tp296
a(g5
L4365L
tp297
a(g7
L2787L
tp298
a(g9
L21685L
tp299
a(g11
L26888L
tp300
a(g13
L5491L
tp301
a(g15
L5801L
tp302
a(g17
L18268L
tp303
a(g19
L21693L
tp304
a(g21
L5613L
tp305
a(g23
L21630L
tp306
a(g25
L22689L
tp307
a(g27
L7192L
tp308
a(g29
L5168L
tp309
a(g31
L7190L
tp310
a(g33
L1781L
tp311
a(g35
L13924L
tp312
a(g37
L13633L
tp313
a(g39
L4599L
tp314
a(g41
L12968L
tp315
a(g43
L5326L
tp316
a(g45
L20507L
tp317
a(g47
L26682L
tp318
a(g49
L4507L
tp319
a(g51
L10381L
tp320
a(g53
L4422L
tp321
a(g55
L4644L
tp322
a(g57
L13690L
tp323
a(g59
L4995L
tp324
a(g61
L21086L
tp325
a(g63
L28228L
tp326
a(g65
L2790L
tp327
a(g67
L4514L
tp328
a(g69
L26901L
tp329
a(g71
L31581L
tp330
a(g73
L27837L
tp331
a(g75
L29927L
tp332
a(g77
L10598L
tp333
a(g79
L18282L
tp334
a(g81
L6320L
tp335
a(g83
L4725L
tp336
a(g85
L7881L
tp337
a(g87
L10466L
tp338
a(g89
L20503L
tp339
a(g91
L28535L
tp340
a(g93
L3827L
tp341
a(g95
L5165L
tp342
a(g97
L5663L
tp343
a(g99
L4567L
tp344
a(g101
L6500L
tp345
a(g103
L2830L
tp346
a(g105
L5791L
tp347
a(g107
L10229L
tp348
a(g109
L4515L
tp349
a(g111
L4621L
tp350
a(g113
L5218L
tp351
a(g115
L4542L
tp352
a(g117
L5896L
tp353
a(g119
L30984L
tp354
a(g121
L10950L
tp355
a(g123
L4556L
tp356
a(g125
L6448L
tp357
a(g127
L10963L
tp358
a(g129
L6494L
tp359
a(g131
L6436L
tp360
a(g133
L14001L
tp361
a(g135
L4439L
tp362
a(g137
L594L
tp363
a(g139
L4586L
tp364
a(g141
L6357L
tp365
a(g143
L677L
tp366
a(g145
L759L
tp367
a(g147
L4118L
tp368
a(g149
L5302L
tp369
a(g151
L4366L
tp370
a(g153
L22810L
tp371
a(g155
L5471L
tp372
a(g157
L4405L
tp373
a(g159
L28144L
tp374
a(g161
L4684L
tp375
a(g163
L5112L
tp376
a(g165
L13967L
tp377
a(g167
L4838L
tp378
a(g169
L4546L
tp379
a(g171
L10870L
tp380
a(g173
L10829L
tp381
a(g175
L5695L
tp382
a(g177
L3L
tp383
a(g179
L5582L
tp384
a(g181
L6169L
tp385
a(g183
L17965L
tp386
a(g185
L10840L
tp387
a(g187
L3404L
tp388
a(g189
L28251L
tp389
a(g191
L3518L
tp390
a(g193
L2364L
tp391
a(g195
L13274L
tp392
a(g197
L5658L
tp393
a(g199
L14427L
tp394
a(g201
L7644L
tp395
a(g203
L6389L
tp396
a(g205
L5161L
tp397
a(g207
L10905L
tp398
a(g209
L4538L
tp399
a(g211
L13644L
tp400
a(g213
L20900L
tp401
a(g215
L4475L
tp402
a(g217
L4368L
tp403
a(g219
L4423L
tp404
a(g221
L2991L
tp405
a(g223
L12827L
tp406
a(g225
L5662L
tp407
a(g227
L5712L
tp408
a(g229
L14078L
tp409
a(g231
L10929L
tp410
a(g233
L5682L
tp411
a(g235
L4408L
tp412
a(g237
L2835L
tp413
a(g239
L10860L
tp414
a(g241
L10886L
tp415
a(g243
L14396L
tp416
a(g245
L5705L
tp417
a(g247
L33137L
tp418
a(g249
L2841L
tp419
a(g251
L15840L
tp420
a(g253
L6747L
tp421
a(g255
L10876L
tp422
a(g257
L5114L
tp423
a(g259
L4550L
tp424
a(g261
L6358L
tp425
a(g263
L28040L
tp426
a(g265
L4583L
tp427
a(g267
L5126L
tp428
a(g269
L4609L
tp429
a(g271
L10848L
tp430
a(g273
L20770L
tp431
a(g275
L21900L
tp432
a(g277
L201L
tp433
a(g279
L4411L
tp434
a(g281
L12918L
tp435
a(g283
L33512L
tp436
a(g285
L7683L
tp437
a(g287
L4412L
tp438
a(g289
L10192L
tp439
a(g291
L15852L
tp440
a(g293
L14288L
tp441
aaI521370
a.