(lp1
(lp2
(Vbiological_process
p3
I160438
tp4
a(Vcellular_component
p5
I52994
tp6
a(Vmolecular_function
p7
I42807
tp8
a(Vorganelle
p9
I14280
tp10
a(Vanatomical structure development
p11
I12111
tp12
a(Vtransport
p13
I8853
tp14
a(Vsignal transduction
p15
I7658
tp16
a(Vcellular nitrogen compound metabolic process
p17
I7118
tp18
a(Vprotein complex
p19
I6067
tp20
a(Vresponse to stress
p21
I5923
tp22
a(Vion binding
p23
I5118
tp24
a(Vsmall molecule metabolic process
p25
I4905
tp26
a(Vbiosynthetic process
p27
I4663
tp28
a(Vcellular protein modification process
p29
I4186
tp30
a(Vimmune system process
p31
I3642
tp32
a(Vcatabolic process
p33
I3555
tp34
a(Vcell differentiation
p35
I2934
tp36
a(Vcellular component assembly
p37
I2536
tp38
a(Vcytosol
p39
I2430
tp40
a(Venzyme binding
p41
I2394
tp42
a(Vlipid metabolic process
p43
I2383
tp44
a(Vlocomotion
p45
I2055
tp46
a(Vplasma membrane
p47
I1891
tp48
a(Vnucleus
p49
I1866
tp50
a(Vnucleolus
p51
I1855
tp52
a(Vvesicle-mediated transport
p53
I1850
tp54
a(Vtransmembrane transporter activity
p55
I1774
tp56
a(Vanatomical structure formation involved in morphogenesis
p57
I1758
tp58
a(Vhomeostatic process
p59
I1594
tp60
a(VDNA metabolic process
p61
I1583
tp62
a(Vcytoplasm
p63
I1506
tp64
a(VDNA binding
p65
I1498
tp66
a(Vchromosome organization
p67
I1447
tp68
a(Vmacromolecular complex assembly
p69
I1422
tp70
a(Vcell motility
p71
I1420
tp72
a(Vtransmembrane transport
p73
I1396
tp74
a(Voxidoreductase activity
p75
I1370
tp76
a(Vneurological system process
p77
I1365
tp78
a(Vprotein maturation
p79
I1336
tp80
a(Vcarbohydrate metabolic process
p81
I1330
tp82
a(Vembryo development
p83
I1280
tp84
a(Vnucleobase-containing compound catabolic process
p85
I1263
tp86
a(Vcytoskeletal protein binding
p87
I1261
tp88
a(Vgrowth
p89
I1230
tp90
a(Vkinase activity
p91
I1180
tp92
a(Vsignal transducer activity
p93
I1164
tp94
a(Vprotein complex assembly
p95
I1155
tp96
a(Vcytoskeleton organization
p97
I1063
tp98
a(VRNA binding
p99
I1037
tp100
a(Vmitochondrion
p101
I976
tp102
a(VGolgi apparatus
p103
I970
tp104
a(Vlipid binding
p105
I965
tp106
a(Vcytoplasmic membrane-bounded vesicle
p107
I958
tp108
a(Vcytoskeleton
p109
I896
tp110
a(Vcellular amino acid metabolic process
p111
I847
tp112
a(Vcell adhesion
p113
I844
tp114
a(Vendoplasmic reticulum
p115
I816
tp116
a(Vcell-cell signaling
p117
I809
tp118
a(Vendosome
p119
I802
tp120
a(Venzyme regulator activity
p121
I798
tp122
a(Vcell death
p123
I790
tp124
a(Vligase activity
p125
I781
tp126
a(Vcell proliferation
p127
I781
tp128
a(Vmembrane organization
p129
I775
tp130
a(Vpeptidase activity
p131
I762
tp132
a(VATPase activity
p133
I699
tp134
a(Vtranscription factor binding
p135
I680
tp136
a(Vnucleoplasm
p137
I676
tp138
a(Vprotein binding transcription factor activity
p139
I655
tp140
a(Vmicrotubule organizing center
p141
I652
tp142
a(Vcell morphogenesis
p143
I628
tp144
a(Vnucleic acid binding transcription factor activity
p145
I571
tp146
a(Vprotein targeting
p147
I548
tp148
a(Vstructural molecule activity
p149
I513
tp150
a(Vextracellular region
p151
I505
tp152
a(Vsymbiosis, encompassing mutualism through parasitism
p153
I472
tp154
a(Vsulfur compound metabolic process
p155
I466
tp156
a(Vextracellular space
p157
I448
tp158
a(VmRNA processing
p159
I440
tp160
a(Vvacuole
p161
I440
tp162
a(Vgeneration of precursor metabolites and energy
p163
I433
tp164
a(Vcofactor metabolic process
p165
I417
tp166
a(Vphosphatase activity
p167
I415
tp168
a(Vcilium
p169
I408
tp170
a(Vtransferase activity, transferring acyl groups
p171
I393
tp172
a(Vextracellular matrix organization
p173
I393
tp174
a(Vcell cycle
p175
I362
tp176
a(Vreproduction
p177
I328
tp178
a(Vnucleocytoplasmic transport
p179
I322
tp180
a(Vtransferase activity, transferring glycosyl groups
p181
I321
tp182
a(Vcell junction organization
p183
I285
tp184
a(Vaging
p185
I284
tp186
a(Vplastid
p187
I283
tp188
a(Vdevelopmental maturation
p189
I282
tp190
a(Vhelicase activity
p191
I279
tp192
a(Vcirculatory system process
p193
I271
tp194
a(Vmitochondrion organization
p195
I269
tp196
a(Vcell division
p197
I263
tp198
a(Vlysosome
p199
I259
tp200
a(Vmethyltransferase activity
p201
I251
tp202
a(Vnuclease activity
p203
I245
tp204
a(Vprotein folding
p205
I244
tp206
a(Vcytoskeleton-dependent intracellular transport
p207
I236
tp208
a(Vlyase activity
p209
I233
tp210
a(Vribonucleoprotein complex assembly
p211
I216
tp212
a(VGTPase activity
p213
I204
tp214
a(Vchromosome
p215
I200
tp216
a(Vhistone binding
p217
I190
tp218
a(Vnuclear envelope
p219
I178
tp220
a(Vproteinaceous extracellular matrix
p221
I176
tp222
a(Vsecondary metabolic process
p223
I173
tp224
a(Vplasma membrane organization
p225
I170
tp226
a(VmRNA binding
p227
I165
tp228
a(Vexternal encapsulating structure
p229
I165
tp230
a(Vcell wall
p231
I161
tp232
a(Vvacuolar transport
p233
I159
tp234
a(Vhydrolase activity, acting on glycosyl bonds
p235
I159
tp236
a(Vmitosis
p237
I155
tp238
a(Visomerase activity
p239
I153
tp240
a(Vhydrolase activity, acting on carbon-nitrogen (but not peptide) bonds
p241
I141
tp242
a(Vstructural constituent of ribosome
p243
I133
tp244
a(Vcell wall organization or biogenesis
p245
I132
tp246
a(Vprotein binding, bridging
p247
I131
tp248
a(Vchromosome segregation
p249
I127
tp250
a(Vperoxisome
p251
I126
tp252
a(Vnucleotidyltransferase activity
p253
I119
tp254
a(VtRNA metabolic process
p255
I111
tp256
a(Vtranslation factor activity, nucleic acid binding
p257
I109
tp258
a(Vsmall conjugating protein binding
p259
I108
tp260
a(Vunfolded protein binding
p261
I97
tp262
a(Vribosome
p263
I90
tp264
a(Vprotein transporter activity
p265
I88
tp266
a(Vtranslation
p267
I85
tp268
a(Vlipid particle
p269
I84
tp270
a(Vtransferase activity, transferring alkyl or aryl (other than methyl) groups
p271
I75
tp272
a(Vintracellular
p273
I74
tp274
a(Vribosome biogenesis
p275
I62
tp276
a(Vnuclear chromosome
p277
I61
tp278
a(Vpigmentation
p279
I59
tp280
a(VrRNA binding
p281
I37
tp282
a(Vthylakoid
p283
I21
tp284
a(Vnitrogen cycle metabolic process
p285
I19
tp286
a(Vphotosynthesis
p287
I10
tp288
a(Vtransposition
p289
I5
tp290
a(Vcell
p291
I4
tp292
a(VRNA modification guide activity
p293
I1
tp294
aa(lp295
(g3
L6372L
tp296
a(g5
L4365L
tp297
a(g7
L2787L
tp298
a(g9
L21685L
tp299
a(g11
L26888L
tp300
a(g13
L5491L
tp301
a(g15
L5801L
tp302
a(g17
L18268L
tp303
a(g19
L21693L
tp304
a(g21
L5613L
tp305
a(g23
L21630L
tp306
a(g25
L22689L
tp307
a(g27
L7192L
tp308
a(g29
L5168L
tp309
a(g31
L1781L
tp310
a(g33
L7190L
tp311
a(g35
L13924L
tp312
a(g37
L13633L
tp313
a(g39
L4599L
tp314
a(g41
L12968L
tp315
a(g43
L5326L
tp316
a(g45
L20507L
tp317
a(g47
L4644L
tp318
a(g49
L4422L
tp319
a(g51
L4507L
tp320
a(g53
L10381L
tp321
a(g55
L13690L
tp322
a(g57
L26682L
tp323
a(g59
L21086L
tp324
a(g61
L4995L
tp325
a(g63
L4514L
tp326
a(g65
L2790L
tp327
a(g67
L28228L
tp328
a(g69
L31581L
tp329
a(g71
L26901L
tp330
a(g73
L29927L
tp331
a(g75
L10598L
tp332
a(g77
L27837L
tp333
a(g79
L28535L
tp334
a(g81
L4725L
tp335
a(g83
L7881L
tp336
a(g85
L18282L
tp337
a(g87
L6320L
tp338
a(g89
L20503L
tp339
a(g91
L10466L
tp340
a(g93
L3827L
tp341
a(g95
L5165L
tp342
a(g97
L5663L
tp343
a(g99
L2830L
tp344
a(g101
L4515L
tp345
a(g103
L4567L
tp346
a(g105
L6500L
tp347
a(g107
L10229L
tp348
a(g109
L4621L
tp349
a(g111
L5218L
tp350
a(g113
L5791L
tp351
a(g115
L4556L
tp352
a(g117
L5896L
tp353
a(g119
L4542L
tp354
a(g121
L14001L
tp355
a(g123
L6436L
tp356
a(g125
L10950L
tp357
a(g127
L6494L
tp358
a(g129
L30984L
tp359
a(g131
L6448L
tp360
a(g133
L10963L
tp361
a(g135
L6357L
tp362
a(g137
L4439L
tp363
a(g139
L677L
tp364
a(g141
L4586L
tp365
a(g143
L594L
tp366
a(g145
L759L
tp367
a(g147
L5302L
tp368
a(g149
L4118L
tp369
a(g151
L4366L
tp370
a(g153
L22810L
tp371
a(g155
L5471L
tp372
a(g157
L4405L
tp373
a(g159
L5112L
tp374
a(g161
L4546L
tp375
a(g163
L4838L
tp376
a(g165
L28144L
tp377
a(g167
L10870L
tp378
a(g169
L4684L
tp379
a(g171
L10829L
tp380
a(g173
L13967L
tp381
a(g175
L5695L
tp382
a(g177
L3L
tp383
a(g179
L5582L
tp384
a(g181
L10840L
tp385
a(g183
L17965L
tp386
a(g185
L6169L
tp387
a(g187
L7644L
tp388
a(g189
L13274L
tp389
a(g191
L3404L
tp390
a(g193
L2364L
tp391
a(g195
L5658L
tp392
a(g197
L28251L
tp393
a(g199
L4538L
tp394
a(g201
L6389L
tp395
a(g203
L3518L
tp396
a(g205
L5161L
tp397
a(g207
L14427L
tp398
a(g209
L10905L
tp399
a(g211
L13644L
tp400
a(g213
L2991L
tp401
a(g215
L4475L
tp402
a(g217
L20900L
tp403
a(g219
L4423L
tp404
a(g221
L4368L
tp405
a(g223
L12827L
tp406
a(g225
L5662L
tp407
a(g227
L2835L
tp408
a(g229
L14078L
tp409
a(g231
L4408L
tp410
a(g233
L5682L
tp411
a(g235
L10876L
tp412
a(g237
L5712L
tp413
a(g239
L10929L
tp414
a(g241
L10886L
tp415
a(g243
L2841L
tp416
a(g245
L33137L
tp417
a(g247
L14396L
tp418
a(g249
L5705L
tp419
a(g251
L4550L
tp420
a(g253
L10860L
tp421
a(g255
L5114L
tp422
a(g257
L6358L
tp423
a(g259
L15840L
tp424
a(g261
L28040L
tp425
a(g263
L4609L
tp426
a(g265
L6747L
tp427
a(g267
L5126L
tp428
a(g269
L4583L
tp429
a(g271
L10848L
tp430
a(g273
L4411L
tp431
a(g275
L20770L
tp432
a(g277
L201L
tp433
a(g279
L21900L
tp434
a(g281
L12918L
tp435
a(g283
L7683L
tp436
a(g285
L33512L
tp437
a(g287
L10192L
tp438
a(g289
L15852L
tp439
a(g291
L4412L
tp440
a(g293
L14288L
tp441
aaI432116
a.