(lp1
(lp2
(Vbiological_process
p3
I172686
tp4
a(Vcellular_component
p5
I55787
tp6
a(Vmolecular_function
p7
I44847
tp8
a(Vorganelle
p9
I14607
tp10
a(Vanatomical structure development
p11
I13104
tp12
a(Vtransport
p13
I9997
tp14
a(Vsignal transduction
p15
I7633
tp16
a(Vcellular nitrogen compound metabolic process
p17
I7414
tp18
a(Vresponse to stress
p19
I6010
tp20
a(Vprotein complex
p21
I5834
tp22
a(Vion binding
p23
I5488
tp24
a(Vsmall molecule metabolic process
p25
I5405
tp26
a(Vbiosynthetic process
p27
I5243
tp28
a(Vcellular protein modification process
p29
I3877
tp30
a(Vcatabolic process
p31
I3612
tp32
a(Vimmune system process
p33
I3286
tp34
a(Vcell differentiation
p35
I2926
tp36
a(Vcellular component assembly
p37
I2576
tp38
a(Vcytosol
p39
I2398
tp40
a(Vlipid metabolic process
p41
I2334
tp42
a(Vtransmembrane transporter activity
p43
I2260
tp44
a(Vplasma membrane
p45
I2125
tp46
a(Venzyme binding
p47
I2122
tp48
a(Vsignal transducer activity
p49
I2071
tp50
a(Vlocomotion
p51
I1983
tp52
a(Vanatomical structure formation involved in morphogenesis
p53
I1946
tp54
a(Vvesicle-mediated transport
p55
I1874
tp56
a(Vnucleus
p57
I1864
tp58
a(Vnucleolus
p59
I1731
tp60
a(VDNA metabolic process
p61
I1656
tp62
a(Vhomeostatic process
p63
I1641
tp64
a(Vtransmembrane transport
p65
I1571
tp66
a(Vcytoplasm
p67
I1560
tp68
a(VDNA binding
p69
I1506
tp70
a(Vneurological system process
p71
I1494
tp72
a(Vchromosome organization
p73
I1448
tp74
a(Vmacromolecular complex assembly
p75
I1432
tp76
a(Voxidoreductase activity
p77
I1426
tp78
a(Vcarbohydrate metabolic process
p79
I1403
tp80
a(Vcell motility
p81
I1377
tp82
a(Vembryo development
p83
I1363
tp84
a(Vgrowth
p85
I1339
tp86
a(Vcell-cell signaling
p87
I1257
tp88
a(Vnucleobase-containing compound catabolic process
p89
I1211
tp90
a(Vprotein maturation
p91
I1204
tp92
a(Vprotein complex assembly
p93
I1168
tp94
a(Vcytoplasmic membrane-bounded vesicle
p95
I1078
tp96
a(Vcytoskeletal protein binding
p97
I1072
tp98
a(Vcytoskeleton organization
p99
I1046
tp100
a(Vkinase activity
p101
I1039
tp102
a(Vlipid binding
p103
I1007
tp104
a(Vcellular amino acid metabolic process
p105
I1006
tp106
a(VRNA binding
p107
I998
tp108
a(Vmitochondrion
p109
I949
tp110
a(Vpeptidase activity
p111
I905
tp112
a(VGolgi apparatus
p113
I876
tp114
a(Vcell adhesion
p115
I851
tp116
a(Vcytoskeleton
p117
I826
tp118
a(Vendoplasmic reticulum
p119
I820
tp120
a(Vcell proliferation
p121
I747
tp122
a(Vcell death
p123
I734
tp124
a(Vmembrane organization
p125
I732
tp126
a(Vendosome
p127
I718
tp128
a(Venzyme regulator activity
p129
I693
tp130
a(Vcell morphogenesis
p131
I681
tp132
a(Vnucleoplasm
p133
I661
tp134
a(Vmicrotubule organizing center
p135
I654
tp136
a(Vligase activity
p137
I648
tp138
a(Vextracellular region
p139
I647
tp140
a(Vtranscription factor binding
p141
I643
tp142
a(Vprotein binding transcription factor activity
p143
I616
tp144
a(Vcirculatory system process
p145
I600
tp146
a(Vsulfur compound metabolic process
p147
I594
tp148
a(VATPase activity
p149
I594
tp150
a(Vstructural molecule activity
p151
I529
tp152
a(Vnucleic acid binding transcription factor activity
p153
I526
tp154
a(Vprotein targeting
p155
I504
tp156
a(Vextracellular space
p157
I498
tp158
a(Vcofactor metabolic process
p159
I464
tp160
a(Vextracellular matrix organization
p161
I458
tp162
a(Vvacuole
p163
I444
tp164
a(Vcilium
p165
I441
tp166
a(VmRNA processing
p167
I428
tp168
a(Vphosphatase activity
p169
I422
tp170
a(Vtransferase activity, transferring acyl groups
p171
I420
tp172
a(Vsymbiosis, encompassing mutualism through parasitism
p173
I412
tp174
a(Vgeneration of precursor metabolites and energy
p175
I406
tp176
a(Vtransferase activity, transferring glycosyl groups
p177
I378
tp178
a(Vcell cycle
p179
I359
tp180
a(Vreproduction
p181
I335
tp182
a(Vlyase activity
p183
I317
tp184
a(Vplastid
p185
I302
tp186
a(Vnucleocytoplasmic transport
p187
I299
tp188
a(Vcell junction organization
p189
I289
tp190
a(Vaging
p191
I286
tp192
a(Vmethyltransferase activity
p193
I284
tp194
a(Vcell division
p195
I273
tp196
a(Vnuclease activity
p197
I268
tp198
a(Vlysosome
p199
I262
tp200
a(Vhelicase activity
p201
I253
tp202
a(Vproteinaceous extracellular matrix
p203
I247
tp204
a(Vprotein folding
p205
I246
tp206
a(VGTPase activity
p207
I238
tp208
a(Vmitochondrion organization
p209
I226
tp210
a(Vdevelopmental maturation
p211
I218
tp212
a(Vribonucleoprotein complex assembly
p213
I216
tp214
a(Vcytoskeleton-dependent intracellular transport
p215
I214
tp216
a(Vchromosome
p217
I208
tp218
a(Visomerase activity
p219
I197
tp220
a(Vexternal encapsulating structure
p221
I193
tp222
a(Vcell wall
p223
I190
tp224
a(Vnuclear envelope
p225
I181
tp226
a(Vsecondary metabolic process
p227
I174
tp228
a(Vhistone binding
p229
I166
tp230
a(VmRNA binding
p231
I166
tp232
a(Vstructural constituent of ribosome
p233
I162
tp234
a(Vmitosis
p235
I162
tp236
a(Vhydrolase activity, acting on carbon-nitrogen (but not peptide) bonds
p237
I157
tp238
a(Vplasma membrane organization
p239
I157
tp240
a(Vhydrolase activity, acting on glycosyl bonds
p241
I151
tp242
a(Vnucleotidyltransferase activity
p243
I144
tp244
a(Vvacuolar transport
p245
I142
tp246
a(VtRNA metabolic process
p247
I141
tp248
a(Vperoxisome
p249
I138
tp250
a(Vchromosome segregation
p251
I137
tp252
a(Vcell wall organization or biogenesis
p253
I133
tp254
a(Vtranslation factor activity, nucleic acid binding
p255
I118
tp256
a(Vunfolded protein binding
p257
I104
tp258
a(Vlipid particle
p259
I102
tp260
a(Vtranslation
p261
I100
tp262
a(Vprotein transporter activity
p263
I98
tp264
a(Vribosome
p265
I97
tp266
a(Vsmall conjugating protein binding
p267
I95
tp268
a(Vtransferase activity, transferring alkyl or aryl (other than methyl) groups
p269
I87
tp270
a(Vprotein binding, bridging
p271
I87
tp272
a(Vribosome biogenesis
p273
I67
tp274
a(Vnuclear chromosome
p275
I67
tp276
a(Vintracellular
p277
I63
tp278
a(Vpigmentation
p279
I56
tp280
a(VrRNA binding
p281
I51
tp282
a(Vthylakoid
p283
I23
tp284
a(Vnitrogen cycle metabolic process
p285
I20
tp286
a(Vcell
p287
I8
tp288
a(Vphotosynthesis
p289
I4
tp290
a(Vtransposition
p291
I3
tp292
a(VRNA modification guide activity
p293
I2
tp294
aa(lp295
(g3
L6372L
tp296
a(g5
L4365L
tp297
a(g7
L2787L
tp298
a(g9
L21685L
tp299
a(g11
L26888L
tp300
a(g13
L5491L
tp301
a(g15
L5801L
tp302
a(g17
L18268L
tp303
a(g19
L5613L
tp304
a(g21
L21693L
tp305
a(g23
L21630L
tp306
a(g25
L22689L
tp307
a(g27
L7192L
tp308
a(g29
L5168L
tp309
a(g31
L7190L
tp310
a(g33
L1781L
tp311
a(g35
L13924L
tp312
a(g37
L13633L
tp313
a(g39
L4599L
tp314
a(g41
L5326L
tp315
a(g43
L13690L
tp316
a(g45
L4644L
tp317
a(g47
L12968L
tp318
a(g49
L3827L
tp319
a(g51
L20507L
tp320
a(g53
L26682L
tp321
a(g55
L10381L
tp322
a(g57
L4422L
tp323
a(g59
L4507L
tp324
a(g61
L4995L
tp325
a(g63
L21086L
tp326
a(g65
L29927L
tp327
a(g67
L4514L
tp328
a(g69
L2790L
tp329
a(g71
L27837L
tp330
a(g73
L28228L
tp331
a(g75
L31581L
tp332
a(g77
L10598L
tp333
a(g79
L4725L
tp334
a(g81
L26901L
tp335
a(g83
L7881L
tp336
a(g85
L20503L
tp337
a(g87
L5896L
tp338
a(g89
L18282L
tp339
a(g91
L28535L
tp340
a(g93
L5165L
tp341
a(g95
L10229L
tp342
a(g97
L6320L
tp343
a(g99
L5663L
tp344
a(g101
L10466L
tp345
a(g103
L6500L
tp346
a(g105
L5218L
tp347
a(g107
L2830L
tp348
a(g109
L4515L
tp349
a(g111
L6448L
tp350
a(g113
L4567L
tp351
a(g115
L5791L
tp352
a(g117
L4621L
tp353
a(g119
L4556L
tp354
a(g121
L6494L
tp355
a(g123
L6436L
tp356
a(g125
L30984L
tp357
a(g127
L4542L
tp358
a(g129
L14001L
tp359
a(g131
L594L
tp360
a(g133
L4439L
tp361
a(g135
L4586L
tp362
a(g137
L10950L
tp363
a(g139
L4366L
tp364
a(g141
L6357L
tp365
a(g143
L677L
tp366
a(g145
L2364L
tp367
a(g147
L5471L
tp368
a(g149
L10963L
tp369
a(g151
L4118L
tp370
a(g153
L759L
tp371
a(g155
L5302L
tp372
a(g157
L4405L
tp373
a(g159
L28144L
tp374
a(g161
L13967L
tp375
a(g163
L4546L
tp376
a(g165
L4684L
tp377
a(g167
L5112L
tp378
a(g169
L10870L
tp379
a(g171
L10829L
tp380
a(g173
L22810L
tp381
a(g175
L4838L
tp382
a(g177
L10840L
tp383
a(g179
L5695L
tp384
a(g181
L3L
tp385
a(g183
L10905L
tp386
a(g185
L7644L
tp387
a(g187
L5582L
tp388
a(g189
L17965L
tp389
a(g191
L6169L
tp390
a(g193
L6389L
tp391
a(g195
L28251L
tp392
a(g197
L3518L
tp393
a(g199
L4538L
tp394
a(g201
L3404L
tp395
a(g203
L4368L
tp396
a(g205
L5161L
tp397
a(g207
L2991L
tp398
a(g209
L5658L
tp399
a(g211
L13274L
tp400
a(g213
L13644L
tp401
a(g215
L14427L
tp402
a(g217
L4475L
tp403
a(g219
L10929L
tp404
a(g221
L14078L
tp405
a(g223
L4408L
tp406
a(g225
L4423L
tp407
a(g227
L12827L
tp408
a(g229
L20900L
tp409
a(g231
L2835L
tp410
a(g233
L2841L
tp411
a(g235
L5712L
tp412
a(g237
L10886L
tp413
a(g239
L5662L
tp414
a(g241
L10876L
tp415
a(g243
L10860L
tp416
a(g245
L5682L
tp417
a(g247
L5114L
tp418
a(g249
L4550L
tp419
a(g251
L5705L
tp420
a(g253
L33137L
tp421
a(g255
L6358L
tp422
a(g257
L28040L
tp423
a(g259
L4583L
tp424
a(g261
L5126L
tp425
a(g263
L6747L
tp426
a(g265
L4609L
tp427
a(g267
L15840L
tp428
a(g269
L10848L
tp429
a(g271
L14396L
tp430
a(g273
L20770L
tp431
a(g275
L201L
tp432
a(g277
L4411L
tp433
a(g279
L21900L
tp434
a(g281
L12918L
tp435
a(g283
L7683L
tp436
a(g285
L33512L
tp437
a(g287
L4412L
tp438
a(g289
L10192L
tp439
a(g291
L15852L
tp440
a(g293
L14288L
tp441
aaI455344
a.