(lp1
(lp2
(Vbiological_process
p3
I150422
tp4
a(Vcellular_component
p5
I47646
tp6
a(Vmolecular_function
p7
I40010
tp8
a(Vorganelle
p9
I12925
tp10
a(Vanatomical structure development
p11
I11521
tp12
a(Vsignal transduction
p13
I7696
tp14
a(Vtransport
p15
I7481
tp16
a(Vcellular nitrogen compound metabolic process
p17
I6992
tp18
a(Vresponse to stress
p19
I5970
tp20
a(Vprotein complex
p21
I5620
tp22
a(Vsmall molecule metabolic process
p23
I5258
tp24
a(Vion binding
p25
I5173
tp26
a(Vbiosynthetic process
p27
I4804
tp28
a(Vcellular protein modification process
p29
I3921
tp30
a(Vimmune system process
p31
I3844
tp32
a(Vcatabolic process
p33
I3789
tp34
a(Vcell differentiation
p35
I2698
tp36
a(Vcellular component assembly
p37
I2484
tp38
a(Vcytosol
p39
I2480
tp40
a(Vlipid metabolic process
p41
I2440
tp42
a(Venzyme binding
p43
I2083
tp44
a(Vlocomotion
p45
I1870
tp46
a(Vnucleolus
p47
I1810
tp48
a(Vplasma membrane
p49
I1725
tp50
a(Vnucleus
p51
I1688
tp52
a(Vanatomical structure formation involved in morphogenesis
p53
I1647
tp54
a(Vmacromolecular complex assembly
p55
I1568
tp56
a(Voxidoreductase activity
p57
I1549
tp58
a(Vtransmembrane transporter activity
p59
I1546
tp60
a(Vvesicle-mediated transport
p61
I1494
tp62
a(VDNA binding
p63
I1486
tp64
a(Vhomeostatic process
p65
I1484
tp66
a(Vprotein maturation
p67
I1479
tp68
a(VDNA metabolic process
p69
I1461
tp70
a(Vcarbohydrate metabolic process
p71
I1420
tp72
a(Vembryo development
p73
I1352
tp74
a(Vcytoplasm
p75
I1351
tp76
a(Vcell motility
p77
I1335
tp78
a(Vchromosome organization
p79
I1295
tp80
a(Vprotein complex assembly
p81
I1284
tp82
a(Vnucleobase-containing compound catabolic process
p83
I1275
tp84
a(Vsignal transducer activity
p85
I1221
tp86
a(VRNA binding
p87
I1197
tp88
a(Vgrowth
p89
I1191
tp90
a(Vtransmembrane transport
p91
I1177
tp92
a(Vkinase activity
p93
I1156
tp94
a(Vcellular amino acid metabolic process
p95
I1068
tp96
a(Vmitochondrion
p97
I1008
tp98
a(Vneurological system process
p99
I986
tp100
a(VGolgi apparatus
p101
I904
tp102
a(Vcytoskeleton organization
p103
I904
tp104
a(Vcytoskeletal protein binding
p105
I886
tp106
a(Vcell proliferation
p107
I851
tp108
a(Vcytoplasmic membrane-bounded vesicle
p109
I842
tp110
a(Vcell adhesion
p111
I831
tp112
a(Vpeptidase activity
p113
I808
tp114
a(Vendoplasmic reticulum
p115
I781
tp116
a(Vcell death
p117
I767
tp118
a(Vligase activity
p119
I748
tp120
a(Vlipid binding
p121
I743
tp122
a(Vcytoskeleton
p123
I741
tp124
a(Vcell-cell signaling
p125
I714
tp126
a(Vnucleoplasm
p127
I682
tp128
a(Vendosome
p129
I653
tp130
a(VATPase activity
p131
I644
tp132
a(Vmembrane organization
p133
I633
tp134
a(Vtranscription factor binding
p135
I614
tp136
a(Venzyme regulator activity
p137
I610
tp138
a(Vnucleic acid binding transcription factor activity
p139
I600
tp140
a(Vstructural molecule activity
p141
I583
tp142
a(Vmicrotubule organizing center
p143
I571
tp144
a(Vcell morphogenesis
p145
I556
tp146
a(Vprotein binding transcription factor activity
p147
I555
tp148
a(Vprotein targeting
p149
I550
tp150
a(Vsulfur compound metabolic process
p151
I538
tp152
a(Vextracellular region
p153
I515
tp154
a(Vcofactor metabolic process
p155
I506
tp156
a(Vsymbiosis, encompassing mutualism through parasitism
p157
I495
tp158
a(Vgeneration of precursor metabolites and energy
p159
I453
tp160
a(Vvacuole
p161
I448
tp162
a(VmRNA processing
p163
I442
tp164
a(Vextracellular space
p165
I397
tp166
a(Vtransferase activity, transferring acyl groups
p167
I395
tp168
a(Vextracellular matrix organization
p169
I393
tp170
a(Vreproduction
p171
I352
tp172
a(Vplastid
p173
I351
tp174
a(Vprotein folding
p175
I324
tp176
a(Vaging
p177
I314
tp178
a(Vlyase activity
p179
I312
tp180
a(Vdevelopmental maturation
p181
I311
tp182
a(Vphosphatase activity
p183
I310
tp184
a(Vtransferase activity, transferring glycosyl groups
p185
I308
tp186
a(Vcilium
p187
I296
tp188
a(Vnucleocytoplasmic transport
p189
I296
tp190
a(Vcell division
p191
I272
tp192
a(Vcell cycle
p193
I271
tp194
a(Vlysosome
p195
I260
tp196
a(VGTPase activity
p197
I260
tp198
a(Vcirculatory system process
p199
I258
tp200
a(Vexternal encapsulating structure
p201
I256
tp202
a(Vcell wall
p203
I251
tp204
a(Vmitochondrion organization
p205
I245
tp206
a(Vhelicase activity
p207
I242
tp208
a(Vmethyltransferase activity
p209
I239
tp210
a(Vribonucleoprotein complex assembly
p211
I237
tp212
a(Vcell junction organization
p213
I205
tp214
a(Vnuclease activity
p215
I204
tp216
a(Vsecondary metabolic process
p217
I203
tp218
a(VmRNA binding
p219
I196
tp220
a(Vstructural constituent of ribosome
p221
I192
tp222
a(Visomerase activity
p223
I190
tp224
a(Vchromosome
p225
I186
tp226
a(Vcytoskeleton-dependent intracellular transport
p227
I164
tp228
a(Vunfolded protein binding
p229
I151
tp230
a(Vmitosis
p231
I146
tp232
a(Vnuclear envelope
p233
I146
tp234
a(Vhistone binding
p235
I145
tp236
a(Vtranslation factor activity, nucleic acid binding
p237
I143
tp238
a(VtRNA metabolic process
p239
I143
tp240
a(Vhydrolase activity, acting on glycosyl bonds
p241
I142
tp242
a(Vhydrolase activity, acting on carbon-nitrogen (but not peptide) bonds
p243
I139
tp244
a(Vchromosome segregation
p245
I133
tp246
a(Vcell wall organization or biogenesis
p247
I133
tp248
a(Vperoxisome
p249
I131
tp250
a(Vlipid particle
p251
I121
tp252
a(Vvacuolar transport
p253
I120
tp254
a(Vplasma membrane organization
p255
I120
tp256
a(Vproteinaceous extracellular matrix
p257
I119
tp258
a(Vnucleotidyltransferase activity
p259
I112
tp260
a(Vtranslation
p261
I105
tp262
a(Vsmall conjugating protein binding
p263
I104
tp264
a(Vprotein binding, bridging
p265
I99
tp266
a(Vtransferase activity, transferring alkyl or aryl (other than methyl) groups
p267
I95
tp268
a(Vribosome
p269
I91
tp270
a(Vribosome biogenesis
p271
I70
tp272
a(Vnuclear chromosome
p273
I65
tp274
a(Vprotein transporter activity
p275
I60
tp276
a(Vpigmentation
p277
I52
tp278
a(Vintracellular
p279
I51
tp280
a(VrRNA binding
p281
I44
tp282
a(Vnitrogen cycle metabolic process
p283
I33
tp284
a(Vthylakoid
p285
I19
tp286
a(Vphotosynthesis
p287
I9
tp288
a(Vtransposition
p289
I8
tp290
a(Vcell
p291
I3
tp292
a(VRNA modification guide activity
p293
I1
tp294
aa(lp295
(g3
L6372L
tp296
a(g5
L4365L
tp297
a(g7
L2787L
tp298
a(g9
L21685L
tp299
a(g11
L26888L
tp300
a(g13
L5801L
tp301
a(g15
L5491L
tp302
a(g17
L18268L
tp303
a(g19
L5613L
tp304
a(g21
L21693L
tp305
a(g23
L22689L
tp306
a(g25
L21630L
tp307
a(g27
L7192L
tp308
a(g29
L5168L
tp309
a(g31
L1781L
tp310
a(g33
L7190L
tp311
a(g35
L13924L
tp312
a(g37
L13633L
tp313
a(g39
L4599L
tp314
a(g41
L5326L
tp315
a(g43
L12968L
tp316
a(g45
L20507L
tp317
a(g47
L4507L
tp318
a(g49
L4644L
tp319
a(g51
L4422L
tp320
a(g53
L26682L
tp321
a(g55
L31581L
tp322
a(g57
L10598L
tp323
a(g59
L13690L
tp324
a(g61
L10381L
tp325
a(g63
L2790L
tp326
a(g65
L21086L
tp327
a(g67
L28535L
tp328
a(g69
L4995L
tp329
a(g71
L4725L
tp330
a(g73
L7881L
tp331
a(g75
L4514L
tp332
a(g77
L26901L
tp333
a(g79
L28228L
tp334
a(g81
L5165L
tp335
a(g83
L18282L
tp336
a(g85
L3827L
tp337
a(g87
L2830L
tp338
a(g89
L20503L
tp339
a(g91
L29927L
tp340
a(g93
L10466L
tp341
a(g95
L5218L
tp342
a(g97
L4515L
tp343
a(g99
L27837L
tp344
a(g101
L4567L
tp345
a(g103
L5663L
tp346
a(g105
L6320L
tp347
a(g107
L6494L
tp348
a(g109
L10229L
tp349
a(g111
L5791L
tp350
a(g113
L6448L
tp351
a(g115
L4556L
tp352
a(g117
L6436L
tp353
a(g119
L10950L
tp354
a(g121
L6500L
tp355
a(g123
L4621L
tp356
a(g125
L5896L
tp357
a(g127
L4439L
tp358
a(g129
L4542L
tp359
a(g131
L10963L
tp360
a(g133
L30984L
tp361
a(g135
L6357L
tp362
a(g137
L14001L
tp363
a(g139
L759L
tp364
a(g141
L4118L
tp365
a(g143
L4586L
tp366
a(g145
L594L
tp367
a(g147
L677L
tp368
a(g149
L5302L
tp369
a(g151
L5471L
tp370
a(g153
L4366L
tp371
a(g155
L28144L
tp372
a(g157
L22810L
tp373
a(g159
L4838L
tp374
a(g161
L4546L
tp375
a(g163
L5112L
tp376
a(g165
L4405L
tp377
a(g167
L10829L
tp378
a(g169
L13967L
tp379
a(g171
L3L
tp380
a(g173
L7644L
tp381
a(g175
L5161L
tp382
a(g177
L6169L
tp383
a(g179
L10905L
tp384
a(g181
L13274L
tp385
a(g183
L10870L
tp386
a(g185
L10840L
tp387
a(g187
L4684L
tp388
a(g189
L5582L
tp389
a(g191
L28251L
tp390
a(g193
L5695L
tp391
a(g195
L4538L
tp392
a(g197
L2991L
tp393
a(g199
L2364L
tp394
a(g201
L14078L
tp395
a(g203
L4408L
tp396
a(g205
L5658L
tp397
a(g207
L3404L
tp398
a(g209
L6389L
tp399
a(g211
L13644L
tp400
a(g213
L17965L
tp401
a(g215
L3518L
tp402
a(g217
L12827L
tp403
a(g219
L2835L
tp404
a(g221
L2841L
tp405
a(g223
L10929L
tp406
a(g225
L4475L
tp407
a(g227
L14427L
tp408
a(g229
L28040L
tp409
a(g231
L5712L
tp410
a(g233
L4423L
tp411
a(g235
L20900L
tp412
a(g237
L6358L
tp413
a(g239
L5114L
tp414
a(g241
L10876L
tp415
a(g243
L10886L
tp416
a(g245
L5705L
tp417
a(g247
L33137L
tp418
a(g249
L4550L
tp419
a(g251
L4583L
tp420
a(g253
L5682L
tp421
a(g255
L5662L
tp422
a(g257
L4368L
tp423
a(g259
L10860L
tp424
a(g261
L5126L
tp425
a(g263
L15840L
tp426
a(g265
L14396L
tp427
a(g267
L10848L
tp428
a(g269
L4609L
tp429
a(g271
L20770L
tp430
a(g273
L201L
tp431
a(g275
L6747L
tp432
a(g277
L21900L
tp433
a(g279
L4411L
tp434
a(g281
L12918L
tp435
a(g283
L33512L
tp436
a(g285
L7683L
tp437
a(g287
L10192L
tp438
a(g289
L15852L
tp439
a(g291
L4412L
tp440
a(g293
L14288L
tp441
aaI407291
a.