(lp1
(lp2
(Vbiological_process
p3
I285513
tp4
a(Vcellular_component
p5
I93697
tp6
a(Vmolecular_function
p7
I75472
tp8
a(Vorganelle
p9
I25251
tp10
a(Vanatomical structure development
p11
I21400
tp12
a(Vtransport
p13
I15499
tp14
a(Vcellular nitrogen compound metabolic process
p15
I13516
tp16
a(Vsignal transduction
p17
I12702
tp18
a(Vresponse to stress
p19
I10889
tp20
a(Vprotein complex
p21
I9995
tp22
a(Vion binding
p23
I9180
tp24
a(Vbiosynthetic process
p25
I9173
tp26
a(Vsmall molecule metabolic process
p27
I9129
tp28
a(Vcellular protein modification process
p29
I7466
tp30
a(Vcatabolic process
p31
I6793
tp32
a(Vimmune system process
p33
I5665
tp34
a(Vcell differentiation
p35
I5010
tp36
a(Vcellular component assembly
p37
I4364
tp38
a(Vcytosol
p39
I4211
tp40
a(Vlipid metabolic process
p41
I4094
tp42
a(Venzyme binding
p43
I3894
tp44
a(VDNA metabolic process
p45
I3498
tp46
a(Vplasma membrane
p47
I3372
tp48
a(Vlocomotion
p49
I3341
tp50
a(Vanatomical structure formation involved in morphogenesis
p51
I3254
tp52
a(Vvesicle-mediated transport
p53
I3144
tp54
a(Vtransmembrane transporter activity
p55
I3131
tp56
a(Vnucleus
p57
I3105
tp58
a(Vnucleolus
p59
I3074
tp60
a(Vcarbohydrate metabolic process
p61
I2798
tp62
a(Vchromosome organization
p63
I2682
tp64
a(Vhomeostatic process
p65
I2618
tp66
a(Voxidoreductase activity
p67
I2582
tp68
a(Vcytoplasm
p69
I2438
tp70
a(Vmacromolecular complex assembly
p71
I2425
tp72
a(VDNA binding
p73
I2398
tp74
a(Vnucleobase-containing compound catabolic process
p75
I2383
tp76
a(Vgrowth
p77
I2362
tp78
a(Vtransmembrane transport
p79
I2310
tp80
a(Vembryo development
p81
I2310
tp82
a(Vkinase activity
p83
I2300
tp84
a(Vcell motility
p85
I2279
tp86
a(Vprotein maturation
p87
I2140
tp88
a(Vsignal transducer activity
p89
I2122
tp90
a(Vneurological system process
p91
I2077
tp92
a(Vcytoskeletal protein binding
p93
I2063
tp94
a(Vprotein complex assembly
p95
I1989
tp96
a(Vcytoskeleton organization
p97
I1954
tp98
a(VRNA binding
p99
I1824
tp100
a(VGolgi apparatus
p101
I1704
tp102
a(Vcellular amino acid metabolic process
p103
I1692
tp104
a(Vmitochondrion
p105
I1689
tp106
a(Vlipid binding
p107
I1635
tp108
a(Vcytoplasmic membrane-bounded vesicle
p109
I1584
tp110
a(Vcytoskeleton
p111
I1538
tp112
a(Vcell adhesion
p113
I1491
tp114
a(Vendoplasmic reticulum
p115
I1433
tp116
a(Vpeptidase activity
p117
I1410
tp118
a(Vcell death
p119
I1368
tp120
a(Vcell-cell signaling
p121
I1310
tp122
a(VATPase activity
p123
I1309
tp124
a(Vendosome
p125
I1306
tp126
a(Vcell proliferation
p127
I1277
tp128
a(Vmembrane organization
p129
I1276
tp130
a(Vligase activity
p131
I1252
tp132
a(Vcell morphogenesis
p133
I1231
tp134
a(Vmicrotubule organizing center
p135
I1230
tp136
a(Venzyme regulator activity
p137
I1201
tp138
a(Vnucleoplasm
p139
I1180
tp140
a(Vtranscription factor binding
p141
I1032
tp142
a(Vextracellular region
p143
I997
tp144
a(Vsulfur compound metabolic process
p145
I994
tp146
a(Vprotein targeting
p147
I957
tp148
a(Vstructural molecule activity
p149
I930
tp150
a(Vprotein binding transcription factor activity
p151
I895
tp152
a(Vcofactor metabolic process
p153
I817
tp154
a(Vcilium
p155
I817
tp156
a(Vnucleic acid binding transcription factor activity
p157
I810
tp158
a(Vtransferase activity, transferring acyl groups
p159
I758
tp160
a(Vvacuole
p161
I741
tp162
a(Vcell cycle
p163
I737
tp164
a(Vgeneration of precursor metabolites and energy
p165
I732
tp166
a(Vextracellular space
p167
I732
tp168
a(VmRNA processing
p169
I713
tp170
a(Vextracellular matrix organization
p171
I703
tp172
a(Vphosphatase activity
p173
I695
tp174
a(Vsymbiosis, encompassing mutualism through parasitism
p175
I653
tp176
a(Vreproduction
p177
I645
tp178
a(Vplastid
p179
I632
tp180
a(Vhelicase activity
p181
I603
tp182
a(Vtransferase activity, transferring glycosyl groups
p183
I590
tp184
a(Vlyase activity
p185
I555
tp186
a(Vcell division
p187
I549
tp188
a(Vaging
p189
I544
tp190
a(Vnuclease activity
p191
I510
tp192
a(Vnucleocytoplasmic transport
p193
I468
tp194
a(Vcirculatory system process
p195
I454
tp196
a(Vmethyltransferase activity
p197
I444
tp198
a(Vcell junction organization
p199
I433
tp200
a(Vchromosome
p201
I424
tp202
a(Vexternal encapsulating structure
p203
I422
tp204
a(Vcell wall
p205
I415
tp206
a(Vdevelopmental maturation
p207
I411
tp208
a(Vcytoskeleton-dependent intracellular transport
p209
I407
tp210
a(Vprotein folding
p211
I407
tp212
a(Vlysosome
p213
I387
tp214
a(Vsecondary metabolic process
p215
I374
tp216
a(Vhydrolase activity, acting on glycosyl bonds
p217
I365
tp218
a(VGTPase activity
p219
I352
tp220
a(Vmitochondrion organization
p221
I349
tp222
a(Vribonucleoprotein complex assembly
p223
I349
tp224
a(Vnuclear envelope
p225
I345
tp226
a(Visomerase activity
p227
I336
tp228
a(Vproteinaceous extracellular matrix
p229
I330
tp230
a(Vcell wall organization or biogenesis
p231
I301
tp232
a(Vstructural constituent of ribosome
p233
I294
tp234
a(Vchromosome segregation
p235
I293
tp236
a(Vnucleotidyltransferase activity
p237
I287
tp238
a(Vmitosis
p239
I283
tp240
a(Vhistone binding
p241
I279
tp242
a(Vplasma membrane organization
p243
I279
tp244
a(VtRNA metabolic process
p245
I272
tp246
a(VmRNA binding
p247
I267
tp248
a(Vhydrolase activity, acting on carbon-nitrogen (but not peptide) bonds
p249
I252
tp250
a(Vvacuolar transport
p251
I236
tp252
a(Vprotein binding, bridging
p253
I227
tp254
a(Vperoxisome
p255
I227
tp256
a(Vsmall conjugating protein binding
p257
I206
tp258
a(Vtranslation factor activity, nucleic acid binding
p259
I198
tp260
a(Vlipid particle
p261
I172
tp262
a(Vunfolded protein binding
p263
I161
tp264
a(Vribosome
p265
I161
tp266
a(Vprotein transporter activity
p267
I157
tp268
a(Vtranslation
p269
I156
tp270
a(Vnuclear chromosome
p271
I132
tp272
a(Vribosome biogenesis
p273
I129
tp274
a(Vtransferase activity, transferring alkyl or aryl (other than methyl) groups
p275
I127
tp276
a(Vintracellular
p277
I118
tp278
a(Vpigmentation
p279
I93
tp280
a(Vthylakoid
p281
I84
tp282
a(VrRNA binding
p283
I80
tp284
a(Vnitrogen cycle metabolic process
p285
I35
tp286
a(Vtransposition
p287
I29
tp288
a(Vphotosynthesis
p289
I26
tp290
a(Vcell
p291
I11
tp292
a(VRNA modification guide activity
p293
I3
tp294
aa(lp295
(g3
L6372L
tp296
a(g5
L4365L
tp297
a(g7
L2787L
tp298
a(g9
L21685L
tp299
a(g11
L26888L
tp300
a(g13
L5491L
tp301
a(g15
L18268L
tp302
a(g17
L5801L
tp303
a(g19
L5613L
tp304
a(g21
L21693L
tp305
a(g23
L21630L
tp306
a(g25
L7192L
tp307
a(g27
L22689L
tp308
a(g29
L5168L
tp309
a(g31
L7190L
tp310
a(g33
L1781L
tp311
a(g35
L13924L
tp312
a(g37
L13633L
tp313
a(g39
L4599L
tp314
a(g41
L5326L
tp315
a(g43
L12968L
tp316
a(g45
L4995L
tp317
a(g47
L4644L
tp318
a(g49
L20507L
tp319
a(g51
L26682L
tp320
a(g53
L10381L
tp321
a(g55
L13690L
tp322
a(g57
L4422L
tp323
a(g59
L4507L
tp324
a(g61
L4725L
tp325
a(g63
L28228L
tp326
a(g65
L21086L
tp327
a(g67
L10598L
tp328
a(g69
L4514L
tp329
a(g71
L31581L
tp330
a(g73
L2790L
tp331
a(g75
L18282L
tp332
a(g77
L20503L
tp333
a(g79
L29927L
tp334
a(g81
L7881L
tp335
a(g83
L10466L
tp336
a(g85
L26901L
tp337
a(g87
L28535L
tp338
a(g89
L3827L
tp339
a(g91
L27837L
tp340
a(g93
L6320L
tp341
a(g95
L5165L
tp342
a(g97
L5663L
tp343
a(g99
L2830L
tp344
a(g101
L4567L
tp345
a(g103
L5218L
tp346
a(g105
L4515L
tp347
a(g107
L6500L
tp348
a(g109
L10229L
tp349
a(g111
L4621L
tp350
a(g113
L5791L
tp351
a(g115
L4556L
tp352
a(g117
L6448L
tp353
a(g119
L6436L
tp354
a(g121
L5896L
tp355
a(g123
L10963L
tp356
a(g125
L4542L
tp357
a(g127
L6494L
tp358
a(g129
L30984L
tp359
a(g131
L10950L
tp360
a(g133
L594L
tp361
a(g135
L4586L
tp362
a(g137
L14001L
tp363
a(g139
L4439L
tp364
a(g141
L6357L
tp365
a(g143
L4366L
tp366
a(g145
L5471L
tp367
a(g147
L5302L
tp368
a(g149
L4118L
tp369
a(g151
L677L
tp370
a(g153
L28144L
tp371
a(g155
L4684L
tp372
a(g157
L759L
tp373
a(g159
L10829L
tp374
a(g161
L4546L
tp375
a(g163
L5695L
tp376
a(g165
L4838L
tp377
a(g167
L4405L
tp378
a(g169
L5112L
tp379
a(g171
L13967L
tp380
a(g173
L10870L
tp381
a(g175
L22810L
tp382
a(g177
L3L
tp383
a(g179
L7644L
tp384
a(g181
L3404L
tp385
a(g183
L10840L
tp386
a(g185
L10905L
tp387
a(g187
L28251L
tp388
a(g189
L6169L
tp389
a(g191
L3518L
tp390
a(g193
L5582L
tp391
a(g195
L2364L
tp392
a(g197
L6389L
tp393
a(g199
L17965L
tp394
a(g201
L4475L
tp395
a(g203
L14078L
tp396
a(g205
L4408L
tp397
a(g207
L13274L
tp398
a(g209
L14427L
tp399
a(g211
L5161L
tp400
a(g213
L4538L
tp401
a(g215
L12827L
tp402
a(g217
L10876L
tp403
a(g219
L2991L
tp404
a(g221
L5658L
tp405
a(g223
L13644L
tp406
a(g225
L4423L
tp407
a(g227
L10929L
tp408
a(g229
L4368L
tp409
a(g231
L33137L
tp410
a(g233
L2841L
tp411
a(g235
L5705L
tp412
a(g237
L10860L
tp413
a(g239
L5712L
tp414
a(g241
L20900L
tp415
a(g243
L5662L
tp416
a(g245
L5114L
tp417
a(g247
L2835L
tp418
a(g249
L10886L
tp419
a(g251
L5682L
tp420
a(g253
L14396L
tp421
a(g255
L4550L
tp422
a(g257
L15840L
tp423
a(g259
L6358L
tp424
a(g261
L4583L
tp425
a(g263
L28040L
tp426
a(g265
L4609L
tp427
a(g267
L6747L
tp428
a(g269
L5126L
tp429
a(g271
L201L
tp430
a(g273
L20770L
tp431
a(g275
L10848L
tp432
a(g277
L4411L
tp433
a(g279
L21900L
tp434
a(g281
L7683L
tp435
a(g283
L12918L
tp436
a(g285
L33512L
tp437
a(g287
L15852L
tp438
a(g289
L10192L
tp439
a(g291
L4412L
tp440
a(g293
L14288L
tp441
aaI765390
a.