(lp1
(lp2
(Vbiological_process
p3
I92815
tp4
a(Vcellular_component
p5
I31709
tp6
a(Vmolecular_function
p7
I24645
tp8
a(Vorganelle
p9
I8929
tp10
a(Vanatomical structure development
p11
I6183
tp12
a(Vcellular nitrogen compound metabolic process
p13
I5065
tp14
a(Vtransport
p15
I5054
tp16
a(Vsignal transduction
p17
I4249
tp18
a(Vresponse to stress
p19
I3799
tp20
a(Vprotein complex
p21
I3706
tp22
a(Vbiosynthetic process
p23
I3566
tp24
a(Vsmall molecule metabolic process
p25
I3513
tp26
a(Vion binding
p27
I2969
tp28
a(Vcellular protein modification process
p29
I2677
tp30
a(Vcatabolic process
p31
I2641
tp32
a(Vimmune system process
p33
I2056
tp34
a(Vcellular component assembly
p35
I1681
tp36
a(Vcytosol
p37
I1648
tp38
a(Vcell differentiation
p39
I1428
tp40
a(Vlipid metabolic process
p41
I1387
tp42
a(Venzyme binding
p43
I1269
tp44
a(Vvesicle-mediated transport
p45
I1201
tp46
a(Vnucleolus
p47
I1147
tp48
a(Vplasma membrane
p49
I1137
tp50
a(Vnucleus
p51
I1124
tp52
a(Vcarbohydrate metabolic process
p53
I1103
tp54
a(VDNA metabolic process
p55
I1090
tp56
a(Vlocomotion
p57
I997
tp58
a(Vchromosome organization
p59
I977
tp60
a(Vmacromolecular complex assembly
p61
I960
tp62
a(Vnucleobase-containing compound catabolic process
p63
I950
tp64
a(Vembryo development
p65
I917
tp66
a(Voxidoreductase activity
p67
I913
tp68
a(Vkinase activity
p69
I862
tp70
a(Vhomeostatic process
p71
I840
tp72
a(Vanatomical structure formation involved in morphogenesis
p73
I840
tp74
a(Vgrowth
p75
I822
tp76
a(Vprotein complex assembly
p77
I774
tp78
a(VDNA binding
p79
I770
tp80
a(Vcytoplasm
p81
I769
tp82
a(Vcellular amino acid metabolic process
p83
I747
tp84
a(VRNA binding
p85
I735
tp86
a(Vcytoskeletal protein binding
p87
I717
tp88
a(Vtransmembrane transporter activity
p89
I706
tp90
a(Vprotein maturation
p91
I704
tp92
a(Vcytoskeleton organization
p93
I701
tp94
a(Vmitochondrion
p95
I677
tp96
a(Vcell motility
p97
I634
tp98
a(Vtransmembrane transport
p99
I573
tp100
a(VGolgi apparatus
p101
I561
tp102
a(Vcytoskeleton
p103
I542
tp104
a(Vsignal transducer activity
p105
I531
tp106
a(Vcell death
p107
I522
tp108
a(Vlipid binding
p109
I511
tp110
a(Vcytoplasmic membrane-bounded vesicle
p111
I507
tp112
a(Vneurological system process
p113
I491
tp114
a(Vendoplasmic reticulum
p115
I487
tp116
a(Vpeptidase activity
p117
I477
tp118
a(VATPase activity
p119
I457
tp120
a(Vendosome
p121
I451
tp122
a(Vnucleoplasm
p123
I439
tp124
a(Vprotein targeting
p125
I431
tp126
a(Vmembrane organization
p127
I429
tp128
a(Venzyme regulator activity
p129
I426
tp130
a(Vmicrotubule organizing center
p131
I426
tp132
a(Vcell morphogenesis
p133
I406
tp134
a(Vstructural molecule activity
p135
I383
tp136
a(Vligase activity
p137
I379
tp138
a(Vcell-cell signaling
p139
I370
tp140
a(Vcell proliferation
p141
I366
tp142
a(Vcell adhesion
p143
I364
tp144
a(Vsulfur compound metabolic process
p145
I361
tp146
a(Vgeneration of precursor metabolites and energy
p147
I346
tp148
a(Vtranscription factor binding
p149
I341
tp150
a(Vcell cycle
p151
I329
tp152
a(Vreproduction
p153
I322
tp154
a(Vextracellular region
p155
I310
tp156
a(Vvacuole
p157
I295
tp158
a(Vsymbiosis, encompassing mutualism through parasitism
p159
I295
tp160
a(Vprotein binding transcription factor activity
p161
I293
tp162
a(Vcofactor metabolic process
p163
I289
tp164
a(VmRNA processing
p165
I283
tp166
a(Vtransferase activity, transferring acyl groups
p167
I275
tp168
a(Vphosphatase activity
p169
I268
tp170
a(Vnucleic acid binding transcription factor activity
p171
I264
tp172
a(Vplastid
p173
I263
tp174
a(Vcilium
p175
I245
tp176
a(Vlyase activity
p177
I229
tp178
a(Vprotein folding
p179
I217
tp180
a(Vcell division
p181
I198
tp182
a(Vtransferase activity, transferring glycosyl groups
p183
I194
tp184
a(Vextracellular space
p185
I187
tp186
a(Vhelicase activity
p187
I184
tp188
a(Vnucleocytoplasmic transport
p189
I182
tp190
a(Vstructural constituent of ribosome
p191
I181
tp192
a(Vcell wall
p193
I175
tp194
a(Vexternal encapsulating structure
p195
I175
tp196
a(Vchromosome
p197
I171
tp198
a(Vmethyltransferase activity
p199
I170
tp200
a(Visomerase activity
p201
I168
tp202
a(VGTPase activity
p203
I167
tp204
a(Vextracellular matrix organization
p205
I165
tp206
a(Vcytoskeleton-dependent intracellular transport
p207
I161
tp208
a(Vribonucleoprotein complex assembly
p209
I160
tp210
a(Vcell junction organization
p211
I155
tp212
a(Vhydrolase activity, acting on glycosyl bonds
p213
I153
tp214
a(Vmitochondrion organization
p215
I150
tp216
a(Vnuclease activity
p217
I147
tp218
a(Vaging
p219
I145
tp220
a(Vlysosome
p221
I141
tp222
a(Vsecondary metabolic process
p223
I137
tp224
a(Vdevelopmental maturation
p225
I136
tp226
a(Vcell wall organization or biogenesis
p227
I129
tp228
a(Vcirculatory system process
p229
I127
tp230
a(Vnuclear envelope
p231
I122
tp232
a(VtRNA metabolic process
p233
I121
tp234
a(Vchromosome segregation
p235
I121
tp236
a(Vmitosis
p237
I119
tp238
a(VmRNA binding
p239
I117
tp240
a(Vvacuolar transport
p241
I106
tp242
a(Vnucleotidyltransferase activity
p243
I102
tp244
a(Vhistone binding
p245
I96
tp246
a(Vtranslation factor activity, nucleic acid binding
p247
I93
tp248
a(Vprotein binding, bridging
p249
I86
tp250
a(Vperoxisome
p251
I85
tp252
a(Vhydrolase activity, acting on carbon-nitrogen (but not peptide) bonds
p253
I83
tp254
a(Vplasma membrane organization
p255
I81
tp256
a(Vtranslation
p257
I81
tp258
a(Vunfolded protein binding
p259
I77
tp260
a(Vlipid particle
p261
I75
tp262
a(Vribosome
p263
I69
tp264
a(Vsmall conjugating protein binding
p265
I67
tp266
a(Vribosome biogenesis
p267
I66
tp268
a(Vtransferase activity, transferring alkyl or aryl (other than methyl) groups
p269
I59
tp270
a(Vproteinaceous extracellular matrix
p271
I54
tp272
a(Vprotein transporter activity
p273
I52
tp274
a(Vnuclear chromosome
p275
I49
tp276
a(Vintracellular
p277
I46
tp278
a(VrRNA binding
p279
I40
tp280
a(Vpigmentation
p281
I32
tp282
a(Vthylakoid
p283
I20
tp284
a(Vnitrogen cycle metabolic process
p285
I19
tp286
a(Vphotosynthesis
p287
I9
tp288
a(VRNA modification guide activity
p289
I1
tp290
a(Vcell
p291
I1
tp292
a(Vcytoplasmic chromosome
p293
I1
tp294
aa(lp295
(g3
L6372L
tp296
a(g5
L4365L
tp297
a(g7
L2787L
tp298
a(g9
L21685L
tp299
a(g11
L26888L
tp300
a(g13
L18268L
tp301
a(g15
L5491L
tp302
a(g17
L5801L
tp303
a(g19
L5613L
tp304
a(g21
L21693L
tp305
a(g23
L7192L
tp306
a(g25
L22689L
tp307
a(g27
L21630L
tp308
a(g29
L5168L
tp309
a(g31
L7190L
tp310
a(g33
L1781L
tp311
a(g35
L13633L
tp312
a(g37
L4599L
tp313
a(g39
L13924L
tp314
a(g41
L5326L
tp315
a(g43
L12968L
tp316
a(g45
L10381L
tp317
a(g47
L4507L
tp318
a(g49
L4644L
tp319
a(g51
L4422L
tp320
a(g53
L4725L
tp321
a(g55
L4995L
tp322
a(g57
L20507L
tp323
a(g59
L28228L
tp324
a(g61
L31581L
tp325
a(g63
L18282L
tp326
a(g65
L7881L
tp327
a(g67
L10598L
tp328
a(g69
L10466L
tp329
a(g71
L21086L
tp330
a(g73
L26682L
tp331
a(g75
L20503L
tp332
a(g77
L5165L
tp333
a(g79
L2790L
tp334
a(g81
L4514L
tp335
a(g83
L5218L
tp336
a(g85
L2830L
tp337
a(g87
L6320L
tp338
a(g89
L13690L
tp339
a(g91
L28535L
tp340
a(g93
L5663L
tp341
a(g95
L4515L
tp342
a(g97
L26901L
tp343
a(g99
L29927L
tp344
a(g101
L4567L
tp345
a(g103
L4621L
tp346
a(g105
L3827L
tp347
a(g107
L6436L
tp348
a(g109
L6500L
tp349
a(g111
L10229L
tp350
a(g113
L27837L
tp351
a(g115
L4556L
tp352
a(g117
L6448L
tp353
a(g119
L10963L
tp354
a(g121
L4542L
tp355
a(g123
L4439L
tp356
a(g125
L5302L
tp357
a(g127
L30984L
tp358
a(g129
L14001L
tp359
a(g131
L4586L
tp360
a(g133
L594L
tp361
a(g135
L4118L
tp362
a(g137
L10950L
tp363
a(g139
L5896L
tp364
a(g141
L6494L
tp365
a(g143
L5791L
tp366
a(g145
L5471L
tp367
a(g147
L4838L
tp368
a(g149
L6357L
tp369
a(g151
L5695L
tp370
a(g153
L3L
tp371
a(g155
L4366L
tp372
a(g157
L4546L
tp373
a(g159
L22810L
tp374
a(g161
L677L
tp375
a(g163
L28144L
tp376
a(g165
L5112L
tp377
a(g167
L10829L
tp378
a(g169
L10870L
tp379
a(g171
L759L
tp380
a(g173
L7644L
tp381
a(g175
L4684L
tp382
a(g177
L10905L
tp383
a(g179
L5161L
tp384
a(g181
L28251L
tp385
a(g183
L10840L
tp386
a(g185
L4405L
tp387
a(g187
L3404L
tp388
a(g189
L5582L
tp389
a(g191
L2841L
tp390
a(g193
L4408L
tp391
a(g195
L14078L
tp392
a(g197
L4475L
tp393
a(g199
L6389L
tp394
a(g201
L10929L
tp395
a(g203
L2991L
tp396
a(g205
L13967L
tp397
a(g207
L14427L
tp398
a(g209
L13644L
tp399
a(g211
L17965L
tp400
a(g213
L10876L
tp401
a(g215
L5658L
tp402
a(g217
L3518L
tp403
a(g219
L6169L
tp404
a(g221
L4538L
tp405
a(g223
L12827L
tp406
a(g225
L13274L
tp407
a(g227
L33137L
tp408
a(g229
L2364L
tp409
a(g231
L4423L
tp410
a(g233
L5114L
tp411
a(g235
L5705L
tp412
a(g237
L5712L
tp413
a(g239
L2835L
tp414
a(g241
L5682L
tp415
a(g243
L10860L
tp416
a(g245
L20900L
tp417
a(g247
L6358L
tp418
a(g249
L14396L
tp419
a(g251
L4550L
tp420
a(g253
L10886L
tp421
a(g255
L5662L
tp422
a(g257
L5126L
tp423
a(g259
L28040L
tp424
a(g261
L4583L
tp425
a(g263
L4609L
tp426
a(g265
L15840L
tp427
a(g267
L20770L
tp428
a(g269
L10848L
tp429
a(g271
L4368L
tp430
a(g273
L6747L
tp431
a(g275
L201L
tp432
a(g277
L4411L
tp433
a(g279
L12918L
tp434
a(g281
L21900L
tp435
a(g283
L7683L
tp436
a(g285
L33512L
tp437
a(g287
L10192L
tp438
a(g289
L14288L
tp439
a(g291
L4412L
tp440
a(g293
L202L
tp441
aaI256765
a.