(lp1
(lp2
(Vbiological_process
p3
I84919
tp4
a(Vcellular_component
p5
I29386
tp6
a(Vmolecular_function
p7
I22358
tp8
a(Vorganelle
p9
I8466
tp10
a(Vanatomical structure development
p11
I5483
tp12
a(Vcellular nitrogen compound metabolic process
p13
I4808
tp14
a(Vtransport
p15
I4576
tp16
a(Vsignal transduction
p17
I3774
tp18
a(Vresponse to stress
p19
I3480
tp20
a(Vprotein complex
p21
I3404
tp22
a(Vbiosynthetic process
p23
I3227
tp24
a(Vsmall molecule metabolic process
p25
I3219
tp26
a(Vcellular protein modification process
p27
I2661
tp28
a(Vion binding
p29
I2647
tp30
a(Vcatabolic process
p31
I2462
tp32
a(Vimmune system process
p33
I1837
tp34
a(Vcytosol
p35
I1504
tp36
a(Vcellular component assembly
p37
I1500
tp38
a(Vlipid metabolic process
p39
I1201
tp40
a(Vcell differentiation
p41
I1181
tp42
a(VDNA metabolic process
p43
I1129
tp44
a(Venzyme binding
p45
I1129
tp46
a(Vnucleolus
p47
I1060
tp48
a(Vnucleus
p49
I1052
tp50
a(Vchromosome organization
p51
I1045
tp52
a(Vcarbohydrate metabolic process
p53
I1031
tp54
a(Vvesicle-mediated transport
p55
I1022
tp56
a(Vplasma membrane
p57
I998
tp58
a(Vlocomotion
p59
I930
tp60
a(Vkinase activity
p61
I919
tp62
a(Vnucleobase-containing compound catabolic process
p63
I829
tp64
a(Vembryo development
p65
I824
tp66
a(Vmacromolecular complex assembly
p67
I808
tp68
a(Voxidoreductase activity
p69
I769
tp70
a(Vcellular amino acid metabolic process
p71
I758
tp72
a(Vgrowth
p73
I731
tp74
a(Vanatomical structure formation involved in morphogenesis
p75
I726
tp76
a(Vhomeostatic process
p77
I725
tp78
a(Vcytoplasm
p79
I709
tp80
a(Vcytoskeleton organization
p81
I698
tp82
a(Vprotein maturation
p83
I682
tp84
a(Vtransmembrane transporter activity
p85
I671
tp86
a(VRNA binding
p87
I665
tp88
a(Vcytoskeletal protein binding
p89
I665
tp90
a(Vprotein complex assembly
p91
I661
tp92
a(VDNA binding
p93
I607
tp94
a(Vmitochondrion
p95
I584
tp96
a(Vcell motility
p97
I577
tp98
a(Vcytoskeleton
p99
I539
tp100
a(Vtransmembrane transport
p101
I538
tp102
a(VGolgi apparatus
p103
I529
tp104
a(Vcell death
p105
I495
tp106
a(Vcytoplasmic membrane-bounded vesicle
p107
I471
tp108
a(Vneurological system process
p109
I450
tp110
a(Vpeptidase activity
p111
I449
tp112
a(VATPase activity
p113
I445
tp114
a(Vmicrotubule organizing center
p115
I442
tp116
a(Vendoplasmic reticulum
p117
I440
tp118
a(Vendosome
p119
I434
tp120
a(Vlipid binding
p121
I433
tp122
a(Vligase activity
p123
I410
tp124
a(Vnucleoplasm
p125
I405
tp126
a(Vcell morphogenesis
p127
I392
tp128
a(Vsignal transducer activity
p129
I381
tp130
a(Vmembrane organization
p131
I372
tp132
a(Venzyme regulator activity
p133
I358
tp134
a(Vcell adhesion
p135
I355
tp136
a(Vcell cycle
p137
I334
tp138
a(Vcell proliferation
p139
I324
tp140
a(Vprotein targeting
p141
I323
tp142
a(Vsulfur compound metabolic process
p143
I321
tp144
a(Vreproduction
p145
I295
tp146
a(Vcell-cell signaling
p147
I291
tp148
a(Vvacuole
p149
I290
tp150
a(Vtranscription factor binding
p151
I283
tp152
a(Vcofactor metabolic process
p153
I282
tp154
a(VmRNA processing
p155
I280
tp156
a(Vstructural molecule activity
p157
I277
tp158
a(Vphosphatase activity
p159
I273
tp160
a(Vgeneration of precursor metabolites and energy
p161
I258
tp162
a(Vextracellular region
p163
I244
tp164
a(Vtransferase activity, transferring acyl groups
p165
I242
tp166
a(Vsymbiosis, encompassing mutualism through parasitism
p167
I239
tp168
a(Vcilium
p169
I239
tp170
a(Vprotein binding transcription factor activity
p171
I228
tp172
a(Vhelicase activity
p173
I217
tp174
a(Vplastid
p175
I211
tp176
a(Vcell division
p177
I208
tp178
a(Vlyase activity
p179
I194
tp180
a(Vtransferase activity, transferring glycosyl groups
p181
I189
tp182
a(Vmethyltransferase activity
p183
I183
tp184
a(Vchromosome
p185
I182
tp186
a(Vnucleocytoplasmic transport
p187
I178
tp188
a(Vprotein folding
p189
I171
tp190
a(Vnuclease activity
p191
I170
tp192
a(Vnucleic acid binding transcription factor activity
p193
I165
tp194
a(Vcell junction organization
p195
I158
tp196
a(Vcytoskeleton-dependent intracellular transport
p197
I149
tp198
a(Vcell wall
p199
I147
tp200
a(Vexternal encapsulating structure
p201
I147
tp202
a(VtRNA metabolic process
p203
I144
tp204
a(VGTPase activity
p205
I136
tp206
a(Vhydrolase activity, acting on glycosyl bonds
p207
I135
tp208
a(Vlysosome
p209
I132
tp210
a(Vaging
p211
I131
tp212
a(Vchromosome segregation
p213
I129
tp214
a(Visomerase activity
p215
I128
tp216
a(Vmitochondrion organization
p217
I124
tp218
a(Vsecondary metabolic process
p219
I122
tp220
a(Vnuclear envelope
p221
I119
tp222
a(Vribonucleoprotein complex assembly
p223
I117
tp224
a(Vcell wall organization or biogenesis
p225
I116
tp226
a(Vmitosis
p227
I116
tp228
a(Vdevelopmental maturation
p229
I112
tp230
a(Vstructural constituent of ribosome
p231
I109
tp232
a(Vextracellular space
p233
I104
tp234
a(Vextracellular matrix organization
p235
I103
tp236
a(Vcirculatory system process
p237
I99
tp238
a(VmRNA binding
p239
I98
tp240
a(Vhistone binding
p241
I97
tp242
a(Vvacuolar transport
p243
I94
tp244
a(Vhydrolase activity, acting on carbon-nitrogen (but not peptide) bonds
p245
I90
tp246
a(Vnucleotidyltransferase activity
p247
I89
tp248
a(Vplasma membrane organization
p249
I81
tp250
a(Vsmall conjugating protein binding
p251
I71
tp252
a(Vtranslation
p253
I71
tp254
a(Vperoxisome
p255
I66
tp256
a(Vtranslation factor activity, nucleic acid binding
p257
I64
tp258
a(Vprotein binding, bridging
p259
I62
tp260
a(Vunfolded protein binding
p261
I60
tp262
a(Vlipid particle
p263
I55
tp264
a(Vribosome biogenesis
p265
I54
tp266
a(Vribosome
p267
I51
tp268
a(Vnuclear chromosome
p269
I50
tp270
a(Vtransferase activity, transferring alkyl or aryl (other than methyl) groups
p271
I50
tp272
a(Vintracellular
p273
I47
tp274
a(Vprotein transporter activity
p275
I42
tp276
a(Vproteinaceous extracellular matrix
p277
I30
tp278
a(VrRNA binding
p279
I30
tp280
a(Vpigmentation
p281
I25
tp282
a(Vthylakoid
p283
I17
tp284
a(Vnitrogen cycle metabolic process
p285
I11
tp286
a(Vphotosynthesis
p287
I2
tp288
a(Vcell
p289
I2
tp290
a(VRNA modification guide activity
p291
I1
tp292
aa(lp293
(g3
L6372L
tp294
a(g5
L4365L
tp295
a(g7
L2787L
tp296
a(g9
L21685L
tp297
a(g11
L26888L
tp298
a(g13
L18268L
tp299
a(g15
L5491L
tp300
a(g17
L5801L
tp301
a(g19
L5613L
tp302
a(g21
L21693L
tp303
a(g23
L7192L
tp304
a(g25
L22689L
tp305
a(g27
L5168L
tp306
a(g29
L21630L
tp307
a(g31
L7190L
tp308
a(g33
L1781L
tp309
a(g35
L4599L
tp310
a(g37
L13633L
tp311
a(g39
L5326L
tp312
a(g41
L13924L
tp313
a(g43
L4995L
tp314
a(g45
L12968L
tp315
a(g47
L4507L
tp316
a(g49
L4422L
tp317
a(g51
L28228L
tp318
a(g53
L4725L
tp319
a(g55
L10381L
tp320
a(g57
L4644L
tp321
a(g59
L20507L
tp322
a(g61
L10466L
tp323
a(g63
L18282L
tp324
a(g65
L7881L
tp325
a(g67
L31581L
tp326
a(g69
L10598L
tp327
a(g71
L5218L
tp328
a(g73
L20503L
tp329
a(g75
L26682L
tp330
a(g77
L21086L
tp331
a(g79
L4514L
tp332
a(g81
L5663L
tp333
a(g83
L28535L
tp334
a(g85
L13690L
tp335
a(g87
L2830L
tp336
a(g89
L6320L
tp337
a(g91
L5165L
tp338
a(g93
L2790L
tp339
a(g95
L4515L
tp340
a(g97
L26901L
tp341
a(g99
L4621L
tp342
a(g101
L29927L
tp343
a(g103
L4567L
tp344
a(g105
L6436L
tp345
a(g107
L10229L
tp346
a(g109
L27837L
tp347
a(g111
L6448L
tp348
a(g113
L10963L
tp349
a(g115
L4586L
tp350
a(g117
L4556L
tp351
a(g119
L4542L
tp352
a(g121
L6500L
tp353
a(g123
L10950L
tp354
a(g125
L4439L
tp355
a(g127
L594L
tp356
a(g129
L3827L
tp357
a(g131
L30984L
tp358
a(g133
L14001L
tp359
a(g135
L5791L
tp360
a(g137
L5695L
tp361
a(g139
L6494L
tp362
a(g141
L5302L
tp363
a(g143
L5471L
tp364
a(g145
L3L
tp365
a(g147
L5896L
tp366
a(g149
L4546L
tp367
a(g151
L6357L
tp368
a(g153
L28144L
tp369
a(g155
L5112L
tp370
a(g157
L4118L
tp371
a(g159
L10870L
tp372
a(g161
L4838L
tp373
a(g163
L4366L
tp374
a(g165
L10829L
tp375
a(g167
L22810L
tp376
a(g169
L4684L
tp377
a(g171
L677L
tp378
a(g173
L3404L
tp379
a(g175
L7644L
tp380
a(g177
L28251L
tp381
a(g179
L10905L
tp382
a(g181
L10840L
tp383
a(g183
L6389L
tp384
a(g185
L4475L
tp385
a(g187
L5582L
tp386
a(g189
L5161L
tp387
a(g191
L3518L
tp388
a(g193
L759L
tp389
a(g195
L17965L
tp390
a(g197
L14427L
tp391
a(g199
L4408L
tp392
a(g201
L14078L
tp393
a(g203
L5114L
tp394
a(g205
L2991L
tp395
a(g207
L10876L
tp396
a(g209
L4538L
tp397
a(g211
L6169L
tp398
a(g213
L5705L
tp399
a(g215
L10929L
tp400
a(g217
L5658L
tp401
a(g219
L12827L
tp402
a(g221
L4423L
tp403
a(g223
L13644L
tp404
a(g225
L33137L
tp405
a(g227
L5712L
tp406
a(g229
L13274L
tp407
a(g231
L2841L
tp408
a(g233
L4405L
tp409
a(g235
L13967L
tp410
a(g237
L2364L
tp411
a(g239
L2835L
tp412
a(g241
L20900L
tp413
a(g243
L5682L
tp414
a(g245
L10886L
tp415
a(g247
L10860L
tp416
a(g249
L5662L
tp417
a(g251
L15840L
tp418
a(g253
L5126L
tp419
a(g255
L4550L
tp420
a(g257
L6358L
tp421
a(g259
L14396L
tp422
a(g261
L28040L
tp423
a(g263
L4583L
tp424
a(g265
L20770L
tp425
a(g267
L4609L
tp426
a(g269
L201L
tp427
a(g271
L10848L
tp428
a(g273
L4411L
tp429
a(g275
L6747L
tp430
a(g277
L4368L
tp431
a(g279
L12918L
tp432
a(g281
L21900L
tp433
a(g283
L7683L
tp434
a(g285
L33512L
tp435
a(g287
L10192L
tp436
a(g289
L4412L
tp437
a(g291
L14288L
tp438
aaI234713
a.