(lp1
(lp2
(Vbiological_process
p3
I201764
tp4
a(Vcellular_component
p5
I66702
tp6
a(Vmolecular_function
p7
I53172
tp8
a(Vorganelle
p9
I18136
tp10
a(Vanatomical structure development
p11
I14708
tp12
a(Vtransport
p13
I11035
tp14
a(Vsignal transduction
p15
I9415
tp16
a(Vcellular nitrogen compound metabolic process
p17
I8975
tp18
a(Vresponse to stress
p19
I7449
tp20
a(Vprotein complex
p21
I7384
tp22
a(Vion binding
p23
I6327
tp24
a(Vsmall molecule metabolic process
p25
I6269
tp26
a(Vbiosynthetic process
p27
I6011
tp28
a(Vcellular protein modification process
p29
I5473
tp30
a(Vcatabolic process
p31
I4516
tp32
a(Vimmune system process
p33
I4364
tp34
a(Vcell differentiation
p35
I3547
tp36
a(Vcellular component assembly
p37
I3246
tp38
a(Vcytosol
p39
I2969
tp40
a(Venzyme binding
p41
I2938
tp42
a(Vlipid metabolic process
p43
I2932
tp44
a(Vlocomotion
p45
I2465
tp46
a(Vvesicle-mediated transport
p47
I2375
tp48
a(Vplasma membrane
p49
I2342
tp50
a(Vnucleus
p51
I2318
tp52
a(Vnucleolus
p53
I2239
tp54
a(VDNA metabolic process
p55
I2130
tp56
a(Vanatomical structure formation involved in morphogenesis
p57
I2116
tp58
a(Vtransmembrane transporter activity
p59
I2084
tp60
a(Vhomeostatic process
p61
I1953
tp62
a(Vchromosome organization
p63
I1934
tp64
a(Vcytoplasm
p65
I1827
tp66
a(Vcarbohydrate metabolic process
p67
I1826
tp68
a(Vmacromolecular complex assembly
p69
I1740
tp70
a(Voxidoreductase activity
p71
I1735
tp72
a(VDNA binding
p73
I1729
tp74
a(Vkinase activity
p75
I1712
tp76
a(Vcell motility
p77
I1685
tp78
a(Vcytoskeletal protein binding
p79
I1643
tp80
a(Vtransmembrane transport
p81
I1614
tp82
a(Vneurological system process
p83
I1594
tp84
a(Vgrowth
p85
I1572
tp86
a(Vnucleobase-containing compound catabolic process
p87
I1570
tp88
a(Vprotein maturation
p89
I1556
tp90
a(Vembryo development
p91
I1541
tp92
a(Vprotein complex assembly
p93
I1437
tp94
a(Vcytoskeleton organization
p95
I1423
tp96
a(Vsignal transducer activity
p97
I1402
tp98
a(Vmitochondrion
p99
I1226
tp100
a(Vlipid binding
p101
I1203
tp102
a(Vcytoskeleton
p103
I1184
tp104
a(VRNA binding
p105
I1179
tp106
a(VGolgi apparatus
p107
I1166
tp108
a(Vcytoplasmic membrane-bounded vesicle
p109
I1135
tp110
a(Vcellular amino acid metabolic process
p111
I1134
tp112
a(Vcell adhesion
p113
I1044
tp114
a(Vendosome
p115
I1032
tp116
a(Vendoplasmic reticulum
p117
I1028
tp118
a(Vcell death
p119
I985
tp120
a(Vmembrane organization
p121
I972
tp122
a(Vcell-cell signaling
p123
I965
tp124
a(Venzyme regulator activity
p125
I961
tp126
a(Vligase activity
p127
I937
tp128
a(Vpeptidase activity
p129
I921
tp130
a(VATPase activity
p131
I914
tp132
a(Vcell proliferation
p133
I914
tp134
a(Vmicrotubule organizing center
p135
I860
tp136
a(Vcell morphogenesis
p137
I851
tp138
a(Vnucleoplasm
p139
I797
tp140
a(Vtranscription factor binding
p141
I787
tp142
a(Vprotein binding transcription factor activity
p143
I734
tp144
a(Vnucleic acid binding transcription factor activity
p145
I628
tp146
a(Vprotein targeting
p147
I627
tp148
a(Vextracellular region
p149
I609
tp150
a(Vsulfur compound metabolic process
p151
I603
tp152
a(Vphosphatase activity
p153
I575
tp154
a(Vstructural molecule activity
p155
I573
tp156
a(Vcell cycle
p157
I564
tp158
a(Vcilium
p159
I554
tp160
a(Vvacuole
p161
I553
tp162
a(Vtransferase activity, transferring acyl groups
p163
I530
tp164
a(Vsymbiosis, encompassing mutualism through parasitism
p165
I520
tp166
a(Vcofactor metabolic process
p167
I513
tp168
a(VmRNA processing
p169
I502
tp170
a(Vgeneration of precursor metabolites and energy
p171
I494
tp172
a(Vextracellular space
p173
I487
tp174
a(Vreproduction
p175
I448
tp176
a(Vextracellular matrix organization
p177
I439
tp178
a(Vtransferase activity, transferring glycosyl groups
p179
I437
tp180
a(Vhelicase activity
p181
I388
tp182
a(Vcell junction organization
p183
I373
tp184
a(Vcell division
p185
I372
tp186
a(Vnucleocytoplasmic transport
p187
I371
tp188
a(Vplastid
p189
I349
tp190
a(Vlyase activity
p191
I341
tp192
a(Vdevelopmental maturation
p193
I340
tp194
a(Vaging
p195
I340
tp196
a(Vmethyltransferase activity
p197
I331
tp198
a(Vcirculatory system process
p199
I326
tp200
a(Vcytoskeleton-dependent intracellular transport
p201
I325
tp202
a(Vnuclease activity
p203
I319
tp204
a(Vlysosome
p205
I312
tp206
a(Vmitochondrion organization
p207
I310
tp208
a(Vchromosome
p209
I285
tp210
a(Vprotein folding
p211
I280
tp212
a(Vhydrolase activity, acting on glycosyl bonds
p213
I262
tp214
a(VGTPase activity
p215
I253
tp216
a(Vribonucleoprotein complex assembly
p217
I242
tp218
a(Vnuclear envelope
p219
I241
tp220
a(Vhistone binding
p221
I231
tp222
a(Vsecondary metabolic process
p223
I221
tp224
a(Visomerase activity
p225
I219
tp226
a(Vplasma membrane organization
p227
I214
tp228
a(Vexternal encapsulating structure
p229
I204
tp230
a(Vmitosis
p231
I203
tp232
a(Vcell wall
p233
I200
tp234
a(Vchromosome segregation
p235
I199
tp236
a(Vvacuolar transport
p237
I197
tp238
a(Vproteinaceous extracellular matrix
p239
I196
tp240
a(Vcell wall organization or biogenesis
p241
I184
tp242
a(VmRNA binding
p243
I182
tp244
a(Vhydrolase activity, acting on carbon-nitrogen (but not peptide) bonds
p245
I181
tp246
a(Vprotein binding, bridging
p247
I172
tp248
a(VtRNA metabolic process
p249
I169
tp250
a(Vnucleotidyltransferase activity
p251
I166
tp252
a(Vperoxisome
p253
I155
tp254
a(Vsmall conjugating protein binding
p255
I136
tp256
a(Vstructural constituent of ribosome
p257
I134
tp258
a(Vtranslation
p259
I112
tp260
a(Vtranslation factor activity, nucleic acid binding
p261
I108
tp262
a(Vlipid particle
p263
I108
tp264
a(Vintracellular
p265
I105
tp266
a(Vprotein transporter activity
p267
I100
tp268
a(Vunfolded protein binding
p269
I99
tp270
a(Vribosome
p271
I98
tp272
a(Vtransferase activity, transferring alkyl or aryl (other than methyl) groups
p273
I85
tp274
a(Vnuclear chromosome
p275
I77
tp276
a(Vribosome biogenesis
p277
I75
tp278
a(Vpigmentation
p279
I66
tp280
a(VrRNA binding
p281
I46
tp282
a(Vthylakoid
p283
I31
tp284
a(Vnitrogen cycle metabolic process
p285
I27
tp286
a(Vphotosynthesis
p287
I11
tp288
a(Vcell
p289
I5
tp290
a(Vtransposition
p291
I5
tp292
a(VRNA modification guide activity
p293
I1
tp294
aa(lp295
(g3
L6372L
tp296
a(g5
L4365L
tp297
a(g7
L2787L
tp298
a(g9
L21685L
tp299
a(g11
L26888L
tp300
a(g13
L5491L
tp301
a(g15
L5801L
tp302
a(g17
L18268L
tp303
a(g19
L5613L
tp304
a(g21
L21693L
tp305
a(g23
L21630L
tp306
a(g25
L22689L
tp307
a(g27
L7192L
tp308
a(g29
L5168L
tp309
a(g31
L7190L
tp310
a(g33
L1781L
tp311
a(g35
L13924L
tp312
a(g37
L13633L
tp313
a(g39
L4599L
tp314
a(g41
L12968L
tp315
a(g43
L5326L
tp316
a(g45
L20507L
tp317
a(g47
L10381L
tp318
a(g49
L4644L
tp319
a(g51
L4422L
tp320
a(g53
L4507L
tp321
a(g55
L4995L
tp322
a(g57
L26682L
tp323
a(g59
L13690L
tp324
a(g61
L21086L
tp325
a(g63
L28228L
tp326
a(g65
L4514L
tp327
a(g67
L4725L
tp328
a(g69
L31581L
tp329
a(g71
L10598L
tp330
a(g73
L2790L
tp331
a(g75
L10466L
tp332
a(g77
L26901L
tp333
a(g79
L6320L
tp334
a(g81
L29927L
tp335
a(g83
L27837L
tp336
a(g85
L20503L
tp337
a(g87
L18282L
tp338
a(g89
L28535L
tp339
a(g91
L7881L
tp340
a(g93
L5165L
tp341
a(g95
L5663L
tp342
a(g97
L3827L
tp343
a(g99
L4515L
tp344
a(g101
L6500L
tp345
a(g103
L4621L
tp346
a(g105
L2830L
tp347
a(g107
L4567L
tp348
a(g109
L10229L
tp349
a(g111
L5218L
tp350
a(g113
L5791L
tp351
a(g115
L4542L
tp352
a(g117
L4556L
tp353
a(g119
L6436L
tp354
a(g121
L30984L
tp355
a(g123
L5896L
tp356
a(g125
L14001L
tp357
a(g127
L10950L
tp358
a(g129
L6448L
tp359
a(g131
L10963L
tp360
a(g133
L6494L
tp361
a(g135
L4586L
tp362
a(g137
L594L
tp363
a(g139
L4439L
tp364
a(g141
L6357L
tp365
a(g143
L677L
tp366
a(g145
L759L
tp367
a(g147
L5302L
tp368
a(g149
L4366L
tp369
a(g151
L5471L
tp370
a(g153
L10870L
tp371
a(g155
L4118L
tp372
a(g157
L5695L
tp373
a(g159
L4684L
tp374
a(g161
L4546L
tp375
a(g163
L10829L
tp376
a(g165
L22810L
tp377
a(g167
L28144L
tp378
a(g169
L5112L
tp379
a(g171
L4838L
tp380
a(g173
L4405L
tp381
a(g175
L3L
tp382
a(g177
L13967L
tp383
a(g179
L10840L
tp384
a(g181
L3404L
tp385
a(g183
L17965L
tp386
a(g185
L28251L
tp387
a(g187
L5582L
tp388
a(g189
L7644L
tp389
a(g191
L10905L
tp390
a(g193
L13274L
tp391
a(g195
L6169L
tp392
a(g197
L6389L
tp393
a(g199
L2364L
tp394
a(g201
L14427L
tp395
a(g203
L3518L
tp396
a(g205
L4538L
tp397
a(g207
L5658L
tp398
a(g209
L4475L
tp399
a(g211
L5161L
tp400
a(g213
L10876L
tp401
a(g215
L2991L
tp402
a(g217
L13644L
tp403
a(g219
L4423L
tp404
a(g221
L20900L
tp405
a(g223
L12827L
tp406
a(g225
L10929L
tp407
a(g227
L5662L
tp408
a(g229
L14078L
tp409
a(g231
L5712L
tp410
a(g233
L4408L
tp411
a(g235
L5705L
tp412
a(g237
L5682L
tp413
a(g239
L4368L
tp414
a(g241
L33137L
tp415
a(g243
L2835L
tp416
a(g245
L10886L
tp417
a(g247
L14396L
tp418
a(g249
L5114L
tp419
a(g251
L10860L
tp420
a(g253
L4550L
tp421
a(g255
L15840L
tp422
a(g257
L2841L
tp423
a(g259
L5126L
tp424
a(g261
L6358L
tp425
a(g263
L4583L
tp426
a(g265
L4411L
tp427
a(g267
L6747L
tp428
a(g269
L28040L
tp429
a(g271
L4609L
tp430
a(g273
L10848L
tp431
a(g275
L201L
tp432
a(g277
L20770L
tp433
a(g279
L21900L
tp434
a(g281
L12918L
tp435
a(g283
L7683L
tp436
a(g285
L33512L
tp437
a(g287
L10192L
tp438
a(g289
L4412L
tp439
a(g291
L15852L
tp440
a(g293
L14288L
tp441
aaI540561
a.