(lp1
(lp2
(Vbiological_process
p3
I146914
tp4
a(Vcellular_component
p5
I50969
tp6
a(Vmolecular_function
p7
I40617
tp8
a(Vorganelle
p9
I14085
tp10
a(Vanatomical structure development
p11
I10780
tp12
a(Vtransport
p13
I8076
tp14
a(Vcellular nitrogen compound metabolic process
p15
I7349
tp16
a(Vsignal transduction
p17
I6926
tp18
a(Vprotein complex
p19
I5377
tp20
a(Vresponse to stress
p21
I5339
tp22
a(Vsmall molecule metabolic process
p23
I4853
tp24
a(Vbiosynthetic process
p25
I4754
tp26
a(Vion binding
p27
I4463
tp28
a(Vcellular protein modification process
p29
I4108
tp30
a(Vcatabolic process
p31
I3400
tp32
a(Vimmune system process
p33
I3195
tp34
a(Vcell differentiation
p35
I2447
tp36
a(Vcellular component assembly
p37
I2307
tp38
a(Vcytosol
p39
I2281
tp40
a(Vlipid metabolic process
p41
I2088
tp42
a(Vnucleus
p43
I1972
tp44
a(Venzyme binding
p45
I1942
tp46
a(Vplasma membrane
p47
I1873
tp48
a(VDNA metabolic process
p49
I1805
tp50
a(Vnucleolus
p51
I1780
tp52
a(Vcytoplasm
p53
I1776
tp54
a(Vvesicle-mediated transport
p55
I1645
tp56
a(Vlocomotion
p57
I1558
tp58
a(Vanatomical structure formation involved in morphogenesis
p59
I1487
tp60
a(Vtransmembrane transporter activity
p61
I1465
tp62
a(Vchromosome organization
p63
I1421
tp64
a(Vcarbohydrate metabolic process
p65
I1408
tp66
a(Voxidoreductase activity
p67
I1403
tp68
a(VDNA binding
p69
I1395
tp70
a(Vkinase activity
p71
I1329
tp72
a(Vhomeostatic process
p73
I1307
tp74
a(Vmacromolecular complex assembly
p75
I1281
tp76
a(Vnucleobase-containing compound catabolic process
p77
I1251
tp78
a(Vtransmembrane transport
p79
I1177
tp80
a(Vsignal transducer activity
p81
I1169
tp82
a(Vembryo development
p83
I1165
tp84
a(Vcytoskeletal protein binding
p85
I1093
tp86
a(Vprotein maturation
p87
I1080
tp88
a(Vcell motility
p89
I1059
tp90
a(Vprotein complex assembly
p91
I1043
tp92
a(Vgrowth
p93
I1027
tp94
a(Vcytoskeleton organization
p95
I1024
tp96
a(VRNA binding
p97
I971
tp98
a(Vcellular amino acid metabolic process
p99
I951
tp100
a(Vmitochondrion
p101
I950
tp102
a(Vneurological system process
p103
I907
tp104
a(Vcytoskeleton
p105
I894
tp106
a(VGolgi apparatus
p107
I830
tp108
a(Vendoplasmic reticulum
p109
I775
tp110
a(Vcytoplasmic membrane-bounded vesicle
p111
I752
tp112
a(Vlipid binding
p113
I738
tp114
a(Vpeptidase activity
p115
I730
tp116
a(Vcell-cell signaling
p117
I714
tp118
a(Vendosome
p119
I710
tp120
a(Vcell death
p121
I693
tp122
a(Vmembrane organization
p123
I686
tp124
a(Vligase activity
p125
I680
tp126
a(Vnucleoplasm
p127
I652
tp128
a(Vmicrotubule organizing center
p129
I650
tp130
a(Venzyme regulator activity
p131
I632
tp132
a(VATPase activity
p133
I629
tp134
a(Vcell adhesion
p135
I617
tp136
a(Vcell proliferation
p137
I612
tp138
a(Vcell morphogenesis
p139
I565
tp140
a(Vtranscription factor binding
p141
I561
tp142
a(Vnucleic acid binding transcription factor activity
p143
I533
tp144
a(Vextracellular region
p145
I508
tp146
a(Vsulfur compound metabolic process
p147
I501
tp148
a(Vprotein binding transcription factor activity
p149
I480
tp150
a(Vstructural molecule activity
p151
I449
tp152
a(Vphosphatase activity
p153
I448
tp154
a(Vcell cycle
p155
I447
tp156
a(Vprotein targeting
p157
I431
tp158
a(Vcofactor metabolic process
p159
I424
tp160
a(Vtransferase activity, transferring acyl groups
p161
I416
tp162
a(Vcilium
p163
I400
tp164
a(VmRNA processing
p165
I397
tp166
a(Vtransferase activity, transferring glycosyl groups
p167
I379
tp168
a(Vgeneration of precursor metabolites and energy
p169
I371
tp170
a(Vsymbiosis, encompassing mutualism through parasitism
p171
I370
tp172
a(Vvacuole
p173
I351
tp174
a(Vreproduction
p175
I345
tp176
a(Vextracellular space
p177
I344
tp178
a(Vextracellular matrix organization
p179
I315
tp180
a(Vhelicase activity
p181
I314
tp182
a(Vlyase activity
p183
I295
tp184
a(Vnuclease activity
p185
I290
tp186
a(Vmethyltransferase activity
p187
I285
tp188
a(Vnucleocytoplasmic transport
p189
I265
tp190
a(Vcell division
p191
I254
tp192
a(Vcell junction organization
p193
I247
tp194
a(Vprotein folding
p195
I238
tp196
a(Vcirculatory system process
p197
I237
tp198
a(VGTPase activity
p199
I234
tp200
a(Vplastid
p201
I229
tp202
a(Vaging
p203
I228
tp204
a(Vcytoskeleton-dependent intracellular transport
p205
I223
tp206
a(Vmitochondrion organization
p207
I222
tp208
a(Vchromosome
p209
I217
tp210
a(Vhydrolase activity, acting on glycosyl bonds
p211
I199
tp212
a(Vlysosome
p213
I199
tp214
a(Vdevelopmental maturation
p215
I196
tp216
a(Vribonucleoprotein complex assembly
p217
I194
tp218
a(Vplasma membrane organization
p219
I194
tp220
a(Visomerase activity
p221
I185
tp222
a(Vchromosome segregation
p223
I163
tp224
a(Vhistone binding
p225
I163
tp226
a(Vnucleotidyltransferase activity
p227
I157
tp228
a(Vhydrolase activity, acting on carbon-nitrogen (but not peptide) bonds
p229
I157
tp230
a(Vnuclear envelope
p231
I152
tp232
a(VtRNA metabolic process
p233
I149
tp234
a(Vsecondary metabolic process
p235
I149
tp236
a(Vmitosis
p237
I148
tp238
a(VmRNA binding
p239
I139
tp240
a(Vstructural constituent of ribosome
p241
I135
tp242
a(Vexternal encapsulating structure
p243
I133
tp244
a(Vcell wall
p245
I131
tp246
a(Vproteinaceous extracellular matrix
p247
I131
tp248
a(Vvacuolar transport
p249
I124
tp250
a(Vintracellular
p251
I122
tp252
a(Vprotein binding, bridging
p253
I118
tp254
a(Vcell wall organization or biogenesis
p255
I116
tp256
a(Vperoxisome
p257
I111
tp258
a(Vtranslation
p259
I109
tp260
a(Vtranslation factor activity, nucleic acid binding
p261
I90
tp262
a(Vsmall conjugating protein binding
p263
I87
tp264
a(Vunfolded protein binding
p265
I81
tp266
a(Vtransferase activity, transferring alkyl or aryl (other than methyl) groups
p267
I79
tp268
a(Vlipid particle
p269
I77
tp270
a(Vprotein transporter activity
p271
I73
tp272
a(Vribosome
p273
I71
tp274
a(Vribosome biogenesis
p275
I65
tp276
a(Vnuclear chromosome
p277
I62
tp278
a(VrRNA binding
p279
I50
tp280
a(Vpigmentation
p281
I40
tp282
a(Vthylakoid
p283
I21
tp284
a(Vnitrogen cycle metabolic process
p285
I18
tp286
a(Vtransposition
p287
I11
tp288
a(Vcell
p289
I7
tp290
a(Vphotosynthesis
p291
I6
tp292
a(VRNA modification guide activity
p293
I1
tp294
aa(lp295
(g3
L6372L
tp296
a(g5
L4365L
tp297
a(g7
L2787L
tp298
a(g9
L21685L
tp299
a(g11
L26888L
tp300
a(g13
L5491L
tp301
a(g15
L18268L
tp302
a(g17
L5801L
tp303
a(g19
L21693L
tp304
a(g21
L5613L
tp305
a(g23
L22689L
tp306
a(g25
L7192L
tp307
a(g27
L21630L
tp308
a(g29
L5168L
tp309
a(g31
L7190L
tp310
a(g33
L1781L
tp311
a(g35
L13924L
tp312
a(g37
L13633L
tp313
a(g39
L4599L
tp314
a(g41
L5326L
tp315
a(g43
L4422L
tp316
a(g45
L12968L
tp317
a(g47
L4644L
tp318
a(g49
L4995L
tp319
a(g51
L4507L
tp320
a(g53
L4514L
tp321
a(g55
L10381L
tp322
a(g57
L20507L
tp323
a(g59
L26682L
tp324
a(g61
L13690L
tp325
a(g63
L28228L
tp326
a(g65
L4725L
tp327
a(g67
L10598L
tp328
a(g69
L2790L
tp329
a(g71
L10466L
tp330
a(g73
L21086L
tp331
a(g75
L31581L
tp332
a(g77
L18282L
tp333
a(g79
L29927L
tp334
a(g81
L3827L
tp335
a(g83
L7881L
tp336
a(g85
L6320L
tp337
a(g87
L28535L
tp338
a(g89
L26901L
tp339
a(g91
L5165L
tp340
a(g93
L20503L
tp341
a(g95
L5663L
tp342
a(g97
L2830L
tp343
a(g99
L5218L
tp344
a(g101
L4515L
tp345
a(g103
L27837L
tp346
a(g105
L4621L
tp347
a(g107
L4567L
tp348
a(g109
L4556L
tp349
a(g111
L10229L
tp350
a(g113
L6500L
tp351
a(g115
L6448L
tp352
a(g117
L5896L
tp353
a(g119
L4542L
tp354
a(g121
L6436L
tp355
a(g123
L30984L
tp356
a(g125
L10950L
tp357
a(g127
L4439L
tp358
a(g129
L4586L
tp359
a(g131
L14001L
tp360
a(g133
L10963L
tp361
a(g135
L5791L
tp362
a(g137
L6494L
tp363
a(g139
L594L
tp364
a(g141
L6357L
tp365
a(g143
L759L
tp366
a(g145
L4366L
tp367
a(g147
L5471L
tp368
a(g149
L677L
tp369
a(g151
L4118L
tp370
a(g153
L10870L
tp371
a(g155
L5695L
tp372
a(g157
L5302L
tp373
a(g159
L28144L
tp374
a(g161
L10829L
tp375
a(g163
L4684L
tp376
a(g165
L5112L
tp377
a(g167
L10840L
tp378
a(g169
L4838L
tp379
a(g171
L22810L
tp380
a(g173
L4546L
tp381
a(g175
L3L
tp382
a(g177
L4405L
tp383
a(g179
L13967L
tp384
a(g181
L3404L
tp385
a(g183
L10905L
tp386
a(g185
L3518L
tp387
a(g187
L6389L
tp388
a(g189
L5582L
tp389
a(g191
L28251L
tp390
a(g193
L17965L
tp391
a(g195
L5161L
tp392
a(g197
L2364L
tp393
a(g199
L2991L
tp394
a(g201
L7644L
tp395
a(g203
L6169L
tp396
a(g205
L14427L
tp397
a(g207
L5658L
tp398
a(g209
L4475L
tp399
a(g211
L10876L
tp400
a(g213
L4538L
tp401
a(g215
L13274L
tp402
a(g217
L13644L
tp403
a(g219
L5662L
tp404
a(g221
L10929L
tp405
a(g223
L5705L
tp406
a(g225
L20900L
tp407
a(g227
L10860L
tp408
a(g229
L10886L
tp409
a(g231
L4423L
tp410
a(g233
L5114L
tp411
a(g235
L12827L
tp412
a(g237
L5712L
tp413
a(g239
L2835L
tp414
a(g241
L2841L
tp415
a(g243
L14078L
tp416
a(g245
L4408L
tp417
a(g247
L4368L
tp418
a(g249
L5682L
tp419
a(g251
L4411L
tp420
a(g253
L14396L
tp421
a(g255
L33137L
tp422
a(g257
L4550L
tp423
a(g259
L5126L
tp424
a(g261
L6358L
tp425
a(g263
L15840L
tp426
a(g265
L28040L
tp427
a(g267
L10848L
tp428
a(g269
L4583L
tp429
a(g271
L6747L
tp430
a(g273
L4609L
tp431
a(g275
L20770L
tp432
a(g277
L201L
tp433
a(g279
L12918L
tp434
a(g281
L21900L
tp435
a(g283
L7683L
tp436
a(g285
L33512L
tp437
a(g287
L15852L
tp438
a(g289
L4412L
tp439
a(g291
L10192L
tp440
a(g293
L14288L
tp441
aaI401462
a.