(lp1
(lp2
(Vbiological_process
p3
I307143
tp4
a(Vcellular_component
p5
I105746
tp6
a(Vmolecular_function
p7
I84125
tp8
a(Vorganelle
p9
I29505
tp10
a(Vanatomical structure development
p11
I20131
tp12
a(Vtransport
p13
I18372
tp14
a(Vcellular nitrogen compound metabolic process
p15
I16036
tp16
a(Vsignal transduction
p17
I13482
tp18
a(Vresponse to stress
p19
I12714
tp20
a(Vbiosynthetic process
p21
I11836
tp22
a(Vprotein complex
p23
I11641
tp24
a(Vsmall molecule metabolic process
p25
I11218
tp26
a(Vion binding
p27
I10209
tp28
a(Vcellular protein modification process
p29
I9035
tp30
a(Vcatabolic process
p31
I8269
tp32
a(Vimmune system process
p33
I6005
tp34
a(Vcellular component assembly
p35
I5230
tp36
a(Vcytosol
p37
I5051
tp38
a(Vlipid metabolic process
p39
I5021
tp40
a(Vcell differentiation
p41
I4618
tp42
a(Venzyme binding
p43
I4378
tp44
a(Vplasma membrane
p45
I3988
tp46
a(VDNA metabolic process
p47
I3977
tp48
a(Vcarbohydrate metabolic process
p49
I3798
tp50
a(Vnucleus
p51
I3720
tp52
a(Vtransmembrane transporter activity
p53
I3704
tp54
a(Vvesicle-mediated transport
p55
I3588
tp56
a(Vnucleolus
p57
I3398
tp58
a(Vlocomotion
p59
I3254
tp60
a(Vchromosome organization
p61
I3226
tp62
a(Vkinase activity
p63
I3173
tp64
a(Voxidoreductase activity
p65
I3066
tp66
a(Vmacromolecular complex assembly
p67
I2925
tp68
a(Vanatomical structure formation involved in morphogenesis
p69
I2884
tp70
a(Vcytoplasm
p71
I2865
tp72
a(Vnucleobase-containing compound catabolic process
p73
I2826
tp74
a(Vhomeostatic process
p75
I2766
tp76
a(Vtransmembrane transport
p77
I2667
tp78
a(Vgrowth
p79
I2655
tp80
a(Vcytoskeletal protein binding
p81
I2570
tp82
a(Vembryo development
p83
I2503
tp84
a(VDNA binding
p85
I2401
tp86
a(Vprotein complex assembly
p87
I2391
tp88
a(Vcytoskeleton organization
p89
I2391
tp90
a(Vprotein maturation
p91
I2276
tp92
a(Vcell motility
p93
I2206
tp94
a(VRNA binding
p95
I2133
tp96
a(Vcellular amino acid metabolic process
p97
I2109
tp98
a(Vmitochondrion
p99
I2084
tp100
a(VATPase activity
p101
I1935
tp102
a(Vneurological system process
p103
I1895
tp104
a(VGolgi apparatus
p105
I1894
tp106
a(Vcytoskeleton
p107
I1872
tp108
a(Vendoplasmic reticulum
p109
I1595
tp110
a(Vcytoplasmic membrane-bounded vesicle
p111
I1588
tp112
a(Vlipid binding
p113
I1565
tp114
a(Vmicrotubule organizing center
p115
I1549
tp116
a(Vmembrane organization
p117
I1497
tp118
a(Vpeptidase activity
p119
I1488
tp120
a(Vligase activity
p121
I1474
tp122
a(Vsignal transducer activity
p123
I1472
tp124
a(Vendosome
p125
I1454
tp126
a(Vcell death
p127
I1421
tp128
a(Vcell morphogenesis
p129
I1347
tp130
a(Vcell-cell signaling
p131
I1327
tp132
a(Vcell adhesion
p133
I1293
tp134
a(Vnucleoplasm
p135
I1289
tp136
a(Venzyme regulator activity
p137
I1271
tp138
a(Vprotein targeting
p139
I1219
tp140
a(Vsulfur compound metabolic process
p141
I1164
tp142
a(Vcofactor metabolic process
p143
I1151
tp144
a(Vcell proliferation
p145
I1150
tp146
a(Vtranscription factor binding
p147
I1045
tp148
a(Vcell cycle
p149
I1022
tp150
a(Vextracellular region
p151
I1008
tp152
a(Vcilium
p153
I990
tp154
a(Vplastid
p155
I980
tp156
a(Vstructural molecule activity
p157
I971
tp158
a(Vtransferase activity, transferring acyl groups
p159
I951
tp160
a(Vvacuole
p161
I927
tp162
a(Vgeneration of precursor metabolites and energy
p163
I924
tp164
a(Vprotein binding transcription factor activity
p165
I904
tp166
a(VmRNA processing
p167
I897
tp168
a(Vphosphatase activity
p169
I863
tp170
a(Vhelicase activity
p171
I834
tp172
a(Vreproduction
p173
I815
tp174
a(Vsymbiosis, encompassing mutualism through parasitism
p175
I753
tp176
a(Vlyase activity
p177
I730
tp178
a(Vnucleic acid binding transcription factor activity
p179
I697
tp180
a(Vtransferase activity, transferring glycosyl groups
p181
I693
tp182
a(Vcell division
p183
I664
tp184
a(Vnucleocytoplasmic transport
p185
I624
tp186
a(Vmethyltransferase activity
p187
I608
tp188
a(Vprotein folding
p189
I586
tp190
a(Vcytoskeleton-dependent intracellular transport
p191
I562
tp192
a(Vnuclease activity
p193
I536
tp194
a(Vextracellular space
p195
I534
tp196
a(Vexternal encapsulating structure
p197
I532
tp198
a(Vcell wall
p199
I527
tp200
a(Vaging
p201
I522
tp202
a(Vchromosome
p203
I514
tp204
a(Vextracellular matrix organization
p205
I513
tp206
a(Visomerase activity
p207
I503
tp208
a(Vsecondary metabolic process
p209
I490
tp210
a(Vcell junction organization
p211
I486
tp212
a(Vdevelopmental maturation
p213
I480
tp214
a(Vhydrolase activity, acting on glycosyl bonds
p215
I470
tp216
a(Vcell wall organization or biogenesis
p217
I440
tp218
a(Vnuclear envelope
p219
I427
tp220
a(Vribonucleoprotein complex assembly
p221
I427
tp222
a(Vcirculatory system process
p223
I416
tp224
a(Vmitochondrion organization
p225
I410
tp226
a(Vlysosome
p227
I401
tp228
a(VGTPase activity
p229
I400
tp230
a(Vchromosome segregation
p231
I373
tp232
a(Vnucleotidyltransferase activity
p233
I367
tp234
a(VmRNA binding
p235
I363
tp236
a(Vmitosis
p237
I326
tp238
a(VtRNA metabolic process
p239
I320
tp240
a(Vplasma membrane organization
p241
I318
tp242
a(Vperoxisome
p243
I318
tp244
a(Vvacuolar transport
p245
I310
tp246
a(Vhydrolase activity, acting on carbon-nitrogen (but not peptide) bonds
p247
I295
tp248
a(Vprotein binding, bridging
p249
I294
tp250
a(Vhistone binding
p251
I293
tp252
a(Vstructural constituent of ribosome
p253
I248
tp254
a(Vsmall conjugating protein binding
p255
I237
tp256
a(Vtranslation
p257
I229
tp258
a(Vtranslation factor activity, nucleic acid binding
p259
I224
tp260
a(Vunfolded protein binding
p261
I203
tp262
a(Vproteinaceous extracellular matrix
p263
I189
tp264
a(Vlipid particle
p265
I182
tp266
a(Vribosome
p267
I175
tp268
a(Vprotein transporter activity
p269
I155
tp270
a(Vtransferase activity, transferring alkyl or aryl (other than methyl) groups
p271
I155
tp272
a(Vintracellular
p273
I154
tp274
a(Vribosome biogenesis
p275
I146
tp276
a(Vnuclear chromosome
p277
I132
tp278
a(Vthylakoid
p279
I130
tp280
a(Vpigmentation
p281
I112
tp282
a(VrRNA binding
p283
I78
tp284
a(Vnitrogen cycle metabolic process
p285
I48
tp286
a(Vphotosynthesis
p287
I38
tp288
a(Vtransposition
p289
I38
tp290
a(Vcytoplasmic chromosome
p291
I6
tp292
a(Vcell
p293
I5
tp294
a(VRNA modification guide activity
p295
I3
tp296
aa(lp297
(g3
L6372L
tp298
a(g5
L4365L
tp299
a(g7
L2787L
tp300
a(g9
L21685L
tp301
a(g11
L26888L
tp302
a(g13
L5491L
tp303
a(g15
L18268L
tp304
a(g17
L5801L
tp305
a(g19
L5613L
tp306
a(g21
L7192L
tp307
a(g23
L21693L
tp308
a(g25
L22689L
tp309
a(g27
L21630L
tp310
a(g29
L5168L
tp311
a(g31
L7190L
tp312
a(g33
L1781L
tp313
a(g35
L13633L
tp314
a(g37
L4599L
tp315
a(g39
L5326L
tp316
a(g41
L13924L
tp317
a(g43
L12968L
tp318
a(g45
L4644L
tp319
a(g47
L4995L
tp320
a(g49
L4725L
tp321
a(g51
L4422L
tp322
a(g53
L13690L
tp323
a(g55
L10381L
tp324
a(g57
L4507L
tp325
a(g59
L20507L
tp326
a(g61
L28228L
tp327
a(g63
L10466L
tp328
a(g65
L10598L
tp329
a(g67
L31581L
tp330
a(g69
L26682L
tp331
a(g71
L4514L
tp332
a(g73
L18282L
tp333
a(g75
L21086L
tp334
a(g77
L29927L
tp335
a(g79
L20503L
tp336
a(g81
L6320L
tp337
a(g83
L7881L
tp338
a(g85
L2790L
tp339
a(g87
L5165L
tp340
a(g89
L5663L
tp341
a(g91
L28535L
tp342
a(g93
L26901L
tp343
a(g95
L2830L
tp344
a(g97
L5218L
tp345
a(g99
L4515L
tp346
a(g101
L10963L
tp347
a(g103
L27837L
tp348
a(g105
L4567L
tp349
a(g107
L4621L
tp350
a(g109
L4556L
tp351
a(g111
L10229L
tp352
a(g113
L6500L
tp353
a(g115
L4586L
tp354
a(g117
L30984L
tp355
a(g119
L6448L
tp356
a(g121
L10950L
tp357
a(g123
L3827L
tp358
a(g125
L4542L
tp359
a(g127
L6436L
tp360
a(g129
L594L
tp361
a(g131
L5896L
tp362
a(g133
L5791L
tp363
a(g135
L4439L
tp364
a(g137
L14001L
tp365
a(g139
L5302L
tp366
a(g141
L5471L
tp367
a(g143
L28144L
tp368
a(g145
L6494L
tp369
a(g147
L6357L
tp370
a(g149
L5695L
tp371
a(g151
L4366L
tp372
a(g153
L4684L
tp373
a(g155
L7644L
tp374
a(g157
L4118L
tp375
a(g159
L10829L
tp376
a(g161
L4546L
tp377
a(g163
L4838L
tp378
a(g165
L677L
tp379
a(g167
L5112L
tp380
a(g169
L10870L
tp381
a(g171
L3404L
tp382
a(g173
L3L
tp383
a(g175
L22810L
tp384
a(g177
L10905L
tp385
a(g179
L759L
tp386
a(g181
L10840L
tp387
a(g183
L28251L
tp388
a(g185
L5582L
tp389
a(g187
L6389L
tp390
a(g189
L5161L
tp391
a(g191
L14427L
tp392
a(g193
L3518L
tp393
a(g195
L4405L
tp394
a(g197
L14078L
tp395
a(g199
L4408L
tp396
a(g201
L6169L
tp397
a(g203
L4475L
tp398
a(g205
L13967L
tp399
a(g207
L10929L
tp400
a(g209
L12827L
tp401
a(g211
L17965L
tp402
a(g213
L13274L
tp403
a(g215
L10876L
tp404
a(g217
L33137L
tp405
a(g219
L4423L
tp406
a(g221
L13644L
tp407
a(g223
L2364L
tp408
a(g225
L5658L
tp409
a(g227
L4538L
tp410
a(g229
L2991L
tp411
a(g231
L5705L
tp412
a(g233
L10860L
tp413
a(g235
L2835L
tp414
a(g237
L5712L
tp415
a(g239
L5114L
tp416
a(g241
L5662L
tp417
a(g243
L4550L
tp418
a(g245
L5682L
tp419
a(g247
L10886L
tp420
a(g249
L14396L
tp421
a(g251
L20900L
tp422
a(g253
L2841L
tp423
a(g255
L15840L
tp424
a(g257
L5126L
tp425
a(g259
L6358L
tp426
a(g261
L28040L
tp427
a(g263
L4368L
tp428
a(g265
L4583L
tp429
a(g267
L4609L
tp430
a(g269
L6747L
tp431
a(g271
L10848L
tp432
a(g273
L4411L
tp433
a(g275
L20770L
tp434
a(g277
L201L
tp435
a(g279
L7683L
tp436
a(g281
L21900L
tp437
a(g283
L12918L
tp438
a(g285
L33512L
tp439
a(g287
L10192L
tp440
a(g289
L15852L
tp441
a(g291
L202L
tp442
a(g293
L4412L
tp443
a(g295
L14288L
tp444
aaI849759
a.