(lp1
(lp2
(Vbiological_process
p3
I267652
tp4
a(Vcellular_component
p5
I87528
tp6
a(Vmolecular_function
p7
I71587
tp8
a(Vorganelle
p9
I23314
tp10
a(Vanatomical structure development
p11
I20659
tp12
a(Vtransport
p13
I14499
tp14
a(Vcellular nitrogen compound metabolic process
p15
I12351
tp16
a(Vsignal transduction
p17
I12041
tp18
a(Vresponse to stress
p19
I10240
tp20
a(Vprotein complex
p21
I9497
tp22
a(Vion binding
p23
I8789
tp24
a(Vsmall molecule metabolic process
p25
I8620
tp26
a(Vbiosynthetic process
p27
I8437
tp28
a(Vcellular protein modification process
p29
I6659
tp30
a(Vcatabolic process
p31
I6342
tp32
a(Vimmune system process
p33
I5407
tp34
a(Vcell differentiation
p35
I4860
tp36
a(Vcellular component assembly
p37
I4081
tp38
a(Vcytosol
p39
I4069
tp40
a(Vlipid metabolic process
p41
I3949
tp42
a(Venzyme binding
p43
I3711
tp44
a(Vplasma membrane
p45
I3225
tp46
a(Vlocomotion
p47
I3158
tp48
a(Vanatomical structure formation involved in morphogenesis
p49
I3150
tp50
a(VDNA metabolic process
p51
I3020
tp52
a(Vtransmembrane transporter activity
p53
I3007
tp54
a(Vnucleolus
p55
I2975
tp56
a(Vvesicle-mediated transport
p57
I2921
tp58
a(Vnucleus
p59
I2843
tp60
a(Vcarbohydrate metabolic process
p61
I2523
tp62
a(Voxidoreductase activity
p63
I2501
tp64
a(Vhomeostatic process
p65
I2488
tp66
a(VDNA binding
p67
I2454
tp68
a(Vmacromolecular complex assembly
p69
I2357
tp70
a(Vchromosome organization
p71
I2331
tp72
a(Vcytoplasm
p73
I2269
tp74
a(Vgrowth
p75
I2222
tp76
a(Vnucleobase-containing compound catabolic process
p77
I2221
tp78
a(Vembryo development
p79
I2219
tp80
a(Vtransmembrane transport
p81
I2215
tp82
a(Vcell motility
p83
I2189
tp84
a(Vsignal transducer activity
p85
I2119
tp86
a(Vprotein maturation
p87
I2108
tp88
a(Vneurological system process
p89
I1992
tp90
a(Vprotein complex assembly
p91
I1913
tp92
a(Vkinase activity
p93
I1856
tp94
a(Vcytoskeletal protein binding
p95
I1846
tp96
a(VRNA binding
p97
I1835
tp98
a(Vcytoskeleton organization
p99
I1749
tp100
a(VGolgi apparatus
p101
I1627
tp102
a(Vmitochondrion
p103
I1598
tp104
a(Vcellular amino acid metabolic process
p105
I1589
tp106
a(Vcytoplasmic membrane-bounded vesicle
p107
I1557
tp108
a(Vlipid binding
p109
I1550
tp110
a(Vpeptidase activity
p111
I1439
tp112
a(Vcell adhesion
p113
I1395
tp114
a(Vcytoskeleton
p115
I1352
tp116
a(Vendoplasmic reticulum
p117
I1330
tp118
a(Vcell death
p119
I1304
tp120
a(Vcell-cell signaling
p121
I1302
tp122
a(Vcell proliferation
p123
I1253
tp124
a(Vmembrane organization
p125
I1201
tp126
a(Venzyme regulator activity
p127
I1175
tp128
a(Vligase activity
p129
I1175
tp130
a(Vendosome
p131
I1171
tp132
a(Vnucleoplasm
p133
I1153
tp134
a(VATPase activity
p135
I1150
tp136
a(Vcell morphogenesis
p137
I1109
tp138
a(Vmicrotubule organizing center
p139
I1096
tp140
a(Vtranscription factor binding
p141
I1033
tp142
a(Vextracellular region
p143
I1033
tp144
a(Vstructural molecule activity
p145
I993
tp146
a(Vsulfur compound metabolic process
p147
I969
tp148
a(Vprotein targeting
p149
I962
tp150
a(Vprotein binding transcription factor activity
p151
I916
tp152
a(Vnucleic acid binding transcription factor activity
p153
I896
tp154
a(Vextracellular space
p155
I811
tp156
a(Vcofactor metabolic process
p157
I782
tp158
a(Vgeneration of precursor metabolites and energy
p159
I760
tp160
a(Vextracellular matrix organization
p161
I756
tp162
a(Vvacuole
p163
I726
tp164
a(Vcilium
p165
I724
tp166
a(Vtransferase activity, transferring acyl groups
p167
I699
tp168
a(VmRNA processing
p169
I696
tp170
a(Vsymbiosis, encompassing mutualism through parasitism
p171
I676
tp172
a(Vplastid
p173
I607
tp174
a(Vcell cycle
p175
I580
tp176
a(Vreproduction
p177
I579
tp178
a(Vphosphatase activity
p179
I561
tp180
a(Vaging
p181
I519
tp182
a(Vtransferase activity, transferring glycosyl groups
p183
I504
tp184
a(Vlyase activity
p185
I502
tp186
a(Vhelicase activity
p187
I497
tp188
a(Vcell division
p189
I485
tp190
a(Vnucleocytoplasmic transport
p191
I462
tp192
a(Vcirculatory system process
p193
I453
tp194
a(Vnuclease activity
p195
I441
tp196
a(Vexternal encapsulating structure
p197
I425
tp198
a(Vcell wall
p199
I418
tp200
a(Vprotein folding
p201
I416
tp202
a(Vdevelopmental maturation
p203
I409
tp204
a(Vcell junction organization
p205
I388
tp206
a(Vlysosome
p207
I386
tp208
a(Vmethyltransferase activity
p209
I384
tp210
a(Vsecondary metabolic process
p211
I367
tp212
a(Vribonucleoprotein complex assembly
p213
I363
tp214
a(Vchromosome
p215
I361
tp216
a(Vproteinaceous extracellular matrix
p217
I344
tp218
a(Vcytoskeleton-dependent intracellular transport
p219
I344
tp220
a(VGTPase activity
p221
I343
tp222
a(Vmitochondrion organization
p223
I337
tp224
a(Vstructural constituent of ribosome
p225
I331
tp226
a(Vnuclear envelope
p227
I313
tp228
a(Visomerase activity
p229
I308
tp230
a(Vhydrolase activity, acting on glycosyl bonds
p231
I300
tp232
a(VmRNA binding
p233
I282
tp234
a(Vcell wall organization or biogenesis
p235
I282
tp236
a(Vhistone binding
p237
I267
tp238
a(Vnucleotidyltransferase activity
p239
I263
tp240
a(Vplasma membrane organization
p241
I250
tp242
a(Vmitosis
p243
I244
tp244
a(Vhydrolase activity, acting on carbon-nitrogen (but not peptide) bonds
p245
I229
tp246
a(Vperoxisome
p247
I228
tp248
a(VtRNA metabolic process
p249
I223
tp250
a(Vchromosome segregation
p251
I222
tp252
a(Vtranslation factor activity, nucleic acid binding
p253
I221
tp254
a(Vvacuolar transport
p255
I216
tp256
a(Vprotein binding, bridging
p257
I215
tp258
a(Vsmall conjugating protein binding
p259
I203
tp260
a(Vunfolded protein binding
p261
I178
tp262
a(Vlipid particle
p263
I175
tp264
a(Vribosome
p265
I172
tp266
a(Vprotein transporter activity
p267
I161
tp268
a(Vtranslation
p269
I151
tp270
a(Vtransferase activity, transferring alkyl or aryl (other than methyl) groups
p271
I124
tp272
a(Vnuclear chromosome
p273
I123
tp274
a(Vribosome biogenesis
p275
I121
tp276
a(Vintracellular
p277
I98
tp278
a(Vpigmentation
p279
I97
tp280
a(VrRNA binding
p281
I82
tp282
a(Vthylakoid
p283
I80
tp284
a(Vnitrogen cycle metabolic process
p285
I36
tp286
a(Vphotosynthesis
p287
I31
tp288
a(Vtransposition
p289
I29
tp290
a(Vcell
p291
I10
tp292
a(VRNA modification guide activity
p293
I2
tp294
a(Vcytoplasmic chromosome
p295
I1
tp296
aa(lp297
(g3
L6372L
tp298
a(g5
L4365L
tp299
a(g7
L2787L
tp300
a(g9
L21685L
tp301
a(g11
L26888L
tp302
a(g13
L5491L
tp303
a(g15
L18268L
tp304
a(g17
L5801L
tp305
a(g19
L5613L
tp306
a(g21
L21693L
tp307
a(g23
L21630L
tp308
a(g25
L22689L
tp309
a(g27
L7192L
tp310
a(g29
L5168L
tp311
a(g31
L7190L
tp312
a(g33
L1781L
tp313
a(g35
L13924L
tp314
a(g37
L13633L
tp315
a(g39
L4599L
tp316
a(g41
L5326L
tp317
a(g43
L12968L
tp318
a(g45
L4644L
tp319
a(g47
L20507L
tp320
a(g49
L26682L
tp321
a(g51
L4995L
tp322
a(g53
L13690L
tp323
a(g55
L4507L
tp324
a(g57
L10381L
tp325
a(g59
L4422L
tp326
a(g61
L4725L
tp327
a(g63
L10598L
tp328
a(g65
L21086L
tp329
a(g67
L2790L
tp330
a(g69
L31581L
tp331
a(g71
L28228L
tp332
a(g73
L4514L
tp333
a(g75
L20503L
tp334
a(g77
L18282L
tp335
a(g79
L7881L
tp336
a(g81
L29927L
tp337
a(g83
L26901L
tp338
a(g85
L3827L
tp339
a(g87
L28535L
tp340
a(g89
L27837L
tp341
a(g91
L5165L
tp342
a(g93
L10466L
tp343
a(g95
L6320L
tp344
a(g97
L2830L
tp345
a(g99
L5663L
tp346
a(g101
L4567L
tp347
a(g103
L4515L
tp348
a(g105
L5218L
tp349
a(g107
L10229L
tp350
a(g109
L6500L
tp351
a(g111
L6448L
tp352
a(g113
L5791L
tp353
a(g115
L4621L
tp354
a(g117
L4556L
tp355
a(g119
L6436L
tp356
a(g121
L5896L
tp357
a(g123
L6494L
tp358
a(g125
L30984L
tp359
a(g127
L14001L
tp360
a(g129
L10950L
tp361
a(g131
L4542L
tp362
a(g133
L4439L
tp363
a(g135
L10963L
tp364
a(g137
L594L
tp365
a(g139
L4586L
tp366
a(g141
L6357L
tp367
a(g143
L4366L
tp368
a(g145
L4118L
tp369
a(g147
L5471L
tp370
a(g149
L5302L
tp371
a(g151
L677L
tp372
a(g153
L759L
tp373
a(g155
L4405L
tp374
a(g157
L28144L
tp375
a(g159
L4838L
tp376
a(g161
L13967L
tp377
a(g163
L4546L
tp378
a(g165
L4684L
tp379
a(g167
L10829L
tp380
a(g169
L5112L
tp381
a(g171
L22810L
tp382
a(g173
L7644L
tp383
a(g175
L5695L
tp384
a(g177
L3L
tp385
a(g179
L10870L
tp386
a(g181
L6169L
tp387
a(g183
L10840L
tp388
a(g185
L10905L
tp389
a(g187
L3404L
tp390
a(g189
L28251L
tp391
a(g191
L5582L
tp392
a(g193
L2364L
tp393
a(g195
L3518L
tp394
a(g197
L14078L
tp395
a(g199
L4408L
tp396
a(g201
L5161L
tp397
a(g203
L13274L
tp398
a(g205
L17965L
tp399
a(g207
L4538L
tp400
a(g209
L6389L
tp401
a(g211
L12827L
tp402
a(g213
L13644L
tp403
a(g215
L4475L
tp404
a(g217
L4368L
tp405
a(g219
L14427L
tp406
a(g221
L2991L
tp407
a(g223
L5658L
tp408
a(g225
L2841L
tp409
a(g227
L4423L
tp410
a(g229
L10929L
tp411
a(g231
L10876L
tp412
a(g233
L2835L
tp413
a(g235
L33137L
tp414
a(g237
L20900L
tp415
a(g239
L10860L
tp416
a(g241
L5662L
tp417
a(g243
L5712L
tp418
a(g245
L10886L
tp419
a(g247
L4550L
tp420
a(g249
L5114L
tp421
a(g251
L5705L
tp422
a(g253
L6358L
tp423
a(g255
L5682L
tp424
a(g257
L14396L
tp425
a(g259
L15840L
tp426
a(g261
L28040L
tp427
a(g263
L4583L
tp428
a(g265
L4609L
tp429
a(g267
L6747L
tp430
a(g269
L5126L
tp431
a(g271
L10848L
tp432
a(g273
L201L
tp433
a(g275
L20770L
tp434
a(g277
L4411L
tp435
a(g279
L21900L
tp436
a(g281
L12918L
tp437
a(g283
L7683L
tp438
a(g285
L33512L
tp439
a(g287
L10192L
tp440
a(g289
L15852L
tp441
a(g291
L4412L
tp442
a(g293
L14288L
tp443
a(g295
L202L
tp444
aaI719699
a.