(lp1
(lp2
(Vbiological_process
p3
I390372
tp4
a(Vcellular_component
p5
I129396
tp6
a(Vmolecular_function
p7
I106332
tp8
a(Vorganelle
p9
I34472
tp10
a(Vanatomical structure development
p11
I29793
tp12
a(Vtransport
p13
I21281
tp14
a(Vcellular nitrogen compound metabolic process
p15
I17694
tp16
a(Vsignal transduction
p17
I17685
tp18
a(Vresponse to stress
p19
I14646
tp20
a(Vprotein complex
p21
I14226
tp22
a(Vion binding
p23
I13268
tp24
a(Vsmall molecule metabolic process
p25
I12400
tp26
a(Vbiosynthetic process
p27
I11789
tp28
a(Vcellular protein modification process
p29
I9863
tp30
a(Vcatabolic process
p31
I8964
tp32
a(Vimmune system process
p33
I7691
tp34
a(Vcell differentiation
p35
I7095
tp36
a(Vcellular component assembly
p37
I6191
tp38
a(Vcytosol
p39
I6028
tp40
a(Vlipid metabolic process
p41
I5824
tp42
a(Venzyme binding
p43
I5631
tp44
a(Vlocomotion
p45
I4820
tp46
a(Vplasma membrane
p47
I4689
tp48
a(Vanatomical structure formation involved in morphogenesis
p49
I4651
tp50
a(Vnucleolus
p51
I4511
tp52
a(VDNA metabolic process
p53
I4418
tp54
a(Vvesicle-mediated transport
p55
I4407
tp56
a(Vtransmembrane transporter activity
p57
I4373
tp58
a(Vnucleus
p59
I4180
tp60
a(Vhomeostatic process
p61
I3778
tp62
a(VDNA binding
p63
I3662
tp64
a(Vchromosome organization
p65
I3648
tp66
a(Voxidoreductase activity
p67
I3601
tp68
a(Vcarbohydrate metabolic process
p69
I3476
tp70
a(Vmacromolecular complex assembly
p71
I3425
tp72
a(Vcytoplasm
p73
I3423
tp74
a(Vcell motility
p75
I3419
tp76
a(Vneurological system process
p77
I3257
tp78
a(Vtransmembrane transport
p79
I3236
tp80
a(Vsignal transducer activity
p81
I3155
tp82
a(Vnucleobase-containing compound catabolic process
p83
I3134
tp84
a(Vgrowth
p85
I3127
tp86
a(Vembryo development
p87
I3093
tp88
a(Vprotein maturation
p89
I3030
tp90
a(Vcytoskeletal protein binding
p91
I3020
tp92
a(Vkinase activity
p93
I2840
tp94
a(Vcytoskeleton organization
p95
I2809
tp96
a(Vprotein complex assembly
p97
I2773
tp98
a(VRNA binding
p99
I2550
tp100
a(Vlipid binding
p101
I2456
tp102
a(VGolgi apparatus
p103
I2429
tp104
a(Vcytoplasmic membrane-bounded vesicle
p105
I2367
tp106
a(Vmitochondrion
p107
I2315
tp108
a(Vcellular amino acid metabolic process
p109
I2249
tp110
a(Vcell adhesion
p111
I2131
tp112
a(Vcytoskeleton
p113
I2127
tp114
a(Vpeptidase activity
p115
I2018
tp116
a(Vendoplasmic reticulum
p117
I1999
tp118
a(Vcell-cell signaling
p119
I1952
tp120
a(Vcell death
p121
I1876
tp122
a(Vmembrane organization
p123
I1874
tp124
a(Vendosome
p125
I1843
tp126
a(Vcell proliferation
p127
I1819
tp128
a(Venzyme regulator activity
p129
I1810
tp130
a(Vligase activity
p131
I1744
tp132
a(VATPase activity
p133
I1730
tp134
a(Vmicrotubule organizing center
p135
I1695
tp136
a(Vnucleoplasm
p137
I1680
tp138
a(Vcell morphogenesis
p139
I1588
tp140
a(Vtranscription factor binding
p141
I1562
tp142
a(Vprotein binding transcription factor activity
p143
I1441
tp144
a(Vstructural molecule activity
p145
I1436
tp146
a(Vextracellular region
p147
I1391
tp148
a(Vsulfur compound metabolic process
p149
I1388
tp150
a(Vnucleic acid binding transcription factor activity
p151
I1370
tp152
a(Vprotein targeting
p153
I1321
tp154
a(Vextracellular space
p155
I1175
tp156
a(Vextracellular matrix organization
p157
I1134
tp158
a(Vcofactor metabolic process
p159
I1122
tp160
a(Vcilium
p161
I1085
tp162
a(Vtransferase activity, transferring acyl groups
p163
I1061
tp164
a(VmRNA processing
p165
I1033
tp166
a(Vvacuole
p167
I1025
tp168
a(Vgeneration of precursor metabolites and energy
p169
I1012
tp170
a(Vsymbiosis, encompassing mutualism through parasitism
p171
I944
tp172
a(Vphosphatase activity
p173
I867
tp174
a(Vcell cycle
p175
I842
tp176
a(Vaging
p177
I811
tp178
a(Vplastid
p179
I780
tp180
a(Vreproduction
p181
I771
tp182
a(Vtransferase activity, transferring glycosyl groups
p183
I765
tp184
a(Vhelicase activity
p185
I722
tp186
a(Vcell division
p187
I718
tp188
a(Vcirculatory system process
p189
I713
tp190
a(Vnucleocytoplasmic transport
p191
I705
tp192
a(Vlyase activity
p193
I679
tp194
a(Vcell junction organization
p195
I663
tp196
a(Vnuclease activity
p197
I655
tp198
a(Vdevelopmental maturation
p199
I612
tp200
a(Vmethyltransferase activity
p201
I587
tp202
a(Vlysosome
p203
I573
tp204
a(Vcytoskeleton-dependent intracellular transport
p205
I552
tp206
a(Vexternal encapsulating structure
p207
I541
tp208
a(Vcell wall
p209
I530
tp210
a(Vchromosome
p211
I526
tp212
a(Vprotein folding
p213
I526
tp214
a(Vribonucleoprotein complex assembly
p215
I515
tp216
a(Vmitochondrion organization
p217
I515
tp218
a(Vproteinaceous extracellular matrix
p219
I506
tp220
a(Vsecondary metabolic process
p221
I498
tp222
a(Vnuclear envelope
p223
I480
tp224
a(VGTPase activity
p225
I463
tp226
a(Vhistone binding
p227
I445
tp228
a(Visomerase activity
p229
I421
tp230
a(VmRNA binding
p231
I401
tp232
a(Vhydrolase activity, acting on glycosyl bonds
p233
I398
tp234
a(Vstructural constituent of ribosome
p235
I395
tp236
a(Vplasma membrane organization
p237
I383
tp238
a(Vcell wall organization or biogenesis
p239
I380
tp240
a(Vnucleotidyltransferase activity
p241
I370
tp242
a(Vmitosis
p243
I364
tp244
a(Vhydrolase activity, acting on carbon-nitrogen (but not peptide) bonds
p245
I353
tp246
a(Vvacuolar transport
p247
I336
tp248
a(Vchromosome segregation
p249
I333
tp250
a(VtRNA metabolic process
p251
I331
tp252
a(Vperoxisome
p253
I324
tp254
a(Vprotein binding, bridging
p255
I321
tp256
a(Vsmall conjugating protein binding
p257
I295
tp258
a(Vtranslation factor activity, nucleic acid binding
p259
I290
tp260
a(Vprotein transporter activity
p261
I238
tp262
a(Vlipid particle
p263
I236
tp264
a(Vunfolded protein binding
p265
I229
tp266
a(Vribosome
p267
I219
tp268
a(Vtranslation
p269
I204
tp270
a(Vnuclear chromosome
p271
I173
tp272
a(Vtransferase activity, transferring alkyl or aryl (other than methyl) groups
p273
I166
tp274
a(Vribosome biogenesis
p275
I160
tp276
a(Vintracellular
p277
I140
tp278
a(Vpigmentation
p279
I132
tp280
a(VrRNA binding
p281
I110
tp282
a(Vthylakoid
p283
I95
tp284
a(Vnitrogen cycle metabolic process
p285
I44
tp286
a(Vtransposition
p287
I37
tp288
a(Vphotosynthesis
p289
I29
tp290
a(Vcell
p291
I15
tp292
a(VRNA modification guide activity
p293
I2
tp294
aa(lp295
(g3
L6372L
tp296
a(g5
L4365L
tp297
a(g7
L2787L
tp298
a(g9
L21685L
tp299
a(g11
L26888L
tp300
a(g13
L5491L
tp301
a(g15
L18268L
tp302
a(g17
L5801L
tp303
a(g19
L5613L
tp304
a(g21
L21693L
tp305
a(g23
L21630L
tp306
a(g25
L22689L
tp307
a(g27
L7192L
tp308
a(g29
L5168L
tp309
a(g31
L7190L
tp310
a(g33
L1781L
tp311
a(g35
L13924L
tp312
a(g37
L13633L
tp313
a(g39
L4599L
tp314
a(g41
L5326L
tp315
a(g43
L12968L
tp316
a(g45
L20507L
tp317
a(g47
L4644L
tp318
a(g49
L26682L
tp319
a(g51
L4507L
tp320
a(g53
L4995L
tp321
a(g55
L10381L
tp322
a(g57
L13690L
tp323
a(g59
L4422L
tp324
a(g61
L21086L
tp325
a(g63
L2790L
tp326
a(g65
L28228L
tp327
a(g67
L10598L
tp328
a(g69
L4725L
tp329
a(g71
L31581L
tp330
a(g73
L4514L
tp331
a(g75
L26901L
tp332
a(g77
L27837L
tp333
a(g79
L29927L
tp334
a(g81
L3827L
tp335
a(g83
L18282L
tp336
a(g85
L20503L
tp337
a(g87
L7881L
tp338
a(g89
L28535L
tp339
a(g91
L6320L
tp340
a(g93
L10466L
tp341
a(g95
L5663L
tp342
a(g97
L5165L
tp343
a(g99
L2830L
tp344
a(g101
L6500L
tp345
a(g103
L4567L
tp346
a(g105
L10229L
tp347
a(g107
L4515L
tp348
a(g109
L5218L
tp349
a(g111
L5791L
tp350
a(g113
L4621L
tp351
a(g115
L6448L
tp352
a(g117
L4556L
tp353
a(g119
L5896L
tp354
a(g121
L6436L
tp355
a(g123
L30984L
tp356
a(g125
L4542L
tp357
a(g127
L6494L
tp358
a(g129
L14001L
tp359
a(g131
L10950L
tp360
a(g133
L10963L
tp361
a(g135
L4586L
tp362
a(g137
L4439L
tp363
a(g139
L594L
tp364
a(g141
L6357L
tp365
a(g143
L677L
tp366
a(g145
L4118L
tp367
a(g147
L4366L
tp368
a(g149
L5471L
tp369
a(g151
L759L
tp370
a(g153
L5302L
tp371
a(g155
L4405L
tp372
a(g157
L13967L
tp373
a(g159
L28144L
tp374
a(g161
L4684L
tp375
a(g163
L10829L
tp376
a(g165
L5112L
tp377
a(g167
L4546L
tp378
a(g169
L4838L
tp379
a(g171
L22810L
tp380
a(g173
L10870L
tp381
a(g175
L5695L
tp382
a(g177
L6169L
tp383
a(g179
L7644L
tp384
a(g181
L3L
tp385
a(g183
L10840L
tp386
a(g185
L3404L
tp387
a(g187
L28251L
tp388
a(g189
L2364L
tp389
a(g191
L5582L
tp390
a(g193
L10905L
tp391
a(g195
L17965L
tp392
a(g197
L3518L
tp393
a(g199
L13274L
tp394
a(g201
L6389L
tp395
a(g203
L4538L
tp396
a(g205
L14427L
tp397
a(g207
L14078L
tp398
a(g209
L4408L
tp399
a(g211
L4475L
tp400
a(g213
L5161L
tp401
a(g215
L13644L
tp402
a(g217
L5658L
tp403
a(g219
L4368L
tp404
a(g221
L12827L
tp405
a(g223
L4423L
tp406
a(g225
L2991L
tp407
a(g227
L20900L
tp408
a(g229
L10929L
tp409
a(g231
L2835L
tp410
a(g233
L10876L
tp411
a(g235
L2841L
tp412
a(g237
L5662L
tp413
a(g239
L33137L
tp414
a(g241
L10860L
tp415
a(g243
L5712L
tp416
a(g245
L10886L
tp417
a(g247
L5682L
tp418
a(g249
L5705L
tp419
a(g251
L5114L
tp420
a(g253
L4550L
tp421
a(g255
L14396L
tp422
a(g257
L15840L
tp423
a(g259
L6358L
tp424
a(g261
L6747L
tp425
a(g263
L4583L
tp426
a(g265
L28040L
tp427
a(g267
L4609L
tp428
a(g269
L5126L
tp429
a(g271
L201L
tp430
a(g273
L10848L
tp431
a(g275
L20770L
tp432
a(g277
L4411L
tp433
a(g279
L21900L
tp434
a(g281
L12918L
tp435
a(g283
L7683L
tp436
a(g285
L33512L
tp437
a(g287
L15852L
tp438
a(g289
L10192L
tp439
a(g291
L4412L
tp440
a(g293
L14288L
tp441
aaI1055832
a.