(lp1
(lp2
(Vbiological_process
p3
I408211
tp4
a(Vcellular_component
p5
I133275
tp6
a(Vmolecular_function
p7
I109939
tp8
a(Vorganelle
p9
I35352
tp10
a(Vanatomical structure development
p11
I31624
tp12
a(Vtransport
p13
I22168
tp14
a(Vsignal transduction
p15
I18540
tp16
a(Vcellular nitrogen compound metabolic process
p17
I17792
tp18
a(Vresponse to stress
p19
I15087
tp20
a(Vprotein complex
p21
I14535
tp22
a(Vion binding
p23
I13486
tp24
a(Vsmall molecule metabolic process
p25
I12329
tp26
a(Vbiosynthetic process
p27
I11513
tp28
a(Vcellular protein modification process
p29
I10315
tp30
a(Vcatabolic process
p31
I8965
tp32
a(Vimmune system process
p33
I8196
tp34
a(Vcell differentiation
p35
I7596
tp36
a(Vcellular component assembly
p37
I6325
tp38
a(Vcytosol
p39
I5998
tp40
a(Venzyme binding
p41
I5940
tp42
a(Vlipid metabolic process
p43
I5909
tp44
a(Vlocomotion
p45
I5179
tp46
a(Vanatomical structure formation involved in morphogenesis
p47
I4961
tp48
a(Vtransmembrane transporter activity
p49
I4731
tp50
a(Vplasma membrane
p51
I4728
tp52
a(VDNA metabolic process
p53
I4589
tp54
a(Vvesicle-mediated transport
p55
I4515
tp56
a(Vnucleolus
p57
I4501
tp58
a(Vnucleus
p59
I4381
tp60
a(Vhomeostatic process
p61
I3920
tp62
a(VDNA binding
p63
I3787
tp64
a(Vchromosome organization
p65
I3729
tp66
a(Vcytoplasm
p67
I3681
tp68
a(Vcell motility
p69
I3675
tp70
a(Voxidoreductase activity
p71
I3544
tp72
a(Vmacromolecular complex assembly
p73
I3483
tp74
a(Vtransmembrane transport
p75
I3470
tp76
a(Vcarbohydrate metabolic process
p77
I3458
tp78
a(Vneurological system process
p79
I3363
tp80
a(Vsignal transducer activity
p81
I3275
tp82
a(Vgrowth
p83
I3234
tp84
a(Vnucleobase-containing compound catabolic process
p85
I3154
tp86
a(Vprotein maturation
p87
I3110
tp88
a(Vembryo development
p89
I3099
tp90
a(Vcytoskeletal protein binding
p91
I3054
tp92
a(Vkinase activity
p93
I3044
tp94
a(Vprotein complex assembly
p95
I2862
tp96
a(Vcytoskeleton organization
p97
I2801
tp98
a(VGolgi apparatus
p99
I2496
tp100
a(Vlipid binding
p101
I2481
tp102
a(VRNA binding
p103
I2431
tp104
a(Vcell adhesion
p105
I2420
tp106
a(Vcytoplasmic membrane-bounded vesicle
p107
I2405
tp108
a(Vmitochondrion
p109
I2326
tp110
a(Vcytoskeleton
p111
I2182
tp112
a(Vcellular amino acid metabolic process
p113
I2155
tp114
a(Vcell-cell signaling
p115
I2061
tp116
a(Vpeptidase activity
p117
I2060
tp118
a(Vendoplasmic reticulum
p119
I2013
tp120
a(Vmembrane organization
p121
I1942
tp122
a(Vcell proliferation
p123
I1939
tp124
a(Vendosome
p125
I1937
tp126
a(Vligase activity
p127
I1914
tp128
a(Vcell death
p129
I1895
tp130
a(VATPase activity
p131
I1841
tp132
a(Venzyme regulator activity
p133
I1824
tp134
a(Vcell morphogenesis
p135
I1764
tp136
a(Vmicrotubule organizing center
p137
I1702
tp138
a(Vnucleoplasm
p139
I1690
tp140
a(Vtranscription factor binding
p141
I1617
tp142
a(Vprotein binding transcription factor activity
p143
I1488
tp144
a(Vextracellular region
p145
I1437
tp146
a(Vnucleic acid binding transcription factor activity
p147
I1408
tp148
a(Vstructural molecule activity
p149
I1349
tp150
a(Vsulfur compound metabolic process
p151
I1281
tp152
a(Vprotein targeting
p153
I1240
tp154
a(Vextracellular space
p155
I1192
tp156
a(Vcilium
p157
I1151
tp158
a(Vextracellular matrix organization
p159
I1134
tp160
a(Vcofactor metabolic process
p161
I1117
tp162
a(Vvacuole
p163
I1024
tp164
a(Vtransferase activity, transferring acyl groups
p165
I1021
tp166
a(VmRNA processing
p167
I998
tp168
a(Vsymbiosis, encompassing mutualism through parasitism
p169
I974
tp170
a(Vgeneration of precursor metabolites and energy
p171
I960
tp172
a(Vphosphatase activity
p173
I922
tp174
a(Vcell cycle
p175
I885
tp176
a(Vaging
p177
I824
tp178
a(Vtransferase activity, transferring glycosyl groups
p179
I798
tp180
a(Vreproduction
p181
I795
tp182
a(Vhelicase activity
p183
I785
tp184
a(Vcell division
p185
I741
tp186
a(Vnucleocytoplasmic transport
p187
I724
tp188
a(Vcell junction organization
p189
I713
tp190
a(Vplastid
p191
I707
tp192
a(Vcirculatory system process
p193
I703
tp194
a(Vnuclease activity
p195
I696
tp196
a(Vlyase activity
p197
I665
tp198
a(Vdevelopmental maturation
p199
I648
tp200
a(Vmethyltransferase activity
p201
I586
tp202
a(Vlysosome
p203
I578
tp204
a(Vcytoskeleton-dependent intracellular transport
p205
I575
tp206
a(Vproteinaceous extracellular matrix
p207
I538
tp208
a(Vmitochondrion organization
p209
I533
tp210
a(Vchromosome
p211
I524
tp212
a(Vprotein folding
p213
I520
tp214
a(Vsecondary metabolic process
p215
I492
tp216
a(Vribonucleoprotein complex assembly
p217
I486
tp218
a(Vexternal encapsulating structure
p219
I480
tp220
a(Vnuclear envelope
p221
I479
tp222
a(Vcell wall
p223
I468
tp224
a(Vhistone binding
p225
I461
tp226
a(VGTPase activity
p227
I445
tp228
a(Vplasma membrane organization
p229
I425
tp230
a(Visomerase activity
p231
I397
tp232
a(Vhydrolase activity, acting on glycosyl bonds
p233
I393
tp234
a(Vnucleotidyltransferase activity
p235
I383
tp236
a(VmRNA binding
p237
I367
tp238
a(Vmitosis
p239
I366
tp240
a(Vcell wall organization or biogenesis
p241
I359
tp242
a(Vhydrolase activity, acting on carbon-nitrogen (but not peptide) bonds
p243
I354
tp244
a(Vvacuolar transport
p245
I335
tp246
a(Vprotein binding, bridging
p247
I334
tp248
a(Vchromosome segregation
p249
I327
tp250
a(Vsmall conjugating protein binding
p251
I312
tp252
a(Vperoxisome
p253
I304
tp254
a(Vstructural constituent of ribosome
p255
I302
tp256
a(VtRNA metabolic process
p257
I300
tp258
a(Vprotein transporter activity
p259
I266
tp260
a(Vtranslation factor activity, nucleic acid binding
p261
I249
tp262
a(Vlipid particle
p263
I231
tp264
a(Vunfolded protein binding
p265
I217
tp266
a(Vribosome
p267
I200
tp268
a(Vtranslation
p269
I189
tp270
a(Vtransferase activity, transferring alkyl or aryl (other than methyl) groups
p271
I164
tp272
a(Vnuclear chromosome
p273
I160
tp274
a(Vintracellular
p275
I147
tp276
a(Vribosome biogenesis
p277
I147
tp278
a(Vpigmentation
p279
I144
tp280
a(Vthylakoid
p281
I91
tp282
a(VrRNA binding
p283
I90
tp284
a(Vnitrogen cycle metabolic process
p285
I47
tp286
a(Vtransposition
p287
I33
tp288
a(Vphotosynthesis
p289
I29
tp290
a(Vcell
p291
I22
tp292
a(VRNA modification guide activity
p293
I2
tp294
aa(lp295
(g3
L6372L
tp296
a(g5
L4365L
tp297
a(g7
L2787L
tp298
a(g9
L21685L
tp299
a(g11
L26888L
tp300
a(g13
L5491L
tp301
a(g15
L5801L
tp302
a(g17
L18268L
tp303
a(g19
L5613L
tp304
a(g21
L21693L
tp305
a(g23
L21630L
tp306
a(g25
L22689L
tp307
a(g27
L7192L
tp308
a(g29
L5168L
tp309
a(g31
L7190L
tp310
a(g33
L1781L
tp311
a(g35
L13924L
tp312
a(g37
L13633L
tp313
a(g39
L4599L
tp314
a(g41
L12968L
tp315
a(g43
L5326L
tp316
a(g45
L20507L
tp317
a(g47
L26682L
tp318
a(g49
L13690L
tp319
a(g51
L4644L
tp320
a(g53
L4995L
tp321
a(g55
L10381L
tp322
a(g57
L4507L
tp323
a(g59
L4422L
tp324
a(g61
L21086L
tp325
a(g63
L2790L
tp326
a(g65
L28228L
tp327
a(g67
L4514L
tp328
a(g69
L26901L
tp329
a(g71
L10598L
tp330
a(g73
L31581L
tp331
a(g75
L29927L
tp332
a(g77
L4725L
tp333
a(g79
L27837L
tp334
a(g81
L3827L
tp335
a(g83
L20503L
tp336
a(g85
L18282L
tp337
a(g87
L28535L
tp338
a(g89
L7881L
tp339
a(g91
L6320L
tp340
a(g93
L10466L
tp341
a(g95
L5165L
tp342
a(g97
L5663L
tp343
a(g99
L4567L
tp344
a(g101
L6500L
tp345
a(g103
L2830L
tp346
a(g105
L5791L
tp347
a(g107
L10229L
tp348
a(g109
L4515L
tp349
a(g111
L4621L
tp350
a(g113
L5218L
tp351
a(g115
L5896L
tp352
a(g117
L6448L
tp353
a(g119
L4556L
tp354
a(g121
L30984L
tp355
a(g123
L6494L
tp356
a(g125
L4542L
tp357
a(g127
L10950L
tp358
a(g129
L6436L
tp359
a(g131
L10963L
tp360
a(g133
L14001L
tp361
a(g135
L594L
tp362
a(g137
L4586L
tp363
a(g139
L4439L
tp364
a(g141
L6357L
tp365
a(g143
L677L
tp366
a(g145
L4366L
tp367
a(g147
L759L
tp368
a(g149
L4118L
tp369
a(g151
L5471L
tp370
a(g153
L5302L
tp371
a(g155
L4405L
tp372
a(g157
L4684L
tp373
a(g159
L13967L
tp374
a(g161
L28144L
tp375
a(g163
L4546L
tp376
a(g165
L10829L
tp377
a(g167
L5112L
tp378
a(g169
L22810L
tp379
a(g171
L4838L
tp380
a(g173
L10870L
tp381
a(g175
L5695L
tp382
a(g177
L6169L
tp383
a(g179
L10840L
tp384
a(g181
L3L
tp385
a(g183
L3404L
tp386
a(g185
L28251L
tp387
a(g187
L5582L
tp388
a(g189
L17965L
tp389
a(g191
L7644L
tp390
a(g193
L2364L
tp391
a(g195
L3518L
tp392
a(g197
L10905L
tp393
a(g199
L13274L
tp394
a(g201
L6389L
tp395
a(g203
L4538L
tp396
a(g205
L14427L
tp397
a(g207
L4368L
tp398
a(g209
L5658L
tp399
a(g211
L4475L
tp400
a(g213
L5161L
tp401
a(g215
L12827L
tp402
a(g217
L13644L
tp403
a(g219
L14078L
tp404
a(g221
L4423L
tp405
a(g223
L4408L
tp406
a(g225
L20900L
tp407
a(g227
L2991L
tp408
a(g229
L5662L
tp409
a(g231
L10929L
tp410
a(g233
L10876L
tp411
a(g235
L10860L
tp412
a(g237
L2835L
tp413
a(g239
L5712L
tp414
a(g241
L33137L
tp415
a(g243
L10886L
tp416
a(g245
L5682L
tp417
a(g247
L14396L
tp418
a(g249
L5705L
tp419
a(g251
L15840L
tp420
a(g253
L4550L
tp421
a(g255
L2841L
tp422
a(g257
L5114L
tp423
a(g259
L6747L
tp424
a(g261
L6358L
tp425
a(g263
L4583L
tp426
a(g265
L28040L
tp427
a(g267
L4609L
tp428
a(g269
L5126L
tp429
a(g271
L10848L
tp430
a(g273
L201L
tp431
a(g275
L4411L
tp432
a(g277
L20770L
tp433
a(g279
L21900L
tp434
a(g281
L7683L
tp435
a(g283
L12918L
tp436
a(g285
L33512L
tp437
a(g287
L15852L
tp438
a(g289
L10192L
tp439
a(g291
L4412L
tp440
a(g293
L14288L
tp441
aaI1092749
a.