(lp1
(lp2
(Vbiological_process
p3
I321751
tp4
a(Vcellular_component
p5
I106788
tp6
a(Vmolecular_function
p7
I87559
tp8
a(Vorganelle
p9
I28470
tp10
a(Vanatomical structure development
p11
I25256
tp12
a(Vtransport
p13
I17521
tp14
a(Vsignal transduction
p15
I14718
tp16
a(Vcellular nitrogen compound metabolic process
p17
I14635
tp18
a(Vresponse to stress
p19
I11780
tp20
a(Vprotein complex
p21
I11168
tp22
a(Vion binding
p23
I10283
tp24
a(Vsmall molecule metabolic process
p25
I9960
tp26
a(Vbiosynthetic process
p27
I9625
tp28
a(Vcellular protein modification process
p29
I8090
tp30
a(Vcatabolic process
p31
I7101
tp32
a(Vimmune system process
p33
I6546
tp34
a(Vcell differentiation
p35
I5879
tp36
a(Vcellular component assembly
p37
I4707
tp38
a(Vcytosol
p39
I4702
tp40
a(Vlipid metabolic process
p41
I4650
tp42
a(Venzyme binding
p43
I4384
tp44
a(Vplasma membrane
p45
I3961
tp46
a(Vanatomical structure formation involved in morphogenesis
p47
I3797
tp48
a(Vtransmembrane transporter activity
p49
I3766
tp50
a(VDNA metabolic process
p51
I3735
tp52
a(Vlocomotion
p53
I3719
tp54
a(Vnucleus
p55
I3691
tp56
a(Vnucleolus
p57
I3608
tp58
a(Vvesicle-mediated transport
p59
I3365
tp60
a(Vcytoplasm
p61
I3276
tp62
a(VDNA binding
p63
I3079
tp64
a(Voxidoreductase activity
p65
I2991
tp66
a(Vhomeostatic process
p67
I2955
tp68
a(Vcarbohydrate metabolic process
p69
I2828
tp70
a(Vtransmembrane transport
p71
I2819
tp72
a(Vchromosome organization
p73
I2775
tp74
a(Vsignal transducer activity
p75
I2757
tp76
a(Vmacromolecular complex assembly
p77
I2678
tp78
a(Vcell motility
p79
I2614
tp80
a(Vnucleobase-containing compound catabolic process
p81
I2522
tp82
a(Vprotein maturation
p83
I2484
tp84
a(Vembryo development
p85
I2467
tp86
a(Vgrowth
p87
I2427
tp88
a(Vneurological system process
p89
I2408
tp90
a(Vkinase activity
p91
I2323
tp92
a(Vcytoskeletal protein binding
p93
I2222
tp94
a(Vprotein complex assembly
p95
I2182
tp96
a(Vcytoskeleton organization
p97
I2072
tp98
a(VRNA binding
p99
I2071
tp100
a(VGolgi apparatus
p101
I1896
tp102
a(Vmitochondrion
p103
I1871
tp104
a(Vcytoplasmic membrane-bounded vesicle
p105
I1802
tp106
a(Vcellular amino acid metabolic process
p107
I1793
tp108
a(Vlipid binding
p109
I1777
tp110
a(Vcytoskeleton
p111
I1704
tp112
a(Vpeptidase activity
p113
I1692
tp114
a(Vcell adhesion
p115
I1648
tp116
a(Vcell-cell signaling
p117
I1646
tp118
a(Vendoplasmic reticulum
p119
I1618
tp120
a(Vcell proliferation
p121
I1499
tp122
a(Vligase activity
p123
I1476
tp124
a(Vcell death
p125
I1475
tp126
a(Vmembrane organization
p127
I1458
tp128
a(Vendosome
p129
I1430
tp130
a(Venzyme regulator activity
p131
I1381
tp132
a(Vnucleoplasm
p133
I1366
tp134
a(VATPase activity
p135
I1322
tp136
a(Vmicrotubule organizing center
p137
I1320
tp138
a(Vcell morphogenesis
p139
I1268
tp140
a(Vtranscription factor binding
p141
I1253
tp142
a(Vextracellular region
p143
I1231
tp144
a(Vnucleic acid binding transcription factor activity
p145
I1165
tp146
a(Vsulfur compound metabolic process
p147
I1109
tp148
a(Vprotein binding transcription factor activity
p149
I1103
tp150
a(Vstructural molecule activity
p151
I1059
tp152
a(Vextracellular space
p153
I968
tp154
a(Vprotein targeting
p155
I962
tp156
a(Vcofactor metabolic process
p157
I917
tp158
a(Vextracellular matrix organization
p159
I906
tp160
a(Vcilium
p161
I879
tp162
a(Vtransferase activity, transferring acyl groups
p163
I840
tp164
a(VmRNA processing
p165
I810
tp166
a(Vgeneration of precursor metabolites and energy
p167
I785
tp168
a(Vvacuole
p169
I782
tp170
a(Vsymbiosis, encompassing mutualism through parasitism
p171
I751
tp172
a(Vphosphatase activity
p173
I741
tp174
a(Vcell cycle
p175
I698
tp176
a(Vtransferase activity, transferring glycosyl groups
p177
I689
tp178
a(Vhelicase activity
p179
I627
tp180
a(Vaging
p181
I602
tp182
a(Vreproduction
p183
I602
tp184
a(Vnuclease activity
p185
I584
tp186
a(Vplastid
p187
I573
tp188
a(Vlyase activity
p189
I568
tp190
a(Vcirculatory system process
p191
I563
tp192
a(Vnucleocytoplasmic transport
p193
I545
tp194
a(Vcell division
p195
I541
tp196
a(Vmethyltransferase activity
p197
I499
tp198
a(Vcell junction organization
p199
I480
tp200
a(Vdevelopmental maturation
p201
I469
tp202
a(Vlysosome
p203
I444
tp204
a(Vprotein folding
p205
I437
tp206
a(Vproteinaceous extracellular matrix
p207
I421
tp208
a(VGTPase activity
p209
I410
tp210
a(Vmitochondrion organization
p211
I409
tp212
a(Vchromosome
p213
I407
tp214
a(Vcytoskeleton-dependent intracellular transport
p215
I406
tp216
a(Vribonucleoprotein complex assembly
p217
I397
tp218
a(Vexternal encapsulating structure
p219
I383
tp220
a(Vsecondary metabolic process
p221
I379
tp222
a(Vcell wall
p223
I374
tp224
a(Vplasma membrane organization
p225
I363
tp226
a(Vhydrolase activity, acting on glycosyl bonds
p227
I346
tp228
a(Vnuclear envelope
p229
I343
tp230
a(Vhistone binding
p231
I334
tp232
a(Visomerase activity
p233
I325
tp234
a(Vnucleotidyltransferase activity
p235
I318
tp236
a(VmRNA binding
p237
I304
tp238
a(Vhydrolase activity, acting on carbon-nitrogen (but not peptide) bonds
p239
I303
tp240
a(Vstructural constituent of ribosome
p241
I285
tp242
a(Vmitosis
p243
I273
tp244
a(Vcell wall organization or biogenesis
p245
I269
tp246
a(Vchromosome segregation
p247
I264
tp248
a(Vperoxisome
p249
I254
tp250
a(VtRNA metabolic process
p251
I251
tp252
a(Vprotein binding, bridging
p253
I247
tp254
a(Vvacuolar transport
p255
I234
tp256
a(Vsmall conjugating protein binding
p257
I223
tp258
a(Vtranslation factor activity, nucleic acid binding
p259
I218
tp260
a(Vprotein transporter activity
p261
I182
tp262
a(Vunfolded protein binding
p263
I182
tp264
a(Vtranslation
p265
I179
tp266
a(Vlipid particle
p267
I177
tp268
a(Vribosome
p269
I174
tp270
a(Vintracellular
p271
I174
tp272
a(Vtransferase activity, transferring alkyl or aryl (other than methyl) groups
p273
I144
tp274
a(Vnuclear chromosome
p275
I136
tp276
a(Vribosome biogenesis
p277
I120
tp278
a(Vpigmentation
p279
I105
tp280
a(VrRNA binding
p281
I92
tp282
a(Vthylakoid
p283
I81
tp284
a(Vtransposition
p285
I40
tp286
a(Vnitrogen cycle metabolic process
p287
I35
tp288
a(Vphotosynthesis
p289
I28
tp290
a(Vcell
p291
I16
tp292
a(VRNA modification guide activity
p293
I2
tp294
aa(lp295
(g3
L6372L
tp296
a(g5
L4365L
tp297
a(g7
L2787L
tp298
a(g9
L21685L
tp299
a(g11
L26888L
tp300
a(g13
L5491L
tp301
a(g15
L5801L
tp302
a(g17
L18268L
tp303
a(g19
L5613L
tp304
a(g21
L21693L
tp305
a(g23
L21630L
tp306
a(g25
L22689L
tp307
a(g27
L7192L
tp308
a(g29
L5168L
tp309
a(g31
L7190L
tp310
a(g33
L1781L
tp311
a(g35
L13924L
tp312
a(g37
L13633L
tp313
a(g39
L4599L
tp314
a(g41
L5326L
tp315
a(g43
L12968L
tp316
a(g45
L4644L
tp317
a(g47
L26682L
tp318
a(g49
L13690L
tp319
a(g51
L4995L
tp320
a(g53
L20507L
tp321
a(g55
L4422L
tp322
a(g57
L4507L
tp323
a(g59
L10381L
tp324
a(g61
L4514L
tp325
a(g63
L2790L
tp326
a(g65
L10598L
tp327
a(g67
L21086L
tp328
a(g69
L4725L
tp329
a(g71
L29927L
tp330
a(g73
L28228L
tp331
a(g75
L3827L
tp332
a(g77
L31581L
tp333
a(g79
L26901L
tp334
a(g81
L18282L
tp335
a(g83
L28535L
tp336
a(g85
L7881L
tp337
a(g87
L20503L
tp338
a(g89
L27837L
tp339
a(g91
L10466L
tp340
a(g93
L6320L
tp341
a(g95
L5165L
tp342
a(g97
L5663L
tp343
a(g99
L2830L
tp344
a(g101
L4567L
tp345
a(g103
L4515L
tp346
a(g105
L10229L
tp347
a(g107
L5218L
tp348
a(g109
L6500L
tp349
a(g111
L4621L
tp350
a(g113
L6448L
tp351
a(g115
L5791L
tp352
a(g117
L5896L
tp353
a(g119
L4556L
tp354
a(g121
L6494L
tp355
a(g123
L10950L
tp356
a(g125
L6436L
tp357
a(g127
L30984L
tp358
a(g129
L4542L
tp359
a(g131
L14001L
tp360
a(g133
L4439L
tp361
a(g135
L10963L
tp362
a(g137
L4586L
tp363
a(g139
L594L
tp364
a(g141
L6357L
tp365
a(g143
L4366L
tp366
a(g145
L759L
tp367
a(g147
L5471L
tp368
a(g149
L677L
tp369
a(g151
L4118L
tp370
a(g153
L4405L
tp371
a(g155
L5302L
tp372
a(g157
L28144L
tp373
a(g159
L13967L
tp374
a(g161
L4684L
tp375
a(g163
L10829L
tp376
a(g165
L5112L
tp377
a(g167
L4838L
tp378
a(g169
L4546L
tp379
a(g171
L22810L
tp380
a(g173
L10870L
tp381
a(g175
L5695L
tp382
a(g177
L10840L
tp383
a(g179
L3404L
tp384
a(g181
L6169L
tp385
a(g183
L3L
tp386
a(g185
L3518L
tp387
a(g187
L7644L
tp388
a(g189
L10905L
tp389
a(g191
L2364L
tp390
a(g193
L5582L
tp391
a(g195
L28251L
tp392
a(g197
L6389L
tp393
a(g199
L17965L
tp394
a(g201
L13274L
tp395
a(g203
L4538L
tp396
a(g205
L5161L
tp397
a(g207
L4368L
tp398
a(g209
L2991L
tp399
a(g211
L5658L
tp400
a(g213
L4475L
tp401
a(g215
L14427L
tp402
a(g217
L13644L
tp403
a(g219
L14078L
tp404
a(g221
L12827L
tp405
a(g223
L4408L
tp406
a(g225
L5662L
tp407
a(g227
L10876L
tp408
a(g229
L4423L
tp409
a(g231
L20900L
tp410
a(g233
L10929L
tp411
a(g235
L10860L
tp412
a(g237
L2835L
tp413
a(g239
L10886L
tp414
a(g241
L2841L
tp415
a(g243
L5712L
tp416
a(g245
L33137L
tp417
a(g247
L5705L
tp418
a(g249
L4550L
tp419
a(g251
L5114L
tp420
a(g253
L14396L
tp421
a(g255
L5682L
tp422
a(g257
L15840L
tp423
a(g259
L6358L
tp424
a(g261
L6747L
tp425
a(g263
L28040L
tp426
a(g265
L5126L
tp427
a(g267
L4583L
tp428
a(g269
L4609L
tp429
a(g271
L4411L
tp430
a(g273
L10848L
tp431
a(g275
L201L
tp432
a(g277
L20770L
tp433
a(g279
L21900L
tp434
a(g281
L12918L
tp435
a(g283
L7683L
tp436
a(g285
L15852L
tp437
a(g287
L33512L
tp438
a(g289
L10192L
tp439
a(g291
L4412L
tp440
a(g293
L14288L
tp441
aaI864396
a.