(lp1
(lp2
(Vbiological_process
p3
I299516
tp4
a(Vcellular_component
p5
I96219
tp6
a(Vmolecular_function
p7
I80002
tp8
a(Vorganelle
p9
I25187
tp10
a(Vanatomical structure development
p11
I23603
tp12
a(Vtransport
p13
I15849
tp14
a(Vsignal transduction
p15
I13586
tp16
a(Vcellular nitrogen compound metabolic process
p17
I13505
tp18
a(Vresponse to stress
p19
I11094
tp20
a(Vprotein complex
p21
I10215
tp22
a(Vion binding
p23
I9790
tp24
a(Vsmall molecule metabolic process
p25
I9740
tp26
a(Vbiosynthetic process
p27
I9472
tp28
a(Vcellular protein modification process
p29
I7368
tp30
a(Vcatabolic process
p31
I6749
tp32
a(Vimmune system process
p33
I6111
tp34
a(Vcell differentiation
p35
I5713
tp36
a(Vcellular component assembly
p37
I4443
tp38
a(Vlipid metabolic process
p39
I4313
tp40
a(Vcytosol
p41
I4232
tp42
a(Venzyme binding
p43
I4081
tp44
a(Vanatomical structure formation involved in morphogenesis
p45
I3700
tp46
a(Vlocomotion
p47
I3689
tp48
a(Vplasma membrane
p49
I3503
tp50
a(VDNA metabolic process
p51
I3457
tp52
a(Vtransmembrane transporter activity
p53
I3337
tp54
a(Vvesicle-mediated transport
p55
I3144
tp56
a(Vnucleus
p57
I3109
tp58
a(Vnucleolus
p59
I3028
tp60
a(Voxidoreductase activity
p61
I2829
tp62
a(Vcarbohydrate metabolic process
p63
I2793
tp64
a(Vhomeostatic process
p65
I2704
tp66
a(Vcytoplasm
p67
I2659
tp68
a(Vcell motility
p69
I2651
tp70
a(VDNA binding
p71
I2623
tp72
a(Vchromosome organization
p73
I2491
tp74
a(Vgrowth
p75
I2469
tp76
a(Vmacromolecular complex assembly
p77
I2461
tp78
a(Vtransmembrane transport
p79
I2432
tp80
a(Vnucleobase-containing compound catabolic process
p81
I2385
tp82
a(Vsignal transducer activity
p83
I2379
tp84
a(Vkinase activity
p85
I2365
tp86
a(Vneurological system process
p87
I2359
tp88
a(Vembryo development
p89
I2293
tp90
a(Vprotein maturation
p91
I2236
tp92
a(Vcytoskeletal protein binding
p93
I2119
tp94
a(Vprotein complex assembly
p95
I2016
tp96
a(Vcytoskeleton organization
p97
I1982
tp98
a(Vcellular amino acid metabolic process
p99
I1848
tp100
a(VRNA binding
p101
I1800
tp102
a(Vcell adhesion
p103
I1748
tp104
a(VGolgi apparatus
p105
I1694
tp106
a(Vmitochondrion
p107
I1688
tp108
a(Vcytoplasmic membrane-bounded vesicle
p109
I1629
tp110
a(Vlipid binding
p111
I1629
tp112
a(Vcytoskeleton
p113
I1562
tp114
a(Vpeptidase activity
p115
I1500
tp116
a(VATPase activity
p117
I1488
tp118
a(Vendoplasmic reticulum
p119
I1431
tp120
a(Vcell death
p121
I1415
tp122
a(Vcell proliferation
p123
I1396
tp124
a(Vcell-cell signaling
p125
I1382
tp126
a(Vligase activity
p127
I1368
tp128
a(Vmembrane organization
p129
I1342
tp130
a(Vendosome
p131
I1306
tp132
a(Vcell morphogenesis
p133
I1278
tp134
a(Venzyme regulator activity
p135
I1208
tp136
a(Vnucleoplasm
p137
I1196
tp138
a(Vmicrotubule organizing center
p139
I1165
tp140
a(Vsulfur compound metabolic process
p141
I1124
tp142
a(Vtranscription factor binding
p143
I1109
tp144
a(Vextracellular region
p145
I1108
tp146
a(Vprotein binding transcription factor activity
p147
I1022
tp148
a(Vstructural molecule activity
p149
I995
tp150
a(Vnucleic acid binding transcription factor activity
p151
I908
tp152
a(Vprotein targeting
p153
I906
tp154
a(Vcofactor metabolic process
p155
I888
tp156
a(Vextracellular space
p157
I862
tp158
a(Vcilium
p159
I860
tp160
a(Vextracellular matrix organization
p161
I843
tp162
a(Vtransferase activity, transferring acyl groups
p163
I748
tp164
a(Vvacuole
p165
I747
tp166
a(Vgeneration of precursor metabolites and energy
p167
I726
tp168
a(VmRNA processing
p169
I709
tp170
a(Vsymbiosis, encompassing mutualism through parasitism
p171
I653
tp172
a(Vtransferase activity, transferring glycosyl groups
p173
I648
tp174
a(Vcell cycle
p175
I637
tp176
a(Vphosphatase activity
p177
I630
tp178
a(Vhelicase activity
p179
I613
tp180
a(Vplastid
p181
I590
tp182
a(Vaging
p183
I578
tp184
a(Vlyase activity
p185
I578
tp186
a(Vreproduction
p187
I538
tp188
a(Vcell division
p189
I534
tp190
a(Vnuclease activity
p191
I517
tp192
a(Vcell junction organization
p193
I483
tp194
a(Vnucleocytoplasmic transport
p195
I463
tp196
a(Vcirculatory system process
p197
I458
tp198
a(Vdevelopmental maturation
p199
I432
tp200
a(Vexternal encapsulating structure
p201
I431
tp202
a(Vmethyltransferase activity
p203
I426
tp204
a(Vcell wall
p205
I422
tp206
a(Vproteinaceous extracellular matrix
p207
I414
tp208
a(Vlysosome
p209
I408
tp210
a(Vchromosome
p211
I398
tp212
a(Vprotein folding
p213
I376
tp214
a(Vsecondary metabolic process
p215
I365
tp216
a(Vmitochondrion organization
p217
I361
tp218
a(Vribonucleoprotein complex assembly
p219
I356
tp220
a(Vcytoskeleton-dependent intracellular transport
p221
I353
tp222
a(Vhydrolase activity, acting on glycosyl bonds
p223
I341
tp224
a(VGTPase activity
p225
I340
tp226
a(Vnuclear envelope
p227
I337
tp228
a(Vnucleotidyltransferase activity
p229
I323
tp230
a(Visomerase activity
p231
I322
tp232
a(Vcell wall organization or biogenesis
p233
I297
tp234
a(Vhistone binding
p235
I291
tp236
a(Vplasma membrane organization
p237
I281
tp238
a(Vhydrolase activity, acting on carbon-nitrogen (but not peptide) bonds
p239
I281
tp240
a(VmRNA binding
p241
I270
tp242
a(VtRNA metabolic process
p243
I269
tp244
a(Vstructural constituent of ribosome
p245
I260
tp246
a(Vchromosome segregation
p247
I243
tp248
a(Vmitosis
p249
I241
tp250
a(Vprotein binding, bridging
p251
I225
tp252
a(Vperoxisome
p253
I224
tp254
a(Vtranslation factor activity, nucleic acid binding
p255
I206
tp256
a(Vsmall conjugating protein binding
p257
I205
tp258
a(Vvacuolar transport
p259
I201
tp260
a(Vprotein transporter activity
p261
I188
tp262
a(Vlipid particle
p263
I176
tp264
a(Vtranslation
p265
I173
tp266
a(Vunfolded protein binding
p267
I171
tp268
a(Vribosome
p269
I164
tp270
a(Vintracellular
p271
I129
tp272
a(Vtransferase activity, transferring alkyl or aryl (other than methyl) groups
p273
I128
tp274
a(Vnuclear chromosome
p275
I124
tp276
a(Vpigmentation
p277
I113
tp278
a(Vribosome biogenesis
p279
I99
tp280
a(VrRNA binding
p281
I82
tp282
a(Vthylakoid
p283
I78
tp284
a(Vnitrogen cycle metabolic process
p285
I32
tp286
a(Vtransposition
p287
I31
tp288
a(Vphotosynthesis
p289
I25
tp290
a(Vcell
p291
I11
tp292
a(VRNA modification guide activity
p293
I3
tp294
aa(lp295
(g3
L6372L
tp296
a(g5
L4365L
tp297
a(g7
L2787L
tp298
a(g9
L21685L
tp299
a(g11
L26888L
tp300
a(g13
L5491L
tp301
a(g15
L5801L
tp302
a(g17
L18268L
tp303
a(g19
L5613L
tp304
a(g21
L21693L
tp305
a(g23
L21630L
tp306
a(g25
L22689L
tp307
a(g27
L7192L
tp308
a(g29
L5168L
tp309
a(g31
L7190L
tp310
a(g33
L1781L
tp311
a(g35
L13924L
tp312
a(g37
L13633L
tp313
a(g39
L5326L
tp314
a(g41
L4599L
tp315
a(g43
L12968L
tp316
a(g45
L26682L
tp317
a(g47
L20507L
tp318
a(g49
L4644L
tp319
a(g51
L4995L
tp320
a(g53
L13690L
tp321
a(g55
L10381L
tp322
a(g57
L4422L
tp323
a(g59
L4507L
tp324
a(g61
L10598L
tp325
a(g63
L4725L
tp326
a(g65
L21086L
tp327
a(g67
L4514L
tp328
a(g69
L26901L
tp329
a(g71
L2790L
tp330
a(g73
L28228L
tp331
a(g75
L20503L
tp332
a(g77
L31581L
tp333
a(g79
L29927L
tp334
a(g81
L18282L
tp335
a(g83
L3827L
tp336
a(g85
L10466L
tp337
a(g87
L27837L
tp338
a(g89
L7881L
tp339
a(g91
L28535L
tp340
a(g93
L6320L
tp341
a(g95
L5165L
tp342
a(g97
L5663L
tp343
a(g99
L5218L
tp344
a(g101
L2830L
tp345
a(g103
L5791L
tp346
a(g105
L4567L
tp347
a(g107
L4515L
tp348
a(g109
L10229L
tp349
a(g111
L6500L
tp350
a(g113
L4621L
tp351
a(g115
L6448L
tp352
a(g117
L10963L
tp353
a(g119
L4556L
tp354
a(g121
L6436L
tp355
a(g123
L6494L
tp356
a(g125
L5896L
tp357
a(g127
L10950L
tp358
a(g129
L30984L
tp359
a(g131
L4542L
tp360
a(g133
L594L
tp361
a(g135
L14001L
tp362
a(g137
L4439L
tp363
a(g139
L4586L
tp364
a(g141
L5471L
tp365
a(g143
L6357L
tp366
a(g145
L4366L
tp367
a(g147
L677L
tp368
a(g149
L4118L
tp369
a(g151
L759L
tp370
a(g153
L5302L
tp371
a(g155
L28144L
tp372
a(g157
L4405L
tp373
a(g159
L4684L
tp374
a(g161
L13967L
tp375
a(g163
L10829L
tp376
a(g165
L4546L
tp377
a(g167
L4838L
tp378
a(g169
L5112L
tp379
a(g171
L22810L
tp380
a(g173
L10840L
tp381
a(g175
L5695L
tp382
a(g177
L10870L
tp383
a(g179
L3404L
tp384
a(g181
L7644L
tp385
a(g183
L6169L
tp386
a(g185
L10905L
tp387
a(g187
L3L
tp388
a(g189
L28251L
tp389
a(g191
L3518L
tp390
a(g193
L17965L
tp391
a(g195
L5582L
tp392
a(g197
L2364L
tp393
a(g199
L13274L
tp394
a(g201
L14078L
tp395
a(g203
L6389L
tp396
a(g205
L4408L
tp397
a(g207
L4368L
tp398
a(g209
L4538L
tp399
a(g211
L4475L
tp400
a(g213
L5161L
tp401
a(g215
L12827L
tp402
a(g217
L5658L
tp403
a(g219
L13644L
tp404
a(g221
L14427L
tp405
a(g223
L10876L
tp406
a(g225
L2991L
tp407
a(g227
L4423L
tp408
a(g229
L10860L
tp409
a(g231
L10929L
tp410
a(g233
L33137L
tp411
a(g235
L20900L
tp412
a(g237
L5662L
tp413
a(g239
L10886L
tp414
a(g241
L2835L
tp415
a(g243
L5114L
tp416
a(g245
L2841L
tp417
a(g247
L5705L
tp418
a(g249
L5712L
tp419
a(g251
L14396L
tp420
a(g253
L4550L
tp421
a(g255
L6358L
tp422
a(g257
L15840L
tp423
a(g259
L5682L
tp424
a(g261
L6747L
tp425
a(g263
L4583L
tp426
a(g265
L5126L
tp427
a(g267
L28040L
tp428
a(g269
L4609L
tp429
a(g271
L4411L
tp430
a(g273
L10848L
tp431
a(g275
L201L
tp432
a(g277
L21900L
tp433
a(g279
L20770L
tp434
a(g281
L12918L
tp435
a(g283
L7683L
tp436
a(g285
L33512L
tp437
a(g287
L15852L
tp438
a(g289
L10192L
tp439
a(g291
L4412L
tp440
a(g293
L14288L
tp441
aaI798175
a.