(lp1
(lp2
(Vbiological_process
p3
I376601
tp4
a(Vcellular_component
p5
I122521
tp6
a(Vmolecular_function
p7
I100114
tp8
a(Vorganelle
p9
I32521
tp10
a(Vanatomical structure development
p11
I29184
tp12
a(Vtransport
p13
I20480
tp14
a(Vsignal transduction
p15
I17207
tp16
a(Vcellular nitrogen compound metabolic process
p17
I16261
tp18
a(Vresponse to stress
p19
I13890
tp20
a(Vprotein complex
p21
I13175
tp22
a(Vion binding
p23
I12147
tp24
a(Vsmall molecule metabolic process
p25
I11376
tp26
a(Vbiosynthetic process
p27
I10882
tp28
a(Vcellular protein modification process
p29
I9455
tp30
a(Vcatabolic process
p31
I8217
tp32
a(Vimmune system process
p33
I7715
tp34
a(Vcell differentiation
p35
I6979
tp36
a(Vcellular component assembly
p37
I5646
tp38
a(Vlipid metabolic process
p39
I5494
tp40
a(Vcytosol
p41
I5390
tp42
a(Venzyme binding
p43
I5380
tp44
a(Vlocomotion
p45
I4626
tp46
a(Vplasma membrane
p47
I4430
tp48
a(Vanatomical structure formation involved in morphogenesis
p49
I4426
tp50
a(Vtransmembrane transporter activity
p51
I4385
tp52
a(Vvesicle-mediated transport
p53
I4095
tp54
a(Vnucleolus
p55
I4067
tp56
a(VDNA metabolic process
p57
I4060
tp58
a(Vnucleus
p59
I4037
tp60
a(Vhomeostatic process
p61
I3601
tp62
a(VDNA binding
p63
I3413
tp64
a(Vcytoplasm
p65
I3327
tp66
a(Voxidoreductase activity
p67
I3323
tp68
a(Vchromosome organization
p69
I3288
tp70
a(Vtransmembrane transport
p71
I3256
tp72
a(Vcarbohydrate metabolic process
p73
I3246
tp74
a(Vcell motility
p75
I3240
tp76
a(Vmacromolecular complex assembly
p77
I3137
tp78
a(Vneurological system process
p79
I3095
tp80
a(Vsignal transducer activity
p81
I2990
tp82
a(Vgrowth
p83
I2972
tp84
a(Vprotein maturation
p85
I2960
tp86
a(Vembryo development
p87
I2843
tp88
a(Vnucleobase-containing compound catabolic process
p89
I2841
tp90
a(Vcytoskeletal protein binding
p91
I2772
tp92
a(Vkinase activity
p93
I2706
tp94
a(Vprotein complex assembly
p95
I2576
tp96
a(Vcytoskeleton organization
p97
I2471
tp98
a(VRNA binding
p99
I2279
tp100
a(Vlipid binding
p101
I2242
tp102
a(VGolgi apparatus
p103
I2232
tp104
a(Vcytoplasmic membrane-bounded vesicle
p105
I2185
tp106
a(Vmitochondrion
p107
I2147
tp108
a(Vcell adhesion
p109
I2075
tp110
a(Vcytoskeleton
p111
I1994
tp112
a(Vcellular amino acid metabolic process
p113
I1976
tp114
a(Vcell-cell signaling
p115
I1897
tp116
a(Vpeptidase activity
p117
I1883
tp118
a(Vendoplasmic reticulum
p119
I1871
tp120
a(Vcell proliferation
p121
I1801
tp122
a(Vcell death
p123
I1767
tp124
a(Vendosome
p125
I1752
tp126
a(Vmembrane organization
p127
I1744
tp128
a(Vligase activity
p129
I1733
tp130
a(Venzyme regulator activity
p131
I1710
tp132
a(VATPase activity
p133
I1607
tp134
a(Vcell morphogenesis
p135
I1554
tp136
a(Vmicrotubule organizing center
p137
I1530
tp138
a(Vnucleoplasm
p139
I1511
tp140
a(Vtranscription factor binding
p141
I1479
tp142
a(Vprotein binding transcription factor activity
p143
I1357
tp144
a(Vextracellular region
p145
I1332
tp146
a(Vnucleic acid binding transcription factor activity
p147
I1260
tp148
a(Vsulfur compound metabolic process
p149
I1211
tp150
a(Vstructural molecule activity
p151
I1183
tp152
a(Vprotein targeting
p153
I1158
tp154
a(Vextracellular space
p155
I1111
tp156
a(Vcilium
p157
I1033
tp158
a(Vextracellular matrix organization
p159
I1030
tp160
a(Vcofactor metabolic process
p161
I1006
tp162
a(Vvacuole
p163
I984
tp164
a(Vtransferase activity, transferring acyl groups
p165
I954
tp166
a(VmRNA processing
p167
I915
tp168
a(Vgeneration of precursor metabolites and energy
p169
I908
tp170
a(Vsymbiosis, encompassing mutualism through parasitism
p171
I901
tp172
a(Vphosphatase activity
p173
I868
tp174
a(Vcell cycle
p175
I815
tp176
a(Vtransferase activity, transferring glycosyl groups
p177
I747
tp178
a(Vaging
p179
I714
tp180
a(Vreproduction
p181
I705
tp182
a(Vhelicase activity
p183
I701
tp184
a(Vplastid
p185
I693
tp186
a(Vcell division
p187
I659
tp188
a(Vcirculatory system process
p189
I652
tp190
a(Vnucleocytoplasmic transport
p191
I651
tp192
a(Vlyase activity
p193
I614
tp194
a(Vnuclease activity
p195
I613
tp196
a(Vdevelopmental maturation
p197
I613
tp198
a(Vcell junction organization
p199
I606
tp200
a(Vlysosome
p201
I557
tp202
a(Vmethyltransferase activity
p203
I545
tp204
a(Vcytoskeleton-dependent intracellular transport
p205
I508
tp206
a(Vmitochondrion organization
p207
I497
tp208
a(Vproteinaceous extracellular matrix
p209
I486
tp210
a(Vprotein folding
p211
I479
tp212
a(Vchromosome
p213
I475
tp214
a(Vexternal encapsulating structure
p215
I454
tp216
a(Vsecondary metabolic process
p217
I451
tp218
a(Vribonucleoprotein complex assembly
p219
I445
tp220
a(Vcell wall
p221
I443
tp222
a(Vnuclear envelope
p223
I432
tp224
a(VGTPase activity
p225
I429
tp226
a(Vhydrolase activity, acting on glycosyl bonds
p227
I409
tp228
a(Vhistone binding
p229
I402
tp230
a(Vplasma membrane organization
p231
I383
tp232
a(Visomerase activity
p233
I359
tp234
a(VmRNA binding
p235
I347
tp236
a(Vcell wall organization or biogenesis
p237
I337
tp238
a(Vmitosis
p239
I328
tp240
a(Vnucleotidyltransferase activity
p241
I327
tp242
a(Vhydrolase activity, acting on carbon-nitrogen (but not peptide) bonds
p243
I327
tp244
a(Vvacuolar transport
p245
I307
tp246
a(Vprotein binding, bridging
p247
I301
tp248
a(Vchromosome segregation
p249
I300
tp250
a(Vperoxisome
p251
I298
tp252
a(Vstructural constituent of ribosome
p253
I284
tp254
a(Vsmall conjugating protein binding
p255
I272
tp256
a(VtRNA metabolic process
p257
I271
tp258
a(Vtranslation factor activity, nucleic acid binding
p259
I236
tp260
a(Vprotein transporter activity
p261
I209
tp262
a(Vlipid particle
p263
I208
tp264
a(Vribosome
p265
I201
tp266
a(Vunfolded protein binding
p267
I200
tp268
a(Vtranslation
p269
I182
tp270
a(Vintracellular
p271
I157
tp272
a(Vnuclear chromosome
p273
I151
tp274
a(Vtransferase activity, transferring alkyl or aryl (other than methyl) groups
p275
I150
tp276
a(Vpigmentation
p277
I131
tp278
a(Vribosome biogenesis
p279
I130
tp280
a(Vthylakoid
p281
I91
tp282
a(VrRNA binding
p283
I88
tp284
a(Vnitrogen cycle metabolic process
p285
I44
tp286
a(Vtransposition
p287
I34
tp288
a(Vphotosynthesis
p289
I33
tp290
a(Vcell
p291
I14
tp292
a(VRNA modification guide activity
p293
I2
tp294
aa(lp295
(g3
L6372L
tp296
a(g5
L4365L
tp297
a(g7
L2787L
tp298
a(g9
L21685L
tp299
a(g11
L26888L
tp300
a(g13
L5491L
tp301
a(g15
L5801L
tp302
a(g17
L18268L
tp303
a(g19
L5613L
tp304
a(g21
L21693L
tp305
a(g23
L21630L
tp306
a(g25
L22689L
tp307
a(g27
L7192L
tp308
a(g29
L5168L
tp309
a(g31
L7190L
tp310
a(g33
L1781L
tp311
a(g35
L13924L
tp312
a(g37
L13633L
tp313
a(g39
L5326L
tp314
a(g41
L4599L
tp315
a(g43
L12968L
tp316
a(g45
L20507L
tp317
a(g47
L4644L
tp318
a(g49
L26682L
tp319
a(g51
L13690L
tp320
a(g53
L10381L
tp321
a(g55
L4507L
tp322
a(g57
L4995L
tp323
a(g59
L4422L
tp324
a(g61
L21086L
tp325
a(g63
L2790L
tp326
a(g65
L4514L
tp327
a(g67
L10598L
tp328
a(g69
L28228L
tp329
a(g71
L29927L
tp330
a(g73
L4725L
tp331
a(g75
L26901L
tp332
a(g77
L31581L
tp333
a(g79
L27837L
tp334
a(g81
L3827L
tp335
a(g83
L20503L
tp336
a(g85
L28535L
tp337
a(g87
L7881L
tp338
a(g89
L18282L
tp339
a(g91
L6320L
tp340
a(g93
L10466L
tp341
a(g95
L5165L
tp342
a(g97
L5663L
tp343
a(g99
L2830L
tp344
a(g101
L6500L
tp345
a(g103
L4567L
tp346
a(g105
L10229L
tp347
a(g107
L4515L
tp348
a(g109
L5791L
tp349
a(g111
L4621L
tp350
a(g113
L5218L
tp351
a(g115
L5896L
tp352
a(g117
L6448L
tp353
a(g119
L4556L
tp354
a(g121
L6494L
tp355
a(g123
L6436L
tp356
a(g125
L4542L
tp357
a(g127
L30984L
tp358
a(g129
L10950L
tp359
a(g131
L14001L
tp360
a(g133
L10963L
tp361
a(g135
L594L
tp362
a(g137
L4586L
tp363
a(g139
L4439L
tp364
a(g141
L6357L
tp365
a(g143
L677L
tp366
a(g145
L4366L
tp367
a(g147
L759L
tp368
a(g149
L5471L
tp369
a(g151
L4118L
tp370
a(g153
L5302L
tp371
a(g155
L4405L
tp372
a(g157
L4684L
tp373
a(g159
L13967L
tp374
a(g161
L28144L
tp375
a(g163
L4546L
tp376
a(g165
L10829L
tp377
a(g167
L5112L
tp378
a(g169
L4838L
tp379
a(g171
L22810L
tp380
a(g173
L10870L
tp381
a(g175
L5695L
tp382
a(g177
L10840L
tp383
a(g179
L6169L
tp384
a(g181
L3L
tp385
a(g183
L3404L
tp386
a(g185
L7644L
tp387
a(g187
L28251L
tp388
a(g189
L2364L
tp389
a(g191
L5582L
tp390
a(g193
L10905L
tp391
a(g195
L3518L
tp392
a(g197
L13274L
tp393
a(g199
L17965L
tp394
a(g201
L4538L
tp395
a(g203
L6389L
tp396
a(g205
L14427L
tp397
a(g207
L5658L
tp398
a(g209
L4368L
tp399
a(g211
L5161L
tp400
a(g213
L4475L
tp401
a(g215
L14078L
tp402
a(g217
L12827L
tp403
a(g219
L13644L
tp404
a(g221
L4408L
tp405
a(g223
L4423L
tp406
a(g225
L2991L
tp407
a(g227
L10876L
tp408
a(g229
L20900L
tp409
a(g231
L5662L
tp410
a(g233
L10929L
tp411
a(g235
L2835L
tp412
a(g237
L33137L
tp413
a(g239
L5712L
tp414
a(g241
L10860L
tp415
a(g243
L10886L
tp416
a(g245
L5682L
tp417
a(g247
L14396L
tp418
a(g249
L5705L
tp419
a(g251
L4550L
tp420
a(g253
L2841L
tp421
a(g255
L15840L
tp422
a(g257
L5114L
tp423
a(g259
L6358L
tp424
a(g261
L6747L
tp425
a(g263
L4583L
tp426
a(g265
L4609L
tp427
a(g267
L28040L
tp428
a(g269
L5126L
tp429
a(g271
L4411L
tp430
a(g273
L201L
tp431
a(g275
L10848L
tp432
a(g277
L21900L
tp433
a(g279
L20770L
tp434
a(g281
L7683L
tp435
a(g283
L12918L
tp436
a(g285
L33512L
tp437
a(g287
L15852L
tp438
a(g289
L10192L
tp439
a(g291
L4412L
tp440
a(g293
L14288L
tp441
aaI1003495
a.