(lp1
(lp2
(Vbiological_process
p3
I259756
tp4
a(Vcellular_component
p5
I85205
tp6
a(Vmolecular_function
p7
I69300
tp8
a(Vorganelle
p9
I22851
tp10
a(Vanatomical structure development
p11
I19959
tp12
a(Vtransport
p13
I14021
tp14
a(Vcellular nitrogen compound metabolic process
p15
I12094
tp16
a(Vsignal transduction
p17
I11566
tp18
a(Vresponse to stress
p19
I9921
tp20
a(Vprotein complex
p21
I9195
tp22
a(Vion binding
p23
I8467
tp24
a(Vsmall molecule metabolic process
p25
I8326
tp26
a(Vbiosynthetic process
p27
I8098
tp28
a(Vcellular protein modification process
p29
I6643
tp30
a(Vcatabolic process
p31
I6163
tp32
a(Vimmune system process
p33
I5188
tp34
a(Vcell differentiation
p35
I4613
tp36
a(Vcytosol
p37
I3925
tp38
a(Vcellular component assembly
p39
I3900
tp40
a(Vlipid metabolic process
p41
I3763
tp42
a(Venzyme binding
p43
I3571
tp44
a(Vlocomotion
p45
I3091
tp46
a(Vplasma membrane
p47
I3086
tp48
a(VDNA metabolic process
p49
I3059
tp50
a(Vanatomical structure formation involved in morphogenesis
p51
I3036
tp52
a(Vtransmembrane transporter activity
p53
I2972
tp54
a(Vnucleolus
p55
I2888
tp56
a(Vnucleus
p57
I2771
tp58
a(Vvesicle-mediated transport
p59
I2742
tp60
a(Vcarbohydrate metabolic process
p61
I2451
tp62
a(Vchromosome organization
p63
I2399
tp64
a(Vhomeostatic process
p65
I2373
tp66
a(Voxidoreductase activity
p67
I2357
tp68
a(VDNA binding
p69
I2291
tp70
a(Vcytoplasm
p71
I2209
tp72
a(Vmacromolecular complex assembly
p73
I2205
tp74
a(Vtransmembrane transport
p75
I2180
tp76
a(Vcell motility
p77
I2132
tp78
a(Vgrowth
p79
I2131
tp80
a(Vembryo development
p81
I2126
tp82
a(Vnucleobase-containing compound catabolic process
p83
I2100
tp84
a(Vprotein maturation
p85
I2086
tp86
a(Vsignal transducer activity
p87
I1969
tp88
a(Vneurological system process
p89
I1951
tp90
a(Vkinase activity
p91
I1913
tp92
a(Vprotein complex assembly
p93
I1800
tp94
a(Vcytoskeletal protein binding
p95
I1794
tp96
a(VRNA binding
p97
I1765
tp98
a(Vcytoskeleton organization
p99
I1746
tp100
a(Vcellular amino acid metabolic process
p101
I1600
tp102
a(VGolgi apparatus
p103
I1595
tp104
a(Vcytoplasmic membrane-bounded vesicle
p105
I1521
tp106
a(Vmitochondrion
p107
I1505
tp108
a(Vlipid binding
p109
I1472
tp110
a(Vpeptidase activity
p111
I1411
tp112
a(Vcell adhesion
p113
I1386
tp114
a(Vcytoskeleton
p115
I1349
tp116
a(Vendoplasmic reticulum
p117
I1283
tp118
a(Vcell death
p119
I1277
tp120
a(Vcell-cell signaling
p121
I1223
tp122
a(Vcell proliferation
p123
I1211
tp124
a(Vligase activity
p125
I1206
tp126
a(Vendosome
p127
I1154
tp128
a(Vmembrane organization
p129
I1144
tp130
a(VATPase activity
p131
I1138
tp132
a(Vnucleoplasm
p133
I1119
tp134
a(Vmicrotubule organizing center
p135
I1112
tp136
a(Venzyme regulator activity
p137
I1107
tp138
a(Vcell morphogenesis
p139
I1095
tp140
a(Vtranscription factor binding
p141
I975
tp142
a(Vextracellular region
p143
I967
tp144
a(Vsulfur compound metabolic process
p145
I929
tp146
a(Vstructural molecule activity
p147
I887
tp148
a(Vprotein targeting
p149
I854
tp150
a(Vprotein binding transcription factor activity
p151
I851
tp152
a(Vnucleic acid binding transcription factor activity
p153
I797
tp154
a(Vcofactor metabolic process
p155
I775
tp156
a(Vextracellular space
p157
I728
tp158
a(Vvacuole
p159
I721
tp160
a(Vcilium
p161
I718
tp162
a(Vextracellular matrix organization
p163
I694
tp164
a(VmRNA processing
p165
I693
tp166
a(Vgeneration of precursor metabolites and energy
p167
I672
tp168
a(Vtransferase activity, transferring acyl groups
p169
I666
tp170
a(Vsymbiosis, encompassing mutualism through parasitism
p171
I620
tp172
a(Vcell cycle
p173
I585
tp174
a(Vphosphatase activity
p175
I566
tp176
a(Vplastid
p177
I555
tp178
a(Vreproduction
p179
I552
tp180
a(Vhelicase activity
p181
I530
tp182
a(Vaging
p183
I505
tp184
a(Vtransferase activity, transferring glycosyl groups
p185
I499
tp186
a(Vcell division
p187
I495
tp188
a(Vlyase activity
p189
I467
tp190
a(Vnuclease activity
p191
I464
tp192
a(Vnucleocytoplasmic transport
p193
I458
tp194
a(Vcirculatory system process
p195
I425
tp196
a(Vexternal encapsulating structure
p197
I397
tp198
a(Vmethyltransferase activity
p199
I397
tp200
a(Vcell junction organization
p201
I391
tp202
a(Vcell wall
p203
I390
tp204
a(Vdevelopmental maturation
p205
I385
tp206
a(Vlysosome
p207
I377
tp208
a(Vchromosome
p209
I372
tp210
a(Vprotein folding
p211
I370
tp212
a(Vsecondary metabolic process
p213
I352
tp214
a(Vcytoskeleton-dependent intracellular transport
p215
I332
tp216
a(Vproteinaceous extracellular matrix
p217
I320
tp218
a(Vribonucleoprotein complex assembly
p219
I320
tp220
a(VGTPase activity
p221
I312
tp222
a(Vmitochondrion organization
p223
I311
tp224
a(Vnuclear envelope
p225
I310
tp226
a(Vhydrolase activity, acting on glycosyl bonds
p227
I282
tp228
a(Vcell wall organization or biogenesis
p229
I269
tp230
a(Visomerase activity
p231
I268
tp232
a(Vhistone binding
p233
I268
tp234
a(VmRNA binding
p235
I263
tp236
a(Vstructural constituent of ribosome
p237
I259
tp238
a(Vnucleotidyltransferase activity
p239
I250
tp240
a(Vplasma membrane organization
p241
I250
tp242
a(VtRNA metabolic process
p243
I246
tp244
a(Vmitosis
p245
I241
tp246
a(Vhydrolase activity, acting on carbon-nitrogen (but not peptide) bonds
p247
I236
tp248
a(Vchromosome segregation
p249
I230
tp250
a(Vperoxisome
p251
I209
tp252
a(Vsmall conjugating protein binding
p253
I207
tp254
a(Vvacuolar transport
p255
I204
tp256
a(Vtranslation factor activity, nucleic acid binding
p257
I192
tp258
a(Vprotein binding, bridging
p259
I191
tp260
a(Vunfolded protein binding
p261
I161
tp262
a(Vlipid particle
p263
I155
tp264
a(Vribosome
p265
I154
tp266
a(Vprotein transporter activity
p267
I151
tp268
a(Vtranslation
p269
I141
tp270
a(Vnuclear chromosome
p271
I124
tp272
a(Vtransferase activity, transferring alkyl or aryl (other than methyl) groups
p273
I115
tp274
a(Vribosome biogenesis
p275
I109
tp276
a(Vintracellular
p277
I99
tp278
a(Vpigmentation
p279
I90
tp280
a(Vthylakoid
p281
I77
tp282
a(VrRNA binding
p283
I72
tp284
a(Vtransposition
p285
I29
tp286
a(Vnitrogen cycle metabolic process
p287
I28
tp288
a(Vphotosynthesis
p289
I24
tp290
a(Vcell
p291
I11
tp292
a(VRNA modification guide activity
p293
I2
tp294
aa(lp295
(g3
L6372L
tp296
a(g5
L4365L
tp297
a(g7
L2787L
tp298
a(g9
L21685L
tp299
a(g11
L26888L
tp300
a(g13
L5491L
tp301
a(g15
L18268L
tp302
a(g17
L5801L
tp303
a(g19
L5613L
tp304
a(g21
L21693L
tp305
a(g23
L21630L
tp306
a(g25
L22689L
tp307
a(g27
L7192L
tp308
a(g29
L5168L
tp309
a(g31
L7190L
tp310
a(g33
L1781L
tp311
a(g35
L13924L
tp312
a(g37
L4599L
tp313
a(g39
L13633L
tp314
a(g41
L5326L
tp315
a(g43
L12968L
tp316
a(g45
L20507L
tp317
a(g47
L4644L
tp318
a(g49
L4995L
tp319
a(g51
L26682L
tp320
a(g53
L13690L
tp321
a(g55
L4507L
tp322
a(g57
L4422L
tp323
a(g59
L10381L
tp324
a(g61
L4725L
tp325
a(g63
L28228L
tp326
a(g65
L21086L
tp327
a(g67
L10598L
tp328
a(g69
L2790L
tp329
a(g71
L4514L
tp330
a(g73
L31581L
tp331
a(g75
L29927L
tp332
a(g77
L26901L
tp333
a(g79
L20503L
tp334
a(g81
L7881L
tp335
a(g83
L18282L
tp336
a(g85
L28535L
tp337
a(g87
L3827L
tp338
a(g89
L27837L
tp339
a(g91
L10466L
tp340
a(g93
L5165L
tp341
a(g95
L6320L
tp342
a(g97
L2830L
tp343
a(g99
L5663L
tp344
a(g101
L5218L
tp345
a(g103
L4567L
tp346
a(g105
L10229L
tp347
a(g107
L4515L
tp348
a(g109
L6500L
tp349
a(g111
L6448L
tp350
a(g113
L5791L
tp351
a(g115
L4621L
tp352
a(g117
L4556L
tp353
a(g119
L6436L
tp354
a(g121
L5896L
tp355
a(g123
L6494L
tp356
a(g125
L10950L
tp357
a(g127
L4542L
tp358
a(g129
L30984L
tp359
a(g131
L10963L
tp360
a(g133
L4439L
tp361
a(g135
L4586L
tp362
a(g137
L14001L
tp363
a(g139
L594L
tp364
a(g141
L6357L
tp365
a(g143
L4366L
tp366
a(g145
L5471L
tp367
a(g147
L4118L
tp368
a(g149
L5302L
tp369
a(g151
L677L
tp370
a(g153
L759L
tp371
a(g155
L28144L
tp372
a(g157
L4405L
tp373
a(g159
L4546L
tp374
a(g161
L4684L
tp375
a(g163
L13967L
tp376
a(g165
L5112L
tp377
a(g167
L4838L
tp378
a(g169
L10829L
tp379
a(g171
L22810L
tp380
a(g173
L5695L
tp381
a(g175
L10870L
tp382
a(g177
L7644L
tp383
a(g179
L3L
tp384
a(g181
L3404L
tp385
a(g183
L6169L
tp386
a(g185
L10840L
tp387
a(g187
L28251L
tp388
a(g189
L10905L
tp389
a(g191
L3518L
tp390
a(g193
L5582L
tp391
a(g195
L2364L
tp392
a(g197
L14078L
tp393
a(g199
L6389L
tp394
a(g201
L17965L
tp395
a(g203
L4408L
tp396
a(g205
L13274L
tp397
a(g207
L4538L
tp398
a(g209
L4475L
tp399
a(g211
L5161L
tp400
a(g213
L12827L
tp401
a(g215
L14427L
tp402
a(g217
L4368L
tp403
a(g219
L13644L
tp404
a(g221
L2991L
tp405
a(g223
L5658L
tp406
a(g225
L4423L
tp407
a(g227
L10876L
tp408
a(g229
L33137L
tp409
a(g231
L10929L
tp410
a(g233
L20900L
tp411
a(g235
L2835L
tp412
a(g237
L2841L
tp413
a(g239
L10860L
tp414
a(g241
L5662L
tp415
a(g243
L5114L
tp416
a(g245
L5712L
tp417
a(g247
L10886L
tp418
a(g249
L5705L
tp419
a(g251
L4550L
tp420
a(g253
L15840L
tp421
a(g255
L5682L
tp422
a(g257
L6358L
tp423
a(g259
L14396L
tp424
a(g261
L28040L
tp425
a(g263
L4583L
tp426
a(g265
L4609L
tp427
a(g267
L6747L
tp428
a(g269
L5126L
tp429
a(g271
L201L
tp430
a(g273
L10848L
tp431
a(g275
L20770L
tp432
a(g277
L4411L
tp433
a(g279
L21900L
tp434
a(g281
L7683L
tp435
a(g283
L12918L
tp436
a(g285
L15852L
tp437
a(g287
L33512L
tp438
a(g289
L10192L
tp439
a(g291
L4412L
tp440
a(g293
L14288L
tp441
aaI697647
a.