(lp1
(lp2
(Vbiological_process
p3
I339825
tp4
a(Vcellular_component
p5
I111725
tp6
a(Vmolecular_function
p7
I92178
tp8
a(Vorganelle
p9
I29386
tp10
a(Vanatomical structure development
p11
I26094
tp12
a(Vtransport
p13
I18688
tp14
a(Vsignal transduction
p15
I15526
tp16
a(Vcellular nitrogen compound metabolic process
p17
I15165
tp18
a(Vresponse to stress
p19
I12743
tp20
a(Vprotein complex
p21
I12256
tp22
a(Vion binding
p23
I11417
tp24
a(Vsmall molecule metabolic process
p25
I10854
tp26
a(Vbiosynthetic process
p27
I10159
tp28
a(Vcellular protein modification process
p29
I8558
tp30
a(Vcatabolic process
p31
I7780
tp32
a(Vimmune system process
p33
I6825
tp34
a(Vcell differentiation
p35
I6137
tp36
a(Vcellular component assembly
p37
I5326
tp38
a(Vcytosol
p39
I5188
tp40
a(Vlipid metabolic process
p41
I5009
tp42
a(Venzyme binding
p43
I4926
tp44
a(Vlocomotion
p45
I4228
tp46
a(Vanatomical structure formation involved in morphogenesis
p47
I4125
tp48
a(Vplasma membrane
p49
I4096
tp50
a(Vtransmembrane transporter activity
p51
I3902
tp52
a(VDNA metabolic process
p53
I3842
tp54
a(Vnucleolus
p55
I3762
tp56
a(Vvesicle-mediated transport
p57
I3753
tp58
a(Vnucleus
p59
I3618
tp60
a(Vhomeostatic process
p61
I3277
tp62
a(Vcarbohydrate metabolic process
p63
I3222
tp64
a(VDNA binding
p65
I3189
tp66
a(Vchromosome organization
p67
I3081
tp68
a(Voxidoreductase activity
p69
I3053
tp70
a(Vmacromolecular complex assembly
p71
I3045
tp72
a(Vcell motility
p73
I3029
tp74
a(Vtransmembrane transport
p75
I2921
tp76
a(Vcytoplasm
p77
I2894
tp78
a(Vneurological system process
p79
I2797
tp80
a(Vgrowth
p81
I2771
tp82
a(Vsignal transducer activity
p83
I2728
tp84
a(Vnucleobase-containing compound catabolic process
p85
I2682
tp86
a(Vembryo development
p87
I2679
tp88
a(Vprotein maturation
p89
I2669
tp90
a(Vcytoskeletal protein binding
p91
I2500
tp92
a(Vprotein complex assembly
p93
I2453
tp94
a(Vkinase activity
p95
I2449
tp96
a(Vcytoskeleton organization
p97
I2406
tp98
a(VRNA binding
p99
I2159
tp100
a(VGolgi apparatus
p101
I2068
tp102
a(Vcytoplasmic membrane-bounded vesicle
p103
I2040
tp104
a(Vcellular amino acid metabolic process
p105
I1998
tp106
a(Vlipid binding
p107
I1994
tp108
a(Vmitochondrion
p109
I1983
tp110
a(Vcell adhesion
p111
I1886
tp112
a(Vcytoskeleton
p113
I1778
tp114
a(Vpeptidase activity
p115
I1777
tp116
a(Vendoplasmic reticulum
p117
I1697
tp118
a(Vcell-cell signaling
p119
I1671
tp120
a(Vmembrane organization
p121
I1663
tp122
a(Vcell proliferation
p123
I1586
tp124
a(Venzyme regulator activity
p125
I1574
tp126
a(Vcell death
p127
I1574
tp128
a(VATPase activity
p129
I1567
tp130
a(Vendosome
p131
I1547
tp132
a(Vligase activity
p133
I1527
tp134
a(Vcell morphogenesis
p135
I1437
tp136
a(Vmicrotubule organizing center
p137
I1418
tp138
a(Vnucleoplasm
p139
I1417
tp140
a(Vtranscription factor binding
p141
I1368
tp142
a(Vstructural molecule activity
p143
I1254
tp144
a(Vextracellular region
p145
I1237
tp146
a(Vprotein binding transcription factor activity
p147
I1236
tp148
a(Vsulfur compound metabolic process
p149
I1234
tp150
a(Vnucleic acid binding transcription factor activity
p151
I1110
tp152
a(Vprotein targeting
p153
I1083
tp154
a(Vextracellular space
p155
I1040
tp156
a(Vextracellular matrix organization
p157
I1014
tp158
a(Vcofactor metabolic process
p159
I983
tp160
a(Vcilium
p161
I960
tp162
a(Vgeneration of precursor metabolites and energy
p163
I896
tp164
a(Vtransferase activity, transferring acyl groups
p165
I896
tp166
a(VmRNA processing
p167
I878
tp168
a(Vvacuole
p169
I877
tp170
a(Vsymbiosis, encompassing mutualism through parasitism
p171
I823
tp172
a(Vphosphatase activity
p173
I743
tp174
a(Vaging
p175
I698
tp176
a(Vcell cycle
p177
I691
tp178
a(Vplastid
p179
I680
tp180
a(Vtransferase activity, transferring glycosyl groups
p181
I679
tp182
a(Vhelicase activity
p183
I660
tp184
a(Vreproduction
p185
I653
tp186
a(Vlyase activity
p187
I626
tp188
a(Vnucleocytoplasmic transport
p189
I611
tp190
a(Vcell division
p191
I584
tp192
a(Vcirculatory system process
p193
I584
tp194
a(Vcell junction organization
p195
I555
tp196
a(Vnuclease activity
p197
I548
tp198
a(Vdevelopmental maturation
p199
I532
tp200
a(Vmethyltransferase activity
p201
I495
tp202
a(Vlysosome
p203
I486
tp204
a(Vprotein folding
p205
I477
tp206
a(Vcytoskeleton-dependent intracellular transport
p207
I472
tp208
a(Vribonucleoprotein complex assembly
p209
I468
tp210
a(Vexternal encapsulating structure
p211
I457
tp212
a(Vproteinaceous extracellular matrix
p213
I455
tp214
a(Vmitochondrion organization
p215
I453
tp216
a(Vcell wall
p217
I447
tp218
a(Vsecondary metabolic process
p219
I436
tp220
a(Vchromosome
p221
I434
tp222
a(Vnuclear envelope
p223
I407
tp224
a(VGTPase activity
p225
I399
tp226
a(Vhydrolase activity, acting on glycosyl bonds
p227
I383
tp228
a(Vhistone binding
p229
I366
tp230
a(Visomerase activity
p231
I361
tp232
a(Vplasma membrane organization
p233
I345
tp234
a(VmRNA binding
p235
I341
tp236
a(Vnucleotidyltransferase activity
p237
I324
tp238
a(Vcell wall organization or biogenesis
p239
I324
tp240
a(Vhydrolase activity, acting on carbon-nitrogen (but not peptide) bonds
p241
I305
tp242
a(Vstructural constituent of ribosome
p243
I303
tp244
a(Vchromosome segregation
p245
I287
tp246
a(VtRNA metabolic process
p247
I285
tp248
a(Vmitosis
p249
I284
tp250
a(Vprotein binding, bridging
p251
I279
tp252
a(Vperoxisome
p253
I276
tp254
a(Vsmall conjugating protein binding
p255
I271
tp256
a(Vvacuolar transport
p257
I270
tp258
a(Vtranslation factor activity, nucleic acid binding
p259
I240
tp260
a(Vunfolded protein binding
p261
I211
tp262
a(Vprotein transporter activity
p263
I207
tp264
a(Vlipid particle
p265
I207
tp266
a(Vribosome
p267
I183
tp268
a(Vtranslation
p269
I169
tp270
a(Vnuclear chromosome
p271
I145
tp272
a(Vtransferase activity, transferring alkyl or aryl (other than methyl) groups
p273
I135
tp274
a(Vintracellular
p275
I129
tp276
a(Vribosome biogenesis
p277
I123
tp278
a(Vpigmentation
p279
I115
tp280
a(Vthylakoid
p281
I86
tp282
a(VrRNA binding
p283
I85
tp284
a(Vnitrogen cycle metabolic process
p285
I47
tp286
a(Vtransposition
p287
I30
tp288
a(Vphotosynthesis
p289
I28
tp290
a(Vcell
p291
I17
tp292
a(VRNA modification guide activity
p293
I2
tp294
aa(lp295
(g3
L6372L
tp296
a(g5
L4365L
tp297
a(g7
L2787L
tp298
a(g9
L21685L
tp299
a(g11
L26888L
tp300
a(g13
L5491L
tp301
a(g15
L5801L
tp302
a(g17
L18268L
tp303
a(g19
L5613L
tp304
a(g21
L21693L
tp305
a(g23
L21630L
tp306
a(g25
L22689L
tp307
a(g27
L7192L
tp308
a(g29
L5168L
tp309
a(g31
L7190L
tp310
a(g33
L1781L
tp311
a(g35
L13924L
tp312
a(g37
L13633L
tp313
a(g39
L4599L
tp314
a(g41
L5326L
tp315
a(g43
L12968L
tp316
a(g45
L20507L
tp317
a(g47
L26682L
tp318
a(g49
L4644L
tp319
a(g51
L13690L
tp320
a(g53
L4995L
tp321
a(g55
L4507L
tp322
a(g57
L10381L
tp323
a(g59
L4422L
tp324
a(g61
L21086L
tp325
a(g63
L4725L
tp326
a(g65
L2790L
tp327
a(g67
L28228L
tp328
a(g69
L10598L
tp329
a(g71
L31581L
tp330
a(g73
L26901L
tp331
a(g75
L29927L
tp332
a(g77
L4514L
tp333
a(g79
L27837L
tp334
a(g81
L20503L
tp335
a(g83
L3827L
tp336
a(g85
L18282L
tp337
a(g87
L7881L
tp338
a(g89
L28535L
tp339
a(g91
L6320L
tp340
a(g93
L5165L
tp341
a(g95
L10466L
tp342
a(g97
L5663L
tp343
a(g99
L2830L
tp344
a(g101
L4567L
tp345
a(g103
L10229L
tp346
a(g105
L5218L
tp347
a(g107
L6500L
tp348
a(g109
L4515L
tp349
a(g111
L5791L
tp350
a(g113
L4621L
tp351
a(g115
L6448L
tp352
a(g117
L4556L
tp353
a(g119
L5896L
tp354
a(g121
L30984L
tp355
a(g123
L6494L
tp356
a(g125
L14001L
tp357
a(g127
L6436L
tp358
a(g129
L10963L
tp359
a(g131
L4542L
tp360
a(g133
L10950L
tp361
a(g135
L594L
tp362
a(g137
L4586L
tp363
a(g139
L4439L
tp364
a(g141
L6357L
tp365
a(g143
L4118L
tp366
a(g145
L4366L
tp367
a(g147
L677L
tp368
a(g149
L5471L
tp369
a(g151
L759L
tp370
a(g153
L5302L
tp371
a(g155
L4405L
tp372
a(g157
L13967L
tp373
a(g159
L28144L
tp374
a(g161
L4684L
tp375
a(g163
L4838L
tp376
a(g165
L10829L
tp377
a(g167
L5112L
tp378
a(g169
L4546L
tp379
a(g171
L22810L
tp380
a(g173
L10870L
tp381
a(g175
L6169L
tp382
a(g177
L5695L
tp383
a(g179
L7644L
tp384
a(g181
L10840L
tp385
a(g183
L3404L
tp386
a(g185
L3L
tp387
a(g187
L10905L
tp388
a(g189
L5582L
tp389
a(g191
L28251L
tp390
a(g193
L2364L
tp391
a(g195
L17965L
tp392
a(g197
L3518L
tp393
a(g199
L13274L
tp394
a(g201
L6389L
tp395
a(g203
L4538L
tp396
a(g205
L5161L
tp397
a(g207
L14427L
tp398
a(g209
L13644L
tp399
a(g211
L14078L
tp400
a(g213
L4368L
tp401
a(g215
L5658L
tp402
a(g217
L4408L
tp403
a(g219
L12827L
tp404
a(g221
L4475L
tp405
a(g223
L4423L
tp406
a(g225
L2991L
tp407
a(g227
L10876L
tp408
a(g229
L20900L
tp409
a(g231
L10929L
tp410
a(g233
L5662L
tp411
a(g235
L2835L
tp412
a(g237
L10860L
tp413
a(g239
L33137L
tp414
a(g241
L10886L
tp415
a(g243
L2841L
tp416
a(g245
L5705L
tp417
a(g247
L5114L
tp418
a(g249
L5712L
tp419
a(g251
L14396L
tp420
a(g253
L4550L
tp421
a(g255
L15840L
tp422
a(g257
L5682L
tp423
a(g259
L6358L
tp424
a(g261
L28040L
tp425
a(g263
L6747L
tp426
a(g265
L4583L
tp427
a(g267
L4609L
tp428
a(g269
L5126L
tp429
a(g271
L201L
tp430
a(g273
L10848L
tp431
a(g275
L4411L
tp432
a(g277
L20770L
tp433
a(g279
L21900L
tp434
a(g281
L7683L
tp435
a(g283
L12918L
tp436
a(g285
L33512L
tp437
a(g287
L15852L
tp438
a(g289
L10192L
tp439
a(g291
L4412L
tp440
a(g293
L14288L
tp441
aaI916079
a.