(lp1
(lp2
(Vbiological_process
p3
I320111
tp4
a(Vcellular_component
p5
I104554
tp6
a(Vmolecular_function
p7
I85009
tp8
a(Vorganelle
p9
I27805
tp10
a(Vanatomical structure development
p11
I24440
tp12
a(Vtransport
p13
I17645
tp14
a(Vcellular nitrogen compound metabolic process
p15
I14856
tp16
a(Vsignal transduction
p17
I14153
tp18
a(Vresponse to stress
p19
I11932
tp20
a(Vprotein complex
p21
I11256
tp22
a(Vsmall molecule metabolic process
p23
I10537
tp24
a(Vbiosynthetic process
p25
I10345
tp26
a(Vion binding
p27
I10115
tp28
a(Vcellular protein modification process
p29
I8034
tp30
a(Vcatabolic process
p31
I7488
tp32
a(Vimmune system process
p33
I6065
tp34
a(Vcell differentiation
p35
I5734
tp36
a(Vlipid metabolic process
p37
I5025
tp38
a(Vcellular component assembly
p39
I4755
tp40
a(Vcytosol
p41
I4699
tp42
a(Venzyme binding
p43
I4321
tp44
a(Vtransmembrane transporter activity
p45
I3767
tp46
a(Vplasma membrane
p47
I3754
tp48
a(VDNA metabolic process
p49
I3712
tp50
a(Vlocomotion
p51
I3650
tp52
a(Vanatomical structure formation involved in morphogenesis
p53
I3638
tp54
a(Vnucleolus
p55
I3444
tp56
a(Vvesicle-mediated transport
p57
I3409
tp58
a(Vnucleus
p59
I3401
tp60
a(Voxidoreductase activity
p61
I3225
tp62
a(Vchromosome organization
p63
I3032
tp64
a(Vhomeostatic process
p65
I2988
tp66
a(Vcarbohydrate metabolic process
p67
I2984
tp68
a(VDNA binding
p69
I2839
tp70
a(Vcytoplasm
p71
I2798
tp72
a(Vsignal transducer activity
p73
I2782
tp74
a(Vtransmembrane transport
p75
I2743
tp76
a(Vmacromolecular complex assembly
p77
I2676
tp78
a(Vgrowth
p79
I2601
tp80
a(Vnucleobase-containing compound catabolic process
p81
I2549
tp82
a(Vembryo development
p83
I2534
tp84
a(Vcell motility
p85
I2481
tp86
a(Vneurological system process
p87
I2462
tp88
a(Vprotein maturation
p89
I2400
tp90
a(Vkinase activity
p91
I2249
tp92
a(Vcytoskeletal protein binding
p93
I2220
tp94
a(Vprotein complex assembly
p95
I2172
tp96
a(Vcytoskeleton organization
p97
I2140
tp98
a(VRNA binding
p99
I2056
tp100
a(Vmitochondrion
p101
I1931
tp102
a(Vcellular amino acid metabolic process
p103
I1880
tp104
a(Vcytoplasmic membrane-bounded vesicle
p105
I1838
tp106
a(VGolgi apparatus
p107
I1838
tp108
a(Vlipid binding
p109
I1792
tp110
a(Vcell-cell signaling
p111
I1679
tp112
a(Vendoplasmic reticulum
p113
I1639
tp114
a(Vcytoskeleton
p115
I1609
tp116
a(Vpeptidase activity
p117
I1608
tp118
a(Vcell adhesion
p119
I1586
tp120
a(Vcell death
p121
I1523
tp122
a(Vmembrane organization
p123
I1418
tp124
a(Vcell proliferation
p125
I1417
tp126
a(Vendosome
p127
I1409
tp128
a(Vligase activity
p129
I1385
tp130
a(Venzyme regulator activity
p131
I1366
tp132
a(VATPase activity
p133
I1348
tp134
a(Vmicrotubule organizing center
p135
I1343
tp136
a(Vnucleoplasm
p137
I1337
tp138
a(Vcell morphogenesis
p139
I1282
tp140
a(Vtranscription factor binding
p141
I1244
tp142
a(Vextracellular region
p143
I1138
tp144
a(Vprotein binding transcription factor activity
p145
I1086
tp146
a(Vsulfur compound metabolic process
p147
I1077
tp148
a(Vnucleic acid binding transcription factor activity
p149
I1024
tp150
a(Vstructural molecule activity
p151
I1014
tp152
a(Vprotein targeting
p153
I1001
tp154
a(Vcofactor metabolic process
p155
I958
tp156
a(Vcilium
p157
I953
tp158
a(Vtransferase activity, transferring acyl groups
p159
I911
tp160
a(Vgeneration of precursor metabolites and energy
p161
I834
tp162
a(Vextracellular space
p163
I822
tp164
a(Vcell cycle
p165
I811
tp166
a(VmRNA processing
p167
I799
tp168
a(Vvacuole
p169
I798
tp170
a(Vextracellular matrix organization
p171
I780
tp172
a(Vtransferase activity, transferring glycosyl groups
p173
I750
tp174
a(Vphosphatase activity
p175
I749
tp176
a(Vsymbiosis, encompassing mutualism through parasitism
p177
I748
tp178
a(Vreproduction
p179
I660
tp180
a(Vplastid
p181
I641
tp182
a(Vcell division
p183
I617
tp184
a(Vlyase activity
p185
I612
tp186
a(Vaging
p187
I610
tp188
a(Vhelicase activity
p189
I590
tp190
a(Vcirculatory system process
p191
I585
tp192
a(Vnuclease activity
p193
I556
tp194
a(Vnucleocytoplasmic transport
p195
I519
tp196
a(Vmethyltransferase activity
p197
I492
tp198
a(Vcell junction organization
p199
I485
tp200
a(Vcytoskeleton-dependent intracellular transport
p201
I451
tp202
a(Vchromosome
p203
I450
tp204
a(Vexternal encapsulating structure
p205
I438
tp206
a(Vprotein folding
p207
I438
tp208
a(Vdevelopmental maturation
p209
I437
tp210
a(Vsecondary metabolic process
p211
I435
tp212
a(Vcell wall
p213
I431
tp214
a(Vlysosome
p215
I424
tp216
a(Vmitochondrion organization
p217
I417
tp218
a(Vnuclear envelope
p219
I406
tp220
a(VGTPase activity
p221
I394
tp222
a(Vribonucleoprotein complex assembly
p223
I390
tp224
a(Vproteinaceous extracellular matrix
p225
I350
tp226
a(Visomerase activity
p227
I345
tp228
a(Vhydrolase activity, acting on glycosyl bonds
p229
I341
tp230
a(Vhistone binding
p231
I332
tp232
a(Vcell wall organization or biogenesis
p233
I318
tp234
a(Vnucleotidyltransferase activity
p235
I317
tp236
a(Vplasma membrane organization
p237
I313
tp238
a(VmRNA binding
p239
I313
tp240
a(Vstructural constituent of ribosome
p241
I309
tp242
a(VtRNA metabolic process
p243
I302
tp244
a(Vchromosome segregation
p245
I285
tp246
a(Vhydrolase activity, acting on carbon-nitrogen (but not peptide) bonds
p247
I285
tp248
a(Vmitosis
p249
I285
tp250
a(Vperoxisome
p251
I265
tp252
a(Vvacuolar transport
p253
I258
tp254
a(Vsmall conjugating protein binding
p255
I234
tp256
a(Vtranslation factor activity, nucleic acid binding
p257
I231
tp258
a(Vprotein binding, bridging
p259
I221
tp260
a(Vlipid particle
p261
I198
tp262
a(Vunfolded protein binding
p263
I186
tp264
a(Vribosome
p265
I181
tp266
a(Vtranslation
p267
I181
tp268
a(Vprotein transporter activity
p269
I177
tp270
a(Vtransferase activity, transferring alkyl or aryl (other than methyl) groups
p271
I159
tp272
a(Vnuclear chromosome
p273
I139
tp274
a(Vribosome biogenesis
p275
I129
tp276
a(Vintracellular
p277
I126
tp278
a(Vpigmentation
p279
I107
tp280
a(Vthylakoid
p281
I88
tp282
a(VrRNA binding
p283
I88
tp284
a(Vnitrogen cycle metabolic process
p285
I33
tp286
a(Vtransposition
p287
I29
tp288
a(Vphotosynthesis
p289
I28
tp290
a(Vcell
p291
I12
tp292
a(VRNA modification guide activity
p293
I4
tp294
aa(lp295
(g3
L6372L
tp296
a(g5
L4365L
tp297
a(g7
L2787L
tp298
a(g9
L21685L
tp299
a(g11
L26888L
tp300
a(g13
L5491L
tp301
a(g15
L18268L
tp302
a(g17
L5801L
tp303
a(g19
L5613L
tp304
a(g21
L21693L
tp305
a(g23
L22689L
tp306
a(g25
L7192L
tp307
a(g27
L21630L
tp308
a(g29
L5168L
tp309
a(g31
L7190L
tp310
a(g33
L1781L
tp311
a(g35
L13924L
tp312
a(g37
L5326L
tp313
a(g39
L13633L
tp314
a(g41
L4599L
tp315
a(g43
L12968L
tp316
a(g45
L13690L
tp317
a(g47
L4644L
tp318
a(g49
L4995L
tp319
a(g51
L20507L
tp320
a(g53
L26682L
tp321
a(g55
L4507L
tp322
a(g57
L10381L
tp323
a(g59
L4422L
tp324
a(g61
L10598L
tp325
a(g63
L28228L
tp326
a(g65
L21086L
tp327
a(g67
L4725L
tp328
a(g69
L2790L
tp329
a(g71
L4514L
tp330
a(g73
L3827L
tp331
a(g75
L29927L
tp332
a(g77
L31581L
tp333
a(g79
L20503L
tp334
a(g81
L18282L
tp335
a(g83
L7881L
tp336
a(g85
L26901L
tp337
a(g87
L27837L
tp338
a(g89
L28535L
tp339
a(g91
L10466L
tp340
a(g93
L6320L
tp341
a(g95
L5165L
tp342
a(g97
L5663L
tp343
a(g99
L2830L
tp344
a(g101
L4515L
tp345
a(g103
L5218L
tp346
a(g105
L10229L
tp347
a(g107
L4567L
tp348
a(g109
L6500L
tp349
a(g111
L5896L
tp350
a(g113
L4556L
tp351
a(g115
L4621L
tp352
a(g117
L6448L
tp353
a(g119
L5791L
tp354
a(g121
L6436L
tp355
a(g123
L30984L
tp356
a(g125
L6494L
tp357
a(g127
L4542L
tp358
a(g129
L10950L
tp359
a(g131
L14001L
tp360
a(g133
L10963L
tp361
a(g135
L4586L
tp362
a(g137
L4439L
tp363
a(g139
L594L
tp364
a(g141
L6357L
tp365
a(g143
L4366L
tp366
a(g145
L677L
tp367
a(g147
L5471L
tp368
a(g149
L759L
tp369
a(g151
L4118L
tp370
a(g153
L5302L
tp371
a(g155
L28144L
tp372
a(g157
L4684L
tp373
a(g159
L10829L
tp374
a(g161
L4838L
tp375
a(g163
L4405L
tp376
a(g165
L5695L
tp377
a(g167
L5112L
tp378
a(g169
L4546L
tp379
a(g171
L13967L
tp380
a(g173
L10840L
tp381
a(g175
L10870L
tp382
a(g177
L22810L
tp383
a(g179
L3L
tp384
a(g181
L7644L
tp385
a(g183
L28251L
tp386
a(g185
L10905L
tp387
a(g187
L6169L
tp388
a(g189
L3404L
tp389
a(g191
L2364L
tp390
a(g193
L3518L
tp391
a(g195
L5582L
tp392
a(g197
L6389L
tp393
a(g199
L17965L
tp394
a(g201
L14427L
tp395
a(g203
L4475L
tp396
a(g205
L14078L
tp397
a(g207
L5161L
tp398
a(g209
L13274L
tp399
a(g211
L12827L
tp400
a(g213
L4408L
tp401
a(g215
L4538L
tp402
a(g217
L5658L
tp403
a(g219
L4423L
tp404
a(g221
L2991L
tp405
a(g223
L13644L
tp406
a(g225
L4368L
tp407
a(g227
L10929L
tp408
a(g229
L10876L
tp409
a(g231
L20900L
tp410
a(g233
L33137L
tp411
a(g235
L10860L
tp412
a(g237
L5662L
tp413
a(g239
L2835L
tp414
a(g241
L2841L
tp415
a(g243
L5114L
tp416
a(g245
L5705L
tp417
a(g247
L10886L
tp418
a(g249
L5712L
tp419
a(g251
L4550L
tp420
a(g253
L5682L
tp421
a(g255
L15840L
tp422
a(g257
L6358L
tp423
a(g259
L14396L
tp424
a(g261
L4583L
tp425
a(g263
L28040L
tp426
a(g265
L4609L
tp427
a(g267
L5126L
tp428
a(g269
L6747L
tp429
a(g271
L10848L
tp430
a(g273
L201L
tp431
a(g275
L20770L
tp432
a(g277
L4411L
tp433
a(g279
L21900L
tp434
a(g281
L7683L
tp435
a(g283
L12918L
tp436
a(g285
L33512L
tp437
a(g287
L15852L
tp438
a(g289
L10192L
tp439
a(g291
L4412L
tp440
a(g293
L14288L
tp441
aaI856957
a.