(lp1
(lp2
(Vbiological_process
p3
I289282
tp4
a(Vcellular_component
p5
I99577
tp6
a(Vmolecular_function
p7
I80240
tp8
a(Vorganelle
p9
I27568
tp10
a(Vanatomical structure development
p11
I19390
tp12
a(Vtransport
p13
I17372
tp14
a(Vcellular nitrogen compound metabolic process
p15
I14871
tp16
a(Vsignal transduction
p17
I12821
tp18
a(Vresponse to stress
p19
I12065
tp20
a(Vprotein complex
p21
I11143
tp22
a(Vbiosynthetic process
p23
I11100
tp24
a(Vsmall molecule metabolic process
p25
I10709
tp26
a(Vion binding
p27
I9818
tp28
a(Vcellular protein modification process
p29
I8228
tp30
a(Vcatabolic process
p31
I7818
tp32
a(Vimmune system process
p33
I5747
tp34
a(Vcellular component assembly
p35
I4947
tp36
a(Vcytosol
p37
I4909
tp38
a(Vlipid metabolic process
p39
I4876
tp40
a(Vcell differentiation
p41
I4468
tp42
a(Venzyme binding
p43
I4195
tp44
a(Vplasma membrane
p45
I3841
tp46
a(Vtransmembrane transporter activity
p47
I3580
tp48
a(Vcarbohydrate metabolic process
p49
I3523
tp50
a(VDNA metabolic process
p51
I3499
tp52
a(Vnucleus
p53
I3458
tp54
a(Vvesicle-mediated transport
p55
I3365
tp56
a(Vnucleolus
p57
I3299
tp58
a(Vlocomotion
p59
I3071
tp60
a(Voxidoreductase activity
p61
I2985
tp62
a(Vchromosome organization
p63
I2875
tp64
a(Vmacromolecular complex assembly
p65
I2857
tp66
a(Vanatomical structure formation involved in morphogenesis
p67
I2780
tp68
a(Vkinase activity
p69
I2729
tp70
a(Vcytoplasm
p71
I2696
tp72
a(Vnucleobase-containing compound catabolic process
p73
I2664
tp74
a(Vhomeostatic process
p75
I2636
tp76
a(Vtransmembrane transport
p77
I2572
tp78
a(Vgrowth
p79
I2515
tp80
a(VDNA binding
p81
I2457
tp82
a(Vembryo development
p83
I2412
tp84
a(Vcytoskeletal protein binding
p85
I2353
tp86
a(Vprotein complex assembly
p87
I2315
tp88
a(Vprotein maturation
p89
I2244
tp90
a(Vcytoskeleton organization
p91
I2186
tp92
a(VRNA binding
p93
I2144
tp94
a(Vcell motility
p95
I2116
tp96
a(Vcellular amino acid metabolic process
p97
I2006
tp98
a(Vmitochondrion
p99
I1993
tp100
a(VGolgi apparatus
p101
I1817
tp102
a(Vneurological system process
p103
I1810
tp104
a(VATPase activity
p105
I1776
tp106
a(Vcytoskeleton
p107
I1686
tp108
a(Vcytoplasmic membrane-bounded vesicle
p109
I1561
tp110
a(Vpeptidase activity
p111
I1517
tp112
a(Vendoplasmic reticulum
p113
I1492
tp114
a(Vlipid binding
p115
I1480
tp116
a(Vsignal transducer activity
p117
I1469
tp118
a(Vmembrane organization
p119
I1422
tp120
a(Vmicrotubule organizing center
p121
I1415
tp122
a(Vligase activity
p123
I1397
tp124
a(Vcell death
p125
I1357
tp126
a(Vcell-cell signaling
p127
I1319
tp128
a(Vendosome
p129
I1319
tp130
a(Vnucleoplasm
p131
I1262
tp132
a(Venzyme regulator activity
p133
I1245
tp134
a(Vcell morphogenesis
p135
I1225
tp136
a(Vprotein targeting
p137
I1224
tp138
a(Vcell adhesion
p139
I1197
tp140
a(Vsulfur compound metabolic process
p141
I1139
tp142
a(Vcell proliferation
p143
I1126
tp144
a(Vcofactor metabolic process
p145
I1116
tp146
a(Vtranscription factor binding
p147
I1046
tp148
a(Vextracellular region
p149
I1044
tp150
a(Vstructural molecule activity
p151
I1034
tp152
a(Vplastid
p153
I955
tp154
a(Vgeneration of precursor metabolites and energy
p155
I952
tp156
a(Vprotein binding transcription factor activity
p157
I925
tp158
a(Vvacuole
p159
I912
tp160
a(Vcilium
p161
I897
tp162
a(Vtransferase activity, transferring acyl groups
p163
I892
tp164
a(VmRNA processing
p165
I880
tp166
a(Vcell cycle
p167
I865
tp168
a(Vnucleic acid binding transcription factor activity
p169
I783
tp170
a(Vsymbiosis, encompassing mutualism through parasitism
p171
I776
tp172
a(Vreproduction
p173
I749
tp174
a(Vphosphatase activity
p175
I729
tp176
a(Vhelicase activity
p177
I728
tp178
a(Vlyase activity
p179
I677
tp180
a(Vnucleocytoplasmic transport
p181
I618
tp182
a(Vextracellular space
p183
I613
tp184
a(Vtransferase activity, transferring glycosyl groups
p185
I607
tp186
a(Vcell division
p187
I600
tp188
a(Vprotein folding
p189
I595
tp190
a(Vextracellular matrix organization
p191
I566
tp192
a(Vmethyltransferase activity
p193
I548
tp194
a(Vexternal encapsulating structure
p195
I535
tp196
a(Vcell wall
p197
I530
tp198
a(Vcytoskeleton-dependent intracellular transport
p199
I499
tp200
a(Vaging
p201
I497
tp202
a(Vsecondary metabolic process
p203
I483
tp204
a(Vdevelopmental maturation
p205
I478
tp206
a(Visomerase activity
p207
I475
tp208
a(Vnuclease activity
p209
I467
tp210
a(Vchromosome
p211
I451
tp212
a(Vcell junction organization
p213
I441
tp214
a(Vribonucleoprotein complex assembly
p215
I441
tp216
a(Vcell wall organization or biogenesis
p217
I421
tp218
a(Vcirculatory system process
p219
I415
tp220
a(Vhydrolase activity, acting on glycosyl bonds
p221
I405
tp222
a(Vlysosome
p223
I400
tp224
a(Vmitochondrion organization
p225
I398
tp226
a(Vnuclear envelope
p227
I395
tp228
a(VGTPase activity
p229
I391
tp230
a(VmRNA binding
p231
I378
tp232
a(Vnucleotidyltransferase activity
p233
I343
tp234
a(Vperoxisome
p235
I319
tp236
a(Vchromosome segregation
p237
I302
tp238
a(Vvacuolar transport
p239
I290
tp240
a(Vplasma membrane organization
p241
I289
tp242
a(Vmitosis
p243
I287
tp244
a(Vstructural constituent of ribosome
p245
I285
tp246
a(Vprotein binding, bridging
p247
I282
tp248
a(Vhistone binding
p249
I281
tp250
a(Vhydrolase activity, acting on carbon-nitrogen (but not peptide) bonds
p251
I272
tp252
a(VtRNA metabolic process
p253
I271
tp254
a(Vtranslation factor activity, nucleic acid binding
p255
I247
tp256
a(Vsmall conjugating protein binding
p257
I234
tp258
a(Vtranslation
p259
I224
tp260
a(Vunfolded protein binding
p261
I220
tp262
a(Vproteinaceous extracellular matrix
p263
I203
tp264
a(Vribosome
p265
I186
tp266
a(Vlipid particle
p267
I185
tp268
a(Vprotein transporter activity
p269
I159
tp270
a(Vtransferase activity, transferring alkyl or aryl (other than methyl) groups
p271
I152
tp272
a(Vribosome biogenesis
p273
I138
tp274
a(Vintracellular
p275
I134
tp276
a(Vthylakoid
p277
I126
tp278
a(Vnuclear chromosome
p279
I123
tp280
a(Vpigmentation
p281
I116
tp282
a(VrRNA binding
p283
I80
tp284
a(Vnitrogen cycle metabolic process
p285
I49
tp286
a(Vphotosynthesis
p287
I43
tp288
a(Vtransposition
p289
I38
tp290
a(Vcytoplasmic chromosome
p291
I7
tp292
a(Vcell
p293
I4
tp294
a(VRNA modification guide activity
p295
I2
tp296
aa(lp297
(g3
L6372L
tp298
a(g5
L4365L
tp299
a(g7
L2787L
tp300
a(g9
L21685L
tp301
a(g11
L26888L
tp302
a(g13
L5491L
tp303
a(g15
L18268L
tp304
a(g17
L5801L
tp305
a(g19
L5613L
tp306
a(g21
L21693L
tp307
a(g23
L7192L
tp308
a(g25
L22689L
tp309
a(g27
L21630L
tp310
a(g29
L5168L
tp311
a(g31
L7190L
tp312
a(g33
L1781L
tp313
a(g35
L13633L
tp314
a(g37
L4599L
tp315
a(g39
L5326L
tp316
a(g41
L13924L
tp317
a(g43
L12968L
tp318
a(g45
L4644L
tp319
a(g47
L13690L
tp320
a(g49
L4725L
tp321
a(g51
L4995L
tp322
a(g53
L4422L
tp323
a(g55
L10381L
tp324
a(g57
L4507L
tp325
a(g59
L20507L
tp326
a(g61
L10598L
tp327
a(g63
L28228L
tp328
a(g65
L31581L
tp329
a(g67
L26682L
tp330
a(g69
L10466L
tp331
a(g71
L4514L
tp332
a(g73
L18282L
tp333
a(g75
L21086L
tp334
a(g77
L29927L
tp335
a(g79
L20503L
tp336
a(g81
L2790L
tp337
a(g83
L7881L
tp338
a(g85
L6320L
tp339
a(g87
L5165L
tp340
a(g89
L28535L
tp341
a(g91
L5663L
tp342
a(g93
L2830L
tp343
a(g95
L26901L
tp344
a(g97
L5218L
tp345
a(g99
L4515L
tp346
a(g101
L4567L
tp347
a(g103
L27837L
tp348
a(g105
L10963L
tp349
a(g107
L4621L
tp350
a(g109
L10229L
tp351
a(g111
L6448L
tp352
a(g113
L4556L
tp353
a(g115
L6500L
tp354
a(g117
L3827L
tp355
a(g119
L30984L
tp356
a(g121
L4586L
tp357
a(g123
L10950L
tp358
a(g125
L6436L
tp359
a(g127
L5896L
tp360
a(g129
L4542L
tp361
a(g131
L4439L
tp362
a(g133
L14001L
tp363
a(g135
L594L
tp364
a(g137
L5302L
tp365
a(g139
L5791L
tp366
a(g141
L5471L
tp367
a(g143
L6494L
tp368
a(g145
L28144L
tp369
a(g147
L6357L
tp370
a(g149
L4366L
tp371
a(g151
L4118L
tp372
a(g153
L7644L
tp373
a(g155
L4838L
tp374
a(g157
L677L
tp375
a(g159
L4546L
tp376
a(g161
L4684L
tp377
a(g163
L10829L
tp378
a(g165
L5112L
tp379
a(g167
L5695L
tp380
a(g169
L759L
tp381
a(g171
L22810L
tp382
a(g173
L3L
tp383
a(g175
L10870L
tp384
a(g177
L3404L
tp385
a(g179
L10905L
tp386
a(g181
L5582L
tp387
a(g183
L4405L
tp388
a(g185
L10840L
tp389
a(g187
L28251L
tp390
a(g189
L5161L
tp391
a(g191
L13967L
tp392
a(g193
L6389L
tp393
a(g195
L14078L
tp394
a(g197
L4408L
tp395
a(g199
L14427L
tp396
a(g201
L6169L
tp397
a(g203
L12827L
tp398
a(g205
L13274L
tp399
a(g207
L10929L
tp400
a(g209
L3518L
tp401
a(g211
L4475L
tp402
a(g213
L17965L
tp403
a(g215
L13644L
tp404
a(g217
L33137L
tp405
a(g219
L2364L
tp406
a(g221
L10876L
tp407
a(g223
L4538L
tp408
a(g225
L5658L
tp409
a(g227
L4423L
tp410
a(g229
L2991L
tp411
a(g231
L2835L
tp412
a(g233
L10860L
tp413
a(g235
L4550L
tp414
a(g237
L5705L
tp415
a(g239
L5682L
tp416
a(g241
L5662L
tp417
a(g243
L5712L
tp418
a(g245
L2841L
tp419
a(g247
L14396L
tp420
a(g249
L20900L
tp421
a(g251
L10886L
tp422
a(g253
L5114L
tp423
a(g255
L6358L
tp424
a(g257
L15840L
tp425
a(g259
L5126L
tp426
a(g261
L28040L
tp427
a(g263
L4368L
tp428
a(g265
L4609L
tp429
a(g267
L4583L
tp430
a(g269
L6747L
tp431
a(g271
L10848L
tp432
a(g273
L20770L
tp433
a(g275
L4411L
tp434
a(g277
L7683L
tp435
a(g279
L201L
tp436
a(g281
L21900L
tp437
a(g283
L12918L
tp438
a(g285
L33512L
tp439
a(g287
L10192L
tp440
a(g289
L15852L
tp441
a(g291
L202L
tp442
a(g293
L4412L
tp443
a(g295
L14288L
tp444
aaI804068
a.