(lp1
(lp2
(Vbiological_process
p3
I183903
tp4
a(Vcellular_component
p5
I60533
tp6
a(Vmolecular_function
p7
I49287
tp8
a(Vorganelle
p9
I16199
tp10
a(Vanatomical structure development
p11
I13967
tp12
a(Vtransport
p13
I10035
tp14
a(Vsignal transduction
p15
I8754
tp16
a(Vcellular nitrogen compound metabolic process
p17
I7810
tp18
a(Vprotein complex
p19
I6886
tp20
a(Vresponse to stress
p21
I6800
tp22
a(Vion binding
p23
I5936
tp24
a(Vsmall molecule metabolic process
p25
I5760
tp26
a(Vbiosynthetic process
p27
I5275
tp28
a(Vcellular protein modification process
p29
I4666
tp30
a(Vimmune system process
p31
I4106
tp32
a(Vcatabolic process
p33
I4065
tp34
a(Vcell differentiation
p35
I3397
tp36
a(Vcellular component assembly
p37
I2963
tp38
a(Vcytosol
p39
I2827
tp40
a(Vlipid metabolic process
p41
I2787
tp42
a(Venzyme binding
p43
I2755
tp44
a(Vlocomotion
p45
I2282
tp46
a(Vplasma membrane
p47
I2195
tp48
a(Vvesicle-mediated transport
p49
I2152
tp50
a(Vnucleolus
p51
I2140
tp52
a(Vnucleus
p53
I2056
tp54
a(Vanatomical structure formation involved in morphogenesis
p55
I2012
tp56
a(Vtransmembrane transporter activity
p57
I1960
tp58
a(Vhomeostatic process
p59
I1823
tp60
a(VDNA binding
p61
I1785
tp62
a(Vmacromolecular complex assembly
p63
I1672
tp64
a(Vcytoplasm
p65
I1658
tp66
a(Voxidoreductase activity
p67
I1654
tp68
a(VDNA metabolic process
p69
I1652
tp70
a(Vcell motility
p71
I1595
tp72
a(Vchromosome organization
p73
I1583
tp74
a(Vcarbohydrate metabolic process
p75
I1551
tp76
a(Vprotein maturation
p77
I1524
tp78
a(Vtransmembrane transport
p79
I1519
tp80
a(Vneurological system process
p81
I1509
tp82
a(Vembryo development
p83
I1450
tp84
a(Vgrowth
p85
I1432
tp86
a(Vcytoskeletal protein binding
p87
I1426
tp88
a(Vnucleobase-containing compound catabolic process
p89
I1408
tp90
a(Vsignal transducer activity
p91
I1399
tp92
a(Vprotein complex assembly
p93
I1361
tp94
a(Vkinase activity
p95
I1268
tp96
a(Vcytoskeleton organization
p97
I1218
tp98
a(VRNA binding
p99
I1190
tp100
a(Vmitochondrion
p101
I1135
tp102
a(Vlipid binding
p103
I1118
tp104
a(Vcytoplasmic membrane-bounded vesicle
p105
I1108
tp106
a(VGolgi apparatus
p107
I1089
tp108
a(Vcellular amino acid metabolic process
p109
I1031
tp110
a(Vcytoskeleton
p111
I998
tp112
a(Vcell-cell signaling
p113
I957
tp114
a(Vpeptidase activity
p115
I950
tp116
a(Vcell adhesion
p117
I948
tp118
a(Venzyme regulator activity
p119
I935
tp120
a(Vendoplasmic reticulum
p121
I925
tp122
a(Vcell death
p123
I921
tp124
a(Vendosome
p125
I897
tp126
a(Vmembrane organization
p127
I897
tp128
a(Vcell proliferation
p129
I890
tp130
a(Vligase activity
p131
I860
tp132
a(Vtranscription factor binding
p133
I788
tp134
a(Vnucleoplasm
p135
I770
tp136
a(Vprotein binding transcription factor activity
p137
I755
tp138
a(VATPase activity
p139
I755
tp140
a(Vcell morphogenesis
p141
I729
tp142
a(Vmicrotubule organizing center
p143
I726
tp144
a(Vnucleic acid binding transcription factor activity
p145
I714
tp146
a(Vextracellular region
p147
I645
tp148
a(Vstructural molecule activity
p149
I636
tp150
a(Vprotein targeting
p151
I632
tp152
a(Vsulfur compound metabolic process
p153
I578
tp154
a(Vextracellular space
p155
I566
tp156
a(Vsymbiosis, encompassing mutualism through parasitism
p157
I543
tp158
a(Vvacuole
p159
I538
tp160
a(Vgeneration of precursor metabolites and energy
p161
I522
tp162
a(Vextracellular matrix organization
p163
I492
tp164
a(VmRNA processing
p165
I485
tp166
a(Vcofactor metabolic process
p167
I478
tp168
a(Vtransferase activity, transferring acyl groups
p169
I471
tp170
a(Vcilium
p171
I461
tp172
a(Vphosphatase activity
p173
I441
tp174
a(Vcell cycle
p175
I407
tp176
a(Vreproduction
p177
I382
tp178
a(Vnucleocytoplasmic transport
p179
I365
tp180
a(Vtransferase activity, transferring glycosyl groups
p181
I351
tp182
a(Vdevelopmental maturation
p183
I338
tp184
a(Vcell junction organization
p185
I328
tp186
a(Vcirculatory system process
p187
I325
tp188
a(Vplastid
p189
I324
tp190
a(Vaging
p191
I315
tp192
a(Vlysosome
p193
I311
tp194
a(Vcell division
p195
I308
tp196
a(Vmitochondrion organization
p197
I298
tp198
a(Vprotein folding
p199
I289
tp200
a(Vlyase activity
p201
I288
tp202
a(Vhelicase activity
p203
I282
tp204
a(Vmethyltransferase activity
p205
I271
tp206
a(Vcytoskeleton-dependent intracellular transport
p207
I262
tp208
a(Vribonucleoprotein complex assembly
p209
I256
tp210
a(Vnuclease activity
p211
I250
tp212
a(VGTPase activity
p213
I244
tp214
a(Vchromosome
p215
I222
tp216
a(Vhistone binding
p217
I219
tp218
a(Vsecondary metabolic process
p219
I214
tp220
a(Vproteinaceous extracellular matrix
p221
I210
tp222
a(Vnuclear envelope
p223
I209
tp224
a(Vexternal encapsulating structure
p225
I207
tp226
a(Vcell wall
p227
I203
tp228
a(Vhydrolase activity, acting on glycosyl bonds
p229
I197
tp230
a(VmRNA binding
p231
I197
tp232
a(Visomerase activity
p233
I191
tp234
a(Vplasma membrane organization
p235
I185
tp236
a(Vvacuolar transport
p237
I177
tp238
a(Vstructural constituent of ribosome
p239
I171
tp240
a(Vcell wall organization or biogenesis
p241
I165
tp242
a(Vmitosis
p243
I164
tp244
a(Vprotein binding, bridging
p245
I160
tp246
a(Vhydrolase activity, acting on carbon-nitrogen (but not peptide) bonds
p247
I158
tp248
a(Vperoxisome
p249
I156
tp250
a(Vnucleotidyltransferase activity
p251
I142
tp252
a(Vsmall conjugating protein binding
p253
I133
tp254
a(Vtranslation factor activity, nucleic acid binding
p255
I131
tp256
a(Vchromosome segregation
p257
I128
tp258
a(VtRNA metabolic process
p259
I120
tp260
a(Vunfolded protein binding
p261
I116
tp262
a(Vlipid particle
p263
I111
tp264
a(Vribosome
p265
I109
tp266
a(Vtranslation
p267
I107
tp268
a(Vprotein transporter activity
p269
I104
tp270
a(Vintracellular
p271
I85
tp272
a(Vtransferase activity, transferring alkyl or aryl (other than methyl) groups
p273
I82
tp274
a(Vpigmentation
p275
I70
tp276
a(Vnuclear chromosome
p277
I68
tp278
a(Vribosome biogenesis
p279
I67
tp280
a(VrRNA binding
p281
I48
tp282
a(Vnitrogen cycle metabolic process
p283
I28
tp284
a(Vthylakoid
p285
I27
tp286
a(Vphotosynthesis
p287
I16
tp288
a(Vtransposition
p289
I5
tp290
a(Vcell
p291
I4
tp292
a(Vcytoplasmic chromosome
p293
I1
tp294
aa(lp295
(g3
L6372L
tp296
a(g5
L4365L
tp297
a(g7
L2787L
tp298
a(g9
L21685L
tp299
a(g11
L26888L
tp300
a(g13
L5491L
tp301
a(g15
L5801L
tp302
a(g17
L18268L
tp303
a(g19
L21693L
tp304
a(g21
L5613L
tp305
a(g23
L21630L
tp306
a(g25
L22689L
tp307
a(g27
L7192L
tp308
a(g29
L5168L
tp309
a(g31
L1781L
tp310
a(g33
L7190L
tp311
a(g35
L13924L
tp312
a(g37
L13633L
tp313
a(g39
L4599L
tp314
a(g41
L5326L
tp315
a(g43
L12968L
tp316
a(g45
L20507L
tp317
a(g47
L4644L
tp318
a(g49
L10381L
tp319
a(g51
L4507L
tp320
a(g53
L4422L
tp321
a(g55
L26682L
tp322
a(g57
L13690L
tp323
a(g59
L21086L
tp324
a(g61
L2790L
tp325
a(g63
L31581L
tp326
a(g65
L4514L
tp327
a(g67
L10598L
tp328
a(g69
L4995L
tp329
a(g71
L26901L
tp330
a(g73
L28228L
tp331
a(g75
L4725L
tp332
a(g77
L28535L
tp333
a(g79
L29927L
tp334
a(g81
L27837L
tp335
a(g83
L7881L
tp336
a(g85
L20503L
tp337
a(g87
L6320L
tp338
a(g89
L18282L
tp339
a(g91
L3827L
tp340
a(g93
L5165L
tp341
a(g95
L10466L
tp342
a(g97
L5663L
tp343
a(g99
L2830L
tp344
a(g101
L4515L
tp345
a(g103
L6500L
tp346
a(g105
L10229L
tp347
a(g107
L4567L
tp348
a(g109
L5218L
tp349
a(g111
L4621L
tp350
a(g113
L5896L
tp351
a(g115
L6448L
tp352
a(g117
L5791L
tp353
a(g119
L14001L
tp354
a(g121
L4556L
tp355
a(g123
L6436L
tp356
a(g125
L4542L
tp357
a(g127
L30984L
tp358
a(g129
L6494L
tp359
a(g131
L10950L
tp360
a(g133
L6357L
tp361
a(g135
L4439L
tp362
a(g137
L677L
tp363
a(g139
L10963L
tp364
a(g141
L594L
tp365
a(g143
L4586L
tp366
a(g145
L759L
tp367
a(g147
L4366L
tp368
a(g149
L4118L
tp369
a(g151
L5302L
tp370
a(g153
L5471L
tp371
a(g155
L4405L
tp372
a(g157
L22810L
tp373
a(g159
L4546L
tp374
a(g161
L4838L
tp375
a(g163
L13967L
tp376
a(g165
L5112L
tp377
a(g167
L28144L
tp378
a(g169
L10829L
tp379
a(g171
L4684L
tp380
a(g173
L10870L
tp381
a(g175
L5695L
tp382
a(g177
L3L
tp383
a(g179
L5582L
tp384
a(g181
L10840L
tp385
a(g183
L13274L
tp386
a(g185
L17965L
tp387
a(g187
L2364L
tp388
a(g189
L7644L
tp389
a(g191
L6169L
tp390
a(g193
L4538L
tp391
a(g195
L28251L
tp392
a(g197
L5658L
tp393
a(g199
L5161L
tp394
a(g201
L10905L
tp395
a(g203
L3404L
tp396
a(g205
L6389L
tp397
a(g207
L14427L
tp398
a(g209
L13644L
tp399
a(g211
L3518L
tp400
a(g213
L2991L
tp401
a(g215
L4475L
tp402
a(g217
L20900L
tp403
a(g219
L12827L
tp404
a(g221
L4368L
tp405
a(g223
L4423L
tp406
a(g225
L14078L
tp407
a(g227
L4408L
tp408
a(g229
L10876L
tp409
a(g231
L2835L
tp410
a(g233
L10929L
tp411
a(g235
L5662L
tp412
a(g237
L5682L
tp413
a(g239
L2841L
tp414
a(g241
L33137L
tp415
a(g243
L5712L
tp416
a(g245
L14396L
tp417
a(g247
L10886L
tp418
a(g249
L4550L
tp419
a(g251
L10860L
tp420
a(g253
L15840L
tp421
a(g255
L6358L
tp422
a(g257
L5705L
tp423
a(g259
L5114L
tp424
a(g261
L28040L
tp425
a(g263
L4583L
tp426
a(g265
L4609L
tp427
a(g267
L5126L
tp428
a(g269
L6747L
tp429
a(g271
L4411L
tp430
a(g273
L10848L
tp431
a(g275
L21900L
tp432
a(g277
L201L
tp433
a(g279
L20770L
tp434
a(g281
L12918L
tp435
a(g283
L33512L
tp436
a(g285
L7683L
tp437
a(g287
L10192L
tp438
a(g289
L15852L
tp439
a(g291
L4412L
tp440
a(g293
L202L
tp441
aaI494870
a.