(lp1
(lp2
(Vbiological_process
p3
I147127
tp4
a(Vcellular_component
p5
I49737
tp6
a(Vmolecular_function
p7
I41351
tp8
a(Vorganelle
p9
I13064
tp10
a(Vanatomical structure development
p11
I10877
tp12
a(Vtransport
p13
I8243
tp14
a(Vsignal transduction
p15
I7073
tp16
a(Vcellular nitrogen compound metabolic process
p17
I6714
tp18
a(Vprotein complex
p19
I5967
tp20
a(Vresponse to stress
p21
I5653
tp22
a(Vsmall molecule metabolic process
p23
I5238
tp24
a(Vion binding
p25
I5206
tp26
a(Vbiosynthetic process
p27
I4552
tp28
a(Vcellular protein modification process
p29
I3769
tp30
a(Vcatabolic process
p31
I3628
tp32
a(Vimmune system process
p33
I3216
tp34
a(Vcellular component assembly
p35
I2643
tp36
a(Vcytosol
p37
I2625
tp38
a(Vcell differentiation
p39
I2555
tp40
a(Vlipid metabolic process
p41
I2302
tp42
a(Venzyme binding
p43
I2301
tp44
a(Vlocomotion
p45
I1884
tp46
a(Vplasma membrane
p47
I1861
tp48
a(Vnucleolus
p49
I1835
tp50
a(Vvesicle-mediated transport
p51
I1810
tp52
a(Vanatomical structure formation involved in morphogenesis
p53
I1711
tp54
a(Vnucleus
p55
I1637
tp56
a(Vmacromolecular complex assembly
p57
I1580
tp58
a(VDNA binding
p59
I1561
tp60
a(Vcarbohydrate metabolic process
p61
I1527
tp62
a(Vhomeostatic process
p63
I1499
tp64
a(Vtransmembrane transporter activity
p65
I1477
tp66
a(VDNA metabolic process
p67
I1434
tp68
a(Vcell motility
p69
I1384
tp70
a(Voxidoreductase activity
p71
I1384
tp72
a(Vchromosome organization
p73
I1376
tp74
a(Vembryo development
p75
I1286
tp76
a(Vnucleobase-containing compound catabolic process
p77
I1249
tp78
a(Vprotein complex assembly
p79
I1238
tp80
a(Vprotein maturation
p81
I1233
tp82
a(Vgrowth
p83
I1231
tp84
a(Vcytoplasm
p85
I1225
tp86
a(Vneurological system process
p87
I1211
tp88
a(Vtransmembrane transport
p89
I1184
tp90
a(Vcytoskeletal protein binding
p91
I1154
tp92
a(Vcytoskeleton organization
p93
I1153
tp94
a(Vsignal transducer activity
p95
I1137
tp96
a(VRNA binding
p97
I1070
tp98
a(Vcellular amino acid metabolic process
p99
I1053
tp100
a(Vkinase activity
p101
I1011
tp102
a(Vmitochondrion
p103
I971
tp104
a(Vcytoplasmic membrane-bounded vesicle
p105
I963
tp106
a(VGolgi apparatus
p107
I925
tp108
a(Vlipid binding
p109
I870
tp110
a(Vpeptidase activity
p111
I844
tp112
a(Vmembrane organization
p113
I816
tp114
a(Venzyme regulator activity
p115
I799
tp116
a(Vcytoskeleton
p117
I782
tp118
a(Vcell adhesion
p119
I759
tp120
a(Vendoplasmic reticulum
p121
I751
tp122
a(Vcell-cell signaling
p123
I731
tp124
a(Vcell death
p125
I728
tp126
a(VATPase activity
p127
I715
tp128
a(Vstructural molecule activity
p129
I707
tp130
a(Vendosome
p131
I692
tp132
a(Vtranscription factor binding
p133
I677
tp134
a(Vnucleoplasm
p135
I676
tp136
a(Vcell proliferation
p137
I675
tp138
a(Vligase activity
p139
I654
tp140
a(Vprotein binding transcription factor activity
p141
I634
tp142
a(Vmicrotubule organizing center
p143
I614
tp144
a(Vcell morphogenesis
p145
I612
tp146
a(Vsulfur compound metabolic process
p147
I601
tp148
a(Vnucleic acid binding transcription factor activity
p149
I564
tp150
a(Vprotein targeting
p151
I557
tp152
a(Vextracellular region
p153
I550
tp154
a(Vgeneration of precursor metabolites and energy
p155
I510
tp156
a(Vextracellular space
p157
I495
tp158
a(Vextracellular matrix organization
p159
I476
tp160
a(Vsymbiosis, encompassing mutualism through parasitism
p161
I465
tp162
a(Vcofactor metabolic process
p163
I455
tp164
a(VmRNA processing
p165
I448
tp166
a(Vvacuole
p167
I431
tp168
a(Vtransferase activity, transferring acyl groups
p169
I413
tp170
a(Vcilium
p171
I388
tp172
a(Vreproduction
p173
I330
tp174
a(Vnucleocytoplasmic transport
p175
I325
tp176
a(Vphosphatase activity
p177
I316
tp178
a(Vplastid
p179
I311
tp180
a(Vlyase activity
p181
I300
tp182
a(Vaging
p183
I299
tp184
a(Vprotein folding
p185
I287
tp186
a(Vcell cycle
p187
I283
tp188
a(Vtransferase activity, transferring glycosyl groups
p189
I283
tp190
a(Vribonucleoprotein complex assembly
p191
I279
tp192
a(Vcell junction organization
p193
I277
tp194
a(Vdevelopmental maturation
p195
I257
tp196
a(Vcirculatory system process
p197
I257
tp198
a(Vmitochondrion organization
p199
I254
tp200
a(Vhelicase activity
p201
I241
tp202
a(Vlysosome
p203
I240
tp204
a(Vcell division
p205
I233
tp206
a(Vcytoskeleton-dependent intracellular transport
p207
I226
tp208
a(Vmethyltransferase activity
p209
I221
tp210
a(VGTPase activity
p211
I214
tp212
a(Vexternal encapsulating structure
p213
I210
tp214
a(Vcell wall
p215
I207
tp216
a(Vsecondary metabolic process
p217
I199
tp218
a(Visomerase activity
p219
I193
tp220
a(VmRNA binding
p221
I191
tp222
a(Vstructural constituent of ribosome
p223
I190
tp224
a(Vnuclease activity
p225
I185
tp226
a(Vnuclear envelope
p227
I184
tp228
a(Vhistone binding
p229
I183
tp230
a(Vchromosome
p231
I181
tp232
a(Vproteinaceous extracellular matrix
p233
I179
tp234
a(Vhydrolase activity, acting on glycosyl bonds
p235
I171
tp236
a(Vcell wall organization or biogenesis
p237
I152
tp238
a(Vplasma membrane organization
p239
I147
tp240
a(Vvacuolar transport
p241
I140
tp242
a(Vnucleotidyltransferase activity
p243
I139
tp244
a(Vprotein binding, bridging
p245
I138
tp246
a(Vhydrolase activity, acting on carbon-nitrogen (but not peptide) bonds
p247
I136
tp248
a(Vtranslation factor activity, nucleic acid binding
p249
I135
tp250
a(VtRNA metabolic process
p251
I134
tp252
a(Vperoxisome
p253
I134
tp254
a(Vsmall conjugating protein binding
p255
I132
tp256
a(Vunfolded protein binding
p257
I127
tp258
a(Vmitosis
p259
I120
tp260
a(Vchromosome segregation
p261
I115
tp262
a(Vlipid particle
p263
I110
tp264
a(Vprotein transporter activity
p265
I102
tp266
a(Vtranslation
p267
I94
tp268
a(Vribosome
p269
I91
tp270
a(Vtransferase activity, transferring alkyl or aryl (other than methyl) groups
p271
I67
tp272
a(Vnuclear chromosome
p273
I62
tp274
a(Vribosome biogenesis
p275
I60
tp276
a(Vintracellular
p277
I57
tp278
a(Vpigmentation
p279
I54
tp280
a(VrRNA binding
p281
I45
tp282
a(Vnitrogen cycle metabolic process
p283
I31
tp284
a(Vthylakoid
p285
I22
tp286
a(Vphotosynthesis
p287
I11
tp288
a(Vcell
p289
I7
tp290
a(Vcytoplasmic chromosome
p291
I1
tp292
a(Vtransposition
p293
I1
tp294
aa(lp295
(g3
L6372L
tp296
a(g5
L4365L
tp297
a(g7
L2787L
tp298
a(g9
L21685L
tp299
a(g11
L26888L
tp300
a(g13
L5491L
tp301
a(g15
L5801L
tp302
a(g17
L18268L
tp303
a(g19
L21693L
tp304
a(g21
L5613L
tp305
a(g23
L22689L
tp306
a(g25
L21630L
tp307
a(g27
L7192L
tp308
a(g29
L5168L
tp309
a(g31
L7190L
tp310
a(g33
L1781L
tp311
a(g35
L13633L
tp312
a(g37
L4599L
tp313
a(g39
L13924L
tp314
a(g41
L5326L
tp315
a(g43
L12968L
tp316
a(g45
L20507L
tp317
a(g47
L4644L
tp318
a(g49
L4507L
tp319
a(g51
L10381L
tp320
a(g53
L26682L
tp321
a(g55
L4422L
tp322
a(g57
L31581L
tp323
a(g59
L2790L
tp324
a(g61
L4725L
tp325
a(g63
L21086L
tp326
a(g65
L13690L
tp327
a(g67
L4995L
tp328
a(g69
L26901L
tp329
a(g71
L10598L
tp330
a(g73
L28228L
tp331
a(g75
L7881L
tp332
a(g77
L18282L
tp333
a(g79
L5165L
tp334
a(g81
L28535L
tp335
a(g83
L20503L
tp336
a(g85
L4514L
tp337
a(g87
L27837L
tp338
a(g89
L29927L
tp339
a(g91
L6320L
tp340
a(g93
L5663L
tp341
a(g95
L3827L
tp342
a(g97
L2830L
tp343
a(g99
L5218L
tp344
a(g101
L10466L
tp345
a(g103
L4515L
tp346
a(g105
L10229L
tp347
a(g107
L4567L
tp348
a(g109
L6500L
tp349
a(g111
L6448L
tp350
a(g113
L30984L
tp351
a(g115
L14001L
tp352
a(g117
L4621L
tp353
a(g119
L5791L
tp354
a(g121
L4556L
tp355
a(g123
L5896L
tp356
a(g125
L6436L
tp357
a(g127
L10963L
tp358
a(g129
L4118L
tp359
a(g131
L4542L
tp360
a(g133
L6357L
tp361
a(g135
L4439L
tp362
a(g137
L6494L
tp363
a(g139
L10950L
tp364
a(g141
L677L
tp365
a(g143
L4586L
tp366
a(g145
L594L
tp367
a(g147
L5471L
tp368
a(g149
L759L
tp369
a(g151
L5302L
tp370
a(g153
L4366L
tp371
a(g155
L4838L
tp372
a(g157
L4405L
tp373
a(g159
L13967L
tp374
a(g161
L22810L
tp375
a(g163
L28144L
tp376
a(g165
L5112L
tp377
a(g167
L4546L
tp378
a(g169
L10829L
tp379
a(g171
L4684L
tp380
a(g173
L3L
tp381
a(g175
L5582L
tp382
a(g177
L10870L
tp383
a(g179
L7644L
tp384
a(g181
L10905L
tp385
a(g183
L6169L
tp386
a(g185
L5161L
tp387
a(g187
L5695L
tp388
a(g189
L10840L
tp389
a(g191
L13644L
tp390
a(g193
L17965L
tp391
a(g195
L13274L
tp392
a(g197
L2364L
tp393
a(g199
L5658L
tp394
a(g201
L3404L
tp395
a(g203
L4538L
tp396
a(g205
L28251L
tp397
a(g207
L14427L
tp398
a(g209
L6389L
tp399
a(g211
L2991L
tp400
a(g213
L14078L
tp401
a(g215
L4408L
tp402
a(g217
L12827L
tp403
a(g219
L10929L
tp404
a(g221
L2835L
tp405
a(g223
L2841L
tp406
a(g225
L3518L
tp407
a(g227
L4423L
tp408
a(g229
L20900L
tp409
a(g231
L4475L
tp410
a(g233
L4368L
tp411
a(g235
L10876L
tp412
a(g237
L33137L
tp413
a(g239
L5662L
tp414
a(g241
L5682L
tp415
a(g243
L10860L
tp416
a(g245
L14396L
tp417
a(g247
L10886L
tp418
a(g249
L6358L
tp419
a(g251
L5114L
tp420
a(g253
L4550L
tp421
a(g255
L15840L
tp422
a(g257
L28040L
tp423
a(g259
L5712L
tp424
a(g261
L5705L
tp425
a(g263
L4583L
tp426
a(g265
L6747L
tp427
a(g267
L5126L
tp428
a(g269
L4609L
tp429
a(g271
L10848L
tp430
a(g273
L201L
tp431
a(g275
L20770L
tp432
a(g277
L4411L
tp433
a(g279
L21900L
tp434
a(g281
L12918L
tp435
a(g283
L33512L
tp436
a(g285
L7683L
tp437
a(g287
L10192L
tp438
a(g289
L4412L
tp439
a(g291
L202L
tp440
a(g293
L15852L
tp441
aaI407454
a.