(lp1
(lp2
(Vbiological_process
p3
I215513
tp4
a(Vcellular_component
p5
I71287
tp6
a(Vmolecular_function
p7
I59112
tp8
a(Vorganelle
p9
I19030
tp10
a(Vanatomical structure development
p11
I16407
tp12
a(Vtransport
p13
I11723
tp14
a(Vsignal transduction
p15
I10087
tp16
a(Vcellular nitrogen compound metabolic process
p17
I9341
tp18
a(Vprotein complex
p19
I8246
tp20
a(Vresponse to stress
p21
I7997
tp22
a(Vion binding
p23
I7275
tp24
a(Vsmall molecule metabolic process
p25
I6713
tp26
a(Vbiosynthetic process
p27
I5906
tp28
a(Vcellular protein modification process
p29
I5526
tp30
a(Vcatabolic process
p31
I4813
tp32
a(Vimmune system process
p33
I4587
tp34
a(Vcell differentiation
p35
I4014
tp36
a(Vcellular component assembly
p37
I3642
tp38
a(Vcytosol
p39
I3435
tp40
a(Venzyme binding
p41
I3315
tp42
a(Vlipid metabolic process
p43
I3202
tp44
a(Vlocomotion
p45
I2835
tp46
a(Vnucleolus
p47
I2574
tp48
a(Vvesicle-mediated transport
p49
I2572
tp50
a(Vanatomical structure formation involved in morphogenesis
p51
I2547
tp52
a(Vplasma membrane
p53
I2493
tp54
a(Vnucleus
p55
I2400
tp56
a(Vtransmembrane transporter activity
p57
I2306
tp58
a(VDNA metabolic process
p59
I2181
tp60
a(VDNA binding
p61
I2159
tp62
a(Vhomeostatic process
p63
I2142
tp64
a(Vcell motility
p65
I2030
tp66
a(Vchromosome organization
p67
I2024
tp68
a(Vmacromolecular complex assembly
p69
I2018
tp70
a(Vcytoplasm
p71
I2012
tp72
a(Voxidoreductase activity
p73
I1875
tp74
a(Vneurological system process
p75
I1777
tp76
a(Vcarbohydrate metabolic process
p77
I1763
tp78
a(Vtransmembrane transport
p79
I1733
tp80
a(Vnucleobase-containing compound catabolic process
p81
I1721
tp82
a(Vcytoskeletal protein binding
p83
I1708
tp84
a(Vembryo development
p85
I1706
tp86
a(Vgrowth
p87
I1694
tp88
a(Vsignal transducer activity
p89
I1684
tp90
a(Vprotein maturation
p91
I1674
tp92
a(Vprotein complex assembly
p93
I1647
tp94
a(Vkinase activity
p95
I1606
tp96
a(Vcytoskeleton organization
p97
I1548
tp98
a(Vlipid binding
p99
I1357
tp100
a(VGolgi apparatus
p101
I1353
tp102
a(VRNA binding
p103
I1342
tp104
a(Vcytoplasmic membrane-bounded vesicle
p105
I1328
tp106
a(Vmitochondrion
p107
I1314
tp108
a(Vcell adhesion
p109
I1293
tp110
a(Vcellular amino acid metabolic process
p111
I1210
tp112
a(Vcytoskeleton
p113
I1186
tp114
a(Vpeptidase activity
p115
I1127
tp116
a(Vcell-cell signaling
p117
I1121
tp118
a(Vmembrane organization
p119
I1095
tp120
a(Vendosome
p121
I1082
tp122
a(Vendoplasmic reticulum
p123
I1067
tp124
a(Venzyme regulator activity
p125
I1049
tp126
a(Vcell death
p127
I1049
tp128
a(Vligase activity
p129
I1041
tp130
a(Vcell proliferation
p131
I1028
tp132
a(VATPase activity
p133
I989
tp134
a(Vnucleoplasm
p135
I949
tp136
a(Vcell morphogenesis
p137
I939
tp138
a(Vtranscription factor binding
p139
I926
tp140
a(Vmicrotubule organizing center
p141
I898
tp142
a(Vprotein binding transcription factor activity
p143
I886
tp144
a(Vnucleic acid binding transcription factor activity
p145
I862
tp146
a(Vstructural molecule activity
p147
I802
tp148
a(Vextracellular region
p149
I750
tp150
a(Vprotein targeting
p151
I714
tp152
a(Vsulfur compound metabolic process
p153
I648
tp154
a(Vextracellular space
p155
I647
tp156
a(Vsymbiosis, encompassing mutualism through parasitism
p157
I616
tp158
a(Vextracellular matrix organization
p159
I596
tp160
a(Vcofactor metabolic process
p161
I589
tp162
a(Vcilium
p163
I579
tp164
a(Vvacuole
p165
I578
tp166
a(Vgeneration of precursor metabolites and energy
p167
I574
tp168
a(VmRNA processing
p169
I568
tp170
a(Vtransferase activity, transferring acyl groups
p171
I538
tp172
a(Vphosphatase activity
p173
I495
tp174
a(Vcell cycle
p175
I477
tp176
a(Vreproduction
p177
I472
tp178
a(Vnucleocytoplasmic transport
p179
I438
tp180
a(Vcell junction organization
p181
I435
tp182
a(Vaging
p183
I425
tp184
a(Vtransferase activity, transferring glycosyl groups
p185
I402
tp186
a(Vcell division
p187
I390
tp188
a(Vcirculatory system process
p189
I376
tp190
a(Vdevelopmental maturation
p191
I373
tp192
a(Vhelicase activity
p193
I366
tp194
a(Vlyase activity
p195
I339
tp196
a(Vplastid
p197
I338
tp198
a(Vmitochondrion organization
p199
I334
tp200
a(Vnuclease activity
p201
I333
tp202
a(Vlysosome
p203
I332
tp204
a(Vprotein folding
p205
I330
tp206
a(Vcytoskeleton-dependent intracellular transport
p207
I329
tp208
a(Vmethyltransferase activity
p209
I312
tp210
a(Vribonucleoprotein complex assembly
p211
I297
tp212
a(Vhistone binding
p213
I278
tp214
a(Vchromosome
p215
I271
tp216
a(Vproteinaceous extracellular matrix
p217
I262
tp218
a(VGTPase activity
p219
I260
tp220
a(Vnuclear envelope
p221
I256
tp222
a(Vsecondary metabolic process
p223
I255
tp224
a(Vexternal encapsulating structure
p225
I233
tp226
a(Visomerase activity
p227
I229
tp228
a(Vcell wall
p229
I228
tp230
a(Vplasma membrane organization
p231
I227
tp232
a(VmRNA binding
p233
I217
tp234
a(Vvacuolar transport
p235
I205
tp236
a(Vmitosis
p237
I202
tp238
a(Vnucleotidyltransferase activity
p239
I198
tp240
a(Vprotein binding, bridging
p241
I193
tp242
a(Vstructural constituent of ribosome
p243
I189
tp244
a(Vcell wall organization or biogenesis
p245
I187
tp246
a(Vhydrolase activity, acting on carbon-nitrogen (but not peptide) bonds
p247
I185
tp248
a(Vhydrolase activity, acting on glycosyl bonds
p249
I181
tp250
a(Vsmall conjugating protein binding
p251
I173
tp252
a(Vperoxisome
p253
I162
tp254
a(Vprotein transporter activity
p255
I161
tp256
a(Vchromosome segregation
p257
I155
tp258
a(VtRNA metabolic process
p259
I149
tp260
a(Vtranslation factor activity, nucleic acid binding
p261
I144
tp262
a(Vlipid particle
p263
I134
tp264
a(Vunfolded protein binding
p265
I133
tp266
a(Vtranslation
p267
I114
tp268
a(Vribosome
p269
I108
tp270
a(Vtransferase activity, transferring alkyl or aryl (other than methyl) groups
p271
I96
tp272
a(Vribosome biogenesis
p273
I84
tp274
a(Vpigmentation
p275
I83
tp276
a(Vnuclear chromosome
p277
I77
tp278
a(Vintracellular
p279
I75
tp280
a(VrRNA binding
p281
I50
tp282
a(Vnitrogen cycle metabolic process
p283
I31
tp284
a(Vthylakoid
p285
I27
tp286
a(Vphotosynthesis
p287
I12
tp288
a(Vcell
p289
I12
tp290
a(Vtransposition
p291
I4
tp292
a(Vcytoplasmic chromosome
p293
I1
tp294
aa(lp295
(g3
L6372L
tp296
a(g5
L4365L
tp297
a(g7
L2787L
tp298
a(g9
L21685L
tp299
a(g11
L26888L
tp300
a(g13
L5491L
tp301
a(g15
L5801L
tp302
a(g17
L18268L
tp303
a(g19
L21693L
tp304
a(g21
L5613L
tp305
a(g23
L21630L
tp306
a(g25
L22689L
tp307
a(g27
L7192L
tp308
a(g29
L5168L
tp309
a(g31
L7190L
tp310
a(g33
L1781L
tp311
a(g35
L13924L
tp312
a(g37
L13633L
tp313
a(g39
L4599L
tp314
a(g41
L12968L
tp315
a(g43
L5326L
tp316
a(g45
L20507L
tp317
a(g47
L4507L
tp318
a(g49
L10381L
tp319
a(g51
L26682L
tp320
a(g53
L4644L
tp321
a(g55
L4422L
tp322
a(g57
L13690L
tp323
a(g59
L4995L
tp324
a(g61
L2790L
tp325
a(g63
L21086L
tp326
a(g65
L26901L
tp327
a(g67
L28228L
tp328
a(g69
L31581L
tp329
a(g71
L4514L
tp330
a(g73
L10598L
tp331
a(g75
L27837L
tp332
a(g77
L4725L
tp333
a(g79
L29927L
tp334
a(g81
L18282L
tp335
a(g83
L6320L
tp336
a(g85
L7881L
tp337
a(g87
L20503L
tp338
a(g89
L3827L
tp339
a(g91
L28535L
tp340
a(g93
L5165L
tp341
a(g95
L10466L
tp342
a(g97
L5663L
tp343
a(g99
L6500L
tp344
a(g101
L4567L
tp345
a(g103
L2830L
tp346
a(g105
L10229L
tp347
a(g107
L4515L
tp348
a(g109
L5791L
tp349
a(g111
L5218L
tp350
a(g113
L4621L
tp351
a(g115
L6448L
tp352
a(g117
L5896L
tp353
a(g119
L30984L
tp354
a(g121
L4542L
tp355
a(g123
L4556L
tp356
a(g125
L14001L
tp357
a(g127
L6436L
tp358
a(g129
L10950L
tp359
a(g131
L6494L
tp360
a(g133
L10963L
tp361
a(g135
L4439L
tp362
a(g137
L594L
tp363
a(g139
L6357L
tp364
a(g141
L4586L
tp365
a(g143
L677L
tp366
a(g145
L759L
tp367
a(g147
L4118L
tp368
a(g149
L4366L
tp369
a(g151
L5302L
tp370
a(g153
L5471L
tp371
a(g155
L4405L
tp372
a(g157
L22810L
tp373
a(g159
L13967L
tp374
a(g161
L28144L
tp375
a(g163
L4684L
tp376
a(g165
L4546L
tp377
a(g167
L4838L
tp378
a(g169
L5112L
tp379
a(g171
L10829L
tp380
a(g173
L10870L
tp381
a(g175
L5695L
tp382
a(g177
L3L
tp383
a(g179
L5582L
tp384
a(g181
L17965L
tp385
a(g183
L6169L
tp386
a(g185
L10840L
tp387
a(g187
L28251L
tp388
a(g189
L2364L
tp389
a(g191
L13274L
tp390
a(g193
L3404L
tp391
a(g195
L10905L
tp392
a(g197
L7644L
tp393
a(g199
L5658L
tp394
a(g201
L3518L
tp395
a(g203
L4538L
tp396
a(g205
L5161L
tp397
a(g207
L14427L
tp398
a(g209
L6389L
tp399
a(g211
L13644L
tp400
a(g213
L20900L
tp401
a(g215
L4475L
tp402
a(g217
L4368L
tp403
a(g219
L2991L
tp404
a(g221
L4423L
tp405
a(g223
L12827L
tp406
a(g225
L14078L
tp407
a(g227
L10929L
tp408
a(g229
L4408L
tp409
a(g231
L5662L
tp410
a(g233
L2835L
tp411
a(g235
L5682L
tp412
a(g237
L5712L
tp413
a(g239
L10860L
tp414
a(g241
L14396L
tp415
a(g243
L2841L
tp416
a(g245
L33137L
tp417
a(g247
L10886L
tp418
a(g249
L10876L
tp419
a(g251
L15840L
tp420
a(g253
L4550L
tp421
a(g255
L6747L
tp422
a(g257
L5705L
tp423
a(g259
L5114L
tp424
a(g261
L6358L
tp425
a(g263
L4583L
tp426
a(g265
L28040L
tp427
a(g267
L5126L
tp428
a(g269
L4609L
tp429
a(g271
L10848L
tp430
a(g273
L20770L
tp431
a(g275
L21900L
tp432
a(g277
L201L
tp433
a(g279
L4411L
tp434
a(g281
L12918L
tp435
a(g283
L33512L
tp436
a(g285
L7683L
tp437
a(g287
L10192L
tp438
a(g289
L4412L
tp439
a(g291
L15852L
tp440
a(g293
L202L
tp441
aaI584124
a.