(lp1
(lp2
(Vbiological_process
p3
I205504
tp4
a(Vcellular_component
p5
I68238
tp6
a(Vmolecular_function
p7
I56058
tp8
a(Vorganelle
p9
I18039
tp10
a(Vanatomical structure development
p11
I15455
tp12
a(Vtransport
p13
I11631
tp14
a(Vcellular nitrogen compound metabolic process
p15
I9520
tp16
a(Vsignal transduction
p17
I9141
tp18
a(Vresponse to stress
p19
I7722
tp20
a(Vprotein complex
p21
I7323
tp22
a(Vsmall molecule metabolic process
p23
I7293
tp24
a(Vion binding
p25
I6981
tp26
a(Vbiosynthetic process
p27
I6489
tp28
a(Vcatabolic process
p29
I4923
tp30
a(Vcellular protein modification process
p31
I4867
tp32
a(Vimmune system process
p33
I4500
tp34
a(Vcell differentiation
p35
I3329
tp36
a(Vcellular component assembly
p37
I3295
tp38
a(Vlipid metabolic process
p39
I3089
tp40
a(Vcytosol
p41
I3085
tp42
a(Venzyme binding
p43
I2791
tp44
a(Vtransmembrane transporter activity
p45
I2578
tp46
a(Vlocomotion
p47
I2456
tp48
a(Vplasma membrane
p49
I2429
tp50
a(Vvesicle-mediated transport
p51
I2265
tp52
a(Vnucleolus
p53
I2249
tp54
a(VDNA metabolic process
p55
I2187
tp56
a(Vnucleus
p57
I2158
tp58
a(Voxidoreductase activity
p59
I2124
tp60
a(Vcytoplasm
p61
I2045
tp62
a(Vanatomical structure formation involved in morphogenesis
p63
I2017
tp64
a(Vhomeostatic process
p65
I1931
tp66
a(Vcarbohydrate metabolic process
p67
I1898
tp68
a(Vmacromolecular complex assembly
p69
I1878
tp70
a(VDNA binding
p71
I1825
tp72
a(Vchromosome organization
p73
I1820
tp74
a(Vtransmembrane transport
p75
I1764
tp76
a(Vnucleobase-containing compound catabolic process
p77
I1730
tp78
a(Vprotein maturation
p79
I1678
tp80
a(Vcell motility
p81
I1675
tp82
a(Vembryo development
p83
I1673
tp84
a(Vcytoskeletal protein binding
p85
I1631
tp86
a(Vkinase activity
p87
I1604
tp88
a(Vneurological system process
p89
I1601
tp90
a(Vgrowth
p91
I1541
tp92
a(Vsignal transducer activity
p93
I1527
tp94
a(Vprotein complex assembly
p95
I1521
tp96
a(Vcellular amino acid metabolic process
p97
I1516
tp98
a(Vcytoskeleton organization
p99
I1384
tp100
a(VRNA binding
p101
I1359
tp102
a(VGolgi apparatus
p103
I1293
tp104
a(Vcytoskeleton
p105
I1184
tp106
a(Vmitochondrion
p107
I1171
tp108
a(Vcytoplasmic membrane-bounded vesicle
p109
I1162
tp110
a(Vpeptidase activity
p111
I1150
tp112
a(Vcell adhesion
p113
I1122
tp114
a(VATPase activity
p115
I1116
tp116
a(Vlipid binding
p117
I1072
tp118
a(Vcell death
p119
I1000
tp120
a(Vcell-cell signaling
p121
I973
tp122
a(Vendoplasmic reticulum
p123
I943
tp124
a(Vmembrane organization
p125
I935
tp126
a(Vcell proliferation
p127
I914
tp128
a(Vligase activity
p129
I892
tp130
a(Venzyme regulator activity
p131
I884
tp132
a(Vendosome
p133
I870
tp134
a(Vnucleoplasm
p135
I797
tp136
a(Vcell morphogenesis
p137
I782
tp138
a(Vmicrotubule organizing center
p139
I781
tp140
a(Vsulfur compound metabolic process
p141
I756
tp142
a(Vstructural molecule activity
p143
I742
tp144
a(Vtranscription factor binding
p145
I723
tp146
a(Vextracellular region
p147
I679
tp148
a(Vextracellular matrix organization
p149
I655
tp150
a(Vprotein targeting
p151
I642
tp152
a(Vprotein binding transcription factor activity
p153
I639
tp154
a(Vcofactor metabolic process
p155
I625
tp156
a(Vnucleic acid binding transcription factor activity
p157
I606
tp158
a(Vcilium
p159
I604
tp160
a(Vextracellular space
p161
I596
tp162
a(Vgeneration of precursor metabolites and energy
p163
I576
tp164
a(Vvacuole
p165
I563
tp166
a(Vtransferase activity, transferring acyl groups
p167
I563
tp168
a(VmRNA processing
p169
I550
tp170
a(Vsymbiosis, encompassing mutualism through parasitism
p171
I540
tp172
a(Vcell cycle
p173
I531
tp174
a(Vlyase activity
p175
I479
tp176
a(Vreproduction
p177
I451
tp178
a(Vhelicase activity
p179
I445
tp180
a(Vphosphatase activity
p181
I443
tp182
a(Vtransferase activity, transferring glycosyl groups
p183
I423
tp184
a(Vcell division
p185
I395
tp186
a(Vplastid
p187
I388
tp188
a(Vaging
p189
I377
tp190
a(Vdevelopmental maturation
p191
I354
tp192
a(Vnucleocytoplasmic transport
p193
I353
tp194
a(Vnuclease activity
p195
I339
tp196
a(Vcirculatory system process
p197
I336
tp198
a(Vcell junction organization
p199
I326
tp200
a(Vmethyltransferase activity
p201
I323
tp202
a(Vprotein folding
p203
I321
tp204
a(Vcytoskeleton-dependent intracellular transport
p205
I315
tp206
a(Vexternal encapsulating structure
p207
I298
tp208
a(Vribonucleoprotein complex assembly
p209
I296
tp210
a(Vmitochondrion organization
p211
I292
tp212
a(Vcell wall
p213
I291
tp214
a(Vlysosome
p215
I288
tp216
a(Visomerase activity
p217
I286
tp218
a(VGTPase activity
p219
I265
tp220
a(Vchromosome
p221
I253
tp222
a(Vproteinaceous extracellular matrix
p223
I252
tp224
a(Vsecondary metabolic process
p225
I247
tp226
a(Vnuclear envelope
p227
I245
tp228
a(Vnucleotidyltransferase activity
p229
I241
tp230
a(Vhydrolase activity, acting on glycosyl bonds
p231
I236
tp232
a(VtRNA metabolic process
p233
I233
tp234
a(Vplasma membrane organization
p235
I230
tp236
a(VmRNA binding
p237
I227
tp238
a(Vhistone binding
p239
I219
tp240
a(Vstructural constituent of ribosome
p241
I213
tp242
a(Vhydrolase activity, acting on carbon-nitrogen (but not peptide) bonds
p243
I194
tp244
a(Vcell wall organization or biogenesis
p245
I186
tp246
a(Vmitosis
p247
I168
tp248
a(Vvacuolar transport
p249
I166
tp250
a(Vperoxisome
p251
I161
tp252
a(Vtranslation factor activity, nucleic acid binding
p253
I158
tp254
a(Vchromosome segregation
p255
I154
tp256
a(Vprotein binding, bridging
p257
I147
tp258
a(Vunfolded protein binding
p259
I147
tp260
a(Vsmall conjugating protein binding
p261
I135
tp262
a(Vlipid particle
p263
I132
tp264
a(Vtranslation
p265
I129
tp266
a(Vprotein transporter activity
p267
I123
tp268
a(Vribosome
p269
I120
tp270
a(Vtransferase activity, transferring alkyl or aryl (other than methyl) groups
p271
I112
tp272
a(Vnuclear chromosome
p273
I78
tp274
a(Vpigmentation
p275
I77
tp276
a(Vintracellular
p277
I77
tp278
a(Vribosome biogenesis
p279
I72
tp280
a(VrRNA binding
p281
I68
tp282
a(Vnitrogen cycle metabolic process
p283
I39
tp284
a(Vthylakoid
p285
I38
tp286
a(Vphotosynthesis
p287
I16
tp288
a(Vcell
p289
I5
tp290
a(Vtransposition
p291
I5
tp292
a(Vcytoplasmic chromosome
p293
I1
tp294
aa(lp295
(g3
L6372L
tp296
a(g5
L4365L
tp297
a(g7
L2787L
tp298
a(g9
L21685L
tp299
a(g11
L26888L
tp300
a(g13
L5491L
tp301
a(g15
L18268L
tp302
a(g17
L5801L
tp303
a(g19
L5613L
tp304
a(g21
L21693L
tp305
a(g23
L22689L
tp306
a(g25
L21630L
tp307
a(g27
L7192L
tp308
a(g29
L7190L
tp309
a(g31
L5168L
tp310
a(g33
L1781L
tp311
a(g35
L13924L
tp312
a(g37
L13633L
tp313
a(g39
L5326L
tp314
a(g41
L4599L
tp315
a(g43
L12968L
tp316
a(g45
L13690L
tp317
a(g47
L20507L
tp318
a(g49
L4644L
tp319
a(g51
L10381L
tp320
a(g53
L4507L
tp321
a(g55
L4995L
tp322
a(g57
L4422L
tp323
a(g59
L10598L
tp324
a(g61
L4514L
tp325
a(g63
L26682L
tp326
a(g65
L21086L
tp327
a(g67
L4725L
tp328
a(g69
L31581L
tp329
a(g71
L2790L
tp330
a(g73
L28228L
tp331
a(g75
L29927L
tp332
a(g77
L18282L
tp333
a(g79
L28535L
tp334
a(g81
L26901L
tp335
a(g83
L7881L
tp336
a(g85
L6320L
tp337
a(g87
L10466L
tp338
a(g89
L27837L
tp339
a(g91
L20503L
tp340
a(g93
L3827L
tp341
a(g95
L5165L
tp342
a(g97
L5218L
tp343
a(g99
L5663L
tp344
a(g101
L2830L
tp345
a(g103
L4567L
tp346
a(g105
L4621L
tp347
a(g107
L4515L
tp348
a(g109
L10229L
tp349
a(g111
L6448L
tp350
a(g113
L5791L
tp351
a(g115
L10963L
tp352
a(g117
L6500L
tp353
a(g119
L6436L
tp354
a(g121
L5896L
tp355
a(g123
L4556L
tp356
a(g125
L30984L
tp357
a(g127
L6494L
tp358
a(g129
L10950L
tp359
a(g131
L14001L
tp360
a(g133
L4542L
tp361
a(g135
L4439L
tp362
a(g137
L594L
tp363
a(g139
L4586L
tp364
a(g141
L5471L
tp365
a(g143
L4118L
tp366
a(g145
L6357L
tp367
a(g147
L4366L
tp368
a(g149
L13967L
tp369
a(g151
L5302L
tp370
a(g153
L677L
tp371
a(g155
L28144L
tp372
a(g157
L759L
tp373
a(g159
L4684L
tp374
a(g161
L4405L
tp375
a(g163
L4838L
tp376
a(g165
L4546L
tp377
a(g167
L10829L
tp378
a(g169
L5112L
tp379
a(g171
L22810L
tp380
a(g173
L5695L
tp381
a(g175
L10905L
tp382
a(g177
L3L
tp383
a(g179
L3404L
tp384
a(g181
L10870L
tp385
a(g183
L10840L
tp386
a(g185
L28251L
tp387
a(g187
L7644L
tp388
a(g189
L6169L
tp389
a(g191
L13274L
tp390
a(g193
L5582L
tp391
a(g195
L3518L
tp392
a(g197
L2364L
tp393
a(g199
L17965L
tp394
a(g201
L6389L
tp395
a(g203
L5161L
tp396
a(g205
L14427L
tp397
a(g207
L14078L
tp398
a(g209
L13644L
tp399
a(g211
L5658L
tp400
a(g213
L4408L
tp401
a(g215
L4538L
tp402
a(g217
L10929L
tp403
a(g219
L2991L
tp404
a(g221
L4475L
tp405
a(g223
L4368L
tp406
a(g225
L12827L
tp407
a(g227
L4423L
tp408
a(g229
L10860L
tp409
a(g231
L10876L
tp410
a(g233
L5114L
tp411
a(g235
L5662L
tp412
a(g237
L2835L
tp413
a(g239
L20900L
tp414
a(g241
L2841L
tp415
a(g243
L10886L
tp416
a(g245
L33137L
tp417
a(g247
L5712L
tp418
a(g249
L5682L
tp419
a(g251
L4550L
tp420
a(g253
L6358L
tp421
a(g255
L5705L
tp422
a(g257
L14396L
tp423
a(g259
L28040L
tp424
a(g261
L15840L
tp425
a(g263
L4583L
tp426
a(g265
L5126L
tp427
a(g267
L6747L
tp428
a(g269
L4609L
tp429
a(g271
L10848L
tp430
a(g273
L201L
tp431
a(g275
L21900L
tp432
a(g277
L4411L
tp433
a(g279
L20770L
tp434
a(g281
L12918L
tp435
a(g283
L33512L
tp436
a(g285
L7683L
tp437
a(g287
L10192L
tp438
a(g289
L4412L
tp439
a(g291
L15852L
tp440
a(g293
L202L
tp441
aaI556356
a.