(lp1
(lp2
(Vbiological_process
p3
I307902
tp4
a(Vcellular_component
p5
I103071
tp6
a(Vmolecular_function
p7
I84535
tp8
a(Vorganelle
p9
I27744
tp10
a(Vanatomical structure development
p11
I23364
tp12
a(Vtransport
p13
I17588
tp14
a(Vcellular nitrogen compound metabolic process
p15
I14684
tp16
a(Vsignal transduction
p17
I13641
tp18
a(Vprotein complex
p19
I12102
tp20
a(Vresponse to stress
p21
I11652
tp22
a(Vion binding
p23
I10151
tp24
a(Vsmall molecule metabolic process
p25
I9666
tp26
a(Vbiosynthetic process
p27
I9186
tp28
a(Vcellular protein modification process
p29
I8174
tp30
a(Vcatabolic process
p31
I7194
tp32
a(Vimmune system process
p33
I6071
tp34
a(Vcell differentiation
p35
I5694
tp36
a(Vcellular component assembly
p37
I5189
tp38
a(Vcytosol
p39
I4817
tp40
a(Venzyme binding
p41
I4532
tp42
a(Vlipid metabolic process
p43
I4433
tp44
a(Vnucleolus
p45
I3874
tp46
a(Vlocomotion
p47
I3856
tp48
a(VDNA metabolic process
p49
I3734
tp50
a(Vvesicle-mediated transport
p51
I3667
tp52
a(Vtransmembrane transporter activity
p53
I3642
tp54
a(Vplasma membrane
p55
I3634
tp56
a(Vanatomical structure formation involved in morphogenesis
p57
I3630
tp58
a(Vnucleus
p59
I3413
tp60
a(Vchromosome organization
p61
I3214
tp62
a(VDNA binding
p63
I3098
tp64
a(Vhomeostatic process
p65
I3044
tp66
a(Vmacromolecular complex assembly
p67
I2905
tp68
a(Vcytoplasm
p69
I2790
tp70
a(Vcarbohydrate metabolic process
p71
I2737
tp72
a(Vnucleobase-containing compound catabolic process
p73
I2726
tp74
a(Vcell motility
p75
I2691
tp76
a(Vtransmembrane transport
p77
I2691
tp78
a(Vcytoskeletal protein binding
p79
I2561
tp80
a(Vembryo development
p81
I2547
tp82
a(Voxidoreductase activity
p83
I2527
tp84
a(Vneurological system process
p85
I2479
tp86
a(Vgrowth
p87
I2462
tp88
a(Vcytoskeleton organization
p89
I2408
tp90
a(Vprotein maturation
p91
I2403
tp92
a(Vsignal transducer activity
p93
I2348
tp94
a(Vkinase activity
p95
I2331
tp96
a(Vprotein complex assembly
p97
I2307
tp98
a(VRNA binding
p99
I2127
tp100
a(VGolgi apparatus
p101
I1926
tp102
a(Vcytoplasmic membrane-bounded vesicle
p103
I1858
tp104
a(Vlipid binding
p105
I1852
tp106
a(Vmitochondrion
p107
I1845
tp108
a(Vcytoskeleton
p109
I1792
tp110
a(Vcellular amino acid metabolic process
p111
I1690
tp112
a(Vcell adhesion
p113
I1612
tp114
a(Vendoplasmic reticulum
p115
I1607
tp116
a(VATPase activity
p117
I1586
tp118
a(Vmembrane organization
p119
I1530
tp120
a(Vcell-cell signaling
p121
I1528
tp122
a(Vcell death
p123
I1520
tp124
a(Vendosome
p125
I1510
tp126
a(Vligase activity
p127
I1477
tp128
a(Vpeptidase activity
p129
I1476
tp130
a(Vcell proliferation
p131
I1475
tp132
a(Venzyme regulator activity
p133
I1427
tp134
a(Vnucleoplasm
p135
I1388
tp136
a(Vmicrotubule organizing center
p137
I1340
tp138
a(Vtranscription factor binding
p139
I1339
tp140
a(Vprotein binding transcription factor activity
p141
I1274
tp142
a(Vcell morphogenesis
p143
I1249
tp144
a(Vstructural molecule activity
p145
I1209
tp146
a(Vnucleic acid binding transcription factor activity
p147
I1150
tp148
a(Vprotein targeting
p149
I1133
tp150
a(Vsulfur compound metabolic process
p151
I1025
tp152
a(Vextracellular region
p153
I966
tp154
a(VmRNA processing
p155
I852
tp156
a(Vsymbiosis, encompassing mutualism through parasitism
p157
I846
tp158
a(Vtransferase activity, transferring acyl groups
p159
I839
tp160
a(Vvacuole
p161
I837
tp162
a(Vcofactor metabolic process
p163
I814
tp164
a(Vextracellular space
p165
I806
tp166
a(Vcilium
p167
I801
tp168
a(Vgeneration of precursor metabolites and energy
p169
I777
tp170
a(Vphosphatase activity
p171
I761
tp172
a(Vcell cycle
p173
I713
tp174
a(Vextracellular matrix organization
p175
I710
tp176
a(Vtransferase activity, transferring glycosyl groups
p177
I700
tp178
a(Vhelicase activity
p179
I679
tp180
a(Vnucleocytoplasmic transport
p181
I650
tp182
a(Vreproduction
p183
I642
tp184
a(Vcell junction organization
p185
I599
tp186
a(Vnuclease activity
p187
I591
tp188
a(Vcell division
p189
I580
tp190
a(Vaging
p191
I568
tp192
a(Vplastid
p193
I562
tp194
a(Vdevelopmental maturation
p195
I510
tp196
a(Vcirculatory system process
p197
I508
tp198
a(Vmethyltransferase activity
p199
I500
tp200
a(Vmitochondrion organization
p201
I497
tp202
a(Vchromosome
p203
I493
tp204
a(Vlyase activity
p205
I473
tp206
a(Vribonucleoprotein complex assembly
p207
I467
tp208
a(Vlysosome
p209
I461
tp210
a(Vcytoskeleton-dependent intracellular transport
p211
I446
tp212
a(Vprotein folding
p213
I437
tp214
a(Vhistone binding
p215
I410
tp216
a(Vsecondary metabolic process
p217
I372
tp218
a(VGTPase activity
p219
I370
tp220
a(Vexternal encapsulating structure
p221
I363
tp222
a(Vnuclear envelope
p223
I358
tp224
a(Vcell wall
p225
I356
tp226
a(VmRNA binding
p227
I350
tp228
a(Vplasma membrane organization
p229
I349
tp230
a(Vnucleotidyltransferase activity
p231
I333
tp232
a(Visomerase activity
p233
I332
tp234
a(Vmitosis
p235
I321
tp236
a(Vvacuolar transport
p237
I316
tp238
a(Vstructural constituent of ribosome
p239
I314
tp240
a(Vproteinaceous extracellular matrix
p241
I299
tp242
a(Vchromosome segregation
p243
I290
tp244
a(Vhydrolase activity, acting on glycosyl bonds
p245
I283
tp246
a(Vhydrolase activity, acting on carbon-nitrogen (but not peptide) bonds
p247
I280
tp248
a(Vcell wall organization or biogenesis
p249
I258
tp250
a(Vsmall conjugating protein binding
p251
I253
tp252
a(Vprotein binding, bridging
p253
I250
tp254
a(Vperoxisome
p255
I244
tp256
a(VtRNA metabolic process
p257
I234
tp258
a(Vtranslation factor activity, nucleic acid binding
p259
I213
tp260
a(Vprotein transporter activity
p261
I209
tp262
a(Vunfolded protein binding
p263
I197
tp264
a(Vlipid particle
p265
I171
tp266
a(Vtranslation
p267
I169
tp268
a(Vribosome
p269
I158
tp270
a(Vnuclear chromosome
p271
I141
tp272
a(Vtransferase activity, transferring alkyl or aryl (other than methyl) groups
p273
I129
tp274
a(Vintracellular
p275
I123
tp276
a(Vribosome biogenesis
p277
I122
tp278
a(Vpigmentation
p279
I108
tp280
a(VrRNA binding
p281
I89
tp282
a(Vthylakoid
p283
I65
tp284
a(Vtransposition
p285
I35
tp286
a(Vnitrogen cycle metabolic process
p287
I33
tp288
a(Vphotosynthesis
p289
I19
tp290
a(Vcell
p291
I10
tp292
a(VRNA modification guide activity
p293
I2
tp294
aa(lp295
(g3
L6372L
tp296
a(g5
L4365L
tp297
a(g7
L2787L
tp298
a(g9
L21685L
tp299
a(g11
L26888L
tp300
a(g13
L5491L
tp301
a(g15
L18268L
tp302
a(g17
L5801L
tp303
a(g19
L21693L
tp304
a(g21
L5613L
tp305
a(g23
L21630L
tp306
a(g25
L22689L
tp307
a(g27
L7192L
tp308
a(g29
L5168L
tp309
a(g31
L7190L
tp310
a(g33
L1781L
tp311
a(g35
L13924L
tp312
a(g37
L13633L
tp313
a(g39
L4599L
tp314
a(g41
L12968L
tp315
a(g43
L5326L
tp316
a(g45
L4507L
tp317
a(g47
L20507L
tp318
a(g49
L4995L
tp319
a(g51
L10381L
tp320
a(g53
L13690L
tp321
a(g55
L4644L
tp322
a(g57
L26682L
tp323
a(g59
L4422L
tp324
a(g61
L28228L
tp325
a(g63
L2790L
tp326
a(g65
L21086L
tp327
a(g67
L31581L
tp328
a(g69
L4514L
tp329
a(g71
L4725L
tp330
a(g73
L18282L
tp331
a(g75
L26901L
tp332
a(g77
L29927L
tp333
a(g79
L6320L
tp334
a(g81
L7881L
tp335
a(g83
L10598L
tp336
a(g85
L27837L
tp337
a(g87
L20503L
tp338
a(g89
L5663L
tp339
a(g91
L28535L
tp340
a(g93
L3827L
tp341
a(g95
L10466L
tp342
a(g97
L5165L
tp343
a(g99
L2830L
tp344
a(g101
L4567L
tp345
a(g103
L10229L
tp346
a(g105
L6500L
tp347
a(g107
L4515L
tp348
a(g109
L4621L
tp349
a(g111
L5218L
tp350
a(g113
L5791L
tp351
a(g115
L4556L
tp352
a(g117
L10963L
tp353
a(g119
L30984L
tp354
a(g121
L5896L
tp355
a(g123
L6436L
tp356
a(g125
L4542L
tp357
a(g127
L10950L
tp358
a(g129
L6448L
tp359
a(g131
L6494L
tp360
a(g133
L14001L
tp361
a(g135
L4439L
tp362
a(g137
L4586L
tp363
a(g139
L6357L
tp364
a(g141
L677L
tp365
a(g143
L594L
tp366
a(g145
L4118L
tp367
a(g147
L759L
tp368
a(g149
L5302L
tp369
a(g151
L5471L
tp370
a(g153
L4366L
tp371
a(g155
L5112L
tp372
a(g157
L22810L
tp373
a(g159
L10829L
tp374
a(g161
L4546L
tp375
a(g163
L28144L
tp376
a(g165
L4405L
tp377
a(g167
L4684L
tp378
a(g169
L4838L
tp379
a(g171
L10870L
tp380
a(g173
L5695L
tp381
a(g175
L13967L
tp382
a(g177
L10840L
tp383
a(g179
L3404L
tp384
a(g181
L5582L
tp385
a(g183
L3L
tp386
a(g185
L17965L
tp387
a(g187
L3518L
tp388
a(g189
L28251L
tp389
a(g191
L6169L
tp390
a(g193
L7644L
tp391
a(g195
L13274L
tp392
a(g197
L2364L
tp393
a(g199
L6389L
tp394
a(g201
L5658L
tp395
a(g203
L4475L
tp396
a(g205
L10905L
tp397
a(g207
L13644L
tp398
a(g209
L4538L
tp399
a(g211
L14427L
tp400
a(g213
L5161L
tp401
a(g215
L20900L
tp402
a(g217
L12827L
tp403
a(g219
L2991L
tp404
a(g221
L14078L
tp405
a(g223
L4423L
tp406
a(g225
L4408L
tp407
a(g227
L2835L
tp408
a(g229
L5662L
tp409
a(g231
L10860L
tp410
a(g233
L10929L
tp411
a(g235
L5712L
tp412
a(g237
L5682L
tp413
a(g239
L2841L
tp414
a(g241
L4368L
tp415
a(g243
L5705L
tp416
a(g245
L10876L
tp417
a(g247
L10886L
tp418
a(g249
L33137L
tp419
a(g251
L15840L
tp420
a(g253
L14396L
tp421
a(g255
L4550L
tp422
a(g257
L5114L
tp423
a(g259
L6358L
tp424
a(g261
L6747L
tp425
a(g263
L28040L
tp426
a(g265
L4583L
tp427
a(g267
L5126L
tp428
a(g269
L4609L
tp429
a(g271
L201L
tp430
a(g273
L10848L
tp431
a(g275
L4411L
tp432
a(g277
L20770L
tp433
a(g279
L21900L
tp434
a(g281
L12918L
tp435
a(g283
L7683L
tp436
a(g285
L15852L
tp437
a(g287
L33512L
tp438
a(g289
L10192L
tp439
a(g291
L4412L
tp440
a(g293
L14288L
tp441
aaI841067
a.