(lp1
(lp2
(Vbiological_process
p3
I284624
tp4
a(Vcellular_component
p5
I96062
tp6
a(Vmolecular_function
p7
I85588
tp8
a(Vorganelle
p9
I25106
tp10
a(Vanatomical structure development
p11
I20378
tp12
a(Vtransport
p13
I17683
tp14
a(Vcellular nitrogen compound metabolic process
p15
I15064
tp16
a(Vsignal transduction
p17
I12376
tp18
a(Vsmall molecule metabolic process
p19
I11669
tp20
a(Vresponse to stress
p21
I11304
tp22
a(Vion binding
p23
I10938
tp24
a(Vprotein complex
p25
I10805
tp26
a(Vbiosynthetic process
p27
I10484
tp28
a(Vcatabolic process
p29
I7879
tp30
a(Vcellular protein modification process
p31
I7416
tp32
a(Vimmune system process
p33
I5278
tp34
a(Vcell differentiation
p35
I5012
tp36
a(Vcellular component assembly
p37
I4787
tp38
a(Vlipid metabolic process
p39
I4660
tp40
a(Vcytosol
p41
I4502
tp42
a(Vtransmembrane transporter activity
p43
I4428
tp44
a(Venzyme binding
p45
I3978
tp46
a(Vplasma membrane
p47
I3946
tp48
a(VDNA metabolic process
p49
I3824
tp50
a(Voxidoreductase activity
p51
I3721
tp52
a(Vnucleolus
p53
I3352
tp54
a(Vlocomotion
p55
I3327
tp56
a(VDNA binding
p57
I3270
tp58
a(Vcytoplasm
p59
I3231
tp60
a(Vnucleus
p61
I3227
tp62
a(Vtransmembrane transport
p63
I3144
tp64
a(Vcarbohydrate metabolic process
p65
I3078
tp66
a(Vanatomical structure formation involved in morphogenesis
p67
I3048
tp68
a(Vvesicle-mediated transport
p69
I3036
tp70
a(Vchromosome organization
p71
I2863
tp72
a(Vmacromolecular complex assembly
p73
I2719
tp74
a(Vhomeostatic process
p75
I2684
tp76
a(Vnucleobase-containing compound catabolic process
p77
I2672
tp78
a(Vcellular amino acid metabolic process
p79
I2662
tp80
a(Vkinase activity
p81
I2314
tp82
a(Vgrowth
p83
I2269
tp84
a(Vcell motility
p85
I2230
tp86
a(Vprotein complex assembly
p87
I2229
tp88
a(Vembryo development
p89
I2219
tp90
a(Vprotein maturation
p91
I2180
tp92
a(Vcytoskeletal protein binding
p93
I2099
tp94
a(Vneurological system process
p95
I2092
tp96
a(Vsignal transducer activity
p97
I2083
tp98
a(Vcytoskeleton organization
p99
I2006
tp100
a(VRNA binding
p101
I1974
tp102
a(Vmitochondrion
p103
I1788
tp104
a(VATPase activity
p105
I1776
tp106
a(Vcytoplasmic membrane-bounded vesicle
p107
I1674
tp108
a(Vlipid binding
p109
I1607
tp110
a(VGolgi apparatus
p111
I1596
tp112
a(Vcytoskeleton
p113
I1536
tp114
a(Vligase activity
p115
I1505
tp116
a(Vpeptidase activity
p117
I1469
tp118
a(Vendoplasmic reticulum
p119
I1452
tp120
a(Vcell adhesion
p121
I1369
tp122
a(Vmembrane organization
p123
I1362
tp124
a(Vcell death
p125
I1310
tp126
a(Venzyme regulator activity
p127
I1309
tp128
a(Vcell-cell signaling
p129
I1303
tp130
a(Vendosome
p131
I1292
tp132
a(Vcell proliferation
p133
I1257
tp134
a(Vmicrotubule organizing center
p135
I1254
tp136
a(Vcofactor metabolic process
p137
I1231
tp138
a(Vtranscription factor binding
p139
I1225
tp140
a(Vnucleic acid binding transcription factor activity
p141
I1209
tp142
a(Vnucleoplasm
p143
I1182
tp144
a(Vprotein binding transcription factor activity
p145
I1149
tp146
a(Vsulfur compound metabolic process
p147
I1120
tp148
a(Vcell morphogenesis
p149
I1098
tp150
a(Vgeneration of precursor metabolites and energy
p151
I979
tp152
a(Vstructural molecule activity
p153
I978
tp154
a(Vtransferase activity, transferring acyl groups
p155
I936
tp156
a(Vextracellular region
p157
I909
tp158
a(Vprotein targeting
p159
I889
tp160
a(Vlyase activity
p161
I780
tp162
a(Vphosphatase activity
p163
I744
tp164
a(Vnuclease activity
p165
I741
tp166
a(VmRNA processing
p167
I734
tp168
a(Vvacuole
p169
I731
tp170
a(Vcilium
p171
I718
tp172
a(Vsymbiosis, encompassing mutualism through parasitism
p173
I717
tp174
a(Vcell cycle
p175
I703
tp176
a(Vextracellular space
p177
I701
tp178
a(Vtransferase activity, transferring glycosyl groups
p179
I697
tp180
a(Vhelicase activity
p181
I657
tp182
a(Vextracellular matrix organization
p183
I636
tp184
a(Vexternal encapsulating structure
p185
I581
tp186
a(Vmethyltransferase activity
p187
I571
tp188
a(Vreproduction
p189
I566
tp190
a(Vnucleocytoplasmic transport
p191
I559
tp192
a(Vcell wall
p193
I558
tp194
a(Vcell division
p195
I550
tp196
a(Vplastid
p197
I547
tp198
a(Vaging
p199
I529
tp200
a(Vcell junction organization
p201
I496
tp202
a(Vprotein folding
p203
I492
tp204
a(Visomerase activity
p205
I492
tp206
a(Vsecondary metabolic process
p207
I479
tp208
a(Vdevelopmental maturation
p209
I461
tp210
a(Vmitochondrion organization
p211
I441
tp212
a(Vchromosome
p213
I437
tp214
a(Vnucleotidyltransferase activity
p215
I429
tp216
a(Vlysosome
p217
I411
tp218
a(Vhydrolase activity, acting on carbon-nitrogen (but not peptide) bonds
p219
I405
tp220
a(Vcirculatory system process
p221
I390
tp222
a(Vribonucleoprotein complex assembly
p223
I385
tp224
a(VGTPase activity
p225
I381
tp226
a(Vcytoskeleton-dependent intracellular transport
p227
I377
tp228
a(Vhistone binding
p229
I343
tp230
a(VtRNA metabolic process
p231
I338
tp232
a(VmRNA binding
p233
I315
tp234
a(Vhydrolase activity, acting on glycosyl bonds
p235
I310
tp236
a(Vnuclear envelope
p237
I306
tp238
a(Vplasma membrane organization
p239
I285
tp240
a(Vmitosis
p241
I284
tp242
a(Vcell wall organization or biogenesis
p243
I269
tp244
a(Vproteinaceous extracellular matrix
p245
I268
tp246
a(Vperoxisome
p247
I261
tp248
a(Vchromosome segregation
p249
I259
tp250
a(Vvacuolar transport
p251
I257
tp252
a(Vstructural constituent of ribosome
p253
I229
tp254
a(Vunfolded protein binding
p255
I227
tp256
a(Vsmall conjugating protein binding
p257
I220
tp258
a(Vprotein binding, bridging
p259
I219
tp260
a(Vprotein transporter activity
p261
I212
tp262
a(Vtranslation factor activity, nucleic acid binding
p263
I208
tp264
a(Vtranslation
p265
I190
tp266
a(Vlipid particle
p267
I163
tp268
a(Vribosome
p269
I160
tp270
a(Vintracellular
p271
I151
tp272
a(Vtransferase activity, transferring alkyl or aryl (other than methyl) groups
p273
I147
tp274
a(Vnuclear chromosome
p275
I117
tp276
a(Vpigmentation
p277
I112
tp278
a(Vribosome biogenesis
p279
I107
tp280
a(VrRNA binding
p281
I103
tp282
a(Vthylakoid
p283
I60
tp284
a(Vnitrogen cycle metabolic process
p285
I59
tp286
a(Vtransposition
p287
I37
tp288
a(Vphotosynthesis
p289
I16
tp290
a(Vcell
p291
I15
tp292
a(VRNA modification guide activity
p293
I1
tp294
a(Vcytoplasmic chromosome
p295
I1
tp296
aa(lp297
(g3
L6372L
tp298
a(g5
L4365L
tp299
a(g7
L2787L
tp300
a(g9
L21685L
tp301
a(g11
L26888L
tp302
a(g13
L5491L
tp303
a(g15
L18268L
tp304
a(g17
L5801L
tp305
a(g19
L22689L
tp306
a(g21
L5613L
tp307
a(g23
L21630L
tp308
a(g25
L21693L
tp309
a(g27
L7192L
tp310
a(g29
L7190L
tp311
a(g31
L5168L
tp312
a(g33
L1781L
tp313
a(g35
L13924L
tp314
a(g37
L13633L
tp315
a(g39
L5326L
tp316
a(g41
L4599L
tp317
a(g43
L13690L
tp318
a(g45
L12968L
tp319
a(g47
L4644L
tp320
a(g49
L4995L
tp321
a(g51
L10598L
tp322
a(g53
L4507L
tp323
a(g55
L20507L
tp324
a(g57
L2790L
tp325
a(g59
L4514L
tp326
a(g61
L4422L
tp327
a(g63
L29927L
tp328
a(g65
L4725L
tp329
a(g67
L26682L
tp330
a(g69
L10381L
tp331
a(g71
L28228L
tp332
a(g73
L31581L
tp333
a(g75
L21086L
tp334
a(g77
L18282L
tp335
a(g79
L5218L
tp336
a(g81
L10466L
tp337
a(g83
L20503L
tp338
a(g85
L26901L
tp339
a(g87
L5165L
tp340
a(g89
L7881L
tp341
a(g91
L28535L
tp342
a(g93
L6320L
tp343
a(g95
L27837L
tp344
a(g97
L3827L
tp345
a(g99
L5663L
tp346
a(g101
L2830L
tp347
a(g103
L4515L
tp348
a(g105
L10963L
tp349
a(g107
L10229L
tp350
a(g109
L6500L
tp351
a(g111
L4567L
tp352
a(g113
L4621L
tp353
a(g115
L10950L
tp354
a(g117
L6448L
tp355
a(g119
L4556L
tp356
a(g121
L5791L
tp357
a(g123
L30984L
tp358
a(g125
L6436L
tp359
a(g127
L14001L
tp360
a(g129
L5896L
tp361
a(g131
L4542L
tp362
a(g133
L6494L
tp363
a(g135
L4586L
tp364
a(g137
L28144L
tp365
a(g139
L6357L
tp366
a(g141
L759L
tp367
a(g143
L4439L
tp368
a(g145
L677L
tp369
a(g147
L5471L
tp370
a(g149
L594L
tp371
a(g151
L4838L
tp372
a(g153
L4118L
tp373
a(g155
L10829L
tp374
a(g157
L4366L
tp375
a(g159
L5302L
tp376
a(g161
L10905L
tp377
a(g163
L10870L
tp378
a(g165
L3518L
tp379
a(g167
L5112L
tp380
a(g169
L4546L
tp381
a(g171
L4684L
tp382
a(g173
L22810L
tp383
a(g175
L5695L
tp384
a(g177
L4405L
tp385
a(g179
L10840L
tp386
a(g181
L3404L
tp387
a(g183
L13967L
tp388
a(g185
L14078L
tp389
a(g187
L6389L
tp390
a(g189
L3L
tp391
a(g191
L5582L
tp392
a(g193
L4408L
tp393
a(g195
L28251L
tp394
a(g197
L7644L
tp395
a(g199
L6169L
tp396
a(g201
L17965L
tp397
a(g203
L5161L
tp398
a(g205
L10929L
tp399
a(g207
L12827L
tp400
a(g209
L13274L
tp401
a(g211
L5658L
tp402
a(g213
L4475L
tp403
a(g215
L10860L
tp404
a(g217
L4538L
tp405
a(g219
L10886L
tp406
a(g221
L2364L
tp407
a(g223
L13644L
tp408
a(g225
L2991L
tp409
a(g227
L14427L
tp410
a(g229
L20900L
tp411
a(g231
L5114L
tp412
a(g233
L2835L
tp413
a(g235
L10876L
tp414
a(g237
L4423L
tp415
a(g239
L5662L
tp416
a(g241
L5712L
tp417
a(g243
L33137L
tp418
a(g245
L4368L
tp419
a(g247
L4550L
tp420
a(g249
L5705L
tp421
a(g251
L5682L
tp422
a(g253
L2841L
tp423
a(g255
L28040L
tp424
a(g257
L15840L
tp425
a(g259
L14396L
tp426
a(g261
L6747L
tp427
a(g263
L6358L
tp428
a(g265
L5126L
tp429
a(g267
L4583L
tp430
a(g269
L4609L
tp431
a(g271
L4411L
tp432
a(g273
L10848L
tp433
a(g275
L201L
tp434
a(g277
L21900L
tp435
a(g279
L20770L
tp436
a(g281
L12918L
tp437
a(g283
L7683L
tp438
a(g285
L33512L
tp439
a(g287
L15852L
tp440
a(g289
L10192L
tp441
a(g291
L4412L
tp442
a(g293
L14288L
tp443
a(g295
L202L
tp444
aaI800629
a.