(lp1
(lp2
(Vbiological_process
p3
I179537
tp4
a(Vcellular_component
p5
I60729
tp6
a(Vmolecular_function
p7
I48403
tp8
a(Vorganelle
p9
I16897
tp10
a(Vanatomical structure development
p11
I13078
tp12
a(Vtransport
p13
I10014
tp14
a(Vcellular nitrogen compound metabolic process
p15
I9116
tp16
a(Vsignal transduction
p17
I7692
tp18
a(Vprotein complex
p19
I6993
tp20
a(Vresponse to stress
p21
I6962
tp22
a(Vsmall molecule metabolic process
p23
I6033
tp24
a(Vbiosynthetic process
p25
I5959
tp26
a(Vion binding
p27
I5777
tp28
a(Vcellular protein modification process
p29
I5037
tp30
a(Vcatabolic process
p31
I4482
tp32
a(Vimmune system process
p33
I3438
tp34
a(Vcell differentiation
p35
I3184
tp36
a(Vcellular component assembly
p37
I3031
tp38
a(Vcytosol
p39
I2829
tp40
a(Vlipid metabolic process
p41
I2577
tp42
a(Venzyme binding
p43
I2542
tp44
a(VDNA metabolic process
p45
I2313
tp46
a(Vnucleolus
p47
I2171
tp48
a(Vnucleus
p49
I2141
tp50
a(Vvesicle-mediated transport
p51
I2113
tp52
a(Vplasma membrane
p53
I2069
tp54
a(Vlocomotion
p55
I2031
tp56
a(Vchromosome organization
p57
I1996
tp58
a(Vtransmembrane transporter activity
p59
I1928
tp60
a(Vanatomical structure formation involved in morphogenesis
p61
I1891
tp62
a(Vcarbohydrate metabolic process
p63
I1822
tp64
a(VDNA binding
p65
I1681
tp66
a(Vhomeostatic process
p67
I1666
tp68
a(Vmacromolecular complex assembly
p69
I1662
tp70
a(Vnucleobase-containing compound catabolic process
p71
I1640
tp72
a(Voxidoreductase activity
p73
I1622
tp74
a(Vcytoplasm
p75
I1619
tp76
a(Vkinase activity
p77
I1528
tp78
a(Vembryo development
p79
I1512
tp80
a(Vgrowth
p81
I1473
tp82
a(Vcytoskeletal protein binding
p83
I1433
tp84
a(Vtransmembrane transport
p85
I1419
tp86
a(Vcell motility
p87
I1365
tp88
a(Vprotein complex assembly
p89
I1342
tp90
a(Vcytoskeleton organization
p91
I1335
tp92
a(Vprotein maturation
p93
I1309
tp94
a(Vneurological system process
p95
I1289
tp96
a(VRNA binding
p97
I1202
tp98
a(Vmitochondrion
p99
I1151
tp100
a(Vcellular amino acid metabolic process
p101
I1141
tp102
a(Vsignal transducer activity
p103
I1088
tp104
a(Vcytoskeleton
p105
I1078
tp106
a(VGolgi apparatus
p107
I1062
tp108
a(Vcytoplasmic membrane-bounded vesicle
p109
I1039
tp110
a(Vlipid binding
p111
I995
tp112
a(Vendoplasmic reticulum
p113
I939
tp114
a(Vendosome
p115
I904
tp116
a(Vcell death
p117
I899
tp118
a(VATPase activity
p119
I881
tp120
a(Vmicrotubule organizing center
p121
I864
tp122
a(Vmembrane organization
p123
I853
tp124
a(Venzyme regulator activity
p125
I823
tp126
a(Vcell adhesion
p127
I820
tp128
a(Vpeptidase activity
p129
I817
tp130
a(Vcell-cell signaling
p131
I805
tp132
a(Vnucleoplasm
p133
I804
tp134
a(Vcell morphogenesis
p135
I778
tp136
a(Vligase activity
p137
I771
tp138
a(Vcell proliferation
p139
I770
tp140
a(Vtranscription factor binding
p141
I751
tp142
a(Vprotein binding transcription factor activity
p143
I675
tp144
a(Vsulfur compound metabolic process
p145
I647
tp146
a(Vprotein targeting
p147
I636
tp148
a(Vnucleic acid binding transcription factor activity
p149
I601
tp150
a(Vstructural molecule activity
p151
I597
tp152
a(Vcell cycle
p153
I566
tp154
a(Vextracellular region
p155
I542
tp156
a(Vtransferase activity, transferring acyl groups
p157
I527
tp158
a(Vcilium
p159
I525
tp160
a(Vvacuole
p161
I515
tp162
a(Vphosphatase activity
p163
I515
tp164
a(Vcofactor metabolic process
p165
I513
tp166
a(Vgeneration of precursor metabolites and energy
p167
I488
tp168
a(VmRNA processing
p169
I482
tp170
a(Vsymbiosis, encompassing mutualism through parasitism
p171
I439
tp172
a(Vtransferase activity, transferring glycosyl groups
p173
I434
tp174
a(Vreproduction
p175
I431
tp176
a(Vhelicase activity
p177
I401
tp178
a(Vplastid
p179
I383
tp180
a(Vextracellular space
p181
I376
tp182
a(Vnuclease activity
p183
I373
tp184
a(Vlyase activity
p185
I366
tp186
a(Vcell division
p187
I352
tp188
a(Vnucleocytoplasmic transport
p189
I347
tp190
a(Vcell junction organization
p191
I336
tp192
a(Vmethyltransferase activity
p193
I332
tp194
a(Vextracellular matrix organization
p195
I331
tp196
a(Vaging
p197
I330
tp198
a(Vchromosome
p199
I318
tp200
a(Vprotein folding
p201
I293
tp202
a(Vcytoskeleton-dependent intracellular transport
p203
I293
tp204
a(Vmitochondrion organization
p205
I274
tp206
a(Vdevelopmental maturation
p207
I270
tp208
a(Vcirculatory system process
p209
I269
tp210
a(Vlysosome
p211
I263
tp212
a(VGTPase activity
p213
I260
tp214
a(Vribonucleoprotein complex assembly
p215
I258
tp216
a(Vexternal encapsulating structure
p217
I246
tp218
a(Vcell wall
p219
I242
tp220
a(Visomerase activity
p221
I240
tp222
a(Vhydrolase activity, acting on glycosyl bonds
p223
I239
tp224
a(Vsecondary metabolic process
p225
I223
tp226
a(Vmitosis
p227
I213
tp228
a(Vhistone binding
p229
I211
tp230
a(Vnuclear envelope
p231
I202
tp232
a(Vchromosome segregation
p233
I198
tp234
a(Vplasma membrane organization
p235
I197
tp236
a(VmRNA binding
p237
I187
tp238
a(Vvacuolar transport
p239
I183
tp240
a(Vstructural constituent of ribosome
p241
I182
tp242
a(VtRNA metabolic process
p243
I181
tp244
a(Vnucleotidyltransferase activity
p245
I179
tp246
a(Vhydrolase activity, acting on carbon-nitrogen (but not peptide) bonds
p247
I174
tp248
a(Vcell wall organization or biogenesis
p249
I170
tp250
a(Vprotein binding, bridging
p251
I161
tp252
a(Vsmall conjugating protein binding
p253
I144
tp254
a(Vperoxisome
p255
I144
tp256
a(Vproteinaceous extracellular matrix
p257
I139
tp258
a(Vtranslation factor activity, nucleic acid binding
p259
I116
tp260
a(Vunfolded protein binding
p261
I114
tp262
a(Vtranslation
p263
I112
tp264
a(Vlipid particle
p265
I109
tp266
a(Vribosome
p267
I94
tp268
a(Vribosome biogenesis
p269
I90
tp270
a(Vprotein transporter activity
p271
I89
tp272
a(Vnuclear chromosome
p273
I86
tp274
a(Vtransferase activity, transferring alkyl or aryl (other than methyl) groups
p275
I85
tp276
a(Vintracellular
p277
I84
tp278
a(Vpigmentation
p279
I62
tp280
a(VrRNA binding
p281
I56
tp282
a(Vthylakoid
p283
I49
tp284
a(Vnitrogen cycle metabolic process
p285
I29
tp286
a(Vphotosynthesis
p287
I16
tp288
a(Vcell
p289
I7
tp290
a(Vtransposition
p291
I2
tp292
a(VRNA modification guide activity
p293
I2
tp294
aa(lp295
(g3
L6372L
tp296
a(g5
L4365L
tp297
a(g7
L2787L
tp298
a(g9
L21685L
tp299
a(g11
L26888L
tp300
a(g13
L5491L
tp301
a(g15
L18268L
tp302
a(g17
L5801L
tp303
a(g19
L21693L
tp304
a(g21
L5613L
tp305
a(g23
L22689L
tp306
a(g25
L7192L
tp307
a(g27
L21630L
tp308
a(g29
L5168L
tp309
a(g31
L7190L
tp310
a(g33
L1781L
tp311
a(g35
L13924L
tp312
a(g37
L13633L
tp313
a(g39
L4599L
tp314
a(g41
L5326L
tp315
a(g43
L12968L
tp316
a(g45
L4995L
tp317
a(g47
L4507L
tp318
a(g49
L4422L
tp319
a(g51
L10381L
tp320
a(g53
L4644L
tp321
a(g55
L20507L
tp322
a(g57
L28228L
tp323
a(g59
L13690L
tp324
a(g61
L26682L
tp325
a(g63
L4725L
tp326
a(g65
L2790L
tp327
a(g67
L21086L
tp328
a(g69
L31581L
tp329
a(g71
L18282L
tp330
a(g73
L10598L
tp331
a(g75
L4514L
tp332
a(g77
L10466L
tp333
a(g79
L7881L
tp334
a(g81
L20503L
tp335
a(g83
L6320L
tp336
a(g85
L29927L
tp337
a(g87
L26901L
tp338
a(g89
L5165L
tp339
a(g91
L5663L
tp340
a(g93
L28535L
tp341
a(g95
L27837L
tp342
a(g97
L2830L
tp343
a(g99
L4515L
tp344
a(g101
L5218L
tp345
a(g103
L3827L
tp346
a(g105
L4621L
tp347
a(g107
L4567L
tp348
a(g109
L10229L
tp349
a(g111
L6500L
tp350
a(g113
L4556L
tp351
a(g115
L4542L
tp352
a(g117
L6436L
tp353
a(g119
L10963L
tp354
a(g121
L4586L
tp355
a(g123
L30984L
tp356
a(g125
L14001L
tp357
a(g127
L5791L
tp358
a(g129
L6448L
tp359
a(g131
L5896L
tp360
a(g133
L4439L
tp361
a(g135
L594L
tp362
a(g137
L10950L
tp363
a(g139
L6494L
tp364
a(g141
L6357L
tp365
a(g143
L677L
tp366
a(g145
L5471L
tp367
a(g147
L5302L
tp368
a(g149
L759L
tp369
a(g151
L4118L
tp370
a(g153
L5695L
tp371
a(g155
L4366L
tp372
a(g157
L10829L
tp373
a(g159
L4684L
tp374
a(g161
L4546L
tp375
a(g163
L10870L
tp376
a(g165
L28144L
tp377
a(g167
L4838L
tp378
a(g169
L5112L
tp379
a(g171
L22810L
tp380
a(g173
L10840L
tp381
a(g175
L3L
tp382
a(g177
L3404L
tp383
a(g179
L7644L
tp384
a(g181
L4405L
tp385
a(g183
L3518L
tp386
a(g185
L10905L
tp387
a(g187
L28251L
tp388
a(g189
L5582L
tp389
a(g191
L17965L
tp390
a(g193
L6389L
tp391
a(g195
L13967L
tp392
a(g197
L6169L
tp393
a(g199
L4475L
tp394
a(g201
L5161L
tp395
a(g203
L14427L
tp396
a(g205
L5658L
tp397
a(g207
L13274L
tp398
a(g209
L2364L
tp399
a(g211
L4538L
tp400
a(g213
L2991L
tp401
a(g215
L13644L
tp402
a(g217
L14078L
tp403
a(g219
L4408L
tp404
a(g221
L10929L
tp405
a(g223
L10876L
tp406
a(g225
L12827L
tp407
a(g227
L5712L
tp408
a(g229
L20900L
tp409
a(g231
L4423L
tp410
a(g233
L5705L
tp411
a(g235
L5662L
tp412
a(g237
L2835L
tp413
a(g239
L5682L
tp414
a(g241
L2841L
tp415
a(g243
L5114L
tp416
a(g245
L10860L
tp417
a(g247
L10886L
tp418
a(g249
L33137L
tp419
a(g251
L14396L
tp420
a(g253
L15840L
tp421
a(g255
L4550L
tp422
a(g257
L4368L
tp423
a(g259
L6358L
tp424
a(g261
L28040L
tp425
a(g263
L5126L
tp426
a(g265
L4583L
tp427
a(g267
L4609L
tp428
a(g269
L20770L
tp429
a(g271
L6747L
tp430
a(g273
L201L
tp431
a(g275
L10848L
tp432
a(g277
L4411L
tp433
a(g279
L21900L
tp434
a(g281
L12918L
tp435
a(g283
L7683L
tp436
a(g285
L33512L
tp437
a(g287
L10192L
tp438
a(g289
L4412L
tp439
a(g291
L15852L
tp440
a(g293
L14288L
tp441
aaI490730
a.