(lp1
(lp2
(Vbiological_process
p3
I282873
tp4
a(Vcellular_component
p5
I92346
tp6
a(Vmolecular_function
p7
I75085
tp8
a(Vorganelle
p9
I24494
tp10
a(Vanatomical structure development
p11
I21855
tp12
a(Vtransport
p13
I16139
tp14
a(Vsignal transduction
p15
I12172
tp16
a(Vcellular nitrogen compound metabolic process
p17
I12157
tp18
a(Vresponse to stress
p19
I10050
tp20
a(Vprotein complex
p21
I9940
tp22
a(Vion binding
p23
I9114
tp24
a(Vsmall molecule metabolic process
p25
I8780
tp26
a(Vbiosynthetic process
p27
I8248
tp28
a(Vcellular protein modification process
p29
I6717
tp30
a(Vcatabolic process
p31
I5963
tp32
a(Vcell differentiation
p33
I5145
tp34
a(Vimmune system process
p35
I5132
tp36
a(Vcellular component assembly
p37
I4353
tp38
a(Vcytosol
p39
I3976
tp40
a(Vlipid metabolic process
p41
I3928
tp42
a(Venzyme binding
p43
I3756
tp44
a(Vtransmembrane transporter activity
p45
I3668
tp46
a(Vplasma membrane
p47
I3361
tp48
a(Vanatomical structure formation involved in morphogenesis
p49
I3251
tp50
a(Vlocomotion
p51
I3244
tp52
a(Vvesicle-mediated transport
p53
I3088
tp54
a(Vnucleus
p55
I3071
tp56
a(Vnucleolus
p57
I3040
tp58
a(VDNA metabolic process
p59
I2948
tp60
a(Vsignal transducer activity
p61
I2863
tp62
a(VDNA binding
p63
I2704
tp64
a(Vhomeostatic process
p65
I2696
tp66
a(Vchromosome organization
p67
I2603
tp68
a(Vcytoplasm
p69
I2562
tp70
a(Vtransmembrane transport
p71
I2540
tp72
a(Vneurological system process
p73
I2436
tp74
a(Voxidoreductase activity
p75
I2419
tp76
a(Vmacromolecular complex assembly
p77
I2384
tp78
a(Vcarbohydrate metabolic process
p79
I2343
tp80
a(Vcell motility
p81
I2283
tp82
a(Vgrowth
p83
I2192
tp84
a(Vembryo development
p85
I2128
tp86
a(Vnucleobase-containing compound catabolic process
p87
I2046
tp88
a(Vprotein maturation
p89
I1997
tp90
a(Vcytoskeletal protein binding
p91
I1953
tp92
a(Vprotein complex assembly
p93
I1942
tp94
a(Vcell-cell signaling
p95
I1840
tp96
a(Vcytoskeleton organization
p97
I1835
tp98
a(Vkinase activity
p99
I1793
tp100
a(Vcytoplasmic membrane-bounded vesicle
p101
I1760
tp102
a(Vlipid binding
p103
I1644
tp104
a(VRNA binding
p105
I1618
tp106
a(Vcellular amino acid metabolic process
p107
I1584
tp108
a(Vmitochondrion
p109
I1582
tp110
a(VGolgi apparatus
p111
I1496
tp112
a(Vcytoskeleton
p113
I1464
tp114
a(Vpeptidase activity
p115
I1433
tp116
a(Vcell adhesion
p117
I1411
tp118
a(Vendoplasmic reticulum
p119
I1381
tp120
a(Vmembrane organization
p121
I1278
tp122
a(Vendosome
p123
I1266
tp124
a(Vcell proliferation
p125
I1260
tp126
a(Vcell death
p127
I1242
tp128
a(Venzyme regulator activity
p129
I1227
tp130
a(Vmicrotubule organizing center
p131
I1166
tp132
a(Vtranscription factor binding
p133
I1161
tp134
a(Vcell morphogenesis
p135
I1154
tp136
a(Vnucleoplasm
p137
I1120
tp138
a(Vligase activity
p139
I1119
tp140
a(Vprotein binding transcription factor activity
p141
I1098
tp142
a(VATPase activity
p143
I1074
tp144
a(Vextracellular region
p145
I1019
tp146
a(Vnucleic acid binding transcription factor activity
p147
I1006
tp148
a(Vsulfur compound metabolic process
p149
I992
tp150
a(Vstructural molecule activity
p151
I866
tp152
a(Vextracellular space
p153
I805
tp154
a(Vcirculatory system process
p155
I796
tp156
a(Vprotein targeting
p157
I793
tp158
a(Vcilium
p159
I774
tp160
a(Vvacuole
p161
I762
tp162
a(Vtransferase activity, transferring acyl groups
p163
I750
tp164
a(Vcofactor metabolic process
p165
I749
tp166
a(Vextracellular matrix organization
p167
I723
tp168
a(Vphosphatase activity
p169
I695
tp170
a(VmRNA processing
p171
I672
tp172
a(Vtransferase activity, transferring glycosyl groups
p173
I648
tp174
a(Vcell cycle
p175
I641
tp176
a(Vgeneration of precursor metabolites and energy
p177
I637
tp178
a(Vsymbiosis, encompassing mutualism through parasitism
p179
I627
tp180
a(Vcell junction organization
p181
I513
tp182
a(Vlyase activity
p183
I509
tp184
a(Vnucleocytoplasmic transport
p185
I507
tp186
a(Vaging
p187
I502
tp188
a(Vnuclease activity
p189
I499
tp190
a(Vreproduction
p191
I498
tp192
a(Vhelicase activity
p193
I473
tp194
a(Vcell division
p195
I472
tp196
a(Vmethyltransferase activity
p197
I466
tp198
a(Vplastid
p199
I463
tp200
a(Vlysosome
p201
I436
tp202
a(Vdevelopmental maturation
p203
I408
tp204
a(Vmitochondrion organization
p205
I379
tp206
a(Vchromosome
p207
I377
tp208
a(Vcytoskeleton-dependent intracellular transport
p209
I372
tp210
a(VGTPase activity
p211
I371
tp212
a(Vprotein folding
p213
I367
tp214
a(Vproteinaceous extracellular matrix
p215
I366
tp216
a(Vribonucleoprotein complex assembly
p217
I354
tp218
a(Vhistone binding
p219
I310
tp220
a(Visomerase activity
p221
I307
tp222
a(Vexternal encapsulating structure
p223
I306
tp224
a(Vsecondary metabolic process
p225
I301
tp226
a(Vcell wall
p227
I299
tp228
a(Vnuclear envelope
p229
I292
tp230
a(Vplasma membrane organization
p231
I288
tp232
a(Vhydrolase activity, acting on glycosyl bonds
p233
I275
tp234
a(VmRNA binding
p235
I268
tp236
a(Vmitosis
p237
I265
tp238
a(Vhydrolase activity, acting on carbon-nitrogen (but not peptide) bonds
p239
I265
tp240
a(Vnucleotidyltransferase activity
p241
I244
tp242
a(Vvacuolar transport
p243
I237
tp244
a(Vperoxisome
p245
I227
tp246
a(Vchromosome segregation
p247
I215
tp248
a(VtRNA metabolic process
p249
I210
tp250
a(Vcell wall organization or biogenesis
p251
I207
tp252
a(Vstructural constituent of ribosome
p253
I201
tp254
a(Vsmall conjugating protein binding
p255
I197
tp256
a(Vprotein binding, bridging
p257
I191
tp258
a(Vtranslation factor activity, nucleic acid binding
p259
I163
tp260
a(Vlipid particle
p261
I163
tp262
a(Vunfolded protein binding
p263
I160
tp264
a(Vtranslation
p265
I153
tp266
a(Vprotein transporter activity
p267
I151
tp268
a(Vribosome
p269
I141
tp270
a(Vtransferase activity, transferring alkyl or aryl (other than methyl) groups
p271
I120
tp272
a(Vintracellular
p273
I112
tp274
a(Vnuclear chromosome
p275
I111
tp276
a(Vpigmentation
p277
I97
tp278
a(Vribosome biogenesis
p279
I96
tp280
a(VrRNA binding
p281
I78
tp282
a(Vthylakoid
p283
I58
tp284
a(Vnitrogen cycle metabolic process
p285
I39
tp286
a(Vphotosynthesis
p287
I17
tp288
a(Vcell
p289
I14
tp290
a(Vtransposition
p291
I5
tp292
a(VRNA modification guide activity
p293
I2
tp294
aa(lp295
(g3
L6372L
tp296
a(g5
L4365L
tp297
a(g7
L2787L
tp298
a(g9
L21685L
tp299
a(g11
L26888L
tp300
a(g13
L5491L
tp301
a(g15
L5801L
tp302
a(g17
L18268L
tp303
a(g19
L5613L
tp304
a(g21
L21693L
tp305
a(g23
L21630L
tp306
a(g25
L22689L
tp307
a(g27
L7192L
tp308
a(g29
L5168L
tp309
a(g31
L7190L
tp310
a(g33
L13924L
tp311
a(g35
L1781L
tp312
a(g37
L13633L
tp313
a(g39
L4599L
tp314
a(g41
L5326L
tp315
a(g43
L12968L
tp316
a(g45
L13690L
tp317
a(g47
L4644L
tp318
a(g49
L26682L
tp319
a(g51
L20507L
tp320
a(g53
L10381L
tp321
a(g55
L4422L
tp322
a(g57
L4507L
tp323
a(g59
L4995L
tp324
a(g61
L3827L
tp325
a(g63
L2790L
tp326
a(g65
L21086L
tp327
a(g67
L28228L
tp328
a(g69
L4514L
tp329
a(g71
L29927L
tp330
a(g73
L27837L
tp331
a(g75
L10598L
tp332
a(g77
L31581L
tp333
a(g79
L4725L
tp334
a(g81
L26901L
tp335
a(g83
L20503L
tp336
a(g85
L7881L
tp337
a(g87
L18282L
tp338
a(g89
L28535L
tp339
a(g91
L6320L
tp340
a(g93
L5165L
tp341
a(g95
L5896L
tp342
a(g97
L5663L
tp343
a(g99
L10466L
tp344
a(g101
L10229L
tp345
a(g103
L6500L
tp346
a(g105
L2830L
tp347
a(g107
L5218L
tp348
a(g109
L4515L
tp349
a(g111
L4567L
tp350
a(g113
L4621L
tp351
a(g115
L6448L
tp352
a(g117
L5791L
tp353
a(g119
L4556L
tp354
a(g121
L30984L
tp355
a(g123
L4542L
tp356
a(g125
L6494L
tp357
a(g127
L6436L
tp358
a(g129
L14001L
tp359
a(g131
L4586L
tp360
a(g133
L6357L
tp361
a(g135
L594L
tp362
a(g137
L4439L
tp363
a(g139
L10950L
tp364
a(g141
L677L
tp365
a(g143
L10963L
tp366
a(g145
L4366L
tp367
a(g147
L759L
tp368
a(g149
L5471L
tp369
a(g151
L4118L
tp370
a(g153
L4405L
tp371
a(g155
L2364L
tp372
a(g157
L5302L
tp373
a(g159
L4684L
tp374
a(g161
L4546L
tp375
a(g163
L10829L
tp376
a(g165
L28144L
tp377
a(g167
L13967L
tp378
a(g169
L10870L
tp379
a(g171
L5112L
tp380
a(g173
L10840L
tp381
a(g175
L5695L
tp382
a(g177
L4838L
tp383
a(g179
L22810L
tp384
a(g181
L17965L
tp385
a(g183
L10905L
tp386
a(g185
L5582L
tp387
a(g187
L6169L
tp388
a(g189
L3518L
tp389
a(g191
L3L
tp390
a(g193
L3404L
tp391
a(g195
L28251L
tp392
a(g197
L6389L
tp393
a(g199
L7644L
tp394
a(g201
L4538L
tp395
a(g203
L13274L
tp396
a(g205
L5658L
tp397
a(g207
L4475L
tp398
a(g209
L14427L
tp399
a(g211
L2991L
tp400
a(g213
L5161L
tp401
a(g215
L4368L
tp402
a(g217
L13644L
tp403
a(g219
L20900L
tp404
a(g221
L10929L
tp405
a(g223
L14078L
tp406
a(g225
L12827L
tp407
a(g227
L4408L
tp408
a(g229
L4423L
tp409
a(g231
L5662L
tp410
a(g233
L10876L
tp411
a(g235
L2835L
tp412
a(g237
L5712L
tp413
a(g239
L10886L
tp414
a(g241
L10860L
tp415
a(g243
L5682L
tp416
a(g245
L4550L
tp417
a(g247
L5705L
tp418
a(g249
L5114L
tp419
a(g251
L33137L
tp420
a(g253
L2841L
tp421
a(g255
L15840L
tp422
a(g257
L14396L
tp423
a(g259
L6358L
tp424
a(g261
L4583L
tp425
a(g263
L28040L
tp426
a(g265
L5126L
tp427
a(g267
L6747L
tp428
a(g269
L4609L
tp429
a(g271
L10848L
tp430
a(g273
L4411L
tp431
a(g275
L201L
tp432
a(g277
L21900L
tp433
a(g279
L20770L
tp434
a(g281
L12918L
tp435
a(g283
L7683L
tp436
a(g285
L33512L
tp437
a(g287
L10192L
tp438
a(g289
L4412L
tp439
a(g291
L15852L
tp440
a(g293
L14288L
tp441
aaI752063
a.