(lp1
(lp2
(Vbiological_process
p3
I376004
tp4
a(Vcellular_component
p5
I128597
tp6
a(Vmolecular_function
p7
I103998
tp8
a(Vorganelle
p9
I35536
tp10
a(Vanatomical structure development
p11
I26285
tp12
a(Vtransport
p13
I22332
tp14
a(Vcellular nitrogen compound metabolic process
p15
I18922
tp16
a(Vsignal transduction
p17
I16264
tp18
a(Vresponse to stress
p19
I15228
tp20
a(Vprotein complex
p21
I14430
tp22
a(Vbiosynthetic process
p23
I13493
tp24
a(Vsmall molecule metabolic process
p25
I13229
tp26
a(Vion binding
p27
I12626
tp28
a(Vcellular protein modification process
p29
I10588
tp30
a(Vcatabolic process
p31
I9659
tp32
a(Vimmune system process
p33
I7129
tp34
a(Vcellular component assembly
p35
I6297
tp36
a(Vcell differentiation
p37
I6224
tp38
a(Vcytosol
p39
I6090
tp40
a(Vlipid metabolic process
p41
I6066
tp42
a(Venzyme binding
p43
I5468
tp44
a(Vtransmembrane transporter activity
p45
I4802
tp46
a(Vplasma membrane
p47
I4773
tp48
a(VDNA metabolic process
p49
I4722
tp50
a(Vnucleus
p51
I4475
tp52
a(Vnucleolus
p53
I4323
tp54
a(Vvesicle-mediated transport
p55
I4277
tp56
a(Vcarbohydrate metabolic process
p57
I4242
tp58
a(Vlocomotion
p59
I4105
tp60
a(Vchromosome organization
p61
I3894
tp62
a(Vanatomical structure formation involved in morphogenesis
p63
I3831
tp64
a(Voxidoreductase activity
p65
I3694
tp66
a(Vmacromolecular complex assembly
p67
I3559
tp68
a(Vcytoplasm
p69
I3546
tp70
a(Vhomeostatic process
p71
I3462
tp72
a(Vtransmembrane transport
p73
I3418
tp74
a(Vkinase activity
p75
I3395
tp76
a(VDNA binding
p77
I3368
tp78
a(Vnucleobase-containing compound catabolic process
p79
I3354
tp80
a(Vgrowth
p81
I3166
tp82
a(Vcytoskeletal protein binding
p83
I3069
tp84
a(Vembryo development
p85
I3007
tp86
a(Vprotein complex assembly
p87
I2883
tp88
a(Vprotein maturation
p89
I2849
tp90
a(Vcell motility
p91
I2847
tp92
a(Vcytoskeleton organization
p93
I2820
tp94
a(VRNA binding
p95
I2611
tp96
a(Vneurological system process
p97
I2608
tp98
a(Vmitochondrion
p99
I2467
tp100
a(Vcellular amino acid metabolic process
p101
I2400
tp102
a(VGolgi apparatus
p103
I2318
tp104
a(Vcytoskeleton
p105
I2222
tp106
a(VATPase activity
p107
I2200
tp108
a(Vcytoplasmic membrane-bounded vesicle
p109
I2093
tp110
a(Vsignal transducer activity
p111
I2026
tp112
a(Vlipid binding
p113
I1964
tp114
a(Vendoplasmic reticulum
p115
I1944
tp116
a(Vpeptidase activity
p117
I1857
tp118
a(Vmicrotubule organizing center
p119
I1853
tp120
a(Vmembrane organization
p121
I1846
tp122
a(Vligase activity
p123
I1789
tp124
a(Vendosome
p125
I1772
tp126
a(Vcell-cell signaling
p127
I1754
tp128
a(Vcell death
p129
I1734
tp130
a(Vcell adhesion
p131
I1653
tp132
a(Venzyme regulator activity
p133
I1642
tp134
a(Vnucleoplasm
p135
I1627
tp136
a(Vcell morphogenesis
p137
I1597
tp138
a(Vcell proliferation
p139
I1530
tp140
a(Vtranscription factor binding
p141
I1456
tp142
a(Vprotein targeting
p143
I1429
tp144
a(Vsulfur compound metabolic process
p145
I1425
tp146
a(Vcofactor metabolic process
p147
I1340
tp148
a(Vprotein binding transcription factor activity
p149
I1307
tp150
a(Vextracellular region
p151
I1276
tp152
a(Vstructural molecule activity
p153
I1248
tp154
a(Vcilium
p155
I1177
tp156
a(Vtransferase activity, transferring acyl groups
p157
I1144
tp158
a(Vvacuole
p159
I1132
tp160
a(Vnucleic acid binding transcription factor activity
p161
I1120
tp162
a(Vcell cycle
p163
I1102
tp164
a(Vgeneration of precursor metabolites and energy
p165
I1094
tp166
a(VmRNA processing
p167
I1079
tp168
a(Vplastid
p169
I1075
tp170
a(Vphosphatase activity
p171
I976
tp172
a(Vhelicase activity
p173
I945
tp174
a(Vsymbiosis, encompassing mutualism through parasitism
p175
I920
tp176
a(Vreproduction
p177
I858
tp178
a(Vtransferase activity, transferring glycosyl groups
p179
I847
tp180
a(Vlyase activity
p181
I814
tp182
a(Vextracellular space
p183
I802
tp184
a(Vnucleocytoplasmic transport
p185
I783
tp186
a(Vcell division
p187
I754
tp188
a(Vextracellular matrix organization
p189
I732
tp190
a(Vmethyltransferase activity
p191
I710
tp192
a(Vnuclease activity
p193
I693
tp194
a(Vaging
p195
I682
tp196
a(Vprotein folding
p197
I671
tp198
a(Vcytoskeleton-dependent intracellular transport
p199
I631
tp200
a(Vcell junction organization
p201
I622
tp202
a(Vdevelopmental maturation
p203
I612
tp204
a(Vexternal encapsulating structure
p205
I606
tp206
a(Vchromosome
p207
I598
tp208
a(Vcell wall
p209
I597
tp210
a(Vsecondary metabolic process
p211
I569
tp212
a(Vcirculatory system process
p213
I557
tp214
a(Visomerase activity
p215
I547
tp216
a(Vribonucleoprotein complex assembly
p217
I539
tp218
a(Vmitochondrion organization
p219
I522
tp220
a(Vlysosome
p221
I522
tp222
a(Vhydrolase activity, acting on glycosyl bonds
p223
I491
tp224
a(VGTPase activity
p225
I484
tp226
a(Vnuclear envelope
p227
I475
tp228
a(Vcell wall organization or biogenesis
p229
I462
tp230
a(VmRNA binding
p231
I448
tp232
a(Vnucleotidyltransferase activity
p233
I420
tp234
a(Vplasma membrane organization
p235
I405
tp236
a(Vhistone binding
p237
I396
tp238
a(Vmitosis
p239
I381
tp240
a(Vchromosome segregation
p241
I379
tp242
a(Vperoxisome
p243
I378
tp244
a(Vvacuolar transport
p245
I367
tp246
a(Vhydrolase activity, acting on carbon-nitrogen (but not peptide) bonds
p247
I363
tp248
a(Vprotein binding, bridging
p249
I357
tp250
a(VtRNA metabolic process
p251
I331
tp252
a(Vsmall conjugating protein binding
p253
I311
tp254
a(Vproteinaceous extracellular matrix
p255
I288
tp256
a(Vstructural constituent of ribosome
p257
I286
tp258
a(Vtranslation factor activity, nucleic acid binding
p259
I270
tp260
a(Vunfolded protein binding
p261
I257
tp262
a(Vtranslation
p263
I255
tp264
a(Vlipid particle
p265
I219
tp266
a(Vribosome
p267
I211
tp268
a(Vprotein transporter activity
p269
I196
tp270
a(Vtransferase activity, transferring alkyl or aryl (other than methyl) groups
p271
I178
tp272
a(Vintracellular
p273
I172
tp274
a(Vribosome biogenesis
p275
I162
tp276
a(Vnuclear chromosome
p277
I160
tp278
a(Vthylakoid
p279
I155
tp280
a(Vpigmentation
p281
I146
tp282
a(VrRNA binding
p283
I96
tp284
a(Vnitrogen cycle metabolic process
p285
I59
tp286
a(Vphotosynthesis
p287
I50
tp288
a(Vtransposition
p289
I40
tp290
a(Vcell
p291
I10
tp292
a(Vcytoplasmic chromosome
p293
I6
tp294
a(VRNA modification guide activity
p295
I3
tp296
aa(lp297
(g3
L6372L
tp298
a(g5
L4365L
tp299
a(g7
L2787L
tp300
a(g9
L21685L
tp301
a(g11
L26888L
tp302
a(g13
L5491L
tp303
a(g15
L18268L
tp304
a(g17
L5801L
tp305
a(g19
L5613L
tp306
a(g21
L21693L
tp307
a(g23
L7192L
tp308
a(g25
L22689L
tp309
a(g27
L21630L
tp310
a(g29
L5168L
tp311
a(g31
L7190L
tp312
a(g33
L1781L
tp313
a(g35
L13633L
tp314
a(g37
L13924L
tp315
a(g39
L4599L
tp316
a(g41
L5326L
tp317
a(g43
L12968L
tp318
a(g45
L13690L
tp319
a(g47
L4644L
tp320
a(g49
L4995L
tp321
a(g51
L4422L
tp322
a(g53
L4507L
tp323
a(g55
L10381L
tp324
a(g57
L4725L
tp325
a(g59
L20507L
tp326
a(g61
L28228L
tp327
a(g63
L26682L
tp328
a(g65
L10598L
tp329
a(g67
L31581L
tp330
a(g69
L4514L
tp331
a(g71
L21086L
tp332
a(g73
L29927L
tp333
a(g75
L10466L
tp334
a(g77
L2790L
tp335
a(g79
L18282L
tp336
a(g81
L20503L
tp337
a(g83
L6320L
tp338
a(g85
L7881L
tp339
a(g87
L5165L
tp340
a(g89
L28535L
tp341
a(g91
L26901L
tp342
a(g93
L5663L
tp343
a(g95
L2830L
tp344
a(g97
L27837L
tp345
a(g99
L4515L
tp346
a(g101
L5218L
tp347
a(g103
L4567L
tp348
a(g105
L4621L
tp349
a(g107
L10963L
tp350
a(g109
L10229L
tp351
a(g111
L3827L
tp352
a(g113
L6500L
tp353
a(g115
L4556L
tp354
a(g117
L6448L
tp355
a(g119
L4586L
tp356
a(g121
L30984L
tp357
a(g123
L10950L
tp358
a(g125
L4542L
tp359
a(g127
L5896L
tp360
a(g129
L6436L
tp361
a(g131
L5791L
tp362
a(g133
L14001L
tp363
a(g135
L4439L
tp364
a(g137
L594L
tp365
a(g139
L6494L
tp366
a(g141
L6357L
tp367
a(g143
L5302L
tp368
a(g145
L5471L
tp369
a(g147
L28144L
tp370
a(g149
L677L
tp371
a(g151
L4366L
tp372
a(g153
L4118L
tp373
a(g155
L4684L
tp374
a(g157
L10829L
tp375
a(g159
L4546L
tp376
a(g161
L759L
tp377
a(g163
L5695L
tp378
a(g165
L4838L
tp379
a(g167
L5112L
tp380
a(g169
L7644L
tp381
a(g171
L10870L
tp382
a(g173
L3404L
tp383
a(g175
L22810L
tp384
a(g177
L3L
tp385
a(g179
L10840L
tp386
a(g181
L10905L
tp387
a(g183
L4405L
tp388
a(g185
L5582L
tp389
a(g187
L28251L
tp390
a(g189
L13967L
tp391
a(g191
L6389L
tp392
a(g193
L3518L
tp393
a(g195
L6169L
tp394
a(g197
L5161L
tp395
a(g199
L14427L
tp396
a(g201
L17965L
tp397
a(g203
L13274L
tp398
a(g205
L14078L
tp399
a(g207
L4475L
tp400
a(g209
L4408L
tp401
a(g211
L12827L
tp402
a(g213
L2364L
tp403
a(g215
L10929L
tp404
a(g217
L13644L
tp405
a(g219
L5658L
tp406
a(g221
L4538L
tp407
a(g223
L10876L
tp408
a(g225
L2991L
tp409
a(g227
L4423L
tp410
a(g229
L33137L
tp411
a(g231
L2835L
tp412
a(g233
L10860L
tp413
a(g235
L5662L
tp414
a(g237
L20900L
tp415
a(g239
L5712L
tp416
a(g241
L5705L
tp417
a(g243
L4550L
tp418
a(g245
L5682L
tp419
a(g247
L10886L
tp420
a(g249
L14396L
tp421
a(g251
L5114L
tp422
a(g253
L15840L
tp423
a(g255
L4368L
tp424
a(g257
L2841L
tp425
a(g259
L6358L
tp426
a(g261
L28040L
tp427
a(g263
L5126L
tp428
a(g265
L4583L
tp429
a(g267
L4609L
tp430
a(g269
L6747L
tp431
a(g271
L10848L
tp432
a(g273
L4411L
tp433
a(g275
L20770L
tp434
a(g277
L201L
tp435
a(g279
L7683L
tp436
a(g281
L21900L
tp437
a(g283
L12918L
tp438
a(g285
L33512L
tp439
a(g287
L10192L
tp440
a(g289
L15852L
tp441
a(g291
L4412L
tp442
a(g293
L202L
tp443
a(g295
L14288L
tp444
aaI1038033
a.