(lp1
(lp2
(Vbiological_process
p3
I153780
tp4
a(Vcellular_component
p5
I52237
tp6
a(Vmolecular_function
p7
I42231
tp8
a(Vorganelle
p9
I14497
tp10
a(Vanatomical structure development
p11
I11637
tp12
a(Vtransport
p13
I8536
tp14
a(Vcellular nitrogen compound metabolic process
p15
I7694
tp16
a(Vsignal transduction
p17
I6556
tp18
a(Vprotein complex
p19
I6193
tp20
a(Vresponse to stress
p21
I5994
tp22
a(Vsmall molecule metabolic process
p23
I5230
tp24
a(Vion binding
p25
I5064
tp26
a(Vbiosynthetic process
p27
I4884
tp28
a(Vcellular protein modification process
p29
I4214
tp30
a(Vcatabolic process
p31
I3852
tp32
a(Vimmune system process
p33
I2961
tp34
a(Vcell differentiation
p35
I2787
tp36
a(Vcellular component assembly
p37
I2567
tp38
a(Vcytosol
p39
I2543
tp40
a(Vlipid metabolic process
p41
I2246
tp42
a(Venzyme binding
p43
I2219
tp44
a(Vnucleolus
p45
I1985
tp46
a(VDNA metabolic process
p47
I1874
tp48
a(Vnucleus
p49
I1807
tp50
a(Vplasma membrane
p51
I1783
tp52
a(Vlocomotion
p53
I1781
tp54
a(Vtransmembrane transporter activity
p55
I1769
tp56
a(Vchromosome organization
p57
I1713
tp58
a(Vvesicle-mediated transport
p59
I1711
tp60
a(Vanatomical structure formation involved in morphogenesis
p61
I1673
tp62
a(VDNA binding
p63
I1574
tp64
a(Vcarbohydrate metabolic process
p65
I1475
tp66
a(Vmacromolecular complex assembly
p67
I1442
tp68
a(Vhomeostatic process
p69
I1421
tp70
a(Voxidoreductase activity
p71
I1397
tp72
a(Vcytoplasm
p73
I1390
tp74
a(Vnucleobase-containing compound catabolic process
p75
I1357
tp76
a(Vembryo development
p77
I1328
tp78
a(Vtransmembrane transport
p79
I1289
tp80
a(Vprotein maturation
p81
I1255
tp82
a(Vgrowth
p83
I1242
tp84
a(Vcell motility
p85
I1218
tp86
a(Vcytoskeletal protein binding
p87
I1164
tp88
a(Vneurological system process
p89
I1163
tp90
a(Vprotein complex assembly
p91
I1153
tp92
a(VRNA binding
p93
I1143
tp94
a(Vkinase activity
p95
I1141
tp96
a(Vcytoskeleton organization
p97
I1127
tp98
a(Vcellular amino acid metabolic process
p99
I1049
tp100
a(Vcytoplasmic membrane-bounded vesicle
p101
I976
tp102
a(Vmitochondrion
p103
I967
tp104
a(VGolgi apparatus
p105
I953
tp106
a(Vsignal transducer activity
p107
I935
tp108
a(Vcytoskeleton
p109
I889
tp110
a(Vlipid binding
p111
I832
tp112
a(Vpeptidase activity
p113
I818
tp114
a(Vcell death
p115
I808
tp116
a(Vendoplasmic reticulum
p117
I789
tp118
a(Vendosome
p119
I752
tp120
a(Vmicrotubule organizing center
p121
I746
tp122
a(Vnucleoplasm
p123
I743
tp124
a(Venzyme regulator activity
p125
I729
tp126
a(Vligase activity
p127
I725
tp128
a(Vmembrane organization
p129
I721
tp130
a(Vcell-cell signaling
p131
I718
tp132
a(Vcell adhesion
p133
I715
tp134
a(VATPase activity
p135
I710
tp136
a(Vcell proliferation
p137
I704
tp138
a(Vtranscription factor binding
p139
I694
tp140
a(Vcell morphogenesis
p141
I642
tp142
a(Vprotein binding transcription factor activity
p143
I631
tp144
a(Vnucleic acid binding transcription factor activity
p145
I588
tp146
a(Vsulfur compound metabolic process
p147
I582
tp148
a(Vstructural molecule activity
p149
I554
tp150
a(Vprotein targeting
p151
I533
tp152
a(Vextracellular region
p153
I512
tp154
a(Vvacuole
p155
I495
tp156
a(Vcofactor metabolic process
p157
I471
tp158
a(VmRNA processing
p159
I462
tp160
a(Vtransferase activity, transferring acyl groups
p161
I435
tp162
a(Vgeneration of precursor metabolites and energy
p163
I428
tp164
a(Vcilium
p165
I426
tp166
a(Vcell cycle
p167
I414
tp168
a(Vsymbiosis, encompassing mutualism through parasitism
p169
I406
tp170
a(Vphosphatase activity
p171
I386
tp172
a(Vextracellular space
p173
I372
tp174
a(Vtransferase activity, transferring glycosyl groups
p175
I343
tp176
a(Vreproduction
p177
I338
tp178
a(Vnucleocytoplasmic transport
p179
I337
tp180
a(Vhelicase activity
p181
I328
tp182
a(Vnuclease activity
p183
I327
tp184
a(Vextracellular matrix organization
p185
I322
tp186
a(Vplastid
p187
I306
tp188
a(Vcell division
p189
I298
tp190
a(Vcell junction organization
p191
I294
tp192
a(Vaging
p193
I291
tp194
a(Vmethyltransferase activity
p195
I285
tp196
a(Vlyase activity
p197
I278
tp198
a(Vchromosome
p199
I266
tp200
a(Vprotein folding
p201
I256
tp202
a(Vlysosome
p203
I253
tp204
a(Vdevelopmental maturation
p205
I244
tp206
a(Vcirculatory system process
p207
I240
tp208
a(Vmitochondrion organization
p209
I236
tp210
a(Vribonucleoprotein complex assembly
p211
I229
tp212
a(Vexternal encapsulating structure
p213
I221
tp214
a(VGTPase activity
p215
I220
tp216
a(Vcytoskeleton-dependent intracellular transport
p217
I218
tp218
a(Vcell wall
p219
I217
tp220
a(Vsecondary metabolic process
p221
I201
tp222
a(Vhistone binding
p223
I200
tp224
a(VmRNA binding
p225
I183
tp226
a(Visomerase activity
p227
I172
tp228
a(Vmitosis
p229
I171
tp230
a(Vplasma membrane organization
p231
I168
tp232
a(Vnuclear envelope
p233
I167
tp234
a(Vhydrolase activity, acting on carbon-nitrogen (but not peptide) bonds
p235
I158
tp236
a(Vhydrolase activity, acting on glycosyl bonds
p237
I156
tp238
a(VtRNA metabolic process
p239
I155
tp240
a(Vvacuolar transport
p241
I151
tp242
a(Vstructural constituent of ribosome
p243
I147
tp244
a(Vsmall conjugating protein binding
p245
I145
tp246
a(Vnucleotidyltransferase activity
p247
I142
tp248
a(Vcell wall organization or biogenesis
p249
I138
tp250
a(Vchromosome segregation
p251
I135
tp252
a(Vproteinaceous extracellular matrix
p253
I129
tp254
a(Vperoxisome
p255
I126
tp256
a(Vprotein binding, bridging
p257
I125
tp258
a(Vunfolded protein binding
p259
I114
tp260
a(Vtranslation factor activity, nucleic acid binding
p261
I110
tp262
a(Vtranslation
p263
I97
tp264
a(Vlipid particle
p265
I92
tp266
a(Vribosome
p267
I87
tp268
a(Vprotein transporter activity
p269
I83
tp270
a(Vnuclear chromosome
p271
I78
tp272
a(Vtransferase activity, transferring alkyl or aryl (other than methyl) groups
p273
I73
tp274
a(Vribosome biogenesis
p275
I70
tp276
a(Vintracellular
p277
I65
tp278
a(Vpigmentation
p279
I59
tp280
a(VrRNA binding
p281
I48
tp282
a(Vthylakoid
p283
I42
tp284
a(Vnitrogen cycle metabolic process
p285
I22
tp286
a(Vphotosynthesis
p287
I14
tp288
a(Vcell
p289
I7
tp290
a(Vtransposition
p291
I2
tp292
a(VRNA modification guide activity
p293
I1
tp294
aa(lp295
(g3
L6372L
tp296
a(g5
L4365L
tp297
a(g7
L2787L
tp298
a(g9
L21685L
tp299
a(g11
L26888L
tp300
a(g13
L5491L
tp301
a(g15
L18268L
tp302
a(g17
L5801L
tp303
a(g19
L21693L
tp304
a(g21
L5613L
tp305
a(g23
L22689L
tp306
a(g25
L21630L
tp307
a(g27
L7192L
tp308
a(g29
L5168L
tp309
a(g31
L7190L
tp310
a(g33
L1781L
tp311
a(g35
L13924L
tp312
a(g37
L13633L
tp313
a(g39
L4599L
tp314
a(g41
L5326L
tp315
a(g43
L12968L
tp316
a(g45
L4507L
tp317
a(g47
L4995L
tp318
a(g49
L4422L
tp319
a(g51
L4644L
tp320
a(g53
L20507L
tp321
a(g55
L13690L
tp322
a(g57
L28228L
tp323
a(g59
L10381L
tp324
a(g61
L26682L
tp325
a(g63
L2790L
tp326
a(g65
L4725L
tp327
a(g67
L31581L
tp328
a(g69
L21086L
tp329
a(g71
L10598L
tp330
a(g73
L4514L
tp331
a(g75
L18282L
tp332
a(g77
L7881L
tp333
a(g79
L29927L
tp334
a(g81
L28535L
tp335
a(g83
L20503L
tp336
a(g85
L26901L
tp337
a(g87
L6320L
tp338
a(g89
L27837L
tp339
a(g91
L5165L
tp340
a(g93
L2830L
tp341
a(g95
L10466L
tp342
a(g97
L5663L
tp343
a(g99
L5218L
tp344
a(g101
L10229L
tp345
a(g103
L4515L
tp346
a(g105
L4567L
tp347
a(g107
L3827L
tp348
a(g109
L4621L
tp349
a(g111
L6500L
tp350
a(g113
L6448L
tp351
a(g115
L6436L
tp352
a(g117
L4556L
tp353
a(g119
L4542L
tp354
a(g121
L4586L
tp355
a(g123
L4439L
tp356
a(g125
L14001L
tp357
a(g127
L10950L
tp358
a(g129
L30984L
tp359
a(g131
L5896L
tp360
a(g133
L5791L
tp361
a(g135
L10963L
tp362
a(g137
L6494L
tp363
a(g139
L6357L
tp364
a(g141
L594L
tp365
a(g143
L677L
tp366
a(g145
L759L
tp367
a(g147
L5471L
tp368
a(g149
L4118L
tp369
a(g151
L5302L
tp370
a(g153
L4366L
tp371
a(g155
L4546L
tp372
a(g157
L28144L
tp373
a(g159
L5112L
tp374
a(g161
L10829L
tp375
a(g163
L4838L
tp376
a(g165
L4684L
tp377
a(g167
L5695L
tp378
a(g169
L22810L
tp379
a(g171
L10870L
tp380
a(g173
L4405L
tp381
a(g175
L10840L
tp382
a(g177
L3L
tp383
a(g179
L5582L
tp384
a(g181
L3404L
tp385
a(g183
L3518L
tp386
a(g185
L13967L
tp387
a(g187
L7644L
tp388
a(g189
L28251L
tp389
a(g191
L17965L
tp390
a(g193
L6169L
tp391
a(g195
L6389L
tp392
a(g197
L10905L
tp393
a(g199
L4475L
tp394
a(g201
L5161L
tp395
a(g203
L4538L
tp396
a(g205
L13274L
tp397
a(g207
L2364L
tp398
a(g209
L5658L
tp399
a(g211
L13644L
tp400
a(g213
L14078L
tp401
a(g215
L2991L
tp402
a(g217
L14427L
tp403
a(g219
L4408L
tp404
a(g221
L12827L
tp405
a(g223
L20900L
tp406
a(g225
L2835L
tp407
a(g227
L10929L
tp408
a(g229
L5712L
tp409
a(g231
L5662L
tp410
a(g233
L4423L
tp411
a(g235
L10886L
tp412
a(g237
L10876L
tp413
a(g239
L5114L
tp414
a(g241
L5682L
tp415
a(g243
L2841L
tp416
a(g245
L15840L
tp417
a(g247
L10860L
tp418
a(g249
L33137L
tp419
a(g251
L5705L
tp420
a(g253
L4368L
tp421
a(g255
L4550L
tp422
a(g257
L14396L
tp423
a(g259
L28040L
tp424
a(g261
L6358L
tp425
a(g263
L5126L
tp426
a(g265
L4583L
tp427
a(g267
L4609L
tp428
a(g269
L6747L
tp429
a(g271
L201L
tp430
a(g273
L10848L
tp431
a(g275
L20770L
tp432
a(g277
L4411L
tp433
a(g279
L21900L
tp434
a(g281
L12918L
tp435
a(g283
L7683L
tp436
a(g285
L33512L
tp437
a(g287
L10192L
tp438
a(g289
L4412L
tp439
a(g291
L15852L
tp440
a(g293
L14288L
tp441
aaI422987
a.