(lp1
(lp2
(Vbiological_process
p3
I260609
tp4
a(Vcellular_component
p5
I84205
tp6
a(Vmolecular_function
p7
I70248
tp8
a(Vorganelle
p9
I22812
tp10
a(Vanatomical structure development
p11
I20272
tp12
a(Vtransport
p13
I13623
tp14
a(Vsignal transduction
p15
I12235
tp16
a(Vcellular nitrogen compound metabolic process
p17
I11735
tp18
a(Vresponse to stress
p19
I10010
tp20
a(Vprotein complex
p21
I9726
tp22
a(Vion binding
p23
I8799
tp24
a(Vsmall molecule metabolic process
p25
I8633
tp26
a(Vbiosynthetic process
p27
I7809
tp28
a(Vcellular protein modification process
p29
I6761
tp30
a(Vcatabolic process
p31
I6140
tp32
a(Vimmune system process
p33
I5690
tp34
a(Vcell differentiation
p35
I4917
tp36
a(Vcellular component assembly
p37
I4261
tp38
a(Vcytosol
p39
I4058
tp40
a(Vlipid metabolic process
p41
I4034
tp42
a(Venzyme binding
p43
I3717
tp44
a(Vlocomotion
p45
I3131
tp46
a(Vnucleolus
p47
I3119
tp48
a(Vplasma membrane
p49
I2961
tp50
a(Vtransmembrane transporter activity
p51
I2954
tp52
a(Vanatomical structure formation involved in morphogenesis
p53
I2952
tp54
a(Vnucleus
p55
I2895
tp56
a(VDNA metabolic process
p57
I2753
tp58
a(Vvesicle-mediated transport
p59
I2708
tp60
a(VDNA binding
p61
I2684
tp62
a(Voxidoreductase activity
p63
I2542
tp64
a(Vhomeostatic process
p65
I2539
tp66
a(Vmacromolecular complex assembly
p67
I2520
tp68
a(Vchromosome organization
p69
I2450
tp70
a(Vcarbohydrate metabolic process
p71
I2360
tp72
a(Vcytoplasm
p73
I2353
tp74
a(Vprotein maturation
p75
I2272
tp76
a(Vcell motility
p77
I2241
tp78
a(Vtransmembrane transport
p79
I2146
tp80
a(Vembryo development
p81
I2117
tp82
a(Vnucleobase-containing compound catabolic process
p83
I2110
tp84
a(Vprotein complex assembly
p85
I2058
tp86
a(Vgrowth
p87
I2044
tp88
a(Vsignal transducer activity
p89
I2013
tp90
a(Vneurological system process
p91
I1928
tp92
a(Vkinase activity
p93
I1910
tp94
a(VRNA binding
p95
I1817
tp96
a(Vcytoskeletal protein binding
p97
I1767
tp98
a(Vcytoskeleton organization
p99
I1693
tp100
a(Vcellular amino acid metabolic process
p101
I1646
tp102
a(Vmitochondrion
p103
I1641
tp104
a(Vcytoplasmic membrane-bounded vesicle
p105
I1524
tp106
a(VGolgi apparatus
p107
I1524
tp108
a(Vcell adhesion
p109
I1391
tp110
a(Vlipid binding
p111
I1380
tp112
a(Vcytoskeleton
p113
I1379
tp114
a(Vcell proliferation
p115
I1364
tp116
a(Vendoplasmic reticulum
p117
I1342
tp118
a(Vpeptidase activity
p119
I1336
tp120
a(Vcell-cell signaling
p121
I1297
tp122
a(Vcell death
p123
I1275
tp124
a(Vligase activity
p125
I1219
tp126
a(Vendosome
p127
I1201
tp128
a(Vmembrane organization
p129
I1179
tp130
a(Venzyme regulator activity
p131
I1144
tp132
a(Vnucleoplasm
p133
I1141
tp134
a(Vtranscription factor binding
p135
I1132
tp136
a(VATPase activity
p137
I1124
tp138
a(Vmicrotubule organizing center
p139
I1083
tp140
a(Vnucleic acid binding transcription factor activity
p141
I1080
tp142
a(Vprotein binding transcription factor activity
p143
I1037
tp144
a(Vcell morphogenesis
p145
I1029
tp146
a(Vsulfur compound metabolic process
p147
I936
tp148
a(Vstructural molecule activity
p149
I920
tp150
a(Vextracellular region
p151
I887
tp152
a(Vprotein targeting
p153
I839
tp154
a(Vcofactor metabolic process
p155
I791
tp156
a(Vvacuole
p157
I766
tp158
a(Vtransferase activity, transferring acyl groups
p159
I725
tp160
a(Vsymbiosis, encompassing mutualism through parasitism
p161
I710
tp162
a(Vextracellular space
p163
I704
tp164
a(VmRNA processing
p165
I686
tp166
a(Vgeneration of precursor metabolites and energy
p167
I684
tp168
a(Vextracellular matrix organization
p169
I658
tp170
a(Vcilium
p171
I629
tp172
a(Vphosphatase activity
p173
I583
tp174
a(Vtransferase activity, transferring glycosyl groups
p175
I578
tp176
a(Vcell cycle
p177
I553
tp178
a(Vaging
p179
I530
tp180
a(Vreproduction
p181
I515
tp182
a(Vplastid
p183
I512
tp184
a(Vlyase activity
p185
I504
tp186
a(Vnucleocytoplasmic transport
p187
I504
tp188
a(Vdevelopmental maturation
p189
I501
tp190
a(Vcell division
p191
I471
tp192
a(Vhelicase activity
p193
I462
tp194
a(Vcirculatory system process
p195
I454
tp196
a(Vprotein folding
p197
I445
tp198
a(Vnuclease activity
p199
I435
tp200
a(Vlysosome
p201
I434
tp202
a(Vcell junction organization
p203
I429
tp204
a(Vmethyltransferase activity
p205
I421
tp206
a(Vmitochondrion organization
p207
I398
tp208
a(VGTPase activity
p209
I393
tp210
a(Vribonucleoprotein complex assembly
p211
I375
tp212
a(Vexternal encapsulating structure
p213
I369
tp214
a(Vcell wall
p215
I360
tp216
a(Vchromosome
p217
I355
tp218
a(Vsecondary metabolic process
p219
I330
tp220
a(Vcytoskeleton-dependent intracellular transport
p221
I322
tp222
a(Visomerase activity
p223
I300
tp224
a(VmRNA binding
p225
I298
tp226
a(Vhistone binding
p227
I289
tp228
a(Vhydrolase activity, acting on glycosyl bonds
p229
I266
tp230
a(Vnuclear envelope
p231
I257
tp232
a(Vplasma membrane organization
p233
I251
tp234
a(Vmitosis
p235
I249
tp236
a(Vhydrolase activity, acting on carbon-nitrogen (but not peptide) bonds
p237
I247
tp238
a(Vproteinaceous extracellular matrix
p239
I238
tp240
a(Vstructural constituent of ribosome
p241
I231
tp242
a(Vperoxisome
p243
I220
tp244
a(Vvacuolar transport
p245
I215
tp246
a(Vnucleotidyltransferase activity
p247
I212
tp248
a(VtRNA metabolic process
p249
I212
tp250
a(Vchromosome segregation
p251
I211
tp252
a(Vunfolded protein binding
p253
I207
tp254
a(Vcell wall organization or biogenesis
p255
I207
tp256
a(Vsmall conjugating protein binding
p257
I206
tp258
a(Vprotein binding, bridging
p259
I203
tp260
a(Vtranslation factor activity, nucleic acid binding
p261
I188
tp262
a(Vlipid particle
p263
I182
tp264
a(Vtranslation
p265
I158
tp266
a(Vribosome
p267
I135
tp268
a(Vtransferase activity, transferring alkyl or aryl (other than methyl) groups
p269
I128
tp270
a(Vprotein transporter activity
p271
I113
tp272
a(Vnuclear chromosome
p273
I109
tp274
a(Vintracellular
p275
I100
tp276
a(Vribosome biogenesis
p277
I99
tp278
a(Vpigmentation
p279
I93
tp280
a(VrRNA binding
p281
I71
tp282
a(Vthylakoid
p283
I54
tp284
a(Vnitrogen cycle metabolic process
p285
I52
tp286
a(Vphotosynthesis
p287
I22
tp288
a(Vtransposition
p289
I10
tp290
a(Vcell
p291
I9
tp292
a(VRNA modification guide activity
p293
I1
tp294
aa(lp295
(g3
L6372L
tp296
a(g5
L4365L
tp297
a(g7
L2787L
tp298
a(g9
L21685L
tp299
a(g11
L26888L
tp300
a(g13
L5491L
tp301
a(g15
L5801L
tp302
a(g17
L18268L
tp303
a(g19
L5613L
tp304
a(g21
L21693L
tp305
a(g23
L21630L
tp306
a(g25
L22689L
tp307
a(g27
L7192L
tp308
a(g29
L5168L
tp309
a(g31
L7190L
tp310
a(g33
L1781L
tp311
a(g35
L13924L
tp312
a(g37
L13633L
tp313
a(g39
L4599L
tp314
a(g41
L5326L
tp315
a(g43
L12968L
tp316
a(g45
L20507L
tp317
a(g47
L4507L
tp318
a(g49
L4644L
tp319
a(g51
L13690L
tp320
a(g53
L26682L
tp321
a(g55
L4422L
tp322
a(g57
L4995L
tp323
a(g59
L10381L
tp324
a(g61
L2790L
tp325
a(g63
L10598L
tp326
a(g65
L21086L
tp327
a(g67
L31581L
tp328
a(g69
L28228L
tp329
a(g71
L4725L
tp330
a(g73
L4514L
tp331
a(g75
L28535L
tp332
a(g77
L26901L
tp333
a(g79
L29927L
tp334
a(g81
L7881L
tp335
a(g83
L18282L
tp336
a(g85
L5165L
tp337
a(g87
L20503L
tp338
a(g89
L3827L
tp339
a(g91
L27837L
tp340
a(g93
L10466L
tp341
a(g95
L2830L
tp342
a(g97
L6320L
tp343
a(g99
L5663L
tp344
a(g101
L5218L
tp345
a(g103
L4515L
tp346
a(g105
L10229L
tp347
a(g107
L4567L
tp348
a(g109
L5791L
tp349
a(g111
L6500L
tp350
a(g113
L4621L
tp351
a(g115
L6494L
tp352
a(g117
L4556L
tp353
a(g119
L6448L
tp354
a(g121
L5896L
tp355
a(g123
L6436L
tp356
a(g125
L10950L
tp357
a(g127
L4542L
tp358
a(g129
L30984L
tp359
a(g131
L14001L
tp360
a(g133
L4439L
tp361
a(g135
L6357L
tp362
a(g137
L10963L
tp363
a(g139
L4586L
tp364
a(g141
L759L
tp365
a(g143
L677L
tp366
a(g145
L594L
tp367
a(g147
L5471L
tp368
a(g149
L4118L
tp369
a(g151
L4366L
tp370
a(g153
L5302L
tp371
a(g155
L28144L
tp372
a(g157
L4546L
tp373
a(g159
L10829L
tp374
a(g161
L22810L
tp375
a(g163
L4405L
tp376
a(g165
L5112L
tp377
a(g167
L4838L
tp378
a(g169
L13967L
tp379
a(g171
L4684L
tp380
a(g173
L10870L
tp381
a(g175
L10840L
tp382
a(g177
L5695L
tp383
a(g179
L6169L
tp384
a(g181
L3L
tp385
a(g183
L7644L
tp386
a(g185
L10905L
tp387
a(g187
L5582L
tp388
a(g189
L13274L
tp389
a(g191
L28251L
tp390
a(g193
L3404L
tp391
a(g195
L2364L
tp392
a(g197
L5161L
tp393
a(g199
L3518L
tp394
a(g201
L4538L
tp395
a(g203
L17965L
tp396
a(g205
L6389L
tp397
a(g207
L5658L
tp398
a(g209
L2991L
tp399
a(g211
L13644L
tp400
a(g213
L14078L
tp401
a(g215
L4408L
tp402
a(g217
L4475L
tp403
a(g219
L12827L
tp404
a(g221
L14427L
tp405
a(g223
L10929L
tp406
a(g225
L2835L
tp407
a(g227
L20900L
tp408
a(g229
L10876L
tp409
a(g231
L4423L
tp410
a(g233
L5662L
tp411
a(g235
L5712L
tp412
a(g237
L10886L
tp413
a(g239
L4368L
tp414
a(g241
L2841L
tp415
a(g243
L4550L
tp416
a(g245
L5682L
tp417
a(g247
L10860L
tp418
a(g249
L5114L
tp419
a(g251
L5705L
tp420
a(g253
L28040L
tp421
a(g255
L33137L
tp422
a(g257
L15840L
tp423
a(g259
L14396L
tp424
a(g261
L6358L
tp425
a(g263
L4583L
tp426
a(g265
L5126L
tp427
a(g267
L4609L
tp428
a(g269
L10848L
tp429
a(g271
L6747L
tp430
a(g273
L201L
tp431
a(g275
L4411L
tp432
a(g277
L20770L
tp433
a(g279
L21900L
tp434
a(g281
L12918L
tp435
a(g283
L7683L
tp436
a(g285
L33512L
tp437
a(g287
L10192L
tp438
a(g289
L15852L
tp439
a(g291
L4412L
tp440
a(g293
L14288L
tp441
aaI704010
a.