(lp1
(lp2
(Vbiological_process
p3
I233849
tp4
a(Vcellular_component
p5
I78757
tp6
a(Vmolecular_function
p7
I65109
tp8
a(Vorganelle
p9
I21032
tp10
a(Vanatomical structure development
p11
I17772
tp12
a(Vtransport
p13
I13203
tp14
a(Vcellular nitrogen compound metabolic process
p15
I10765
tp16
a(Vsignal transduction
p17
I10516
tp18
a(Vprotein complex
p19
I9254
tp20
a(Vresponse to stress
p21
I8816
tp22
a(Vion binding
p23
I8014
tp24
a(Vsmall molecule metabolic process
p25
I7758
tp26
a(Vbiosynthetic process
p27
I6945
tp28
a(Vcellular protein modification process
p29
I6129
tp30
a(Vcatabolic process
p31
I5469
tp32
a(Vimmune system process
p33
I4598
tp34
a(Vcell differentiation
p35
I4311
tp36
a(Vcellular component assembly
p37
I3993
tp38
a(Vcytosol
p39
I3806
tp40
a(Venzyme binding
p41
I3574
tp42
a(Vlipid metabolic process
p43
I3492
tp44
a(Vlocomotion
p45
I2918
tp46
a(Vnucleolus
p47
I2859
tp48
a(Vplasma membrane
p49
I2793
tp50
a(Vanatomical structure formation involved in morphogenesis
p51
I2762
tp52
a(Vvesicle-mediated transport
p53
I2722
tp54
a(Vtransmembrane transporter activity
p55
I2699
tp56
a(VDNA metabolic process
p57
I2657
tp58
a(Vnucleus
p59
I2654
tp60
a(VDNA binding
p61
I2472
tp62
a(Vchromosome organization
p63
I2395
tp64
a(Vhomeostatic process
p65
I2325
tp66
a(Vmacromolecular complex assembly
p67
I2282
tp68
a(Vcarbohydrate metabolic process
p69
I2246
tp70
a(Vcell motility
p71
I2115
tp72
a(Voxidoreductase activity
p73
I2093
tp74
a(Vcytoplasm
p75
I2075
tp76
a(Vtransmembrane transport
p77
I2030
tp78
a(Vneurological system process
p79
I2009
tp80
a(Vnucleobase-containing compound catabolic process
p81
I1939
tp82
a(Vgrowth
p83
I1882
tp84
a(Vembryo development
p85
I1881
tp86
a(Vcytoskeletal protein binding
p87
I1870
tp88
a(Vprotein maturation
p89
I1838
tp90
a(Vprotein complex assembly
p91
I1806
tp92
a(Vcytoskeleton organization
p93
I1787
tp94
a(Vsignal transducer activity
p95
I1694
tp96
a(Vkinase activity
p97
I1677
tp98
a(VRNA binding
p99
I1537
tp100
a(Vcytoplasmic membrane-bounded vesicle
p101
I1495
tp102
a(Vcellular amino acid metabolic process
p103
I1447
tp104
a(Vmitochondrion
p105
I1445
tp106
a(VGolgi apparatus
p107
I1426
tp108
a(Vlipid binding
p109
I1354
tp110
a(Vcytoskeleton
p111
I1318
tp112
a(Vmembrane organization
p113
I1240
tp114
a(Vcell adhesion
p115
I1215
tp116
a(Vendoplasmic reticulum
p117
I1203
tp118
a(Venzyme regulator activity
p119
I1196
tp120
a(Vpeptidase activity
p121
I1184
tp122
a(Vcell-cell signaling
p123
I1166
tp124
a(Vendosome
p125
I1145
tp126
a(VATPase activity
p127
I1139
tp128
a(Vcell death
p129
I1105
tp130
a(Vtranscription factor binding
p131
I1087
tp132
a(Vcell proliferation
p133
I1079
tp134
a(Vmicrotubule organizing center
p135
I1052
tp136
a(Vligase activity
p137
I1046
tp138
a(Vnucleoplasm
p139
I1041
tp140
a(Vprotein binding transcription factor activity
p141
I1016
tp142
a(Vcell morphogenesis
p143
I984
tp144
a(Vstructural molecule activity
p145
I921
tp146
a(Vnucleic acid binding transcription factor activity
p147
I901
tp148
a(Vsulfur compound metabolic process
p149
I887
tp150
a(Vextracellular region
p151
I782
tp152
a(Vprotein targeting
p153
I762
tp154
a(Vextracellular space
p155
I684
tp156
a(Vcofactor metabolic process
p157
I679
tp158
a(Vcilium
p159
I668
tp160
a(Vtransferase activity, transferring acyl groups
p161
I665
tp162
a(Vgeneration of precursor metabolites and energy
p163
I652
tp164
a(Vvacuole
p165
I651
tp166
a(VmRNA processing
p167
I647
tp168
a(Vextracellular matrix organization
p169
I642
tp170
a(Vsymbiosis, encompassing mutualism through parasitism
p171
I609
tp172
a(Vphosphatase activity
p173
I563
tp174
a(Vtransferase activity, transferring glycosyl groups
p175
I523
tp176
a(Vcell cycle
p177
I520
tp178
a(Vnucleocytoplasmic transport
p179
I490
tp180
a(Vaging
p181
I484
tp182
a(Vcell junction organization
p183
I458
tp184
a(Vhelicase activity
p185
I458
tp186
a(Vreproduction
p187
I439
tp188
a(Vlyase activity
p189
I437
tp190
a(Vplastid
p191
I431
tp192
a(Vnuclease activity
p193
I411
tp194
a(Vcirculatory system process
p195
I399
tp196
a(Vdevelopmental maturation
p197
I391
tp198
a(Vcell division
p199
I387
tp200
a(Vmethyltransferase activity
p201
I383
tp202
a(Vmitochondrion organization
p203
I378
tp204
a(Vribonucleoprotein complex assembly
p205
I377
tp206
a(Vprotein folding
p207
I363
tp208
a(Vlysosome
p209
I362
tp210
a(Vcytoskeleton-dependent intracellular transport
p211
I358
tp212
a(Vchromosome
p213
I328
tp214
a(VGTPase activity
p215
I307
tp216
a(Vhistone binding
p217
I298
tp218
a(Vsecondary metabolic process
p219
I285
tp220
a(Vexternal encapsulating structure
p221
I281
tp222
a(Vcell wall
p223
I274
tp224
a(Visomerase activity
p225
I265
tp226
a(Vnuclear envelope
p227
I264
tp228
a(Vproteinaceous extracellular matrix
p229
I264
tp230
a(Vplasma membrane organization
p231
I263
tp232
a(VmRNA binding
p233
I261
tp234
a(Vhydrolase activity, acting on glycosyl bonds
p235
I257
tp236
a(Vhydrolase activity, acting on carbon-nitrogen (but not peptide) bonds
p237
I227
tp238
a(Vvacuolar transport
p239
I217
tp240
a(Vnucleotidyltransferase activity
p241
I216
tp242
a(Vmitosis
p243
I214
tp244
a(Vprotein binding, bridging
p245
I213
tp246
a(Vsmall conjugating protein binding
p247
I209
tp248
a(VtRNA metabolic process
p249
I194
tp250
a(Vcell wall organization or biogenesis
p251
I193
tp252
a(Vperoxisome
p253
I193
tp254
a(Vchromosome segregation
p255
I192
tp256
a(Vstructural constituent of ribosome
p257
I191
tp258
a(Vunfolded protein binding
p259
I164
tp260
a(Vtranslation factor activity, nucleic acid binding
p261
I158
tp262
a(Vlipid particle
p263
I144
tp264
a(Vprotein transporter activity
p265
I139
tp266
a(Vtranslation
p267
I125
tp268
a(Vribosome
p269
I116
tp270
a(Vnuclear chromosome
p271
I99
tp272
a(Vintracellular
p273
I95
tp274
a(Vtransferase activity, transferring alkyl or aryl (other than methyl) groups
p275
I93
tp276
a(Vribosome biogenesis
p277
I84
tp278
a(Vpigmentation
p279
I84
tp280
a(VrRNA binding
p281
I61
tp282
a(Vthylakoid
p283
I51
tp284
a(Vnitrogen cycle metabolic process
p285
I41
tp286
a(Vphotosynthesis
p287
I18
tp288
a(Vcell
p289
I13
tp290
a(Vtransposition
p291
I3
tp292
a(VRNA modification guide activity
p293
I1
tp294
aa(lp295
(g3
L6372L
tp296
a(g5
L4365L
tp297
a(g7
L2787L
tp298
a(g9
L21685L
tp299
a(g11
L26888L
tp300
a(g13
L5491L
tp301
a(g15
L18268L
tp302
a(g17
L5801L
tp303
a(g19
L21693L
tp304
a(g21
L5613L
tp305
a(g23
L21630L
tp306
a(g25
L22689L
tp307
a(g27
L7192L
tp308
a(g29
L5168L
tp309
a(g31
L7190L
tp310
a(g33
L1781L
tp311
a(g35
L13924L
tp312
a(g37
L13633L
tp313
a(g39
L4599L
tp314
a(g41
L12968L
tp315
a(g43
L5326L
tp316
a(g45
L20507L
tp317
a(g47
L4507L
tp318
a(g49
L4644L
tp319
a(g51
L26682L
tp320
a(g53
L10381L
tp321
a(g55
L13690L
tp322
a(g57
L4995L
tp323
a(g59
L4422L
tp324
a(g61
L2790L
tp325
a(g63
L28228L
tp326
a(g65
L21086L
tp327
a(g67
L31581L
tp328
a(g69
L4725L
tp329
a(g71
L26901L
tp330
a(g73
L10598L
tp331
a(g75
L4514L
tp332
a(g77
L29927L
tp333
a(g79
L27837L
tp334
a(g81
L18282L
tp335
a(g83
L20503L
tp336
a(g85
L7881L
tp337
a(g87
L6320L
tp338
a(g89
L28535L
tp339
a(g91
L5165L
tp340
a(g93
L5663L
tp341
a(g95
L3827L
tp342
a(g97
L10466L
tp343
a(g99
L2830L
tp344
a(g101
L10229L
tp345
a(g103
L5218L
tp346
a(g105
L4515L
tp347
a(g107
L4567L
tp348
a(g109
L6500L
tp349
a(g111
L4621L
tp350
a(g113
L30984L
tp351
a(g115
L5791L
tp352
a(g117
L4556L
tp353
a(g119
L14001L
tp354
a(g121
L6448L
tp355
a(g123
L5896L
tp356
a(g125
L4542L
tp357
a(g127
L10963L
tp358
a(g129
L6436L
tp359
a(g131
L6357L
tp360
a(g133
L6494L
tp361
a(g135
L4586L
tp362
a(g137
L10950L
tp363
a(g139
L4439L
tp364
a(g141
L677L
tp365
a(g143
L594L
tp366
a(g145
L4118L
tp367
a(g147
L759L
tp368
a(g149
L5471L
tp369
a(g151
L4366L
tp370
a(g153
L5302L
tp371
a(g155
L4405L
tp372
a(g157
L28144L
tp373
a(g159
L4684L
tp374
a(g161
L10829L
tp375
a(g163
L4838L
tp376
a(g165
L4546L
tp377
a(g167
L5112L
tp378
a(g169
L13967L
tp379
a(g171
L22810L
tp380
a(g173
L10870L
tp381
a(g175
L10840L
tp382
a(g177
L5695L
tp383
a(g179
L5582L
tp384
a(g181
L6169L
tp385
a(g183
L17965L
tp386
a(g185
L3404L
tp387
a(g187
L3L
tp388
a(g189
L10905L
tp389
a(g191
L7644L
tp390
a(g193
L3518L
tp391
a(g195
L2364L
tp392
a(g197
L13274L
tp393
a(g199
L28251L
tp394
a(g201
L6389L
tp395
a(g203
L5658L
tp396
a(g205
L13644L
tp397
a(g207
L5161L
tp398
a(g209
L4538L
tp399
a(g211
L14427L
tp400
a(g213
L4475L
tp401
a(g215
L2991L
tp402
a(g217
L20900L
tp403
a(g219
L12827L
tp404
a(g221
L14078L
tp405
a(g223
L4408L
tp406
a(g225
L10929L
tp407
a(g227
L4423L
tp408
a(g229
L4368L
tp409
a(g231
L5662L
tp410
a(g233
L2835L
tp411
a(g235
L10876L
tp412
a(g237
L10886L
tp413
a(g239
L5682L
tp414
a(g241
L10860L
tp415
a(g243
L5712L
tp416
a(g245
L14396L
tp417
a(g247
L15840L
tp418
a(g249
L5114L
tp419
a(g251
L33137L
tp420
a(g253
L4550L
tp421
a(g255
L5705L
tp422
a(g257
L2841L
tp423
a(g259
L28040L
tp424
a(g261
L6358L
tp425
a(g263
L4583L
tp426
a(g265
L6747L
tp427
a(g267
L5126L
tp428
a(g269
L4609L
tp429
a(g271
L201L
tp430
a(g273
L4411L
tp431
a(g275
L10848L
tp432
a(g277
L20770L
tp433
a(g279
L21900L
tp434
a(g281
L12918L
tp435
a(g283
L7683L
tp436
a(g285
L33512L
tp437
a(g287
L10192L
tp438
a(g289
L4412L
tp439
a(g291
L15852L
tp440
a(g293
L14288L
tp441
aaI641419
a.