(lp1
(lp2
(Vbiological_process
p3
I215775
tp4
a(Vcellular_component
p5
I73820
tp6
a(Vmolecular_function
p7
I60490
tp8
a(Vorganelle
p9
I20116
tp10
a(Vanatomical structure development
p11
I16934
tp12
a(Vtransport
p13
I12036
tp14
a(Vcellular nitrogen compound metabolic process
p15
I10235
tp16
a(Vsignal transduction
p17
I9708
tp18
a(Vprotein complex
p19
I8166
tp20
a(Vresponse to stress
p21
I7853
tp22
a(Vion binding
p23
I6880
tp24
a(Vsmall molecule metabolic process
p25
I6864
tp26
a(Vbiosynthetic process
p27
I6411
tp28
a(Vcellular protein modification process
p29
I5661
tp30
a(Vcatabolic process
p31
I4790
tp32
a(Vimmune system process
p33
I4319
tp34
a(Vcell differentiation
p35
I4053
tp36
a(Vcellular component assembly
p37
I3374
tp38
a(Vcytosol
p39
I3320
tp40
a(Vlipid metabolic process
p41
I3133
tp42
a(Venzyme binding
p43
I3032
tp44
a(Vnucleus
p45
I2727
tp46
a(Vnucleolus
p47
I2705
tp48
a(Vplasma membrane
p49
I2658
tp50
a(Vtransmembrane transporter activity
p51
I2563
tp52
a(VDNA metabolic process
p53
I2550
tp54
a(Vcytoplasm
p55
I2457
tp56
a(Vanatomical structure formation involved in morphogenesis
p57
I2434
tp58
a(Vlocomotion
p59
I2409
tp60
a(VDNA binding
p61
I2362
tp62
a(Vvesicle-mediated transport
p63
I2334
tp64
a(Vchromosome organization
p65
I2089
tp66
a(Voxidoreductase activity
p67
I2031
tp68
a(Vhomeostatic process
p69
I2003
tp70
a(Vtransmembrane transport
p71
I1928
tp72
a(Vmacromolecular complex assembly
p73
I1915
tp74
a(Vcarbohydrate metabolic process
p75
I1852
tp76
a(Vnucleobase-containing compound catabolic process
p77
I1779
tp78
a(Vsignal transducer activity
p79
I1723
tp80
a(Vcell motility
p81
I1700
tp82
a(Vembryo development
p83
I1669
tp84
a(Vprotein maturation
p85
I1653
tp86
a(Vneurological system process
p87
I1620
tp88
a(Vcytoskeletal protein binding
p89
I1592
tp90
a(Vkinase activity
p91
I1551
tp92
a(Vgrowth
p93
I1538
tp94
a(Vprotein complex assembly
p95
I1535
tp96
a(Vcytoskeleton organization
p97
I1453
tp98
a(VRNA binding
p99
I1449
tp100
a(Vmitochondrion
p101
I1333
tp102
a(Vcytoplasmic membrane-bounded vesicle
p103
I1257
tp104
a(VGolgi apparatus
p105
I1254
tp106
a(Vcytoskeleton
p107
I1244
tp108
a(Vcellular amino acid metabolic process
p109
I1242
tp110
a(Vcell-cell signaling
p111
I1141
tp112
a(Vlipid binding
p113
I1137
tp114
a(Vendoplasmic reticulum
p115
I1124
tp116
a(Vpeptidase activity
p117
I1099
tp118
a(Vmembrane organization
p119
I1035
tp120
a(Vendosome
p121
I1028
tp122
a(Vcell death
p123
I1006
tp124
a(Venzyme regulator activity
p125
I1003
tp126
a(Vligase activity
p127
I995
tp128
a(Vcell proliferation
p129
I992
tp130
a(Vnucleoplasm
p131
I990
tp132
a(Vcell adhesion
p133
I977
tp134
a(Vtranscription factor binding
p135
I972
tp136
a(Vnucleic acid binding transcription factor activity
p137
I956
tp138
a(Vmicrotubule organizing center
p139
I954
tp140
a(VATPase activity
p141
I894
tp142
a(Vprotein binding transcription factor activity
p143
I883
tp144
a(Vcell morphogenesis
p145
I815
tp146
a(Vextracellular region
p147
I776
tp148
a(Vsulfur compound metabolic process
p149
I762
tp150
a(Vstructural molecule activity
p151
I726
tp152
a(Vprotein targeting
p153
I641
tp154
a(Vcofactor metabolic process
p155
I613
tp156
a(Vextracellular space
p157
I612
tp158
a(Vtransferase activity, transferring acyl groups
p159
I609
tp160
a(Vcilium
p161
I587
tp162
a(VmRNA processing
p163
I579
tp164
a(Vphosphatase activity
p165
I561
tp166
a(Vvacuole
p167
I556
tp168
a(Vgeneration of precursor metabolites and energy
p169
I541
tp170
a(Vsymbiosis, encompassing mutualism through parasitism
p171
I537
tp172
a(Vextracellular matrix organization
p173
I534
tp174
a(Vtransferase activity, transferring glycosyl groups
p175
I533
tp176
a(Vcell cycle
p177
I527
tp178
a(Vnuclease activity
p179
I447
tp180
a(Vhelicase activity
p181
I425
tp182
a(Vnucleocytoplasmic transport
p183
I424
tp184
a(Vreproduction
p185
I388
tp186
a(Vaging
p187
I388
tp188
a(Vmethyltransferase activity
p189
I387
tp190
a(Vcell junction organization
p191
I383
tp192
a(Vlyase activity
p193
I379
tp194
a(Vcirculatory system process
p195
I378
tp196
a(Vcell division
p197
I344
tp198
a(Vmitochondrion organization
p199
I334
tp200
a(Vdevelopmental maturation
p201
I328
tp202
a(Vplastid
p203
I324
tp204
a(Vprotein folding
p205
I323
tp206
a(Vlysosome
p207
I320
tp208
a(VGTPase activity
p209
I318
tp210
a(Vribonucleoprotein complex assembly
p211
I306
tp212
a(Vchromosome
p213
I301
tp214
a(Vcytoskeleton-dependent intracellular transport
p215
I292
tp216
a(Vplasma membrane organization
p217
I281
tp218
a(Vhistone binding
p219
I266
tp220
a(Vproteinaceous extracellular matrix
p221
I230
tp222
a(Visomerase activity
p223
I229
tp224
a(Vsecondary metabolic process
p225
I228
tp226
a(Vhydrolase activity, acting on carbon-nitrogen (but not peptide) bonds
p227
I225
tp228
a(VmRNA binding
p229
I224
tp230
a(Vhydrolase activity, acting on glycosyl bonds
p231
I220
tp232
a(Vnucleotidyltransferase activity
p233
I210
tp234
a(Vexternal encapsulating structure
p235
I207
tp236
a(Vmitosis
p237
I203
tp238
a(Vcell wall
p239
I201
tp240
a(Vnuclear envelope
p241
I200
tp242
a(Vvacuolar transport
p243
I181
tp244
a(Vprotein binding, bridging
p245
I181
tp246
a(Vstructural constituent of ribosome
p247
I173
tp248
a(Vperoxisome
p249
I171
tp250
a(Vchromosome segregation
p251
I169
tp252
a(Vsmall conjugating protein binding
p253
I161
tp254
a(VtRNA metabolic process
p255
I160
tp256
a(Vintracellular
p257
I140
tp258
a(Vcell wall organization or biogenesis
p259
I138
tp260
a(Vtranslation factor activity, nucleic acid binding
p261
I136
tp262
a(Vunfolded protein binding
p263
I135
tp264
a(Vtranslation
p265
I135
tp266
a(Vprotein transporter activity
p267
I114
tp268
a(Vlipid particle
p269
I114
tp270
a(Vribosome
p271
I107
tp272
a(Vtransferase activity, transferring alkyl or aryl (other than methyl) groups
p273
I102
tp274
a(Vnuclear chromosome
p275
I90
tp276
a(Vribosome biogenesis
p277
I81
tp278
a(Vpigmentation
p279
I74
tp280
a(VrRNA binding
p281
I68
tp282
a(Vthylakoid
p283
I46
tp284
a(Vnitrogen cycle metabolic process
p285
I29
tp286
a(Vphotosynthesis
p287
I18
tp288
a(Vtransposition
p289
I13
tp290
a(Vcell
p291
I12
tp292
a(VRNA modification guide activity
p293
I1
tp294
aa(lp295
(g3
L6372L
tp296
a(g5
L4365L
tp297
a(g7
L2787L
tp298
a(g9
L21685L
tp299
a(g11
L26888L
tp300
a(g13
L5491L
tp301
a(g15
L18268L
tp302
a(g17
L5801L
tp303
a(g19
L21693L
tp304
a(g21
L5613L
tp305
a(g23
L21630L
tp306
a(g25
L22689L
tp307
a(g27
L7192L
tp308
a(g29
L5168L
tp309
a(g31
L7190L
tp310
a(g33
L1781L
tp311
a(g35
L13924L
tp312
a(g37
L13633L
tp313
a(g39
L4599L
tp314
a(g41
L5326L
tp315
a(g43
L12968L
tp316
a(g45
L4422L
tp317
a(g47
L4507L
tp318
a(g49
L4644L
tp319
a(g51
L13690L
tp320
a(g53
L4995L
tp321
a(g55
L4514L
tp322
a(g57
L26682L
tp323
a(g59
L20507L
tp324
a(g61
L2790L
tp325
a(g63
L10381L
tp326
a(g65
L28228L
tp327
a(g67
L10598L
tp328
a(g69
L21086L
tp329
a(g71
L29927L
tp330
a(g73
L31581L
tp331
a(g75
L4725L
tp332
a(g77
L18282L
tp333
a(g79
L3827L
tp334
a(g81
L26901L
tp335
a(g83
L7881L
tp336
a(g85
L28535L
tp337
a(g87
L27837L
tp338
a(g89
L6320L
tp339
a(g91
L10466L
tp340
a(g93
L20503L
tp341
a(g95
L5165L
tp342
a(g97
L5663L
tp343
a(g99
L2830L
tp344
a(g101
L4515L
tp345
a(g103
L10229L
tp346
a(g105
L4567L
tp347
a(g107
L4621L
tp348
a(g109
L5218L
tp349
a(g111
L5896L
tp350
a(g113
L6500L
tp351
a(g115
L4556L
tp352
a(g117
L6448L
tp353
a(g119
L30984L
tp354
a(g121
L4542L
tp355
a(g123
L6436L
tp356
a(g125
L14001L
tp357
a(g127
L10950L
tp358
a(g129
L6494L
tp359
a(g131
L4439L
tp360
a(g133
L5791L
tp361
a(g135
L6357L
tp362
a(g137
L759L
tp363
a(g139
L4586L
tp364
a(g141
L10963L
tp365
a(g143
L677L
tp366
a(g145
L594L
tp367
a(g147
L4366L
tp368
a(g149
L5471L
tp369
a(g151
L4118L
tp370
a(g153
L5302L
tp371
a(g155
L28144L
tp372
a(g157
L4405L
tp373
a(g159
L10829L
tp374
a(g161
L4684L
tp375
a(g163
L5112L
tp376
a(g165
L10870L
tp377
a(g167
L4546L
tp378
a(g169
L4838L
tp379
a(g171
L22810L
tp380
a(g173
L13967L
tp381
a(g175
L10840L
tp382
a(g177
L5695L
tp383
a(g179
L3518L
tp384
a(g181
L3404L
tp385
a(g183
L5582L
tp386
a(g185
L3L
tp387
a(g187
L6169L
tp388
a(g189
L6389L
tp389
a(g191
L17965L
tp390
a(g193
L10905L
tp391
a(g195
L2364L
tp392
a(g197
L28251L
tp393
a(g199
L5658L
tp394
a(g201
L13274L
tp395
a(g203
L7644L
tp396
a(g205
L5161L
tp397
a(g207
L4538L
tp398
a(g209
L2991L
tp399
a(g211
L13644L
tp400
a(g213
L4475L
tp401
a(g215
L14427L
tp402
a(g217
L5662L
tp403
a(g219
L20900L
tp404
a(g221
L4368L
tp405
a(g223
L10929L
tp406
a(g225
L12827L
tp407
a(g227
L10886L
tp408
a(g229
L2835L
tp409
a(g231
L10876L
tp410
a(g233
L10860L
tp411
a(g235
L14078L
tp412
a(g237
L5712L
tp413
a(g239
L4408L
tp414
a(g241
L4423L
tp415
a(g243
L5682L
tp416
a(g245
L14396L
tp417
a(g247
L2841L
tp418
a(g249
L4550L
tp419
a(g251
L5705L
tp420
a(g253
L15840L
tp421
a(g255
L5114L
tp422
a(g257
L4411L
tp423
a(g259
L33137L
tp424
a(g261
L6358L
tp425
a(g263
L28040L
tp426
a(g265
L5126L
tp427
a(g267
L6747L
tp428
a(g269
L4583L
tp429
a(g271
L4609L
tp430
a(g273
L10848L
tp431
a(g275
L201L
tp432
a(g277
L20770L
tp433
a(g279
L21900L
tp434
a(g281
L12918L
tp435
a(g283
L7683L
tp436
a(g285
L33512L
tp437
a(g287
L10192L
tp438
a(g289
L15852L
tp439
a(g291
L4412L
tp440
a(g293
L14288L
tp441
aaI589736
a.