(lp1
(lp2
(Vbiological_process
p3
I270625
tp4
a(Vcellular_component
p5
I89553
tp6
a(Vmolecular_function
p7
I73045
tp8
a(Vorganelle
p9
I24167
tp10
a(Vanatomical structure development
p11
I20862
tp12
a(Vtransport
p13
I14995
tp14
a(Vsignal transduction
p15
I12197
tp16
a(Vcellular nitrogen compound metabolic process
p17
I11861
tp18
a(Vprotein complex
p19
I10173
tp20
a(Vresponse to stress
p21
I9963
tp22
a(Vion binding
p23
I8744
tp24
a(Vsmall molecule metabolic process
p25
I8280
tp26
a(Vbiosynthetic process
p27
I7668
tp28
a(Vcellular protein modification process
p29
I7026
tp30
a(Vcatabolic process
p31
I5906
tp32
a(Vimmune system process
p33
I5488
tp34
a(Vcell differentiation
p35
I5153
tp36
a(Vcellular component assembly
p37
I4313
tp38
a(Venzyme binding
p39
I4028
tp40
a(Vcytosol
p41
I4008
tp42
a(Vlipid metabolic process
p43
I3977
tp44
a(Vlocomotion
p45
I3316
tp46
a(Vtransmembrane transporter activity
p47
I3182
tp48
a(Vnucleolus
p49
I3164
tp50
a(Vplasma membrane
p51
I3127
tp52
a(Vnucleus
p53
I3073
tp54
a(Vvesicle-mediated transport
p55
I3064
tp56
a(Vanatomical structure formation involved in morphogenesis
p57
I3063
tp58
a(VDNA metabolic process
p59
I2875
tp60
a(VDNA binding
p61
I2696
tp62
a(Vhomeostatic process
p63
I2649
tp64
a(Vchromosome organization
p65
I2602
tp66
a(Vcytoplasm
p67
I2508
tp68
a(Vmacromolecular complex assembly
p69
I2374
tp70
a(Vtransmembrane transport
p71
I2365
tp72
a(Voxidoreductase activity
p73
I2363
tp74
a(Vcell motility
p75
I2326
tp76
a(Vneurological system process
p77
I2307
tp78
a(Vcarbohydrate metabolic process
p79
I2270
tp80
a(Vcytoskeletal protein binding
p81
I2142
tp82
a(Vprotein maturation
p83
I2129
tp84
a(Vnucleobase-containing compound catabolic process
p85
I2098
tp86
a(Vgrowth
p87
I2083
tp88
a(Vembryo development
p89
I2045
tp90
a(Vsignal transducer activity
p91
I1956
tp92
a(Vkinase activity
p93
I1934
tp94
a(Vprotein complex assembly
p95
I1929
tp96
a(Vcytoskeleton organization
p97
I1852
tp98
a(VRNA binding
p99
I1657
tp100
a(Vcytoplasmic membrane-bounded vesicle
p101
I1640
tp102
a(Vmitochondrion
p103
I1609
tp104
a(Vlipid binding
p105
I1602
tp106
a(VGolgi apparatus
p107
I1590
tp108
a(Vcytoskeleton
p109
I1534
tp110
a(Vcellular amino acid metabolic process
p111
I1425
tp112
a(Vcell adhesion
p113
I1404
tp114
a(Vcell-cell signaling
p115
I1392
tp116
a(Vendoplasmic reticulum
p117
I1377
tp118
a(Vendosome
p119
I1350
tp120
a(Venzyme regulator activity
p121
I1332
tp122
a(Vmembrane organization
p123
I1321
tp124
a(Vcell death
p125
I1298
tp126
a(Vcell proliferation
p127
I1294
tp128
a(Vpeptidase activity
p129
I1290
tp130
a(Vligase activity
p131
I1252
tp132
a(Vtranscription factor binding
p133
I1198
tp134
a(VATPase activity
p135
I1179
tp136
a(Vmicrotubule organizing center
p137
I1164
tp138
a(Vprotein binding transcription factor activity
p139
I1137
tp140
a(Vnucleoplasm
p141
I1135
tp142
a(Vcell morphogenesis
p143
I1101
tp144
a(Vnucleic acid binding transcription factor activity
p145
I1051
tp146
a(Vextracellular region
p147
I877
tp148
a(Vsulfur compound metabolic process
p149
I864
tp150
a(Vstructural molecule activity
p151
I850
tp152
a(Vprotein targeting
p153
I837
tp154
a(Vvacuole
p155
I758
tp156
a(Vextracellular space
p157
I755
tp158
a(Vcilium
p159
I741
tp160
a(Vtransferase activity, transferring acyl groups
p161
I723
tp162
a(Vcofactor metabolic process
p163
I702
tp164
a(Vphosphatase activity
p165
I688
tp166
a(Vsymbiosis, encompassing mutualism through parasitism
p167
I687
tp168
a(VmRNA processing
p169
I684
tp170
a(Vgeneration of precursor metabolites and energy
p171
I664
tp172
a(Vextracellular matrix organization
p173
I658
tp174
a(Vcell cycle
p175
I644
tp176
a(Vtransferase activity, transferring glycosyl groups
p177
I591
tp178
a(Vnucleocytoplasmic transport
p179
I530
tp180
a(Vcell junction organization
p181
I509
tp182
a(Vaging
p183
I500
tp184
a(Vhelicase activity
p185
I499
tp186
a(Vreproduction
p187
I491
tp188
a(Vnuclease activity
p189
I476
tp190
a(Vdevelopmental maturation
p191
I472
tp192
a(Vcirculatory system process
p193
I467
tp194
a(Vcell division
p195
I462
tp196
a(Vplastid
p197
I444
tp198
a(Vlysosome
p199
I433
tp200
a(Vmethyltransferase activity
p201
I433
tp202
a(Vlyase activity
p203
I425
tp204
a(Vmitochondrion organization
p205
I422
tp206
a(Vcytoskeleton-dependent intracellular transport
p207
I394
tp208
a(Vchromosome
p209
I369
tp210
a(Vprotein folding
p211
I365
tp212
a(Vribonucleoprotein complex assembly
p213
I354
tp214
a(VGTPase activity
p215
I337
tp216
a(Vhistone binding
p217
I334
tp218
a(Vplasma membrane organization
p219
I301
tp220
a(Vsecondary metabolic process
p221
I300
tp222
a(Vproteinaceous extracellular matrix
p223
I295
tp224
a(Vnuclear envelope
p225
I289
tp226
a(Vhydrolase activity, acting on glycosyl bonds
p227
I283
tp228
a(Vexternal encapsulating structure
p229
I278
tp230
a(Vcell wall
p231
I270
tp232
a(VmRNA binding
p233
I267
tp234
a(Visomerase activity
p235
I263
tp236
a(Vmitosis
p237
I258
tp238
a(Vvacuolar transport
p239
I254
tp240
a(Vhydrolase activity, acting on carbon-nitrogen (but not peptide) bonds
p241
I249
tp242
a(Vprotein binding, bridging
p243
I235
tp244
a(Vnucleotidyltransferase activity
p245
I219
tp246
a(Vperoxisome
p247
I215
tp248
a(Vsmall conjugating protein binding
p249
I210
tp250
a(Vcell wall organization or biogenesis
p251
I206
tp252
a(Vchromosome segregation
p253
I205
tp254
a(VtRNA metabolic process
p255
I180
tp256
a(Vstructural constituent of ribosome
p257
I172
tp258
a(Vtranslation factor activity, nucleic acid binding
p259
I154
tp260
a(Vunfolded protein binding
p261
I153
tp262
a(Vlipid particle
p263
I145
tp264
a(Vprotein transporter activity
p265
I141
tp266
a(Vtranslation
p267
I138
tp268
a(Vribosome
p269
I134
tp270
a(Vintracellular
p271
I123
tp272
a(Vtransferase activity, transferring alkyl or aryl (other than methyl) groups
p273
I108
tp274
a(Vnuclear chromosome
p275
I105
tp276
a(Vpigmentation
p277
I100
tp278
a(Vribosome biogenesis
p279
I91
tp280
a(VrRNA binding
p281
I64
tp282
a(Vthylakoid
p283
I56
tp284
a(Vnitrogen cycle metabolic process
p285
I38
tp286
a(Vphotosynthesis
p287
I23
tp288
a(Vcell
p289
I10
tp290
a(Vtransposition
p291
I7
tp292
a(VRNA modification guide activity
p293
I1
tp294
aa(lp295
(g3
L6372L
tp296
a(g5
L4365L
tp297
a(g7
L2787L
tp298
a(g9
L21685L
tp299
a(g11
L26888L
tp300
a(g13
L5491L
tp301
a(g15
L5801L
tp302
a(g17
L18268L
tp303
a(g19
L21693L
tp304
a(g21
L5613L
tp305
a(g23
L21630L
tp306
a(g25
L22689L
tp307
a(g27
L7192L
tp308
a(g29
L5168L
tp309
a(g31
L7190L
tp310
a(g33
L1781L
tp311
a(g35
L13924L
tp312
a(g37
L13633L
tp313
a(g39
L12968L
tp314
a(g41
L4599L
tp315
a(g43
L5326L
tp316
a(g45
L20507L
tp317
a(g47
L13690L
tp318
a(g49
L4507L
tp319
a(g51
L4644L
tp320
a(g53
L4422L
tp321
a(g55
L10381L
tp322
a(g57
L26682L
tp323
a(g59
L4995L
tp324
a(g61
L2790L
tp325
a(g63
L21086L
tp326
a(g65
L28228L
tp327
a(g67
L4514L
tp328
a(g69
L31581L
tp329
a(g71
L29927L
tp330
a(g73
L10598L
tp331
a(g75
L26901L
tp332
a(g77
L27837L
tp333
a(g79
L4725L
tp334
a(g81
L6320L
tp335
a(g83
L28535L
tp336
a(g85
L18282L
tp337
a(g87
L20503L
tp338
a(g89
L7881L
tp339
a(g91
L3827L
tp340
a(g93
L10466L
tp341
a(g95
L5165L
tp342
a(g97
L5663L
tp343
a(g99
L2830L
tp344
a(g101
L10229L
tp345
a(g103
L4515L
tp346
a(g105
L6500L
tp347
a(g107
L4567L
tp348
a(g109
L4621L
tp349
a(g111
L5218L
tp350
a(g113
L5791L
tp351
a(g115
L5896L
tp352
a(g117
L4556L
tp353
a(g119
L4542L
tp354
a(g121
L14001L
tp355
a(g123
L30984L
tp356
a(g125
L6436L
tp357
a(g127
L6494L
tp358
a(g129
L6448L
tp359
a(g131
L10950L
tp360
a(g133
L6357L
tp361
a(g135
L10963L
tp362
a(g137
L4586L
tp363
a(g139
L677L
tp364
a(g141
L4439L
tp365
a(g143
L594L
tp366
a(g145
L759L
tp367
a(g147
L4366L
tp368
a(g149
L5471L
tp369
a(g151
L4118L
tp370
a(g153
L5302L
tp371
a(g155
L4546L
tp372
a(g157
L4405L
tp373
a(g159
L4684L
tp374
a(g161
L10829L
tp375
a(g163
L28144L
tp376
a(g165
L10870L
tp377
a(g167
L22810L
tp378
a(g169
L5112L
tp379
a(g171
L4838L
tp380
a(g173
L13967L
tp381
a(g175
L5695L
tp382
a(g177
L10840L
tp383
a(g179
L5582L
tp384
a(g181
L17965L
tp385
a(g183
L6169L
tp386
a(g185
L3404L
tp387
a(g187
L3L
tp388
a(g189
L3518L
tp389
a(g191
L13274L
tp390
a(g193
L2364L
tp391
a(g195
L28251L
tp392
a(g197
L7644L
tp393
a(g199
L4538L
tp394
a(g201
L6389L
tp395
a(g203
L10905L
tp396
a(g205
L5658L
tp397
a(g207
L14427L
tp398
a(g209
L4475L
tp399
a(g211
L5161L
tp400
a(g213
L13644L
tp401
a(g215
L2991L
tp402
a(g217
L20900L
tp403
a(g219
L5662L
tp404
a(g221
L12827L
tp405
a(g223
L4368L
tp406
a(g225
L4423L
tp407
a(g227
L10876L
tp408
a(g229
L14078L
tp409
a(g231
L4408L
tp410
a(g233
L2835L
tp411
a(g235
L10929L
tp412
a(g237
L5712L
tp413
a(g239
L5682L
tp414
a(g241
L10886L
tp415
a(g243
L14396L
tp416
a(g245
L10860L
tp417
a(g247
L4550L
tp418
a(g249
L15840L
tp419
a(g251
L33137L
tp420
a(g253
L5705L
tp421
a(g255
L5114L
tp422
a(g257
L2841L
tp423
a(g259
L6358L
tp424
a(g261
L28040L
tp425
a(g263
L4583L
tp426
a(g265
L6747L
tp427
a(g267
L5126L
tp428
a(g269
L4609L
tp429
a(g271
L4411L
tp430
a(g273
L10848L
tp431
a(g275
L201L
tp432
a(g277
L21900L
tp433
a(g279
L20770L
tp434
a(g281
L12918L
tp435
a(g283
L7683L
tp436
a(g285
L33512L
tp437
a(g287
L10192L
tp438
a(g289
L4412L
tp439
a(g291
L15852L
tp440
a(g293
L14288L
tp441
aaI728835
a.