(lp1
(lp2
(Vbiological_process
p3
I284396
tp4
a(Vcellular_component
p5
I96428
tp6
a(Vmolecular_function
p7
I79263
tp8
a(Vorganelle
p9
I26118
tp10
a(Vanatomical structure development
p11
I21471
tp12
a(Vtransport
p13
I15796
tp14
a(Vcellular nitrogen compound metabolic process
p15
I13294
tp16
a(Vsignal transduction
p17
I12675
tp18
a(Vprotein complex
p19
I11224
tp20
a(Vresponse to stress
p21
I10719
tp22
a(Vion binding
p23
I9865
tp24
a(Vsmall molecule metabolic process
p25
I9304
tp26
a(Vbiosynthetic process
p27
I8575
tp28
a(Vcellular protein modification process
p29
I7434
tp30
a(Vcatabolic process
p31
I6653
tp32
a(Vimmune system process
p33
I5464
tp34
a(Vcell differentiation
p35
I5269
tp36
a(Vcellular component assembly
p37
I4858
tp38
a(Vcytosol
p39
I4646
tp40
a(Vlipid metabolic process
p41
I4307
tp42
a(Venzyme binding
p43
I4279
tp44
a(Vnucleolus
p45
I3608
tp46
a(Vlocomotion
p47
I3510
tp48
a(Vplasma membrane
p49
I3386
tp50
a(Vvesicle-mediated transport
p51
I3376
tp52
a(Vanatomical structure formation involved in morphogenesis
p53
I3288
tp54
a(VDNA metabolic process
p55
I3233
tp56
a(Vnucleus
p57
I3216
tp58
a(Vtransmembrane transporter activity
p59
I3170
tp60
a(Vchromosome organization
p61
I2962
tp62
a(VDNA binding
p63
I2945
tp64
a(Vhomeostatic process
p65
I2826
tp66
a(Vmacromolecular complex assembly
p67
I2662
tp68
a(Voxidoreductase activity
p69
I2641
tp70
a(Vcytoplasm
p71
I2604
tp72
a(Vcell motility
p73
I2505
tp74
a(Vcarbohydrate metabolic process
p75
I2500
tp76
a(Vneurological system process
p77
I2469
tp78
a(Vnucleobase-containing compound catabolic process
p79
I2391
tp80
a(Vcytoskeletal protein binding
p81
I2390
tp82
a(Vtransmembrane transport
p83
I2345
tp84
a(Vembryo development
p85
I2295
tp86
a(Vgrowth
p87
I2238
tp88
a(Vprotein maturation
p89
I2199
tp90
a(Vcytoskeleton organization
p91
I2190
tp92
a(Vprotein complex assembly
p93
I2126
tp94
a(Vsignal transducer activity
p95
I2121
tp96
a(Vkinase activity
p97
I2068
tp98
a(VRNA binding
p99
I1928
tp100
a(Vcytoplasmic membrane-bounded vesicle
p101
I1822
tp102
a(Vlipid binding
p103
I1816
tp104
a(VGolgi apparatus
p105
I1787
tp106
a(Vmitochondrion
p107
I1777
tp108
a(Vcellular amino acid metabolic process
p109
I1698
tp110
a(Vcytoskeleton
p111
I1667
tp112
a(Vendoplasmic reticulum
p113
I1505
tp114
a(Vcell adhesion
p115
I1460
tp116
a(Vmembrane organization
p117
I1451
tp118
a(Vcell-cell signaling
p119
I1447
tp120
a(Vendosome
p121
I1441
tp122
a(Venzyme regulator activity
p123
I1432
tp124
a(Vpeptidase activity
p125
I1425
tp126
a(Vcell death
p127
I1407
tp128
a(Vmicrotubule organizing center
p129
I1329
tp130
a(Vcell proliferation
p131
I1312
tp132
a(Vnucleoplasm
p133
I1304
tp134
a(VATPase activity
p135
I1302
tp136
a(Vtranscription factor binding
p137
I1281
tp138
a(Vligase activity
p139
I1263
tp140
a(Vprotein binding transcription factor activity
p141
I1221
tp142
a(Vnucleic acid binding transcription factor activity
p143
I1161
tp144
a(Vcell morphogenesis
p145
I1135
tp146
a(Vstructural molecule activity
p147
I1103
tp148
a(Vsulfur compound metabolic process
p149
I1041
tp150
a(Vprotein targeting
p151
I1000
tp152
a(Vextracellular region
p153
I936
tp154
a(Vtransferase activity, transferring acyl groups
p155
I830
tp156
a(Vextracellular space
p157
I819
tp158
a(Vcofactor metabolic process
p159
I818
tp160
a(VmRNA processing
p161
I802
tp162
a(Vvacuole
p163
I799
tp164
a(Vcilium
p165
I793
tp166
a(Vgeneration of precursor metabolites and energy
p167
I768
tp168
a(Vextracellular matrix organization
p169
I762
tp170
a(Vsymbiosis, encompassing mutualism through parasitism
p171
I730
tp172
a(Vphosphatase activity
p173
I687
tp174
a(Vcell cycle
p175
I671
tp176
a(Vtransferase activity, transferring glycosyl groups
p177
I609
tp178
a(Vaging
p179
I597
tp180
a(Vnucleocytoplasmic transport
p181
I584
tp182
a(Vcell junction organization
p183
I566
tp184
a(Vreproduction
p185
I557
tp186
a(Vplastid
p187
I531
tp188
a(Vcirculatory system process
p189
I528
tp190
a(Vcell division
p191
I521
tp192
a(Vhelicase activity
p193
I520
tp194
a(Vnuclease activity
p195
I518
tp196
a(Vlyase activity
p197
I490
tp198
a(Vmethyltransferase activity
p199
I475
tp200
a(Vdevelopmental maturation
p201
I471
tp202
a(Vlysosome
p203
I449
tp204
a(Vmitochondrion organization
p205
I440
tp206
a(Vcytoskeleton-dependent intracellular transport
p207
I438
tp208
a(Vribonucleoprotein complex assembly
p209
I424
tp210
a(Vchromosome
p211
I420
tp212
a(Vprotein folding
p213
I412
tp214
a(Vhistone binding
p215
I377
tp216
a(VGTPase activity
p217
I371
tp218
a(Vexternal encapsulating structure
p219
I365
tp220
a(Vcell wall
p221
I357
tp222
a(Vsecondary metabolic process
p223
I347
tp224
a(Vnuclear envelope
p225
I337
tp226
a(Visomerase activity
p227
I325
tp228
a(VmRNA binding
p229
I321
tp230
a(Vproteinaceous extracellular matrix
p231
I315
tp232
a(Vplasma membrane organization
p233
I301
tp234
a(Vmitosis
p235
I294
tp236
a(Vstructural constituent of ribosome
p237
I283
tp238
a(Vvacuolar transport
p239
I283
tp240
a(Vhydrolase activity, acting on carbon-nitrogen (but not peptide) bonds
p241
I275
tp242
a(Vhydrolase activity, acting on glycosyl bonds
p243
I272
tp244
a(Vnucleotidyltransferase activity
p245
I262
tp246
a(Vprotein binding, bridging
p247
I255
tp248
a(Vcell wall organization or biogenesis
p249
I249
tp250
a(Vperoxisome
p251
I241
tp252
a(VtRNA metabolic process
p253
I240
tp254
a(Vchromosome segregation
p255
I238
tp256
a(Vsmall conjugating protein binding
p257
I233
tp258
a(Vtranslation factor activity, nucleic acid binding
p259
I208
tp260
a(Vunfolded protein binding
p261
I182
tp262
a(Vlipid particle
p263
I173
tp264
a(Vprotein transporter activity
p265
I170
tp266
a(Vtranslation
p267
I160
tp268
a(Vribosome
p269
I152
tp270
a(Vnuclear chromosome
p271
I127
tp272
a(Vtransferase activity, transferring alkyl or aryl (other than methyl) groups
p273
I124
tp274
a(Vribosome biogenesis
p275
I121
tp276
a(Vintracellular
p277
I106
tp278
a(Vpigmentation
p279
I101
tp280
a(VrRNA binding
p281
I86
tp282
a(Vthylakoid
p283
I60
tp284
a(Vnitrogen cycle metabolic process
p285
I38
tp286
a(Vphotosynthesis
p287
I19
tp288
a(Vcell
p289
I11
tp290
a(Vtransposition
p291
I10
tp292
a(VRNA modification guide activity
p293
I1
tp294
aa(lp295
(g3
L6372L
tp296
a(g5
L4365L
tp297
a(g7
L2787L
tp298
a(g9
L21685L
tp299
a(g11
L26888L
tp300
a(g13
L5491L
tp301
a(g15
L18268L
tp302
a(g17
L5801L
tp303
a(g19
L21693L
tp304
a(g21
L5613L
tp305
a(g23
L21630L
tp306
a(g25
L22689L
tp307
a(g27
L7192L
tp308
a(g29
L5168L
tp309
a(g31
L7190L
tp310
a(g33
L1781L
tp311
a(g35
L13924L
tp312
a(g37
L13633L
tp313
a(g39
L4599L
tp314
a(g41
L5326L
tp315
a(g43
L12968L
tp316
a(g45
L4507L
tp317
a(g47
L20507L
tp318
a(g49
L4644L
tp319
a(g51
L10381L
tp320
a(g53
L26682L
tp321
a(g55
L4995L
tp322
a(g57
L4422L
tp323
a(g59
L13690L
tp324
a(g61
L28228L
tp325
a(g63
L2790L
tp326
a(g65
L21086L
tp327
a(g67
L31581L
tp328
a(g69
L10598L
tp329
a(g71
L4514L
tp330
a(g73
L26901L
tp331
a(g75
L4725L
tp332
a(g77
L27837L
tp333
a(g79
L18282L
tp334
a(g81
L6320L
tp335
a(g83
L29927L
tp336
a(g85
L7881L
tp337
a(g87
L20503L
tp338
a(g89
L28535L
tp339
a(g91
L5663L
tp340
a(g93
L5165L
tp341
a(g95
L3827L
tp342
a(g97
L10466L
tp343
a(g99
L2830L
tp344
a(g101
L10229L
tp345
a(g103
L6500L
tp346
a(g105
L4567L
tp347
a(g107
L4515L
tp348
a(g109
L5218L
tp349
a(g111
L4621L
tp350
a(g113
L4556L
tp351
a(g115
L5791L
tp352
a(g117
L30984L
tp353
a(g119
L5896L
tp354
a(g121
L4542L
tp355
a(g123
L14001L
tp356
a(g125
L6448L
tp357
a(g127
L6436L
tp358
a(g129
L4586L
tp359
a(g131
L6494L
tp360
a(g133
L4439L
tp361
a(g135
L10963L
tp362
a(g137
L6357L
tp363
a(g139
L10950L
tp364
a(g141
L677L
tp365
a(g143
L759L
tp366
a(g145
L594L
tp367
a(g147
L4118L
tp368
a(g149
L5471L
tp369
a(g151
L5302L
tp370
a(g153
L4366L
tp371
a(g155
L10829L
tp372
a(g157
L4405L
tp373
a(g159
L28144L
tp374
a(g161
L5112L
tp375
a(g163
L4546L
tp376
a(g165
L4684L
tp377
a(g167
L4838L
tp378
a(g169
L13967L
tp379
a(g171
L22810L
tp380
a(g173
L10870L
tp381
a(g175
L5695L
tp382
a(g177
L10840L
tp383
a(g179
L6169L
tp384
a(g181
L5582L
tp385
a(g183
L17965L
tp386
a(g185
L3L
tp387
a(g187
L7644L
tp388
a(g189
L2364L
tp389
a(g191
L28251L
tp390
a(g193
L3404L
tp391
a(g195
L3518L
tp392
a(g197
L10905L
tp393
a(g199
L6389L
tp394
a(g201
L13274L
tp395
a(g203
L4538L
tp396
a(g205
L5658L
tp397
a(g207
L14427L
tp398
a(g209
L13644L
tp399
a(g211
L4475L
tp400
a(g213
L5161L
tp401
a(g215
L20900L
tp402
a(g217
L2991L
tp403
a(g219
L14078L
tp404
a(g221
L4408L
tp405
a(g223
L12827L
tp406
a(g225
L4423L
tp407
a(g227
L10929L
tp408
a(g229
L2835L
tp409
a(g231
L4368L
tp410
a(g233
L5662L
tp411
a(g235
L5712L
tp412
a(g237
L2841L
tp413
a(g239
L5682L
tp414
a(g241
L10886L
tp415
a(g243
L10876L
tp416
a(g245
L10860L
tp417
a(g247
L14396L
tp418
a(g249
L33137L
tp419
a(g251
L4550L
tp420
a(g253
L5114L
tp421
a(g255
L5705L
tp422
a(g257
L15840L
tp423
a(g259
L6358L
tp424
a(g261
L28040L
tp425
a(g263
L4583L
tp426
a(g265
L6747L
tp427
a(g267
L5126L
tp428
a(g269
L4609L
tp429
a(g271
L201L
tp430
a(g273
L10848L
tp431
a(g275
L20770L
tp432
a(g277
L4411L
tp433
a(g279
L21900L
tp434
a(g281
L12918L
tp435
a(g283
L7683L
tp436
a(g285
L33512L
tp437
a(g287
L10192L
tp438
a(g289
L4412L
tp439
a(g291
L15852L
tp440
a(g293
L14288L
tp441
aaI781172
a.