(lp1
(lp2
(Vbiological_process
p3
I302235
tp4
a(Vcellular_component
p5
I100307
tp6
a(Vmolecular_function
p7
I82870
tp8
a(Vorganelle
p9
I26998
tp10
a(Vanatomical structure development
p11
I23302
tp12
a(Vtransport
p13
I16683
tp14
a(Vsignal transduction
p15
I13530
tp16
a(Vcellular nitrogen compound metabolic process
p17
I13392
tp18
a(Vprotein complex
p19
I11533
tp20
a(Vresponse to stress
p21
I11160
tp22
a(Vion binding
p23
I10083
tp24
a(Vsmall molecule metabolic process
p25
I9233
tp26
a(Vbiosynthetic process
p27
I8299
tp28
a(Vcellular protein modification process
p29
I7886
tp30
a(Vcatabolic process
p31
I6654
tp32
a(Vimmune system process
p33
I5969
tp34
a(Vcell differentiation
p35
I5770
tp36
a(Vcellular component assembly
p37
I4992
tp38
a(Vcytosol
p39
I4616
tp40
a(Venzyme binding
p41
I4588
tp42
a(Vlipid metabolic process
p43
I4392
tp44
a(Vlocomotion
p45
I3869
tp46
a(Vanatomical structure formation involved in morphogenesis
p47
I3598
tp48
a(Vnucleolus
p49
I3598
tp50
a(Vtransmembrane transporter activity
p51
I3528
tp52
a(Vvesicle-mediated transport
p53
I3484
tp54
a(Vplasma membrane
p55
I3425
tp56
a(Vnucleus
p57
I3417
tp58
a(VDNA metabolic process
p59
I3404
tp60
a(VDNA binding
p61
I3070
tp62
a(Vchromosome organization
p63
I3043
tp64
a(Vhomeostatic process
p65
I2968
tp66
a(Vcytoplasm
p67
I2862
tp68
a(Vcell motility
p69
I2761
tp70
a(Vmacromolecular complex assembly
p71
I2720
tp72
a(Voxidoreductase activity
p73
I2584
tp74
a(Vtransmembrane transport
p75
I2579
tp76
a(Vneurological system process
p77
I2575
tp78
a(Vcarbohydrate metabolic process
p79
I2482
tp80
a(Vcytoskeletal protein binding
p81
I2424
tp82
a(Vnucleobase-containing compound catabolic process
p83
I2411
tp84
a(Vgrowth
p85
I2345
tp86
a(Vembryo development
p87
I2301
tp88
a(Vprotein maturation
p89
I2279
tp90
a(Vkinase activity
p91
I2272
tp92
a(Vsignal transducer activity
p93
I2241
tp94
a(Vprotein complex assembly
p95
I2215
tp96
a(Vcytoskeleton organization
p97
I2182
tp98
a(Vcytoplasmic membrane-bounded vesicle
p99
I1860
tp100
a(VGolgi apparatus
p101
I1854
tp102
a(Vlipid binding
p103
I1841
tp104
a(VRNA binding
p105
I1809
tp106
a(Vmitochondrion
p107
I1788
tp108
a(Vcell adhesion
p109
I1749
tp110
a(Vcytoskeleton
p111
I1722
tp112
a(Vcellular amino acid metabolic process
p113
I1604
tp114
a(Vcell-cell signaling
p115
I1556
tp116
a(Vendosome
p117
I1535
tp118
a(Vmembrane organization
p119
I1519
tp120
a(Vendoplasmic reticulum
p121
I1519
tp122
a(Vpeptidase activity
p123
I1467
tp124
a(Venzyme regulator activity
p125
I1446
tp126
a(Vligase activity
p127
I1433
tp128
a(Vcell proliferation
p129
I1432
tp130
a(Vcell death
p131
I1426
tp132
a(VATPase activity
p133
I1413
tp134
a(Vtranscription factor binding
p135
I1336
tp136
a(Vmicrotubule organizing center
p137
I1336
tp138
a(Vnucleoplasm
p139
I1314
tp140
a(Vcell morphogenesis
p141
I1311
tp142
a(Vprotein binding transcription factor activity
p143
I1268
tp144
a(Vnucleic acid binding transcription factor activity
p145
I1199
tp146
a(Vstructural molecule activity
p147
I1016
tp148
a(Vextracellular region
p149
I982
tp150
a(Vsulfur compound metabolic process
p151
I934
tp152
a(Vprotein targeting
p153
I919
tp154
a(Vcilium
p155
I859
tp156
a(Vextracellular space
p157
I836
tp158
a(Vcofactor metabolic process
p159
I813
tp160
a(Vvacuole
p161
I798
tp162
a(Vtransferase activity, transferring acyl groups
p163
I790
tp164
a(VmRNA processing
p165
I767
tp166
a(Vextracellular matrix organization
p167
I762
tp168
a(Vsymbiosis, encompassing mutualism through parasitism
p169
I760
tp170
a(Vphosphatase activity
p171
I742
tp172
a(Vgeneration of precursor metabolites and energy
p173
I716
tp174
a(Vcell cycle
p175
I714
tp176
a(Vtransferase activity, transferring glycosyl groups
p177
I642
tp178
a(Vcell junction organization
p179
I616
tp180
a(Vaging
p181
I610
tp182
a(Vnucleocytoplasmic transport
p183
I603
tp184
a(Vhelicase activity
p185
I583
tp186
a(Vreproduction
p187
I581
tp188
a(Vnuclease activity
p189
I559
tp190
a(Vcell division
p191
I544
tp192
a(Vcirculatory system process
p193
I518
tp194
a(Vdevelopmental maturation
p195
I507
tp196
a(Vlyase activity
p197
I476
tp198
a(Vmethyltransferase activity
p199
I474
tp200
a(Vcytoskeleton-dependent intracellular transport
p201
I461
tp202
a(Vplastid
p203
I458
tp204
a(Vmitochondrion organization
p205
I458
tp206
a(Vlysosome
p207
I454
tp208
a(Vchromosome
p209
I418
tp210
a(Vprotein folding
p211
I406
tp212
a(Vribonucleoprotein complex assembly
p213
I395
tp214
a(Vhistone binding
p215
I393
tp216
a(VGTPase activity
p217
I353
tp218
a(Vproteinaceous extracellular matrix
p219
I347
tp220
a(Vplasma membrane organization
p221
I343
tp222
a(Vsecondary metabolic process
p223
I341
tp224
a(Vnuclear envelope
p225
I336
tp226
a(Vexternal encapsulating structure
p227
I304
tp228
a(Visomerase activity
p229
I301
tp230
a(Vmitosis
p231
I296
tp232
a(Vcell wall
p233
I295
tp234
a(VmRNA binding
p235
I287
tp236
a(Vvacuolar transport
p237
I282
tp238
a(Vhydrolase activity, acting on carbon-nitrogen (but not peptide) bonds
p239
I276
tp240
a(Vnucleotidyltransferase activity
p241
I275
tp242
a(Vprotein binding, bridging
p243
I268
tp244
a(Vhydrolase activity, acting on glycosyl bonds
p245
I267
tp246
a(Vsmall conjugating protein binding
p247
I250
tp248
a(Vchromosome segregation
p249
I232
tp250
a(Vcell wall organization or biogenesis
p251
I228
tp252
a(Vperoxisome
p253
I221
tp254
a(VtRNA metabolic process
p255
I209
tp256
a(Vprotein transporter activity
p257
I198
tp258
a(Vstructural constituent of ribosome
p259
I190
tp260
a(Vunfolded protein binding
p261
I170
tp262
a(Vlipid particle
p263
I168
tp264
a(Vtranslation factor activity, nucleic acid binding
p265
I167
tp266
a(Vtranslation
p267
I145
tp268
a(Vribosome
p269
I133
tp270
a(Vtransferase activity, transferring alkyl or aryl (other than methyl) groups
p271
I122
tp272
a(Vnuclear chromosome
p273
I114
tp274
a(Vintracellular
p275
I113
tp276
a(Vpigmentation
p277
I113
tp278
a(Vribosome biogenesis
p279
I108
tp280
a(VrRNA binding
p281
I66
tp282
a(Vthylakoid
p283
I56
tp284
a(Vnitrogen cycle metabolic process
p285
I41
tp286
a(Vphotosynthesis
p287
I19
tp288
a(Vcell
p289
I18
tp290
a(Vtransposition
p291
I6
tp292
a(VRNA modification guide activity
p293
I1
tp294
aa(lp295
(g3
L6372L
tp296
a(g5
L4365L
tp297
a(g7
L2787L
tp298
a(g9
L21685L
tp299
a(g11
L26888L
tp300
a(g13
L5491L
tp301
a(g15
L5801L
tp302
a(g17
L18268L
tp303
a(g19
L21693L
tp304
a(g21
L5613L
tp305
a(g23
L21630L
tp306
a(g25
L22689L
tp307
a(g27
L7192L
tp308
a(g29
L5168L
tp309
a(g31
L7190L
tp310
a(g33
L1781L
tp311
a(g35
L13924L
tp312
a(g37
L13633L
tp313
a(g39
L4599L
tp314
a(g41
L12968L
tp315
a(g43
L5326L
tp316
a(g45
L20507L
tp317
a(g47
L26682L
tp318
a(g49
L4507L
tp319
a(g51
L13690L
tp320
a(g53
L10381L
tp321
a(g55
L4644L
tp322
a(g57
L4422L
tp323
a(g59
L4995L
tp324
a(g61
L2790L
tp325
a(g63
L28228L
tp326
a(g65
L21086L
tp327
a(g67
L4514L
tp328
a(g69
L26901L
tp329
a(g71
L31581L
tp330
a(g73
L10598L
tp331
a(g75
L29927L
tp332
a(g77
L27837L
tp333
a(g79
L4725L
tp334
a(g81
L6320L
tp335
a(g83
L18282L
tp336
a(g85
L20503L
tp337
a(g87
L7881L
tp338
a(g89
L28535L
tp339
a(g91
L10466L
tp340
a(g93
L3827L
tp341
a(g95
L5165L
tp342
a(g97
L5663L
tp343
a(g99
L10229L
tp344
a(g101
L4567L
tp345
a(g103
L6500L
tp346
a(g105
L2830L
tp347
a(g107
L4515L
tp348
a(g109
L5791L
tp349
a(g111
L4621L
tp350
a(g113
L5218L
tp351
a(g115
L5896L
tp352
a(g117
L4542L
tp353
a(g119
L30984L
tp354
a(g121
L4556L
tp355
a(g123
L6448L
tp356
a(g125
L14001L
tp357
a(g127
L10950L
tp358
a(g129
L6494L
tp359
a(g131
L6436L
tp360
a(g133
L10963L
tp361
a(g135
L6357L
tp362
a(g137
L4586L
tp363
a(g139
L4439L
tp364
a(g141
L594L
tp365
a(g143
L677L
tp366
a(g145
L759L
tp367
a(g147
L4118L
tp368
a(g149
L4366L
tp369
a(g151
L5471L
tp370
a(g153
L5302L
tp371
a(g155
L4684L
tp372
a(g157
L4405L
tp373
a(g159
L28144L
tp374
a(g161
L4546L
tp375
a(g163
L10829L
tp376
a(g165
L5112L
tp377
a(g167
L13967L
tp378
a(g169
L22810L
tp379
a(g171
L10870L
tp380
a(g173
L4838L
tp381
a(g175
L5695L
tp382
a(g177
L10840L
tp383
a(g179
L17965L
tp384
a(g181
L6169L
tp385
a(g183
L5582L
tp386
a(g185
L3404L
tp387
a(g187
L3L
tp388
a(g189
L3518L
tp389
a(g191
L28251L
tp390
a(g193
L2364L
tp391
a(g195
L13274L
tp392
a(g197
L10905L
tp393
a(g199
L6389L
tp394
a(g201
L14427L
tp395
a(g203
L7644L
tp396
a(g205
L5658L
tp397
a(g207
L4538L
tp398
a(g209
L4475L
tp399
a(g211
L5161L
tp400
a(g213
L13644L
tp401
a(g215
L20900L
tp402
a(g217
L2991L
tp403
a(g219
L4368L
tp404
a(g221
L5662L
tp405
a(g223
L12827L
tp406
a(g225
L4423L
tp407
a(g227
L14078L
tp408
a(g229
L10929L
tp409
a(g231
L5712L
tp410
a(g233
L4408L
tp411
a(g235
L2835L
tp412
a(g237
L5682L
tp413
a(g239
L10886L
tp414
a(g241
L10860L
tp415
a(g243
L14396L
tp416
a(g245
L10876L
tp417
a(g247
L15840L
tp418
a(g249
L5705L
tp419
a(g251
L33137L
tp420
a(g253
L4550L
tp421
a(g255
L5114L
tp422
a(g257
L6747L
tp423
a(g259
L2841L
tp424
a(g261
L28040L
tp425
a(g263
L4583L
tp426
a(g265
L6358L
tp427
a(g267
L5126L
tp428
a(g269
L4609L
tp429
a(g271
L10848L
tp430
a(g273
L201L
tp431
a(g275
L4411L
tp432
a(g277
L21900L
tp433
a(g279
L20770L
tp434
a(g281
L12918L
tp435
a(g283
L7683L
tp436
a(g285
L33512L
tp437
a(g287
L10192L
tp438
a(g289
L4412L
tp439
a(g291
L15852L
tp440
a(g293
L14288L
tp441
aaI818089
a.