(lp1
(lp2
(Vbiological_process
p3
I279604
tp4
a(Vcellular_component
p5
I89007
tp6
a(Vmolecular_function
p7
I71545
tp8
a(Vorganelle
p9
I23733
tp10
a(Vanatomical structure development
p11
I22141
tp12
a(Vtransport
p13
I15311
tp14
a(Vsignal transduction
p15
I12425
tp16
a(Vcellular nitrogen compound metabolic process
p17
I11229
tp18
a(Vresponse to stress
p19
I9960
tp20
a(Vprotein complex
p21
I9510
tp22
a(Vion binding
p23
I8259
tp24
a(Vsmall molecule metabolic process
p25
I7963
tp26
a(Vbiosynthetic process
p27
I7449
tp28
a(Vcellular protein modification process
p29
I6625
tp30
a(Vcatabolic process
p31
I5503
tp32
a(Vcell differentiation
p33
I5332
tp34
a(Vimmune system process
p35
I5074
tp36
a(Vcellular component assembly
p37
I4122
tp38
a(Venzyme binding
p39
I3726
tp40
a(Vlipid metabolic process
p41
I3722
tp42
a(Vcytosol
p43
I3665
tp44
a(Vtransmembrane transporter activity
p45
I3476
tp46
a(Vlocomotion
p47
I3245
tp48
a(Vplasma membrane
p49
I3167
tp50
a(Vanatomical structure formation involved in morphogenesis
p51
I3116
tp52
a(Vnucleus
p53
I3012
tp54
a(Vnucleolus
p55
I2974
tp56
a(Vvesicle-mediated transport
p57
I2878
tp58
a(VDNA metabolic process
p59
I2823
tp60
a(VDNA binding
p61
I2705
tp62
a(Vhomeostatic process
p63
I2698
tp64
a(Vsignal transducer activity
p65
I2645
tp66
a(Vcytoplasm
p67
I2513
tp68
a(Vchromosome organization
p69
I2493
tp70
a(Vneurological system process
p71
I2465
tp72
a(Vtransmembrane transport
p73
I2413
tp74
a(Vcell motility
p75
I2313
tp76
a(Vmacromolecular complex assembly
p77
I2264
tp78
a(Voxidoreductase activity
p79
I2187
tp80
a(Vcarbohydrate metabolic process
p81
I2152
tp82
a(Vgrowth
p83
I2096
tp84
a(Vprotein maturation
p85
I2006
tp86
a(Vcytoskeletal protein binding
p87
I2000
tp88
a(Vembryo development
p89
I1988
tp90
a(Vnucleobase-containing compound catabolic process
p91
I1872
tp92
a(Vprotein complex assembly
p93
I1870
tp94
a(Vkinase activity
p95
I1832
tp96
a(Vcell-cell signaling
p97
I1802
tp98
a(Vcytoskeleton organization
p99
I1718
tp100
a(Vcytoplasmic membrane-bounded vesicle
p101
I1645
tp102
a(VGolgi apparatus
p103
I1534
tp104
a(Vlipid binding
p105
I1496
tp106
a(Vcytoskeleton
p107
I1485
tp108
a(VRNA binding
p109
I1459
tp110
a(Vcell adhesion
p111
I1437
tp112
a(Vmitochondrion
p113
I1431
tp114
a(Vcellular amino acid metabolic process
p115
I1356
tp116
a(Vendoplasmic reticulum
p117
I1339
tp118
a(Vpeptidase activity
p119
I1297
tp120
a(Vcell proliferation
p121
I1277
tp122
a(Vcell death
p123
I1275
tp124
a(Vmembrane organization
p125
I1253
tp126
a(Vendosome
p127
I1253
tp128
a(Vtranscription factor binding
p129
I1145
tp130
a(Venzyme regulator activity
p131
I1141
tp132
a(Vcell morphogenesis
p133
I1135
tp134
a(Vnucleic acid binding transcription factor activity
p135
I1133
tp136
a(Vligase activity
p137
I1106
tp138
a(Vmicrotubule organizing center
p139
I1104
tp140
a(Vprotein binding transcription factor activity
p141
I1072
tp142
a(Vnucleoplasm
p143
I1063
tp144
a(VATPase activity
p145
I1031
tp146
a(Vsulfur compound metabolic process
p147
I917
tp148
a(Vextracellular region
p149
I905
tp150
a(Vextracellular space
p151
I793
tp152
a(Vstructural molecule activity
p153
I785
tp154
a(Vcilium
p155
I756
tp156
a(Vvacuole
p157
I746
tp158
a(Vtransferase activity, transferring acyl groups
p159
I721
tp160
a(Vprotein targeting
p161
I711
tp162
a(Vextracellular matrix organization
p163
I693
tp164
a(Vcirculatory system process
p165
I690
tp166
a(Vcofactor metabolic process
p167
I669
tp168
a(Vcell cycle
p169
I646
tp170
a(Vphosphatase activity
p171
I631
tp172
a(Vtransferase activity, transferring glycosyl groups
p173
I604
tp174
a(VmRNA processing
p175
I593
tp176
a(Vsymbiosis, encompassing mutualism through parasitism
p177
I590
tp178
a(Vgeneration of precursor metabolites and energy
p179
I559
tp180
a(Vaging
p181
I521
tp182
a(Vcell division
p183
I486
tp184
a(Vreproduction
p185
I482
tp186
a(Vcell junction organization
p187
I476
tp188
a(Vnucleocytoplasmic transport
p189
I470
tp190
a(Vhelicase activity
p191
I469
tp192
a(Vnuclease activity
p193
I460
tp194
a(Vdevelopmental maturation
p195
I435
tp196
a(Vlysosome
p197
I429
tp198
a(Vmethyltransferase activity
p199
I428
tp200
a(Vlyase activity
p201
I405
tp202
a(Vplastid
p203
I391
tp204
a(Vmitochondrion organization
p205
I379
tp206
a(Vchromosome
p207
I379
tp208
a(Vcytoskeleton-dependent intracellular transport
p209
I349
tp210
a(Vprotein folding
p211
I329
tp212
a(Vplasma membrane organization
p213
I325
tp214
a(Vproteinaceous extracellular matrix
p215
I315
tp216
a(VGTPase activity
p217
I311
tp218
a(Vribonucleoprotein complex assembly
p219
I308
tp220
a(Vhistone binding
p221
I302
tp222
a(Vsecondary metabolic process
p223
I290
tp224
a(Vhydrolase activity, acting on glycosyl bonds
p225
I272
tp226
a(Vexternal encapsulating structure
p227
I262
tp228
a(Vnuclear envelope
p229
I261
tp230
a(Visomerase activity
p231
I254
tp232
a(Vcell wall
p233
I252
tp234
a(Vhydrolase activity, acting on carbon-nitrogen (but not peptide) bonds
p235
I243
tp236
a(Vmitosis
p237
I239
tp238
a(VmRNA binding
p239
I235
tp240
a(Vprotein binding, bridging
p241
I221
tp242
a(Vnucleotidyltransferase activity
p243
I215
tp244
a(Vvacuolar transport
p245
I214
tp246
a(Vchromosome segregation
p247
I205
tp248
a(Vperoxisome
p249
I201
tp250
a(Vsmall conjugating protein binding
p251
I193
tp252
a(Vcell wall organization or biogenesis
p253
I186
tp254
a(VtRNA metabolic process
p255
I177
tp256
a(Vunfolded protein binding
p257
I145
tp258
a(Vlipid particle
p259
I144
tp260
a(Vtranslation factor activity, nucleic acid binding
p261
I138
tp262
a(Vprotein transporter activity
p263
I128
tp264
a(Vstructural constituent of ribosome
p265
I123
tp266
a(Vribosome
p267
I121
tp268
a(Vtranslation
p269
I120
tp270
a(Vtransferase activity, transferring alkyl or aryl (other than methyl) groups
p271
I119
tp272
a(Vintracellular
p273
I115
tp274
a(Vpigmentation
p275
I102
tp276
a(Vnuclear chromosome
p277
I100
tp278
a(Vribosome biogenesis
p279
I79
tp280
a(VrRNA binding
p281
I56
tp282
a(Vthylakoid
p283
I52
tp284
a(Vnitrogen cycle metabolic process
p285
I25
tp286
a(Vphotosynthesis
p287
I16
tp288
a(Vcell
p289
I9
tp290
a(Vtransposition
p291
I6
tp292
a(VRNA modification guide activity
p293
I1
tp294
aa(lp295
(g3
L6372L
tp296
a(g5
L4365L
tp297
a(g7
L2787L
tp298
a(g9
L21685L
tp299
a(g11
L26888L
tp300
a(g13
L5491L
tp301
a(g15
L5801L
tp302
a(g17
L18268L
tp303
a(g19
L5613L
tp304
a(g21
L21693L
tp305
a(g23
L21630L
tp306
a(g25
L22689L
tp307
a(g27
L7192L
tp308
a(g29
L5168L
tp309
a(g31
L7190L
tp310
a(g33
L13924L
tp311
a(g35
L1781L
tp312
a(g37
L13633L
tp313
a(g39
L12968L
tp314
a(g41
L5326L
tp315
a(g43
L4599L
tp316
a(g45
L13690L
tp317
a(g47
L20507L
tp318
a(g49
L4644L
tp319
a(g51
L26682L
tp320
a(g53
L4422L
tp321
a(g55
L4507L
tp322
a(g57
L10381L
tp323
a(g59
L4995L
tp324
a(g61
L2790L
tp325
a(g63
L21086L
tp326
a(g65
L3827L
tp327
a(g67
L4514L
tp328
a(g69
L28228L
tp329
a(g71
L27837L
tp330
a(g73
L29927L
tp331
a(g75
L26901L
tp332
a(g77
L31581L
tp333
a(g79
L10598L
tp334
a(g81
L4725L
tp335
a(g83
L20503L
tp336
a(g85
L28535L
tp337
a(g87
L6320L
tp338
a(g89
L7881L
tp339
a(g91
L18282L
tp340
a(g93
L5165L
tp341
a(g95
L10466L
tp342
a(g97
L5896L
tp343
a(g99
L5663L
tp344
a(g101
L10229L
tp345
a(g103
L4567L
tp346
a(g105
L6500L
tp347
a(g107
L4621L
tp348
a(g109
L2830L
tp349
a(g111
L5791L
tp350
a(g113
L4515L
tp351
a(g115
L5218L
tp352
a(g117
L4556L
tp353
a(g119
L6448L
tp354
a(g121
L6494L
tp355
a(g123
L6436L
tp356
a(g125
L30984L
tp357
a(g127
L4542L
tp358
a(g129
L6357L
tp359
a(g131
L14001L
tp360
a(g133
L594L
tp361
a(g135
L759L
tp362
a(g137
L10950L
tp363
a(g139
L4586L
tp364
a(g141
L677L
tp365
a(g143
L4439L
tp366
a(g145
L10963L
tp367
a(g147
L5471L
tp368
a(g149
L4366L
tp369
a(g151
L4405L
tp370
a(g153
L4118L
tp371
a(g155
L4684L
tp372
a(g157
L4546L
tp373
a(g159
L10829L
tp374
a(g161
L5302L
tp375
a(g163
L13967L
tp376
a(g165
L2364L
tp377
a(g167
L28144L
tp378
a(g169
L5695L
tp379
a(g171
L10870L
tp380
a(g173
L10840L
tp381
a(g175
L5112L
tp382
a(g177
L22810L
tp383
a(g179
L4838L
tp384
a(g181
L6169L
tp385
a(g183
L28251L
tp386
a(g185
L3L
tp387
a(g187
L17965L
tp388
a(g189
L5582L
tp389
a(g191
L3404L
tp390
a(g193
L3518L
tp391
a(g195
L13274L
tp392
a(g197
L4538L
tp393
a(g199
L6389L
tp394
a(g201
L10905L
tp395
a(g203
L7644L
tp396
a(g205
L5658L
tp397
a(g207
L4475L
tp398
a(g209
L14427L
tp399
a(g211
L5161L
tp400
a(g213
L5662L
tp401
a(g215
L4368L
tp402
a(g217
L2991L
tp403
a(g219
L13644L
tp404
a(g221
L20900L
tp405
a(g223
L12827L
tp406
a(g225
L10876L
tp407
a(g227
L14078L
tp408
a(g229
L4423L
tp409
a(g231
L10929L
tp410
a(g233
L4408L
tp411
a(g235
L10886L
tp412
a(g237
L5712L
tp413
a(g239
L2835L
tp414
a(g241
L14396L
tp415
a(g243
L10860L
tp416
a(g245
L5682L
tp417
a(g247
L5705L
tp418
a(g249
L4550L
tp419
a(g251
L15840L
tp420
a(g253
L33137L
tp421
a(g255
L5114L
tp422
a(g257
L28040L
tp423
a(g259
L4583L
tp424
a(g261
L6358L
tp425
a(g263
L6747L
tp426
a(g265
L2841L
tp427
a(g267
L4609L
tp428
a(g269
L5126L
tp429
a(g271
L10848L
tp430
a(g273
L4411L
tp431
a(g275
L21900L
tp432
a(g277
L201L
tp433
a(g279
L20770L
tp434
a(g281
L12918L
tp435
a(g283
L7683L
tp436
a(g285
L33512L
tp437
a(g287
L10192L
tp438
a(g289
L4412L
tp439
a(g291
L15852L
tp440
a(g293
L14288L
tp441
aaI730072
a.