(lp1
(lp2
(Vbiological_process
p3
I232170
tp4
a(Vcellular_component
p5
I79574
tp6
a(Vmolecular_function
p7
I65733
tp8
a(Vorganelle
p9
I21475
tp10
a(Vanatomical structure development
p11
I17744
tp12
a(Vtransport
p13
I13238
tp14
a(Vcellular nitrogen compound metabolic process
p15
I11555
tp16
a(Vsignal transduction
p17
I10062
tp18
a(Vprotein complex
p19
I9690
tp20
a(Vresponse to stress
p21
I8758
tp22
a(Vion binding
p23
I8190
tp24
a(Vsmall molecule metabolic process
p25
I7823
tp26
a(Vbiosynthetic process
p27
I7184
tp28
a(Vcellular protein modification process
p29
I6170
tp30
a(Vcatabolic process
p31
I5683
tp32
a(Vimmune system process
p33
I4469
tp34
a(Vcell differentiation
p35
I4291
tp36
a(Vcellular component assembly
p37
I4103
tp38
a(Vcytosol
p39
I3981
tp40
a(Venzyme binding
p41
I3589
tp42
a(Vlipid metabolic process
p43
I3503
tp44
a(Vnucleolus
p45
I3001
tp46
a(VDNA metabolic process
p47
I2963
tp48
a(Vvesicle-mediated transport
p49
I2832
tp50
a(Vlocomotion
p51
I2823
tp52
a(Vplasma membrane
p53
I2771
tp54
a(Vtransmembrane transporter activity
p55
I2763
tp56
a(Vanatomical structure formation involved in morphogenesis
p57
I2722
tp58
a(Vnucleus
p59
I2659
tp60
a(Vchromosome organization
p61
I2568
tp62
a(VDNA binding
p63
I2434
tp64
a(Vmacromolecular complex assembly
p65
I2301
tp66
a(Vhomeostatic process
p67
I2288
tp68
a(Vcarbohydrate metabolic process
p69
I2179
tp70
a(Vcytoplasm
p71
I2145
tp72
a(Voxidoreductase activity
p73
I2139
tp74
a(Vtransmembrane transport
p75
I2053
tp76
a(Vnucleobase-containing compound catabolic process
p77
I2051
tp78
a(Vembryo development
p79
I2001
tp80
a(Vcell motility
p81
I1996
tp82
a(Vcytoskeletal protein binding
p83
I1963
tp84
a(Vneurological system process
p85
I1895
tp86
a(Vprotein maturation
p87
I1872
tp88
a(Vgrowth
p89
I1851
tp90
a(Vprotein complex assembly
p91
I1844
tp92
a(Vcytoskeleton organization
p93
I1830
tp94
a(Vkinase activity
p95
I1644
tp96
a(VRNA binding
p97
I1612
tp98
a(Vsignal transducer activity
p99
I1607
tp100
a(Vcytoplasmic membrane-bounded vesicle
p101
I1481
tp102
a(Vmitochondrion
p103
I1460
tp104
a(VGolgi apparatus
p105
I1459
tp106
a(Vcellular amino acid metabolic process
p107
I1419
tp108
a(Vlipid binding
p109
I1412
tp110
a(Vcytoskeleton
p111
I1360
tp112
a(Vendoplasmic reticulum
p113
I1236
tp114
a(Vmembrane organization
p115
I1208
tp116
a(VATPase activity
p117
I1183
tp118
a(Venzyme regulator activity
p119
I1182
tp120
a(Vcell adhesion
p121
I1173
tp122
a(Vcell-cell signaling
p123
I1162
tp124
a(Vendosome
p125
I1150
tp126
a(Vnucleoplasm
p127
I1145
tp128
a(Vpeptidase activity
p129
I1135
tp130
a(Vcell death
p131
I1129
tp132
a(Vmicrotubule organizing center
p133
I1128
tp134
a(Vcell proliferation
p135
I1125
tp136
a(Vligase activity
p137
I1118
tp138
a(Vtranscription factor binding
p139
I1089
tp140
a(Vprotein binding transcription factor activity
p141
I1027
tp142
a(Vcell morphogenesis
p143
I953
tp144
a(Vnucleic acid binding transcription factor activity
p145
I937
tp146
a(Vstructural molecule activity
p147
I878
tp148
a(Vsulfur compound metabolic process
p149
I845
tp150
a(Vprotein targeting
p151
I813
tp152
a(Vextracellular region
p153
I737
tp154
a(Vcofactor metabolic process
p155
I721
tp156
a(Vtransferase activity, transferring acyl groups
p157
I689
tp158
a(VmRNA processing
p159
I667
tp160
a(Vvacuole
p161
I644
tp162
a(Vcilium
p163
I642
tp164
a(Vextracellular space
p165
I635
tp166
a(Vgeneration of precursor metabolites and energy
p167
I626
tp168
a(Vsymbiosis, encompassing mutualism through parasitism
p169
I624
tp170
a(Vphosphatase activity
p171
I604
tp172
a(Vextracellular matrix organization
p173
I575
tp174
a(Vcell cycle
p175
I563
tp176
a(Vtransferase activity, transferring glycosyl groups
p177
I525
tp178
a(Vcell junction organization
p179
I503
tp180
a(Vnucleocytoplasmic transport
p181
I502
tp182
a(Vhelicase activity
p183
I502
tp184
a(Vaging
p185
I493
tp186
a(Vreproduction
p187
I449
tp188
a(Vnuclease activity
p189
I442
tp190
a(Vplastid
p191
I433
tp192
a(Vcell division
p193
I428
tp194
a(Vlyase activity
p195
I418
tp196
a(Vmethyltransferase activity
p197
I397
tp198
a(Vdevelopmental maturation
p199
I396
tp200
a(Vcirculatory system process
p201
I394
tp202
a(Vcytoskeleton-dependent intracellular transport
p203
I385
tp204
a(Vprotein folding
p205
I383
tp206
a(Vmitochondrion organization
p207
I370
tp208
a(Vribonucleoprotein complex assembly
p209
I370
tp210
a(Vchromosome
p211
I367
tp212
a(Vlysosome
p213
I355
tp214
a(Vhistone binding
p215
I315
tp216
a(VGTPase activity
p217
I315
tp218
a(Vsecondary metabolic process
p219
I295
tp220
a(Visomerase activity
p221
I295
tp222
a(Vexternal encapsulating structure
p223
I295
tp224
a(Vcell wall
p225
I287
tp226
a(VmRNA binding
p227
I277
tp228
a(Vnuclear envelope
p229
I267
tp230
a(Vnucleotidyltransferase activity
p231
I265
tp232
a(Vplasma membrane organization
p233
I262
tp234
a(Vvacuolar transport
p235
I248
tp236
a(Vmitosis
p237
I243
tp238
a(Vhydrolase activity, acting on carbon-nitrogen (but not peptide) bonds
p239
I235
tp240
a(Vhydrolase activity, acting on glycosyl bonds
p241
I219
tp242
a(VtRNA metabolic process
p243
I219
tp244
a(Vchromosome segregation
p245
I215
tp246
a(Vprotein binding, bridging
p247
I204
tp248
a(Vproteinaceous extracellular matrix
p249
I202
tp250
a(Vsmall conjugating protein binding
p251
I198
tp252
a(Vcell wall organization or biogenesis
p253
I195
tp254
a(Vstructural constituent of ribosome
p255
I194
tp256
a(Vperoxisome
p257
I191
tp258
a(Vtranslation factor activity, nucleic acid binding
p259
I179
tp260
a(Vunfolded protein binding
p261
I175
tp262
a(Vlipid particle
p263
I157
tp264
a(Vprotein transporter activity
p265
I142
tp266
a(Vtranslation
p267
I140
tp268
a(Vribosome
p269
I127
tp270
a(Vnuclear chromosome
p271
I108
tp272
a(Vtransferase activity, transferring alkyl or aryl (other than methyl) groups
p273
I106
tp274
a(Vpigmentation
p275
I94
tp276
a(Vribosome biogenesis
p277
I93
tp278
a(Vintracellular
p279
I90
tp280
a(VrRNA binding
p281
I57
tp282
a(Vthylakoid
p283
I54
tp284
a(Vnitrogen cycle metabolic process
p285
I40
tp286
a(Vtransposition
p287
I22
tp288
a(Vphotosynthesis
p289
I16
tp290
a(Vcell
p291
I11
tp292
a(VRNA modification guide activity
p293
I1
tp294
aa(lp295
(g3
L6372L
tp296
a(g5
L4365L
tp297
a(g7
L2787L
tp298
a(g9
L21685L
tp299
a(g11
L26888L
tp300
a(g13
L5491L
tp301
a(g15
L18268L
tp302
a(g17
L5801L
tp303
a(g19
L21693L
tp304
a(g21
L5613L
tp305
a(g23
L21630L
tp306
a(g25
L22689L
tp307
a(g27
L7192L
tp308
a(g29
L5168L
tp309
a(g31
L7190L
tp310
a(g33
L1781L
tp311
a(g35
L13924L
tp312
a(g37
L13633L
tp313
a(g39
L4599L
tp314
a(g41
L12968L
tp315
a(g43
L5326L
tp316
a(g45
L4507L
tp317
a(g47
L4995L
tp318
a(g49
L10381L
tp319
a(g51
L20507L
tp320
a(g53
L4644L
tp321
a(g55
L13690L
tp322
a(g57
L26682L
tp323
a(g59
L4422L
tp324
a(g61
L28228L
tp325
a(g63
L2790L
tp326
a(g65
L31581L
tp327
a(g67
L21086L
tp328
a(g69
L4725L
tp329
a(g71
L4514L
tp330
a(g73
L10598L
tp331
a(g75
L29927L
tp332
a(g77
L18282L
tp333
a(g79
L7881L
tp334
a(g81
L26901L
tp335
a(g83
L6320L
tp336
a(g85
L27837L
tp337
a(g87
L28535L
tp338
a(g89
L20503L
tp339
a(g91
L5165L
tp340
a(g93
L5663L
tp341
a(g95
L10466L
tp342
a(g97
L2830L
tp343
a(g99
L3827L
tp344
a(g101
L10229L
tp345
a(g103
L4515L
tp346
a(g105
L4567L
tp347
a(g107
L5218L
tp348
a(g109
L6500L
tp349
a(g111
L4621L
tp350
a(g113
L4556L
tp351
a(g115
L30984L
tp352
a(g117
L10963L
tp353
a(g119
L14001L
tp354
a(g121
L5791L
tp355
a(g123
L5896L
tp356
a(g125
L4542L
tp357
a(g127
L4439L
tp358
a(g129
L6448L
tp359
a(g131
L6436L
tp360
a(g133
L4586L
tp361
a(g135
L6494L
tp362
a(g137
L10950L
tp363
a(g139
L6357L
tp364
a(g141
L677L
tp365
a(g143
L594L
tp366
a(g145
L759L
tp367
a(g147
L4118L
tp368
a(g149
L5471L
tp369
a(g151
L5302L
tp370
a(g153
L4366L
tp371
a(g155
L28144L
tp372
a(g157
L10829L
tp373
a(g159
L5112L
tp374
a(g161
L4546L
tp375
a(g163
L4684L
tp376
a(g165
L4405L
tp377
a(g167
L4838L
tp378
a(g169
L22810L
tp379
a(g171
L10870L
tp380
a(g173
L13967L
tp381
a(g175
L5695L
tp382
a(g177
L10840L
tp383
a(g179
L17965L
tp384
a(g181
L5582L
tp385
a(g183
L3404L
tp386
a(g185
L6169L
tp387
a(g187
L3L
tp388
a(g189
L3518L
tp389
a(g191
L7644L
tp390
a(g193
L28251L
tp391
a(g195
L10905L
tp392
a(g197
L6389L
tp393
a(g199
L13274L
tp394
a(g201
L2364L
tp395
a(g203
L14427L
tp396
a(g205
L5161L
tp397
a(g207
L5658L
tp398
a(g209
L13644L
tp399
a(g211
L4475L
tp400
a(g213
L4538L
tp401
a(g215
L20900L
tp402
a(g217
L2991L
tp403
a(g219
L12827L
tp404
a(g221
L10929L
tp405
a(g223
L14078L
tp406
a(g225
L4408L
tp407
a(g227
L2835L
tp408
a(g229
L4423L
tp409
a(g231
L10860L
tp410
a(g233
L5662L
tp411
a(g235
L5682L
tp412
a(g237
L5712L
tp413
a(g239
L10886L
tp414
a(g241
L10876L
tp415
a(g243
L5114L
tp416
a(g245
L5705L
tp417
a(g247
L14396L
tp418
a(g249
L4368L
tp419
a(g251
L15840L
tp420
a(g253
L33137L
tp421
a(g255
L2841L
tp422
a(g257
L4550L
tp423
a(g259
L6358L
tp424
a(g261
L28040L
tp425
a(g263
L4583L
tp426
a(g265
L6747L
tp427
a(g267
L5126L
tp428
a(g269
L4609L
tp429
a(g271
L201L
tp430
a(g273
L10848L
tp431
a(g275
L21900L
tp432
a(g277
L20770L
tp433
a(g279
L4411L
tp434
a(g281
L12918L
tp435
a(g283
L7683L
tp436
a(g285
L33512L
tp437
a(g287
L15852L
tp438
a(g289
L10192L
tp439
a(g291
L4412L
tp440
a(g293
L14288L
tp441
aaI644886
a.