(lp1
(lp2
(Vbiological_process
p3
I322367
tp4
a(Vcellular_component
p5
I107635
tp6
a(Vmolecular_function
p7
I87060
tp8
a(Vorganelle
p9
I28548
tp10
a(Vanatomical structure development
p11
I25138
tp12
a(Vtransport
p13
I18386
tp14
a(Vcellular nitrogen compound metabolic process
p15
I14287
tp16
a(Vsignal transduction
p17
I14260
tp18
a(Vresponse to stress
p19
I11885
tp20
a(Vprotein complex
p21
I11797
tp22
a(Vion binding
p23
I10592
tp24
a(Vsmall molecule metabolic process
p25
I9647
tp26
a(Vbiosynthetic process
p27
I8953
tp28
a(Vcellular protein modification process
p29
I7997
tp30
a(Vcatabolic process
p31
I6998
tp32
a(Vimmune system process
p33
I6229
tp34
a(Vcell differentiation
p35
I6156
tp36
a(Vcellular component assembly
p37
I5203
tp38
a(Vcytosol
p39
I4596
tp40
a(Venzyme binding
p41
I4561
tp42
a(Vlipid metabolic process
p43
I4541
tp44
a(Vtransmembrane transporter activity
p45
I4001
tp46
a(Vlocomotion
p47
I3999
tp48
a(Vplasma membrane
p49
I3884
tp50
a(Vanatomical structure formation involved in morphogenesis
p51
I3839
tp52
a(Vvesicle-mediated transport
p53
I3756
tp54
a(Vnucleolus
p55
I3709
tp56
a(Vnucleus
p57
I3590
tp58
a(VDNA metabolic process
p59
I3470
tp60
a(VDNA binding
p61
I3122
tp62
a(Vhomeostatic process
p63
I3112
tp64
a(Vchromosome organization
p65
I3078
tp66
a(Vcytoplasm
p67
I2937
tp68
a(Vtransmembrane transport
p69
I2921
tp70
a(Vmacromolecular complex assembly
p71
I2858
tp72
a(Vcell motility
p73
I2837
tp74
a(Vneurological system process
p75
I2750
tp76
a(Vsignal transducer activity
p77
I2720
tp78
a(Voxidoreductase activity
p79
I2640
tp80
a(Vcarbohydrate metabolic process
p81
I2555
tp82
a(Vgrowth
p83
I2554
tp84
a(Vnucleobase-containing compound catabolic process
p85
I2526
tp86
a(Vembryo development
p87
I2476
tp88
a(Vcytoskeletal protein binding
p89
I2464
tp90
a(Vprotein maturation
p91
I2461
tp92
a(Vkinase activity
p93
I2330
tp94
a(Vprotein complex assembly
p95
I2320
tp96
a(Vcytoskeleton organization
p97
I2236
tp98
a(Vcytoplasmic membrane-bounded vesicle
p99
I1983
tp100
a(Vlipid binding
p101
I1980
tp102
a(VRNA binding
p103
I1979
tp104
a(VGolgi apparatus
p105
I1922
tp106
a(Vcell adhesion
p107
I1845
tp108
a(Vcytoskeleton
p109
I1802
tp110
a(Vcell-cell signaling
p111
I1780
tp112
a(Vmitochondrion
p113
I1772
tp114
a(Vpeptidase activity
p115
I1740
tp116
a(Vcellular amino acid metabolic process
p117
I1715
tp118
a(Vendoplasmic reticulum
p119
I1613
tp120
a(Vcell death
p121
I1556
tp122
a(Vendosome
p123
I1545
tp124
a(Vmembrane organization
p125
I1521
tp126
a(Vcell proliferation
p127
I1505
tp128
a(Venzyme regulator activity
p129
I1498
tp130
a(Vmicrotubule organizing center
p131
I1386
tp132
a(VATPase activity
p133
I1362
tp134
a(Vligase activity
p135
I1339
tp136
a(Vtranscription factor binding
p137
I1319
tp138
a(Vcell morphogenesis
p139
I1307
tp140
a(Vnucleoplasm
p141
I1304
tp142
a(Vprotein binding transcription factor activity
p143
I1304
tp144
a(Vnucleic acid binding transcription factor activity
p145
I1192
tp146
a(Vextracellular region
p147
I1178
tp148
a(Vstructural molecule activity
p149
I1131
tp150
a(Vprotein targeting
p151
I1033
tp152
a(Vsulfur compound metabolic process
p153
I1000
tp154
a(Vextracellular space
p155
I986
tp156
a(Vcilium
p157
I921
tp158
a(Vextracellular matrix organization
p159
I853
tp160
a(Vtransferase activity, transferring acyl groups
p161
I842
tp162
a(Vphosphatase activity
p163
I837
tp164
a(Vvacuole
p165
I831
tp166
a(VmRNA processing
p167
I821
tp168
a(Vcofactor metabolic process
p169
I811
tp170
a(Vgeneration of precursor metabolites and energy
p171
I747
tp172
a(Vsymbiosis, encompassing mutualism through parasitism
p173
I738
tp174
a(Vcell cycle
p175
I729
tp176
a(Vcirculatory system process
p177
I659
tp178
a(Vtransferase activity, transferring glycosyl groups
p179
I643
tp180
a(Vaging
p181
I626
tp182
a(Vnucleocytoplasmic transport
p183
I616
tp184
a(Vreproduction
p185
I606
tp186
a(Vcell junction organization
p187
I595
tp188
a(Vnuclease activity
p189
I591
tp190
a(Vcell division
p191
I545
tp192
a(Vhelicase activity
p193
I545
tp194
a(Vplastid
p195
I539
tp196
a(Vlyase activity
p197
I525
tp198
a(Vdevelopmental maturation
p199
I503
tp200
a(Vlysosome
p201
I471
tp202
a(Vmethyltransferase activity
p203
I467
tp204
a(Vproteinaceous extracellular matrix
p205
I454
tp206
a(Vcytoskeleton-dependent intracellular transport
p207
I450
tp208
a(Vchromosome
p209
I443
tp210
a(Vmitochondrion organization
p211
I439
tp212
a(Vribonucleoprotein complex assembly
p213
I424
tp214
a(Vprotein folding
p215
I411
tp216
a(VGTPase activity
p217
I386
tp218
a(Vhistone binding
p219
I380
tp220
a(Vnuclear envelope
p221
I339
tp222
a(Vsecondary metabolic process
p223
I337
tp224
a(Vplasma membrane organization
p225
I335
tp226
a(Vexternal encapsulating structure
p227
I330
tp228
a(VmRNA binding
p229
I329
tp230
a(Vcell wall
p231
I324
tp232
a(Visomerase activity
p233
I309
tp234
a(Vnucleotidyltransferase activity
p235
I308
tp236
a(Vhydrolase activity, acting on glycosyl bonds
p237
I305
tp238
a(Vmitosis
p239
I290
tp240
a(Vstructural constituent of ribosome
p241
I286
tp242
a(Vhydrolase activity, acting on carbon-nitrogen (but not peptide) bonds
p243
I282
tp244
a(Vprotein binding, bridging
p245
I271
tp246
a(Vvacuolar transport
p247
I270
tp248
a(Vsmall conjugating protein binding
p249
I253
tp250
a(Vchromosome segregation
p251
I248
tp252
a(Vcell wall organization or biogenesis
p253
I241
tp254
a(Vperoxisome
p255
I234
tp256
a(VtRNA metabolic process
p257
I217
tp258
a(Vprotein transporter activity
p259
I181
tp260
a(Vtranslation factor activity, nucleic acid binding
p261
I181
tp262
a(Vlipid particle
p263
I178
tp264
a(Vunfolded protein binding
p265
I175
tp266
a(Vtranslation
p267
I155
tp268
a(Vribosome
p269
I140
tp270
a(Vribosome biogenesis
p271
I138
tp272
a(Vtransferase activity, transferring alkyl or aryl (other than methyl) groups
p273
I138
tp274
a(Vnuclear chromosome
p275
I132
tp276
a(Vintracellular
p277
I122
tp278
a(Vpigmentation
p279
I109
tp280
a(VrRNA binding
p281
I86
tp282
a(Vthylakoid
p283
I55
tp284
a(Vnitrogen cycle metabolic process
p285
I33
tp286
a(Vphotosynthesis
p287
I18
tp288
a(Vcell
p289
I11
tp290
a(Vtransposition
p291
I6
tp292
a(VRNA modification guide activity
p293
I2
tp294
aa(lp295
(g3
L6372L
tp296
a(g5
L4365L
tp297
a(g7
L2787L
tp298
a(g9
L21685L
tp299
a(g11
L26888L
tp300
a(g13
L5491L
tp301
a(g15
L18268L
tp302
a(g17
L5801L
tp303
a(g19
L5613L
tp304
a(g21
L21693L
tp305
a(g23
L21630L
tp306
a(g25
L22689L
tp307
a(g27
L7192L
tp308
a(g29
L5168L
tp309
a(g31
L7190L
tp310
a(g33
L1781L
tp311
a(g35
L13924L
tp312
a(g37
L13633L
tp313
a(g39
L4599L
tp314
a(g41
L12968L
tp315
a(g43
L5326L
tp316
a(g45
L13690L
tp317
a(g47
L20507L
tp318
a(g49
L4644L
tp319
a(g51
L26682L
tp320
a(g53
L10381L
tp321
a(g55
L4507L
tp322
a(g57
L4422L
tp323
a(g59
L4995L
tp324
a(g61
L2790L
tp325
a(g63
L21086L
tp326
a(g65
L28228L
tp327
a(g67
L4514L
tp328
a(g69
L29927L
tp329
a(g71
L31581L
tp330
a(g73
L26901L
tp331
a(g75
L27837L
tp332
a(g77
L3827L
tp333
a(g79
L10598L
tp334
a(g81
L4725L
tp335
a(g83
L20503L
tp336
a(g85
L18282L
tp337
a(g87
L7881L
tp338
a(g89
L6320L
tp339
a(g91
L28535L
tp340
a(g93
L10466L
tp341
a(g95
L5165L
tp342
a(g97
L5663L
tp343
a(g99
L10229L
tp344
a(g101
L6500L
tp345
a(g103
L2830L
tp346
a(g105
L4567L
tp347
a(g107
L5791L
tp348
a(g109
L4621L
tp349
a(g111
L5896L
tp350
a(g113
L4515L
tp351
a(g115
L6448L
tp352
a(g117
L5218L
tp353
a(g119
L4556L
tp354
a(g121
L6436L
tp355
a(g123
L4542L
tp356
a(g125
L30984L
tp357
a(g127
L6494L
tp358
a(g129
L14001L
tp359
a(g131
L4586L
tp360
a(g133
L10963L
tp361
a(g135
L10950L
tp362
a(g137
L6357L
tp363
a(g139
L594L
tp364
a(g141
L4439L
tp365
a(g143
L677L
tp366
a(g145
L759L
tp367
a(g147
L4366L
tp368
a(g149
L4118L
tp369
a(g151
L5302L
tp370
a(g153
L5471L
tp371
a(g155
L4405L
tp372
a(g157
L4684L
tp373
a(g159
L13967L
tp374
a(g161
L10829L
tp375
a(g163
L10870L
tp376
a(g165
L4546L
tp377
a(g167
L5112L
tp378
a(g169
L28144L
tp379
a(g171
L4838L
tp380
a(g173
L22810L
tp381
a(g175
L5695L
tp382
a(g177
L2364L
tp383
a(g179
L10840L
tp384
a(g181
L6169L
tp385
a(g183
L5582L
tp386
a(g185
L3L
tp387
a(g187
L17965L
tp388
a(g189
L3518L
tp389
a(g191
L28251L
tp390
a(g193
L3404L
tp391
a(g195
L7644L
tp392
a(g197
L10905L
tp393
a(g199
L13274L
tp394
a(g201
L4538L
tp395
a(g203
L6389L
tp396
a(g205
L4368L
tp397
a(g207
L14427L
tp398
a(g209
L4475L
tp399
a(g211
L5658L
tp400
a(g213
L13644L
tp401
a(g215
L5161L
tp402
a(g217
L2991L
tp403
a(g219
L20900L
tp404
a(g221
L4423L
tp405
a(g223
L12827L
tp406
a(g225
L5662L
tp407
a(g227
L14078L
tp408
a(g229
L2835L
tp409
a(g231
L4408L
tp410
a(g233
L10929L
tp411
a(g235
L10860L
tp412
a(g237
L10876L
tp413
a(g239
L5712L
tp414
a(g241
L2841L
tp415
a(g243
L10886L
tp416
a(g245
L14396L
tp417
a(g247
L5682L
tp418
a(g249
L15840L
tp419
a(g251
L5705L
tp420
a(g253
L33137L
tp421
a(g255
L4550L
tp422
a(g257
L5114L
tp423
a(g259
L6747L
tp424
a(g261
L6358L
tp425
a(g263
L4583L
tp426
a(g265
L28040L
tp427
a(g267
L5126L
tp428
a(g269
L4609L
tp429
a(g271
L20770L
tp430
a(g273
L10848L
tp431
a(g275
L201L
tp432
a(g277
L4411L
tp433
a(g279
L21900L
tp434
a(g281
L12918L
tp435
a(g283
L7683L
tp436
a(g285
L33512L
tp437
a(g287
L10192L
tp438
a(g289
L4412L
tp439
a(g291
L15852L
tp440
a(g293
L14288L
tp441
aaI868394
a.