(lp1
(lp2
(Vbiological_process
p3
I268324
tp4
a(Vcellular_component
p5
I87523
tp6
a(Vmolecular_function
p7
I71918
tp8
a(Vorganelle
p9
I22598
tp10
a(Vanatomical structure development
p11
I20395
tp12
a(Vtransport
p13
I15368
tp14
a(Vsignal transduction
p15
I12214
tp16
a(Vcellular nitrogen compound metabolic process
p17
I10920
tp18
a(Vprotein complex
p19
I9412
tp20
a(Vresponse to stress
p21
I9390
tp22
a(Vion binding
p23
I8934
tp24
a(Vsmall molecule metabolic process
p25
I8494
tp26
a(Vbiosynthetic process
p27
I7577
tp28
a(Vcellular protein modification process
p29
I6256
tp30
a(Vcatabolic process
p31
I5560
tp32
a(Vimmune system process
p33
I5168
tp34
a(Vcell differentiation
p35
I4666
tp36
a(Vcellular component assembly
p37
I4248
tp38
a(Vcytosol
p39
I3914
tp40
a(Vlipid metabolic process
p41
I3798
tp42
a(Venzyme binding
p43
I3698
tp44
a(Vtransmembrane transporter activity
p45
I3341
tp46
a(Vplasma membrane
p47
I3300
tp48
a(Vlocomotion
p49
I3280
tp50
a(Vanatomical structure formation involved in morphogenesis
p51
I3175
tp52
a(Vvesicle-mediated transport
p53
I3008
tp54
a(Vsignal transducer activity
p55
I2915
tp56
a(Vnucleus
p57
I2829
tp58
a(Vnucleolus
p59
I2803
tp60
a(Vhomeostatic process
p61
I2659
tp62
a(VDNA metabolic process
p63
I2547
tp64
a(VDNA binding
p65
I2528
tp66
a(Vneurological system process
p67
I2443
tp68
a(Vtransmembrane transport
p69
I2400
tp70
a(Vcell motility
p71
I2392
tp72
a(Vmacromolecular complex assembly
p73
I2370
tp74
a(Vcytoplasm
p75
I2337
tp76
a(Vchromosome organization
p77
I2334
tp78
a(Vcarbohydrate metabolic process
p79
I2323
tp80
a(Voxidoreductase activity
p81
I2262
tp82
a(Vgrowth
p83
I2090
tp84
a(Vembryo development
p85
I1993
tp86
a(Vprotein maturation
p87
I1953
tp88
a(Vprotein complex assembly
p89
I1914
tp90
a(Vcytoskeletal protein binding
p91
I1891
tp92
a(Vcytoskeleton organization
p93
I1858
tp94
a(Vnucleobase-containing compound catabolic process
p95
I1817
tp96
a(Vcell-cell signaling
p97
I1774
tp98
a(Vkinase activity
p99
I1720
tp100
a(Vcytoplasmic membrane-bounded vesicle
p101
I1711
tp102
a(Vlipid binding
p103
I1604
tp104
a(Vcellular amino acid metabolic process
p105
I1599
tp106
a(Vmitochondrion
p107
I1493
tp108
a(VRNA binding
p109
I1475
tp110
a(Vcell adhesion
p111
I1446
tp112
a(VGolgi apparatus
p113
I1436
tp114
a(Vpeptidase activity
p115
I1431
tp116
a(Vcytoskeleton
p117
I1354
tp118
a(Vmembrane organization
p119
I1316
tp120
a(Vendoplasmic reticulum
p121
I1296
tp122
a(Venzyme regulator activity
p123
I1229
tp124
a(Vcell proliferation
p125
I1189
tp126
a(Vendosome
p127
I1189
tp128
a(Vcell death
p129
I1135
tp130
a(Vcell morphogenesis
p131
I1110
tp132
a(Vtranscription factor binding
p133
I1086
tp134
a(Vligase activity
p135
I1079
tp136
a(VATPase activity
p137
I1067
tp138
a(Vmicrotubule organizing center
p139
I1050
tp140
a(Vprotein binding transcription factor activity
p141
I1036
tp142
a(Vnucleoplasm
p143
I1019
tp144
a(Vextracellular region
p145
I991
tp146
a(Vsulfur compound metabolic process
p147
I971
tp148
a(Vstructural molecule activity
p149
I913
tp150
a(Vnucleic acid binding transcription factor activity
p151
I883
tp152
a(Vextracellular space
p153
I845
tp154
a(Vextracellular matrix organization
p155
I815
tp156
a(Vcirculatory system process
p157
I785
tp158
a(Vcilium
p159
I730
tp160
a(Vcofactor metabolic process
p161
I726
tp162
a(Vprotein targeting
p163
I709
tp164
a(Vtransferase activity, transferring acyl groups
p165
I695
tp166
a(Vvacuole
p167
I693
tp168
a(VmRNA processing
p169
I655
tp170
a(Vgeneration of precursor metabolites and energy
p171
I631
tp172
a(Vphosphatase activity
p173
I630
tp174
a(Vsymbiosis, encompassing mutualism through parasitism
p175
I630
tp176
a(Vtransferase activity, transferring glycosyl groups
p177
I583
tp178
a(Vcell cycle
p179
I515
tp180
a(Vcell junction organization
p181
I499
tp182
a(Vaging
p183
I496
tp184
a(Vlyase activity
p185
I496
tp186
a(Vnucleocytoplasmic transport
p187
I491
tp188
a(Vreproduction
p189
I463
tp190
a(Vhelicase activity
p191
I419
tp192
a(Vcell division
p193
I417
tp194
a(Vplastid
p195
I416
tp196
a(Vmethyltransferase activity
p197
I415
tp198
a(Vlysosome
p199
I414
tp200
a(Vdevelopmental maturation
p201
I397
tp202
a(Vproteinaceous extracellular matrix
p203
I392
tp204
a(Vnuclease activity
p205
I380
tp206
a(Vmitochondrion organization
p207
I371
tp208
a(Vcytoskeleton-dependent intracellular transport
p209
I368
tp210
a(Vribonucleoprotein complex assembly
p211
I361
tp212
a(Vprotein folding
p213
I352
tp214
a(VGTPase activity
p215
I334
tp216
a(Vnuclear envelope
p217
I306
tp218
a(Vchromosome
p219
I303
tp220
a(Vhistone binding
p221
I294
tp222
a(Visomerase activity
p223
I288
tp224
a(Vsecondary metabolic process
p225
I284
tp226
a(Vhydrolase activity, acting on glycosyl bonds
p227
I272
tp228
a(Vexternal encapsulating structure
p229
I267
tp230
a(Vplasma membrane organization
p231
I267
tp232
a(Vcell wall
p233
I261
tp234
a(VmRNA binding
p235
I257
tp236
a(Vhydrolase activity, acting on carbon-nitrogen (but not peptide) bonds
p237
I250
tp238
a(Vnucleotidyltransferase activity
p239
I228
tp240
a(Vperoxisome
p241
I216
tp242
a(Vvacuolar transport
p243
I214
tp244
a(VtRNA metabolic process
p245
I212
tp246
a(Vmitosis
p247
I211
tp248
a(Vcell wall organization or biogenesis
p249
I208
tp250
a(Vchromosome segregation
p251
I203
tp252
a(Vsmall conjugating protein binding
p253
I188
tp254
a(Vprotein binding, bridging
p255
I180
tp256
a(Vstructural constituent of ribosome
p257
I172
tp258
a(Vlipid particle
p259
I161
tp260
a(Vprotein transporter activity
p261
I160
tp262
a(Vtranslation factor activity, nucleic acid binding
p263
I159
tp264
a(Vunfolded protein binding
p265
I156
tp266
a(Vtranslation
p267
I140
tp268
a(Vribosome
p269
I127
tp270
a(Vtransferase activity, transferring alkyl or aryl (other than methyl) groups
p271
I105
tp272
a(Vintracellular
p273
I105
tp274
a(Vnuclear chromosome
p275
I96
tp276
a(Vpigmentation
p277
I85
tp278
a(Vribosome biogenesis
p279
I74
tp280
a(VrRNA binding
p281
I65
tp282
a(Vnitrogen cycle metabolic process
p283
I40
tp284
a(Vthylakoid
p285
I35
tp286
a(Vcell
p287
I15
tp288
a(Vphotosynthesis
p289
I7
tp290
a(Vtransposition
p291
I4
tp292
a(VRNA modification guide activity
p293
I1
tp294
aa(lp295
(g3
L6372L
tp296
a(g5
L4365L
tp297
a(g7
L2787L
tp298
a(g9
L21685L
tp299
a(g11
L26888L
tp300
a(g13
L5491L
tp301
a(g15
L5801L
tp302
a(g17
L18268L
tp303
a(g19
L21693L
tp304
a(g21
L5613L
tp305
a(g23
L21630L
tp306
a(g25
L22689L
tp307
a(g27
L7192L
tp308
a(g29
L5168L
tp309
a(g31
L7190L
tp310
a(g33
L1781L
tp311
a(g35
L13924L
tp312
a(g37
L13633L
tp313
a(g39
L4599L
tp314
a(g41
L5326L
tp315
a(g43
L12968L
tp316
a(g45
L13690L
tp317
a(g47
L4644L
tp318
a(g49
L20507L
tp319
a(g51
L26682L
tp320
a(g53
L10381L
tp321
a(g55
L3827L
tp322
a(g57
L4422L
tp323
a(g59
L4507L
tp324
a(g61
L21086L
tp325
a(g63
L4995L
tp326
a(g65
L2790L
tp327
a(g67
L27837L
tp328
a(g69
L29927L
tp329
a(g71
L26901L
tp330
a(g73
L31581L
tp331
a(g75
L4514L
tp332
a(g77
L28228L
tp333
a(g79
L4725L
tp334
a(g81
L10598L
tp335
a(g83
L20503L
tp336
a(g85
L7881L
tp337
a(g87
L28535L
tp338
a(g89
L5165L
tp339
a(g91
L6320L
tp340
a(g93
L5663L
tp341
a(g95
L18282L
tp342
a(g97
L5896L
tp343
a(g99
L10466L
tp344
a(g101
L10229L
tp345
a(g103
L6500L
tp346
a(g105
L5218L
tp347
a(g107
L4515L
tp348
a(g109
L2830L
tp349
a(g111
L5791L
tp350
a(g113
L4567L
tp351
a(g115
L6448L
tp352
a(g117
L4621L
tp353
a(g119
L30984L
tp354
a(g121
L4556L
tp355
a(g123
L14001L
tp356
a(g125
L6494L
tp357
a(g127
L4542L
tp358
a(g129
L6436L
tp359
a(g131
L594L
tp360
a(g133
L6357L
tp361
a(g135
L10950L
tp362
a(g137
L10963L
tp363
a(g139
L4586L
tp364
a(g141
L677L
tp365
a(g143
L4439L
tp366
a(g145
L4366L
tp367
a(g147
L5471L
tp368
a(g149
L4118L
tp369
a(g151
L759L
tp370
a(g153
L4405L
tp371
a(g155
L13967L
tp372
a(g157
L2364L
tp373
a(g159
L4684L
tp374
a(g161
L28144L
tp375
a(g163
L5302L
tp376
a(g165
L10829L
tp377
a(g167
L4546L
tp378
a(g169
L5112L
tp379
a(g171
L4838L
tp380
a(g173
L10870L
tp381
a(g175
L22810L
tp382
a(g177
L10840L
tp383
a(g179
L5695L
tp384
a(g181
L17965L
tp385
a(g183
L6169L
tp386
a(g185
L10905L
tp387
a(g187
L5582L
tp388
a(g189
L3L
tp389
a(g191
L3404L
tp390
a(g193
L28251L
tp391
a(g195
L7644L
tp392
a(g197
L6389L
tp393
a(g199
L4538L
tp394
a(g201
L13274L
tp395
a(g203
L4368L
tp396
a(g205
L3518L
tp397
a(g207
L5658L
tp398
a(g209
L14427L
tp399
a(g211
L13644L
tp400
a(g213
L5161L
tp401
a(g215
L2991L
tp402
a(g217
L4423L
tp403
a(g219
L4475L
tp404
a(g221
L20900L
tp405
a(g223
L10929L
tp406
a(g225
L12827L
tp407
a(g227
L10876L
tp408
a(g229
L14078L
tp409
a(g231
L5662L
tp410
a(g233
L4408L
tp411
a(g235
L2835L
tp412
a(g237
L10886L
tp413
a(g239
L10860L
tp414
a(g241
L4550L
tp415
a(g243
L5682L
tp416
a(g245
L5114L
tp417
a(g247
L5712L
tp418
a(g249
L33137L
tp419
a(g251
L5705L
tp420
a(g253
L15840L
tp421
a(g255
L14396L
tp422
a(g257
L2841L
tp423
a(g259
L4583L
tp424
a(g261
L6747L
tp425
a(g263
L6358L
tp426
a(g265
L28040L
tp427
a(g267
L5126L
tp428
a(g269
L4609L
tp429
a(g271
L10848L
tp430
a(g273
L4411L
tp431
a(g275
L201L
tp432
a(g277
L21900L
tp433
a(g279
L20770L
tp434
a(g281
L12918L
tp435
a(g283
L33512L
tp436
a(g285
L7683L
tp437
a(g287
L4412L
tp438
a(g289
L10192L
tp439
a(g291
L15852L
tp440
a(g293
L14288L
tp441
aaI714478
a.