(lp1
(lp2
(Vbiological_process
p3
I250250
tp4
a(Vcellular_component
p5
I82586
tp6
a(Vmolecular_function
p7
I67299
tp8
a(Vorganelle
p9
I21682
tp10
a(Vanatomical structure development
p11
I19557
tp12
a(Vtransport
p13
I14201
tp14
a(Vsignal transduction
p15
I11406
tp16
a(Vcellular nitrogen compound metabolic process
p17
I10390
tp18
a(Vresponse to stress
p19
I8427
tp20
a(Vprotein complex
p21
I8324
tp22
a(Vion binding
p23
I7800
tp24
a(Vsmall molecule metabolic process
p25
I7600
tp26
a(Vbiosynthetic process
p27
I7043
tp28
a(Vcellular protein modification process
p29
I5788
tp30
a(Vimmune system process
p31
I4889
tp32
a(Vcatabolic process
p33
I4881
tp34
a(Vcell differentiation
p35
I4408
tp36
a(Vcellular component assembly
p37
I3629
tp38
a(Vlipid metabolic process
p39
I3439
tp40
a(Vcytosol
p41
I3428
tp42
a(Vtransmembrane transporter activity
p43
I3205
tp44
a(Vplasma membrane
p45
I3165
tp46
a(Venzyme binding
p47
I3156
tp48
a(Vsignal transducer activity
p49
I2944
tp50
a(Vnucleus
p51
I2902
tp52
a(Vanatomical structure formation involved in morphogenesis
p53
I2847
tp54
a(Vlocomotion
p55
I2771
tp56
a(Vcytoplasm
p57
I2719
tp58
a(Vnucleolus
p59
I2649
tp60
a(Vvesicle-mediated transport
p61
I2620
tp62
a(VDNA metabolic process
p63
I2440
tp64
a(VDNA binding
p65
I2418
tp66
a(Vhomeostatic process
p67
I2337
tp68
a(Vtransmembrane transport
p69
I2298
tp70
a(Voxidoreductase activity
p71
I2200
tp72
a(Vneurological system process
p73
I2054
tp74
a(Vchromosome organization
p75
I2028
tp76
a(Vmacromolecular complex assembly
p77
I2003
tp78
a(Vcell motility
p79
I1977
tp80
a(Vcarbohydrate metabolic process
p81
I1929
tp82
a(Vembryo development
p83
I1781
tp84
a(Vprotein maturation
p85
I1768
tp86
a(Vcell-cell signaling
p87
I1749
tp88
a(Vgrowth
p89
I1746
tp90
a(Vnucleobase-containing compound catabolic process
p91
I1657
tp92
a(Vprotein complex assembly
p93
I1643
tp94
a(Vcytoskeletal protein binding
p95
I1613
tp96
a(Vkinase activity
p97
I1594
tp98
a(Vcytoskeleton organization
p99
I1524
tp100
a(Vcytoplasmic membrane-bounded vesicle
p101
I1473
tp102
a(Vcellular amino acid metabolic process
p103
I1394
tp104
a(VRNA binding
p105
I1387
tp106
a(Vlipid binding
p107
I1387
tp108
a(Vmitochondrion
p109
I1381
tp110
a(Vpeptidase activity
p111
I1346
tp112
a(Vcytoskeleton
p113
I1280
tp114
a(VGolgi apparatus
p115
I1264
tp116
a(Vendoplasmic reticulum
p117
I1217
tp118
a(Vcell adhesion
p119
I1208
tp120
a(Vmembrane organization
p121
I1111
tp122
a(Vcell proliferation
p123
I1102
tp124
a(Vendosome
p125
I1072
tp126
a(Venzyme regulator activity
p127
I1036
tp128
a(Vcell death
p129
I1036
tp130
a(Vligase activity
p131
I1028
tp132
a(Vextracellular region
p133
I985
tp134
a(Vtranscription factor binding
p135
I971
tp136
a(Vnucleoplasm
p137
I968
tp138
a(Vmicrotubule organizing center
p139
I952
tp140
a(Vcell morphogenesis
p141
I941
tp142
a(Vnucleic acid binding transcription factor activity
p143
I938
tp144
a(Vprotein binding transcription factor activity
p145
I903
tp146
a(Vsulfur compound metabolic process
p147
I846
tp148
a(VATPase activity
p149
I822
tp150
a(Vextracellular space
p151
I773
tp152
a(Vcirculatory system process
p153
I764
tp154
a(Vstructural molecule activity
p155
I718
tp156
a(Vextracellular matrix organization
p157
I707
tp158
a(Vcofactor metabolic process
p159
I660
tp160
a(Vcilium
p161
I649
tp162
a(Vtransferase activity, transferring acyl groups
p163
I639
tp164
a(Vphosphatase activity
p165
I628
tp166
a(Vvacuole
p167
I598
tp168
a(Vtransferase activity, transferring glycosyl groups
p169
I593
tp170
a(Vprotein targeting
p171
I588
tp172
a(VmRNA processing
p173
I587
tp174
a(Vsymbiosis, encompassing mutualism through parasitism
p175
I558
tp176
a(Vcell cycle
p177
I522
tp178
a(Vgeneration of precursor metabolites and energy
p179
I520
tp180
a(Vlyase activity
p181
I438
tp182
a(Vnucleocytoplasmic transport
p183
I425
tp184
a(Vcell junction organization
p185
I424
tp186
a(Vmethyltransferase activity
p187
I419
tp188
a(Vnuclease activity
p189
I416
tp190
a(Vreproduction
p191
I412
tp192
a(Vaging
p193
I400
tp194
a(Vhelicase activity
p195
I386
tp196
a(Vcell division
p197
I374
tp198
a(Vlysosome
p199
I372
tp200
a(Vproteinaceous extracellular matrix
p201
I358
tp202
a(VGTPase activity
p203
I345
tp204
a(Vdevelopmental maturation
p205
I334
tp206
a(Vmitochondrion organization
p207
I327
tp208
a(Vprotein folding
p209
I312
tp210
a(Vplastid
p211
I309
tp212
a(Vcytoskeleton-dependent intracellular transport
p213
I302
tp214
a(Vribonucleoprotein complex assembly
p215
I290
tp216
a(Vplasma membrane organization
p217
I285
tp218
a(Vchromosome
p219
I276
tp220
a(Vhistone binding
p221
I262
tp222
a(Visomerase activity
p223
I252
tp224
a(Vhydrolase activity, acting on carbon-nitrogen (but not peptide) bonds
p225
I248
tp226
a(Vnuclear envelope
p227
I242
tp228
a(Vhydrolase activity, acting on glycosyl bonds
p229
I235
tp230
a(Vsecondary metabolic process
p231
I227
tp232
a(Vnucleotidyltransferase activity
p233
I222
tp234
a(VmRNA binding
p235
I220
tp236
a(Vmitosis
p237
I200
tp238
a(Vperoxisome
p239
I194
tp240
a(Vexternal encapsulating structure
p241
I193
tp242
a(Vcell wall
p243
I188
tp244
a(Vchromosome segregation
p245
I180
tp246
a(VtRNA metabolic process
p247
I178
tp248
a(Vvacuolar transport
p249
I178
tp250
a(Vstructural constituent of ribosome
p251
I154
tp252
a(Vcell wall organization or biogenesis
p253
I153
tp254
a(Vtranslation
p255
I150
tp256
a(Vintracellular
p257
I150
tp258
a(Vprotein binding, bridging
p259
I148
tp260
a(Vsmall conjugating protein binding
p261
I140
tp262
a(Vtranslation factor activity, nucleic acid binding
p263
I137
tp264
a(Vprotein transporter activity
p265
I135
tp266
a(Vlipid particle
p267
I131
tp268
a(Vunfolded protein binding
p269
I127
tp270
a(Vribosome
p271
I118
tp272
a(Vtransferase activity, transferring alkyl or aryl (other than methyl) groups
p273
I114
tp274
a(Vnuclear chromosome
p275
I87
tp276
a(Vpigmentation
p277
I75
tp278
a(VrRNA binding
p279
I72
tp280
a(Vribosome biogenesis
p281
I71
tp282
a(Vthylakoid
p283
I30
tp284
a(Vnitrogen cycle metabolic process
p285
I28
tp286
a(Vtransposition
p287
I14
tp288
a(Vcell
p289
I14
tp290
a(Vphotosynthesis
p291
I7
tp292
a(VRNA modification guide activity
p293
I1
tp294
aa(lp295
(g3
L6372L
tp296
a(g5
L4365L
tp297
a(g7
L2787L
tp298
a(g9
L21685L
tp299
a(g11
L26888L
tp300
a(g13
L5491L
tp301
a(g15
L5801L
tp302
a(g17
L18268L
tp303
a(g19
L5613L
tp304
a(g21
L21693L
tp305
a(g23
L21630L
tp306
a(g25
L22689L
tp307
a(g27
L7192L
tp308
a(g29
L5168L
tp309
a(g31
L1781L
tp310
a(g33
L7190L
tp311
a(g35
L13924L
tp312
a(g37
L13633L
tp313
a(g39
L5326L
tp314
a(g41
L4599L
tp315
a(g43
L13690L
tp316
a(g45
L4644L
tp317
a(g47
L12968L
tp318
a(g49
L3827L
tp319
a(g51
L4422L
tp320
a(g53
L26682L
tp321
a(g55
L20507L
tp322
a(g57
L4514L
tp323
a(g59
L4507L
tp324
a(g61
L10381L
tp325
a(g63
L4995L
tp326
a(g65
L2790L
tp327
a(g67
L21086L
tp328
a(g69
L29927L
tp329
a(g71
L10598L
tp330
a(g73
L27837L
tp331
a(g75
L28228L
tp332
a(g77
L31581L
tp333
a(g79
L26901L
tp334
a(g81
L4725L
tp335
a(g83
L7881L
tp336
a(g85
L28535L
tp337
a(g87
L5896L
tp338
a(g89
L20503L
tp339
a(g91
L18282L
tp340
a(g93
L5165L
tp341
a(g95
L6320L
tp342
a(g97
L10466L
tp343
a(g99
L5663L
tp344
a(g101
L10229L
tp345
a(g103
L5218L
tp346
a(g105
L2830L
tp347
a(g107
L6500L
tp348
a(g109
L4515L
tp349
a(g111
L6448L
tp350
a(g113
L4621L
tp351
a(g115
L4567L
tp352
a(g117
L4556L
tp353
a(g119
L5791L
tp354
a(g121
L30984L
tp355
a(g123
L6494L
tp356
a(g125
L4542L
tp357
a(g127
L14001L
tp358
a(g129
L6436L
tp359
a(g131
L10950L
tp360
a(g133
L4366L
tp361
a(g135
L6357L
tp362
a(g137
L4439L
tp363
a(g139
L4586L
tp364
a(g141
L594L
tp365
a(g143
L759L
tp366
a(g145
L677L
tp367
a(g147
L5471L
tp368
a(g149
L10963L
tp369
a(g151
L4405L
tp370
a(g153
L2364L
tp371
a(g155
L4118L
tp372
a(g157
L13967L
tp373
a(g159
L28144L
tp374
a(g161
L4684L
tp375
a(g163
L10829L
tp376
a(g165
L10870L
tp377
a(g167
L4546L
tp378
a(g169
L10840L
tp379
a(g171
L5302L
tp380
a(g173
L5112L
tp381
a(g175
L22810L
tp382
a(g177
L5695L
tp383
a(g179
L4838L
tp384
a(g181
L10905L
tp385
a(g183
L5582L
tp386
a(g185
L17965L
tp387
a(g187
L6389L
tp388
a(g189
L3518L
tp389
a(g191
L3L
tp390
a(g193
L6169L
tp391
a(g195
L3404L
tp392
a(g197
L28251L
tp393
a(g199
L4538L
tp394
a(g201
L4368L
tp395
a(g203
L2991L
tp396
a(g205
L13274L
tp397
a(g207
L5658L
tp398
a(g209
L5161L
tp399
a(g211
L7644L
tp400
a(g213
L14427L
tp401
a(g215
L13644L
tp402
a(g217
L5662L
tp403
a(g219
L4475L
tp404
a(g221
L20900L
tp405
a(g223
L10929L
tp406
a(g225
L10886L
tp407
a(g227
L4423L
tp408
a(g229
L10876L
tp409
a(g231
L12827L
tp410
a(g233
L10860L
tp411
a(g235
L2835L
tp412
a(g237
L5712L
tp413
a(g239
L4550L
tp414
a(g241
L14078L
tp415
a(g243
L4408L
tp416
a(g245
L5705L
tp417
a(g247
L5114L
tp418
a(g249
L5682L
tp419
a(g251
L2841L
tp420
a(g253
L33137L
tp421
a(g255
L5126L
tp422
a(g257
L4411L
tp423
a(g259
L14396L
tp424
a(g261
L15840L
tp425
a(g263
L6358L
tp426
a(g265
L6747L
tp427
a(g267
L4583L
tp428
a(g269
L28040L
tp429
a(g271
L4609L
tp430
a(g273
L10848L
tp431
a(g275
L201L
tp432
a(g277
L21900L
tp433
a(g279
L12918L
tp434
a(g281
L20770L
tp435
a(g283
L7683L
tp436
a(g285
L33512L
tp437
a(g287
L15852L
tp438
a(g289
L4412L
tp439
a(g291
L10192L
tp440
a(g293
L14288L
tp441
aaI662795
a.