(lp1
(lp2
(Vbiological_process
p3
I305100
tp4
a(Vcellular_component
p5
I98319
tp6
a(Vmolecular_function
p7
I79854
tp8
a(Vorganelle
p9
I25733
tp10
a(Vanatomical structure development
p11
I23485
tp12
a(Vtransport
p13
I17160
tp14
a(Vsignal transduction
p15
I13895
tp16
a(Vcellular nitrogen compound metabolic process
p17
I12016
tp18
a(Vresponse to stress
p19
I10537
tp20
a(Vprotein complex
p21
I10331
tp22
a(Vion binding
p23
I9664
tp24
a(Vsmall molecule metabolic process
p25
I9016
tp26
a(Vbiosynthetic process
p27
I8300
tp28
a(Vcellular protein modification process
p29
I7153
tp30
a(Vimmune system process
p31
I6058
tp32
a(Vcatabolic process
p33
I5997
tp34
a(Vcell differentiation
p35
I5508
tp36
a(Vcellular component assembly
p37
I4568
tp38
a(Vlipid metabolic process
p39
I4283
tp40
a(Venzyme binding
p41
I4152
tp42
a(Vcytosol
p43
I4116
tp44
a(Vtransmembrane transporter activity
p45
I3824
tp46
a(Vlocomotion
p47
I3678
tp48
a(Vplasma membrane
p49
I3634
tp50
a(Vanatomical structure formation involved in morphogenesis
p51
I3476
tp52
a(Vvesicle-mediated transport
p53
I3350
tp54
a(Vnucleus
p55
I3248
tp56
a(Vsignal transducer activity
p57
I3177
tp58
a(Vnucleolus
p59
I3108
tp60
a(Vhomeostatic process
p61
I2983
tp62
a(Vcytoplasm
p63
I2770
tp64
a(VDNA metabolic process
p65
I2765
tp66
a(VDNA binding
p67
I2752
tp68
a(Vneurological system process
p69
I2741
tp70
a(Vtransmembrane transport
p71
I2735
tp72
a(Vcell motility
p73
I2603
tp74
a(Vchromosome organization
p75
I2541
tp76
a(Voxidoreductase activity
p77
I2532
tp78
a(Vmacromolecular complex assembly
p79
I2462
tp80
a(Vcarbohydrate metabolic process
p81
I2347
tp82
a(Vgrowth
p83
I2291
tp84
a(Vprotein maturation
p85
I2244
tp86
a(Vcytoskeletal protein binding
p87
I2163
tp88
a(Vembryo development
p89
I2157
tp90
a(Vprotein complex assembly
p91
I2037
tp92
a(Vcell-cell signaling
p93
I2000
tp94
a(Vkinase activity
p95
I1977
tp96
a(Vnucleobase-containing compound catabolic process
p97
I1976
tp98
a(Vcytoskeleton organization
p99
I1923
tp100
a(Vcytoplasmic membrane-bounded vesicle
p101
I1856
tp102
a(Vlipid binding
p103
I1852
tp104
a(Vmitochondrion
p105
I1657
tp106
a(Vcell adhesion
p107
I1635
tp108
a(VGolgi apparatus
p109
I1600
tp110
a(VRNA binding
p111
I1595
tp112
a(Vcellular amino acid metabolic process
p113
I1577
tp114
a(Vcytoskeleton
p115
I1570
tp116
a(Vpeptidase activity
p117
I1537
tp118
a(Vendoplasmic reticulum
p119
I1470
tp120
a(Vcell proliferation
p121
I1404
tp122
a(Vmembrane organization
p123
I1397
tp124
a(Vendosome
p125
I1394
tp126
a(Venzyme regulator activity
p127
I1365
tp128
a(Vcell death
p129
I1328
tp130
a(Vligase activity
p131
I1285
tp132
a(Vcell morphogenesis
p133
I1227
tp134
a(Vtranscription factor binding
p135
I1197
tp136
a(Vmicrotubule organizing center
p137
I1162
tp138
a(Vprotein binding transcription factor activity
p139
I1157
tp140
a(Vnucleoplasm
p141
I1113
tp142
a(VATPase activity
p143
I1107
tp144
a(Vextracellular region
p145
I1086
tp146
a(Vnucleic acid binding transcription factor activity
p147
I1033
tp148
a(Vsulfur compound metabolic process
p149
I948
tp150
a(Vextracellular space
p151
I916
tp152
a(Vcirculatory system process
p153
I853
tp154
a(Vstructural molecule activity
p155
I842
tp156
a(Vextracellular matrix organization
p157
I831
tp158
a(Vcilium
p159
I803
tp160
a(Vvacuole
p161
I800
tp162
a(Vprotein targeting
p163
I784
tp164
a(Vphosphatase activity
p165
I755
tp166
a(Vtransferase activity, transferring acyl groups
p167
I753
tp168
a(Vcofactor metabolic process
p169
I749
tp170
a(Vsymbiosis, encompassing mutualism through parasitism
p171
I708
tp172
a(VmRNA processing
p173
I692
tp174
a(Vtransferase activity, transferring glycosyl groups
p175
I651
tp176
a(Vgeneration of precursor metabolites and energy
p177
I643
tp178
a(Vcell cycle
p179
I639
tp180
a(Vcell junction organization
p181
I550
tp182
a(Vnucleocytoplasmic transport
p183
I531
tp184
a(Vreproduction
p185
I515
tp186
a(Vaging
p187
I512
tp188
a(Vcell division
p189
I492
tp190
a(Vlysosome
p191
I485
tp192
a(Vlyase activity
p193
I484
tp194
a(Vdevelopmental maturation
p195
I478
tp196
a(Vmethyltransferase activity
p197
I465
tp198
a(Vhelicase activity
p199
I460
tp200
a(Vnuclease activity
p201
I445
tp202
a(Vplastid
p203
I429
tp204
a(Vproteinaceous extracellular matrix
p205
I423
tp206
a(Vmitochondrion organization
p207
I415
tp208
a(Vcytoskeleton-dependent intracellular transport
p209
I404
tp210
a(VGTPase activity
p211
I364
tp212
a(Vprotein folding
p213
I354
tp214
a(Vchromosome
p215
I344
tp216
a(Vribonucleoprotein complex assembly
p217
I338
tp218
a(Vnuclear envelope
p219
I331
tp220
a(Vhistone binding
p221
I330
tp222
a(Vplasma membrane organization
p223
I305
tp224
a(Vsecondary metabolic process
p225
I299
tp226
a(Vhydrolase activity, acting on glycosyl bonds
p227
I298
tp228
a(Visomerase activity
p229
I286
tp230
a(Vhydrolase activity, acting on carbon-nitrogen (but not peptide) bonds
p231
I272
tp232
a(Vexternal encapsulating structure
p233
I264
tp234
a(VmRNA binding
p235
I263
tp236
a(Vcell wall
p237
I257
tp238
a(Vmitosis
p239
I255
tp240
a(Vvacuolar transport
p241
I251
tp242
a(Vperoxisome
p243
I238
tp244
a(Vnucleotidyltransferase activity
p245
I231
tp246
a(Vcell wall organization or biogenesis
p247
I221
tp248
a(Vchromosome segregation
p249
I216
tp250
a(Vprotein binding, bridging
p251
I202
tp252
a(VtRNA metabolic process
p253
I198
tp254
a(Vsmall conjugating protein binding
p255
I189
tp256
a(Vlipid particle
p257
I162
tp258
a(Vprotein transporter activity
p259
I162
tp260
a(Vtranslation factor activity, nucleic acid binding
p261
I155
tp262
a(Vstructural constituent of ribosome
p263
I153
tp264
a(Vtranslation
p265
I153
tp266
a(Vribosome
p267
I145
tp268
a(Vunfolded protein binding
p269
I145
tp270
a(Vintracellular
p271
I133
tp272
a(Vtransferase activity, transferring alkyl or aryl (other than methyl) groups
p273
I120
tp274
a(Vnuclear chromosome
p275
I102
tp276
a(Vpigmentation
p277
I101
tp278
a(Vribosome biogenesis
p279
I81
tp280
a(VrRNA binding
p281
I68
tp282
a(Vthylakoid
p283
I40
tp284
a(Vnitrogen cycle metabolic process
p285
I37
tp286
a(Vcell
p287
I12
tp288
a(Vphotosynthesis
p289
I12
tp290
a(Vtransposition
p291
I8
tp292
a(VRNA modification guide activity
p293
I1
tp294
aa(lp295
(g3
L6372L
tp296
a(g5
L4365L
tp297
a(g7
L2787L
tp298
a(g9
L21685L
tp299
a(g11
L26888L
tp300
a(g13
L5491L
tp301
a(g15
L5801L
tp302
a(g17
L18268L
tp303
a(g19
L5613L
tp304
a(g21
L21693L
tp305
a(g23
L21630L
tp306
a(g25
L22689L
tp307
a(g27
L7192L
tp308
a(g29
L5168L
tp309
a(g31
L1781L
tp310
a(g33
L7190L
tp311
a(g35
L13924L
tp312
a(g37
L13633L
tp313
a(g39
L5326L
tp314
a(g41
L12968L
tp315
a(g43
L4599L
tp316
a(g45
L13690L
tp317
a(g47
L20507L
tp318
a(g49
L4644L
tp319
a(g51
L26682L
tp320
a(g53
L10381L
tp321
a(g55
L4422L
tp322
a(g57
L3827L
tp323
a(g59
L4507L
tp324
a(g61
L21086L
tp325
a(g63
L4514L
tp326
a(g65
L4995L
tp327
a(g67
L2790L
tp328
a(g69
L27837L
tp329
a(g71
L29927L
tp330
a(g73
L26901L
tp331
a(g75
L28228L
tp332
a(g77
L10598L
tp333
a(g79
L31581L
tp334
a(g81
L4725L
tp335
a(g83
L20503L
tp336
a(g85
L28535L
tp337
a(g87
L6320L
tp338
a(g89
L7881L
tp339
a(g91
L5165L
tp340
a(g93
L5896L
tp341
a(g95
L10466L
tp342
a(g97
L18282L
tp343
a(g99
L5663L
tp344
a(g101
L10229L
tp345
a(g103
L6500L
tp346
a(g105
L4515L
tp347
a(g107
L5791L
tp348
a(g109
L4567L
tp349
a(g111
L2830L
tp350
a(g113
L5218L
tp351
a(g115
L4621L
tp352
a(g117
L6448L
tp353
a(g119
L4556L
tp354
a(g121
L6494L
tp355
a(g123
L30984L
tp356
a(g125
L4542L
tp357
a(g127
L14001L
tp358
a(g129
L6436L
tp359
a(g131
L10950L
tp360
a(g133
L594L
tp361
a(g135
L6357L
tp362
a(g137
L4586L
tp363
a(g139
L677L
tp364
a(g141
L4439L
tp365
a(g143
L10963L
tp366
a(g145
L4366L
tp367
a(g147
L759L
tp368
a(g149
L5471L
tp369
a(g151
L4405L
tp370
a(g153
L2364L
tp371
a(g155
L4118L
tp372
a(g157
L13967L
tp373
a(g159
L4684L
tp374
a(g161
L4546L
tp375
a(g163
L5302L
tp376
a(g165
L10870L
tp377
a(g167
L10829L
tp378
a(g169
L28144L
tp379
a(g171
L22810L
tp380
a(g173
L5112L
tp381
a(g175
L10840L
tp382
a(g177
L4838L
tp383
a(g179
L5695L
tp384
a(g181
L17965L
tp385
a(g183
L5582L
tp386
a(g185
L3L
tp387
a(g187
L6169L
tp388
a(g189
L28251L
tp389
a(g191
L4538L
tp390
a(g193
L10905L
tp391
a(g195
L13274L
tp392
a(g197
L6389L
tp393
a(g199
L3404L
tp394
a(g201
L3518L
tp395
a(g203
L7644L
tp396
a(g205
L4368L
tp397
a(g207
L5658L
tp398
a(g209
L14427L
tp399
a(g211
L2991L
tp400
a(g213
L5161L
tp401
a(g215
L4475L
tp402
a(g217
L13644L
tp403
a(g219
L4423L
tp404
a(g221
L20900L
tp405
a(g223
L5662L
tp406
a(g225
L12827L
tp407
a(g227
L10876L
tp408
a(g229
L10929L
tp409
a(g231
L10886L
tp410
a(g233
L14078L
tp411
a(g235
L2835L
tp412
a(g237
L4408L
tp413
a(g239
L5712L
tp414
a(g241
L5682L
tp415
a(g243
L4550L
tp416
a(g245
L10860L
tp417
a(g247
L33137L
tp418
a(g249
L5705L
tp419
a(g251
L14396L
tp420
a(g253
L5114L
tp421
a(g255
L15840L
tp422
a(g257
L4583L
tp423
a(g259
L6747L
tp424
a(g261
L6358L
tp425
a(g263
L2841L
tp426
a(g265
L5126L
tp427
a(g267
L4609L
tp428
a(g269
L28040L
tp429
a(g271
L4411L
tp430
a(g273
L10848L
tp431
a(g275
L201L
tp432
a(g277
L21900L
tp433
a(g279
L20770L
tp434
a(g281
L12918L
tp435
a(g283
L7683L
tp436
a(g285
L33512L
tp437
a(g287
L4412L
tp438
a(g289
L10192L
tp439
a(g291
L15852L
tp440
a(g293
L14288L
tp441
aaI801894
a.