(lp1
(lp2
(Vbiological_process
p3
I295084
tp4
a(Vcellular_component
p5
I92971
tp6
a(Vmolecular_function
p7
I77057
tp8
a(Vorganelle
p9
I24378
tp10
a(Vanatomical structure development
p11
I22895
tp12
a(Vtransport
p13
I15788
tp14
a(Vsignal transduction
p15
I13933
tp16
a(Vcellular nitrogen compound metabolic process
p17
I11890
tp18
a(Vresponse to stress
p19
I10584
tp20
a(Vprotein complex
p21
I9884
tp22
a(Vion binding
p23
I9719
tp24
a(Vsmall molecule metabolic process
p25
I9369
tp26
a(Vbiosynthetic process
p27
I8441
tp28
a(Vcellular protein modification process
p29
I6888
tp30
a(Vimmune system process
p31
I6260
tp32
a(Vcatabolic process
p33
I6231
tp34
a(Vcell differentiation
p35
I5272
tp36
a(Vcellular component assembly
p37
I4516
tp38
a(Vlipid metabolic process
p39
I4340
tp40
a(Vcytosol
p41
I4166
tp42
a(Venzyme binding
p43
I3841
tp44
a(Vtransmembrane transporter activity
p45
I3596
tp46
a(Vlocomotion
p47
I3493
tp48
a(Vplasma membrane
p49
I3468
tp50
a(Vanatomical structure formation involved in morphogenesis
p51
I3365
tp52
a(Vsignal transducer activity
p53
I3234
tp54
a(Vnucleus
p55
I3070
tp56
a(Vnucleolus
p57
I3063
tp58
a(Vvesicle-mediated transport
p59
I2994
tp60
a(Vhomeostatic process
p61
I2873
tp62
a(VDNA binding
p63
I2740
tp64
a(Voxidoreductase activity
p65
I2711
tp66
a(VDNA metabolic process
p67
I2643
tp68
a(Vcytoplasm
p69
I2615
tp70
a(Vmacromolecular complex assembly
p71
I2608
tp72
a(Vcell motility
p73
I2518
tp74
a(Vtransmembrane transport
p75
I2516
tp76
a(Vcarbohydrate metabolic process
p77
I2437
tp78
a(Vchromosome organization
p79
I2389
tp80
a(Vprotein maturation
p81
I2387
tp82
a(Vneurological system process
p83
I2362
tp84
a(Vgrowth
p85
I2252
tp86
a(Vembryo development
p87
I2229
tp88
a(Vprotein complex assembly
p89
I2166
tp90
a(Vnucleobase-containing compound catabolic process
p91
I1988
tp92
a(Vkinase activity
p93
I1953
tp94
a(Vcell-cell signaling
p95
I1905
tp96
a(Vcellular amino acid metabolic process
p97
I1798
tp98
a(Vcytoskeletal protein binding
p99
I1788
tp100
a(Vcytoskeleton organization
p101
I1764
tp102
a(VRNA binding
p103
I1755
tp104
a(Vcytoplasmic membrane-bounded vesicle
p105
I1740
tp106
a(Vmitochondrion
p107
I1689
tp108
a(Vlipid binding
p109
I1630
tp110
a(Vcell adhesion
p111
I1622
tp112
a(Vpeptidase activity
p113
I1583
tp114
a(VGolgi apparatus
p115
I1534
tp116
a(Vcell proliferation
p117
I1474
tp118
a(Vendoplasmic reticulum
p119
I1435
tp120
a(Vcytoskeleton
p121
I1415
tp122
a(Vcell death
p123
I1305
tp124
a(Vmembrane organization
p125
I1255
tp126
a(Vligase activity
p127
I1252
tp128
a(Vendosome
p129
I1245
tp130
a(Venzyme regulator activity
p131
I1177
tp132
a(Vcell morphogenesis
p133
I1155
tp134
a(Vtranscription factor binding
p135
I1131
tp136
a(Vnucleoplasm
p137
I1119
tp138
a(Vextracellular region
p139
I1096
tp140
a(Vmicrotubule organizing center
p141
I1081
tp142
a(Vnucleic acid binding transcription factor activity
p143
I1062
tp144
a(Vprotein binding transcription factor activity
p145
I1057
tp146
a(VATPase activity
p147
I1052
tp148
a(Vsulfur compound metabolic process
p149
I1020
tp150
a(Vstructural molecule activity
p151
I912
tp152
a(Vextracellular space
p153
I865
tp154
a(Vcirculatory system process
p155
I840
tp156
a(Vcofactor metabolic process
p157
I838
tp158
a(Vextracellular matrix organization
p159
I831
tp160
a(Vvacuole
p161
I808
tp162
a(Vprotein targeting
p163
I786
tp164
a(Vtransferase activity, transferring acyl groups
p165
I755
tp166
a(Vsymbiosis, encompassing mutualism through parasitism
p167
I731
tp168
a(VmRNA processing
p169
I694
tp170
a(Vcilium
p171
I691
tp172
a(Vgeneration of precursor metabolites and energy
p173
I663
tp174
a(Vphosphatase activity
p175
I650
tp176
a(Vtransferase activity, transferring glycosyl groups
p177
I638
tp178
a(Vlyase activity
p179
I563
tp180
a(Vcell cycle
p181
I548
tp182
a(Vaging
p183
I542
tp184
a(Vreproduction
p185
I539
tp186
a(Vdevelopmental maturation
p187
I507
tp188
a(Vnucleocytoplasmic transport
p189
I505
tp190
a(Vcell division
p191
I501
tp192
a(Vplastid
p193
I497
tp194
a(Vlysosome
p195
I486
tp196
a(Vcell junction organization
p197
I470
tp198
a(Vmethyltransferase activity
p199
I453
tp200
a(Vprotein folding
p201
I434
tp202
a(Vhelicase activity
p203
I423
tp204
a(VGTPase activity
p205
I420
tp206
a(Vnuclease activity
p207
I404
tp208
a(Vmitochondrion organization
p209
I391
tp210
a(Vproteinaceous extracellular matrix
p211
I366
tp212
a(Vribonucleoprotein complex assembly
p213
I359
tp214
a(Vexternal encapsulating structure
p215
I355
tp216
a(Vcell wall
p217
I347
tp218
a(Vcytoskeleton-dependent intracellular transport
p219
I332
tp220
a(Vchromosome
p221
I330
tp222
a(Vsecondary metabolic process
p223
I329
tp224
a(Visomerase activity
p225
I323
tp226
a(Vnuclear envelope
p227
I299
tp228
a(VmRNA binding
p229
I294
tp230
a(Vhistone binding
p231
I285
tp232
a(Vhydrolase activity, acting on glycosyl bonds
p233
I281
tp234
a(Vhydrolase activity, acting on carbon-nitrogen (but not peptide) bonds
p235
I270
tp236
a(Vplasma membrane organization
p237
I255
tp238
a(Vmitosis
p239
I246
tp240
a(Vperoxisome
p241
I243
tp242
a(VtRNA metabolic process
p243
I230
tp244
a(Vnucleotidyltransferase activity
p245
I224
tp246
a(Vcell wall organization or biogenesis
p247
I222
tp248
a(Vchromosome segregation
p249
I222
tp250
a(Vstructural constituent of ribosome
p251
I212
tp252
a(Vvacuolar transport
p253
I212
tp254
a(Vlipid particle
p255
I199
tp256
a(Vunfolded protein binding
p257
I199
tp258
a(Vtranslation factor activity, nucleic acid binding
p259
I189
tp260
a(Vsmall conjugating protein binding
p261
I185
tp262
a(Vtranslation
p263
I173
tp264
a(Vprotein binding, bridging
p265
I170
tp266
a(Vribosome
p267
I146
tp268
a(Vtransferase activity, transferring alkyl or aryl (other than methyl) groups
p269
I140
tp270
a(Vprotein transporter activity
p271
I134
tp272
a(Vintracellular
p273
I110
tp274
a(Vnuclear chromosome
p275
I106
tp276
a(Vpigmentation
p277
I94
tp278
a(Vribosome biogenesis
p279
I89
tp280
a(VrRNA binding
p281
I75
tp282
a(Vnitrogen cycle metabolic process
p283
I51
tp284
a(Vthylakoid
p285
I38
tp286
a(Vtransposition
p287
I11
tp288
a(Vcell
p289
I11
tp290
a(Vphotosynthesis
p291
I11
tp292
a(VRNA modification guide activity
p293
I1
tp294
aa(lp295
(g3
L6372L
tp296
a(g5
L4365L
tp297
a(g7
L2787L
tp298
a(g9
L21685L
tp299
a(g11
L26888L
tp300
a(g13
L5491L
tp301
a(g15
L5801L
tp302
a(g17
L18268L
tp303
a(g19
L5613L
tp304
a(g21
L21693L
tp305
a(g23
L21630L
tp306
a(g25
L22689L
tp307
a(g27
L7192L
tp308
a(g29
L5168L
tp309
a(g31
L1781L
tp310
a(g33
L7190L
tp311
a(g35
L13924L
tp312
a(g37
L13633L
tp313
a(g39
L5326L
tp314
a(g41
L4599L
tp315
a(g43
L12968L
tp316
a(g45
L13690L
tp317
a(g47
L20507L
tp318
a(g49
L4644L
tp319
a(g51
L26682L
tp320
a(g53
L3827L
tp321
a(g55
L4422L
tp322
a(g57
L4507L
tp323
a(g59
L10381L
tp324
a(g61
L21086L
tp325
a(g63
L2790L
tp326
a(g65
L10598L
tp327
a(g67
L4995L
tp328
a(g69
L4514L
tp329
a(g71
L31581L
tp330
a(g73
L26901L
tp331
a(g75
L29927L
tp332
a(g77
L4725L
tp333
a(g79
L28228L
tp334
a(g81
L28535L
tp335
a(g83
L27837L
tp336
a(g85
L20503L
tp337
a(g87
L7881L
tp338
a(g89
L5165L
tp339
a(g91
L18282L
tp340
a(g93
L10466L
tp341
a(g95
L5896L
tp342
a(g97
L5218L
tp343
a(g99
L6320L
tp344
a(g101
L5663L
tp345
a(g103
L2830L
tp346
a(g105
L10229L
tp347
a(g107
L4515L
tp348
a(g109
L6500L
tp349
a(g111
L5791L
tp350
a(g113
L6448L
tp351
a(g115
L4567L
tp352
a(g117
L6494L
tp353
a(g119
L4556L
tp354
a(g121
L4621L
tp355
a(g123
L6436L
tp356
a(g125
L30984L
tp357
a(g127
L10950L
tp358
a(g129
L4542L
tp359
a(g131
L14001L
tp360
a(g133
L594L
tp361
a(g135
L6357L
tp362
a(g137
L4439L
tp363
a(g139
L4366L
tp364
a(g141
L4586L
tp365
a(g143
L759L
tp366
a(g145
L677L
tp367
a(g147
L10963L
tp368
a(g149
L5471L
tp369
a(g151
L4118L
tp370
a(g153
L4405L
tp371
a(g155
L2364L
tp372
a(g157
L28144L
tp373
a(g159
L13967L
tp374
a(g161
L4546L
tp375
a(g163
L5302L
tp376
a(g165
L10829L
tp377
a(g167
L22810L
tp378
a(g169
L5112L
tp379
a(g171
L4684L
tp380
a(g173
L4838L
tp381
a(g175
L10870L
tp382
a(g177
L10840L
tp383
a(g179
L10905L
tp384
a(g181
L5695L
tp385
a(g183
L6169L
tp386
a(g185
L3L
tp387
a(g187
L13274L
tp388
a(g189
L5582L
tp389
a(g191
L28251L
tp390
a(g193
L7644L
tp391
a(g195
L4538L
tp392
a(g197
L17965L
tp393
a(g199
L6389L
tp394
a(g201
L5161L
tp395
a(g203
L3404L
tp396
a(g205
L2991L
tp397
a(g207
L3518L
tp398
a(g209
L5658L
tp399
a(g211
L4368L
tp400
a(g213
L13644L
tp401
a(g215
L14078L
tp402
a(g217
L4408L
tp403
a(g219
L14427L
tp404
a(g221
L4475L
tp405
a(g223
L12827L
tp406
a(g225
L10929L
tp407
a(g227
L4423L
tp408
a(g229
L2835L
tp409
a(g231
L20900L
tp410
a(g233
L10876L
tp411
a(g235
L10886L
tp412
a(g237
L5662L
tp413
a(g239
L5712L
tp414
a(g241
L4550L
tp415
a(g243
L5114L
tp416
a(g245
L10860L
tp417
a(g247
L33137L
tp418
a(g249
L5705L
tp419
a(g251
L2841L
tp420
a(g253
L5682L
tp421
a(g255
L4583L
tp422
a(g257
L28040L
tp423
a(g259
L6358L
tp424
a(g261
L15840L
tp425
a(g263
L5126L
tp426
a(g265
L14396L
tp427
a(g267
L4609L
tp428
a(g269
L10848L
tp429
a(g271
L6747L
tp430
a(g273
L4411L
tp431
a(g275
L201L
tp432
a(g277
L21900L
tp433
a(g279
L20770L
tp434
a(g281
L12918L
tp435
a(g283
L33512L
tp436
a(g285
L7683L
tp437
a(g287
L15852L
tp438
a(g289
L4412L
tp439
a(g291
L10192L
tp440
a(g293
L14288L
tp441
aaI777069
a.