(lp1
(lp2
(Vbiological_process
p3
I336710
tp4
a(Vcellular_component
p5
I109073
tp6
a(Vmolecular_function
p7
I89679
tp8
a(Vorganelle
p9
I28564
tp10
a(Vanatomical structure development
p11
I25925
tp12
a(Vtransport
p13
I18848
tp14
a(Vsignal transduction
p15
I15228
tp16
a(Vcellular nitrogen compound metabolic process
p17
I13547
tp18
a(Vresponse to stress
p19
I11734
tp20
a(Vprotein complex
p21
I11691
tp22
a(Vion binding
p23
I11003
tp24
a(Vsmall molecule metabolic process
p25
I9969
tp26
a(Vbiosynthetic process
p27
I8931
tp28
a(Vcellular protein modification process
p29
I8013
tp30
a(Vcatabolic process
p31
I6745
tp32
a(Vimmune system process
p33
I6539
tp34
a(Vcell differentiation
p35
I6125
tp36
a(Vcellular component assembly
p37
I5247
tp38
a(Vcytosol
p39
I4724
tp40
a(Venzyme binding
p41
I4712
tp42
a(Vlipid metabolic process
p43
I4698
tp44
a(Vlocomotion
p45
I4231
tp46
a(Vtransmembrane transporter activity
p47
I4170
tp48
a(Vanatomical structure formation involved in morphogenesis
p49
I4011
tp50
a(Vplasma membrane
p51
I3932
tp52
a(Vvesicle-mediated transport
p53
I3770
tp54
a(Vnucleus
p55
I3592
tp56
a(Vnucleolus
p57
I3542
tp58
a(Vsignal transducer activity
p59
I3462
tp60
a(Vhomeostatic process
p61
I3302
tp62
a(VDNA metabolic process
p63
I3294
tp64
a(VDNA binding
p65
I3126
tp66
a(Vcytoplasm
p67
I3124
tp68
a(Vcell motility
p69
I3038
tp70
a(Vneurological system process
p71
I3009
tp72
a(Vchromosome organization
p73
I2982
tp74
a(Vtransmembrane transport
p75
I2949
tp76
a(Vmacromolecular complex assembly
p77
I2808
tp78
a(Voxidoreductase activity
p79
I2753
tp80
a(Vcarbohydrate metabolic process
p81
I2559
tp82
a(Vgrowth
p83
I2553
tp84
a(Vcytoskeletal protein binding
p85
I2445
tp86
a(Vembryo development
p87
I2413
tp88
a(Vprotein maturation
p89
I2394
tp90
a(Vprotein complex assembly
p91
I2323
tp92
a(Vkinase activity
p93
I2315
tp94
a(Vnucleobase-containing compound catabolic process
p95
I2289
tp96
a(Vcytoskeleton organization
p97
I2253
tp98
a(Vcell-cell signaling
p99
I2164
tp100
a(Vlipid binding
p101
I2091
tp102
a(Vcytoplasmic membrane-bounded vesicle
p103
I2076
tp104
a(Vcell adhesion
p105
I1980
tp106
a(VGolgi apparatus
p107
I1864
tp108
a(Vmitochondrion
p109
I1836
tp110
a(Vcytoskeleton
p111
I1758
tp112
a(Vcellular amino acid metabolic process
p113
I1756
tp114
a(VRNA binding
p115
I1747
tp116
a(Vpeptidase activity
p117
I1714
tp118
a(Vendoplasmic reticulum
p119
I1612
tp120
a(Vmembrane organization
p121
I1595
tp122
a(Vendosome
p123
I1579
tp124
a(Vcell proliferation
p125
I1542
tp126
a(Venzyme regulator activity
p127
I1479
tp128
a(Vligase activity
p129
I1466
tp130
a(Vcell death
p131
I1456
tp132
a(Vcell morphogenesis
p133
I1437
tp134
a(VATPase activity
p135
I1341
tp136
a(Vtranscription factor binding
p137
I1335
tp138
a(Vmicrotubule organizing center
p139
I1334
tp140
a(Vnucleoplasm
p141
I1292
tp142
a(Vprotein binding transcription factor activity
p143
I1288
tp144
a(Vextracellular region
p145
I1191
tp146
a(Vnucleic acid binding transcription factor activity
p147
I1181
tp148
a(Vsulfur compound metabolic process
p149
I1018
tp150
a(Vstructural molecule activity
p151
I1008
tp152
a(Vextracellular space
p153
I997
tp154
a(Vextracellular matrix organization
p155
I935
tp156
a(Vcilium
p157
I921
tp158
a(Vcirculatory system process
p159
I904
tp160
a(Vprotein targeting
p161
I866
tp162
a(Vcofactor metabolic process
p163
I860
tp164
a(Vvacuole
p165
I840
tp166
a(Vtransferase activity, transferring acyl groups
p167
I820
tp168
a(Vphosphatase activity
p169
I809
tp170
a(Vsymbiosis, encompassing mutualism through parasitism
p171
I781
tp172
a(VmRNA processing
p173
I775
tp174
a(Vcell cycle
p175
I709
tp176
a(Vtransferase activity, transferring glycosyl groups
p177
I702
tp178
a(Vgeneration of precursor metabolites and energy
p179
I695
tp180
a(Vcell junction organization
p181
I657
tp182
a(Vaging
p183
I622
tp184
a(Vreproduction
p185
I605
tp186
a(Vnucleocytoplasmic transport
p187
I604
tp188
a(Vcell division
p189
I574
tp190
a(Vhelicase activity
p191
I544
tp192
a(Vlyase activity
p193
I535
tp194
a(Vnuclease activity
p195
I528
tp196
a(Vdevelopmental maturation
p197
I513
tp198
a(Vlysosome
p199
I506
tp200
a(Vmethyltransferase activity
p201
I506
tp202
a(Vproteinaceous extracellular matrix
p203
I475
tp204
a(Vcytoskeleton-dependent intracellular transport
p205
I471
tp206
a(Vmitochondrion organization
p207
I451
tp208
a(Vplastid
p209
I443
tp210
a(Vprotein folding
p211
I395
tp212
a(Vchromosome
p213
I393
tp214
a(Vhistone binding
p215
I389
tp216
a(VGTPase activity
p217
I380
tp218
a(Vribonucleoprotein complex assembly
p219
I379
tp220
a(Vnuclear envelope
p221
I378
tp222
a(Vplasma membrane organization
p223
I347
tp224
a(Vsecondary metabolic process
p225
I340
tp226
a(Visomerase activity
p227
I324
tp228
a(Vhydrolase activity, acting on carbon-nitrogen (but not peptide) bonds
p229
I299
tp230
a(Vmitosis
p231
I293
tp232
a(Vexternal encapsulating structure
p233
I290
tp234
a(Vnucleotidyltransferase activity
p235
I287
tp236
a(VmRNA binding
p237
I283
tp238
a(Vcell wall
p239
I282
tp240
a(Vhydrolase activity, acting on glycosyl bonds
p241
I282
tp242
a(Vvacuolar transport
p243
I279
tp244
a(Vperoxisome
p245
I244
tp246
a(Vcell wall organization or biogenesis
p247
I243
tp248
a(Vchromosome segregation
p249
I243
tp250
a(Vprotein binding, bridging
p251
I235
tp252
a(Vsmall conjugating protein binding
p253
I229
tp254
a(VtRNA metabolic process
p255
I227
tp256
a(Vprotein transporter activity
p257
I219
tp258
a(Vlipid particle
p259
I185
tp260
a(Vstructural constituent of ribosome
p261
I171
tp262
a(Vtranslation factor activity, nucleic acid binding
p263
I168
tp264
a(Vunfolded protein binding
p265
I162
tp266
a(Vtranslation
p267
I160
tp268
a(Vribosome
p269
I144
tp270
a(Vtransferase activity, transferring alkyl or aryl (other than methyl) groups
p271
I134
tp272
a(Vintracellular
p273
I123
tp274
a(Vpigmentation
p275
I114
tp276
a(Vnuclear chromosome
p277
I111
tp278
a(Vribosome biogenesis
p279
I98
tp280
a(VrRNA binding
p281
I70
tp282
a(Vthylakoid
p283
I40
tp284
a(Vnitrogen cycle metabolic process
p285
I40
tp286
a(Vcell
p287
I20
tp288
a(Vphotosynthesis
p289
I8
tp290
a(Vtransposition
p291
I7
tp292
a(VRNA modification guide activity
p293
I1
tp294
aa(lp295
(g3
L6372L
tp296
a(g5
L4365L
tp297
a(g7
L2787L
tp298
a(g9
L21685L
tp299
a(g11
L26888L
tp300
a(g13
L5491L
tp301
a(g15
L5801L
tp302
a(g17
L18268L
tp303
a(g19
L5613L
tp304
a(g21
L21693L
tp305
a(g23
L21630L
tp306
a(g25
L22689L
tp307
a(g27
L7192L
tp308
a(g29
L5168L
tp309
a(g31
L7190L
tp310
a(g33
L1781L
tp311
a(g35
L13924L
tp312
a(g37
L13633L
tp313
a(g39
L4599L
tp314
a(g41
L12968L
tp315
a(g43
L5326L
tp316
a(g45
L20507L
tp317
a(g47
L13690L
tp318
a(g49
L26682L
tp319
a(g51
L4644L
tp320
a(g53
L10381L
tp321
a(g55
L4422L
tp322
a(g57
L4507L
tp323
a(g59
L3827L
tp324
a(g61
L21086L
tp325
a(g63
L4995L
tp326
a(g65
L2790L
tp327
a(g67
L4514L
tp328
a(g69
L26901L
tp329
a(g71
L27837L
tp330
a(g73
L28228L
tp331
a(g75
L29927L
tp332
a(g77
L31581L
tp333
a(g79
L10598L
tp334
a(g81
L4725L
tp335
a(g83
L20503L
tp336
a(g85
L6320L
tp337
a(g87
L7881L
tp338
a(g89
L28535L
tp339
a(g91
L5165L
tp340
a(g93
L10466L
tp341
a(g95
L18282L
tp342
a(g97
L5663L
tp343
a(g99
L5896L
tp344
a(g101
L6500L
tp345
a(g103
L10229L
tp346
a(g105
L5791L
tp347
a(g107
L4567L
tp348
a(g109
L4515L
tp349
a(g111
L4621L
tp350
a(g113
L5218L
tp351
a(g115
L2830L
tp352
a(g117
L6448L
tp353
a(g119
L4556L
tp354
a(g121
L30984L
tp355
a(g123
L4542L
tp356
a(g125
L6494L
tp357
a(g127
L14001L
tp358
a(g129
L10950L
tp359
a(g131
L6436L
tp360
a(g133
L594L
tp361
a(g135
L10963L
tp362
a(g137
L6357L
tp363
a(g139
L4586L
tp364
a(g141
L4439L
tp365
a(g143
L677L
tp366
a(g145
L4366L
tp367
a(g147
L759L
tp368
a(g149
L5471L
tp369
a(g151
L4118L
tp370
a(g153
L4405L
tp371
a(g155
L13967L
tp372
a(g157
L4684L
tp373
a(g159
L2364L
tp374
a(g161
L5302L
tp375
a(g163
L28144L
tp376
a(g165
L4546L
tp377
a(g167
L10829L
tp378
a(g169
L10870L
tp379
a(g171
L22810L
tp380
a(g173
L5112L
tp381
a(g175
L5695L
tp382
a(g177
L10840L
tp383
a(g179
L4838L
tp384
a(g181
L17965L
tp385
a(g183
L6169L
tp386
a(g185
L3L
tp387
a(g187
L5582L
tp388
a(g189
L28251L
tp389
a(g191
L3404L
tp390
a(g193
L10905L
tp391
a(g195
L3518L
tp392
a(g197
L13274L
tp393
a(g199
L4538L
tp394
a(g201
L6389L
tp395
a(g203
L4368L
tp396
a(g205
L14427L
tp397
a(g207
L5658L
tp398
a(g209
L7644L
tp399
a(g211
L5161L
tp400
a(g213
L4475L
tp401
a(g215
L20900L
tp402
a(g217
L2991L
tp403
a(g219
L13644L
tp404
a(g221
L4423L
tp405
a(g223
L5662L
tp406
a(g225
L12827L
tp407
a(g227
L10929L
tp408
a(g229
L10886L
tp409
a(g231
L5712L
tp410
a(g233
L14078L
tp411
a(g235
L10860L
tp412
a(g237
L2835L
tp413
a(g239
L4408L
tp414
a(g241
L10876L
tp415
a(g243
L5682L
tp416
a(g245
L4550L
tp417
a(g247
L33137L
tp418
a(g249
L5705L
tp419
a(g251
L14396L
tp420
a(g253
L15840L
tp421
a(g255
L5114L
tp422
a(g257
L6747L
tp423
a(g259
L4583L
tp424
a(g261
L2841L
tp425
a(g263
L6358L
tp426
a(g265
L28040L
tp427
a(g267
L5126L
tp428
a(g269
L4609L
tp429
a(g271
L10848L
tp430
a(g273
L4411L
tp431
a(g275
L21900L
tp432
a(g277
L201L
tp433
a(g279
L20770L
tp434
a(g281
L12918L
tp435
a(g283
L7683L
tp436
a(g285
L33512L
tp437
a(g287
L4412L
tp438
a(g289
L10192L
tp439
a(g291
L15852L
tp440
a(g293
L14288L
tp441
aaI891148
a.