(lp1
(lp2
(Vbiological_process
p3
I326701
tp4
a(Vcellular_component
p5
I106024
tp6
a(Vmolecular_function
p7
I86625
tp8
a(Vorganelle
p9
I27573
tp10
a(Vanatomical structure development
p11
I24973
tp12
a(Vtransport
p13
I18756
tp14
a(Vsignal transduction
p15
I14282
tp16
a(Vcellular nitrogen compound metabolic process
p17
I13726
tp18
a(Vresponse to stress
p19
I11459
tp20
a(Vprotein complex
p21
I10768
tp22
a(Vion binding
p23
I10709
tp24
a(Vsmall molecule metabolic process
p25
I10549
tp26
a(Vbiosynthetic process
p27
I9514
tp28
a(Vcellular protein modification process
p29
I7354
tp30
a(Vcatabolic process
p31
I6855
tp32
a(Vimmune system process
p33
I6452
tp34
a(Vcell differentiation
p35
I5440
tp36
a(Vcellular component assembly
p37
I4900
tp38
a(Vlipid metabolic process
p39
I4585
tp40
a(Vtransmembrane transporter activity
p41
I4442
tp42
a(Vcytosol
p43
I4374
tp44
a(Venzyme binding
p45
I4188
tp46
a(Vplasma membrane
p47
I3868
tp48
a(Vlocomotion
p49
I3852
tp50
a(Vanatomical structure formation involved in morphogenesis
p51
I3481
tp52
a(Vvesicle-mediated transport
p53
I3463
tp54
a(Vnucleus
p55
I3350
tp56
a(Vsignal transducer activity
p57
I3305
tp58
a(VDNA metabolic process
p59
I3300
tp60
a(Vnucleolus
p61
I3217
tp62
a(Vcytoplasm
p63
I3157
tp64
a(Vhomeostatic process
p65
I3091
tp66
a(Voxidoreductase activity
p67
I3002
tp68
a(Vtransmembrane transport
p69
I2980
tp70
a(Vneurological system process
p71
I2833
tp72
a(VDNA binding
p73
I2792
tp74
a(Vchromosome organization
p75
I2778
tp76
a(Vcarbohydrate metabolic process
p77
I2694
tp78
a(Vcell motility
p79
I2683
tp80
a(Vmacromolecular complex assembly
p81
I2668
tp82
a(Vgrowth
p83
I2400
tp84
a(Vprotein maturation
p85
I2398
tp86
a(Vembryo development
p87
I2380
tp88
a(Vcytoskeletal protein binding
p89
I2368
tp90
a(Vkinase activity
p91
I2313
tp92
a(Vnucleobase-containing compound catabolic process
p93
I2298
tp94
a(Vprotein complex assembly
p95
I2197
tp96
a(Vcytoskeleton organization
p97
I2089
tp98
a(Vcellular amino acid metabolic process
p99
I2062
tp100
a(Vcell-cell signaling
p101
I2016
tp102
a(Vcytoplasmic membrane-bounded vesicle
p103
I1910
tp104
a(Vcell adhesion
p105
I1809
tp106
a(Vlipid binding
p107
I1806
tp108
a(VGolgi apparatus
p109
I1804
tp110
a(VRNA binding
p111
I1764
tp112
a(Vcytoskeleton
p113
I1756
tp114
a(Vpeptidase activity
p115
I1737
tp116
a(Vmitochondrion
p117
I1693
tp118
a(Vendoplasmic reticulum
p119
I1488
tp120
a(VATPase activity
p121
I1468
tp122
a(Vmembrane organization
p123
I1435
tp124
a(Vcell proliferation
p125
I1428
tp126
a(Vcell death
p127
I1407
tp128
a(Vendosome
p129
I1367
tp130
a(Vligase activity
p131
I1317
tp132
a(Venzyme regulator activity
p133
I1314
tp134
a(Vcell morphogenesis
p135
I1280
tp136
a(Vmicrotubule organizing center
p137
I1217
tp138
a(Vnucleoplasm
p139
I1140
tp140
a(Vtranscription factor binding
p141
I1132
tp142
a(Vsulfur compound metabolic process
p143
I1126
tp144
a(Vextracellular region
p145
I1120
tp146
a(Vprotein binding transcription factor activity
p147
I1041
tp148
a(Vextracellular matrix organization
p149
I994
tp150
a(Vstructural molecule activity
p151
I948
tp152
a(Vextracellular space
p153
I946
tp154
a(Vcilium
p155
I946
tp156
a(Vnucleic acid binding transcription factor activity
p157
I925
tp158
a(Vcofactor metabolic process
p159
I896
tp160
a(Vcirculatory system process
p161
I864
tp162
a(Vtransferase activity, transferring acyl groups
p163
I845
tp164
a(Vvacuole
p165
I825
tp166
a(Vprotein targeting
p167
I794
tp168
a(Vcell cycle
p169
I763
tp170
a(Vphosphatase activity
p171
I757
tp172
a(VmRNA processing
p173
I757
tp174
a(Vtransferase activity, transferring glycosyl groups
p175
I723
tp176
a(Vsymbiosis, encompassing mutualism through parasitism
p177
I705
tp178
a(Vgeneration of precursor metabolites and energy
p179
I697
tp180
a(Vlyase activity
p181
I675
tp182
a(Vhelicase activity
p183
I623
tp184
a(Vreproduction
p185
I584
tp186
a(Vcell division
p187
I579
tp188
a(Vaging
p189
I574
tp190
a(Vcell junction organization
p191
I548
tp192
a(Vnuclease activity
p193
I534
tp194
a(Vnucleocytoplasmic transport
p195
I519
tp196
a(Vmethyltransferase activity
p197
I517
tp198
a(Vdevelopmental maturation
p199
I494
tp200
a(Vplastid
p201
I493
tp202
a(Vproteinaceous extracellular matrix
p203
I465
tp204
a(Vlysosome
p205
I462
tp206
a(Vcytoskeleton-dependent intracellular transport
p207
I457
tp208
a(Vmitochondrion organization
p209
I409
tp210
a(Vprotein folding
p211
I386
tp212
a(VGTPase activity
p213
I385
tp214
a(Visomerase activity
p215
I381
tp216
a(Vribonucleoprotein complex assembly
p217
I378
tp218
a(Vchromosome
p219
I375
tp220
a(Vnuclear envelope
p221
I367
tp222
a(Vexternal encapsulating structure
p223
I355
tp224
a(Vplasma membrane organization
p225
I350
tp226
a(Vcell wall
p227
I345
tp228
a(Vhydrolase activity, acting on glycosyl bonds
p229
I337
tp230
a(Vsecondary metabolic process
p231
I332
tp232
a(Vhistone binding
p233
I330
tp234
a(Vnucleotidyltransferase activity
p235
I330
tp236
a(VtRNA metabolic process
p237
I311
tp238
a(Vhydrolase activity, acting on carbon-nitrogen (but not peptide) bonds
p239
I308
tp240
a(VmRNA binding
p241
I293
tp242
a(Vmitosis
p243
I259
tp244
a(Vperoxisome
p245
I243
tp246
a(Vcell wall organization or biogenesis
p247
I242
tp248
a(Vchromosome segregation
p249
I242
tp250
a(Vvacuolar transport
p251
I240
tp252
a(Vstructural constituent of ribosome
p253
I195
tp254
a(Vsmall conjugating protein binding
p255
I191
tp256
a(Vprotein binding, bridging
p257
I189
tp258
a(Vlipid particle
p259
I183
tp260
a(Vtranslation factor activity, nucleic acid binding
p261
I182
tp262
a(Vprotein transporter activity
p263
I181
tp264
a(Vunfolded protein binding
p265
I176
tp266
a(Vtranslation
p267
I175
tp268
a(Vribosome
p269
I156
tp270
a(Vtransferase activity, transferring alkyl or aryl (other than methyl) groups
p271
I150
tp272
a(Vintracellular
p273
I125
tp274
a(Vnuclear chromosome
p275
I112
tp276
a(Vpigmentation
p277
I108
tp278
a(VrRNA binding
p279
I88
tp280
a(Vribosome biogenesis
p281
I86
tp282
a(Vthylakoid
p283
I51
tp284
a(Vnitrogen cycle metabolic process
p285
I48
tp286
a(Vcell
p287
I13
tp288
a(Vphotosynthesis
p289
I12
tp290
a(Vtransposition
p291
I8
tp292
a(VRNA modification guide activity
p293
I1
tp294
aa(lp295
(g3
L6372L
tp296
a(g5
L4365L
tp297
a(g7
L2787L
tp298
a(g9
L21685L
tp299
a(g11
L26888L
tp300
a(g13
L5491L
tp301
a(g15
L5801L
tp302
a(g17
L18268L
tp303
a(g19
L5613L
tp304
a(g21
L21693L
tp305
a(g23
L21630L
tp306
a(g25
L22689L
tp307
a(g27
L7192L
tp308
a(g29
L5168L
tp309
a(g31
L7190L
tp310
a(g33
L1781L
tp311
a(g35
L13924L
tp312
a(g37
L13633L
tp313
a(g39
L5326L
tp314
a(g41
L13690L
tp315
a(g43
L4599L
tp316
a(g45
L12968L
tp317
a(g47
L4644L
tp318
a(g49
L20507L
tp319
a(g51
L26682L
tp320
a(g53
L10381L
tp321
a(g55
L4422L
tp322
a(g57
L3827L
tp323
a(g59
L4995L
tp324
a(g61
L4507L
tp325
a(g63
L4514L
tp326
a(g65
L21086L
tp327
a(g67
L10598L
tp328
a(g69
L29927L
tp329
a(g71
L27837L
tp330
a(g73
L2790L
tp331
a(g75
L28228L
tp332
a(g77
L4725L
tp333
a(g79
L26901L
tp334
a(g81
L31581L
tp335
a(g83
L20503L
tp336
a(g85
L28535L
tp337
a(g87
L7881L
tp338
a(g89
L6320L
tp339
a(g91
L10466L
tp340
a(g93
L18282L
tp341
a(g95
L5165L
tp342
a(g97
L5663L
tp343
a(g99
L5218L
tp344
a(g101
L5896L
tp345
a(g103
L10229L
tp346
a(g105
L5791L
tp347
a(g107
L6500L
tp348
a(g109
L4567L
tp349
a(g111
L2830L
tp350
a(g113
L4621L
tp351
a(g115
L6448L
tp352
a(g117
L4515L
tp353
a(g119
L4556L
tp354
a(g121
L10963L
tp355
a(g123
L30984L
tp356
a(g125
L6494L
tp357
a(g127
L6436L
tp358
a(g129
L4542L
tp359
a(g131
L10950L
tp360
a(g133
L14001L
tp361
a(g135
L594L
tp362
a(g137
L4586L
tp363
a(g139
L4439L
tp364
a(g141
L6357L
tp365
a(g143
L5471L
tp366
a(g145
L4366L
tp367
a(g147
L677L
tp368
a(g149
L13967L
tp369
a(g151
L4118L
tp370
a(g153
L4405L
tp371
a(g155
L4684L
tp372
a(g157
L759L
tp373
a(g159
L28144L
tp374
a(g161
L2364L
tp375
a(g163
L10829L
tp376
a(g165
L4546L
tp377
a(g167
L5302L
tp378
a(g169
L5695L
tp379
a(g171
L10870L
tp380
a(g173
L5112L
tp381
a(g175
L10840L
tp382
a(g177
L22810L
tp383
a(g179
L4838L
tp384
a(g181
L10905L
tp385
a(g183
L3404L
tp386
a(g185
L3L
tp387
a(g187
L28251L
tp388
a(g189
L6169L
tp389
a(g191
L17965L
tp390
a(g193
L3518L
tp391
a(g195
L5582L
tp392
a(g197
L6389L
tp393
a(g199
L13274L
tp394
a(g201
L7644L
tp395
a(g203
L4368L
tp396
a(g205
L4538L
tp397
a(g207
L14427L
tp398
a(g209
L5658L
tp399
a(g211
L5161L
tp400
a(g213
L2991L
tp401
a(g215
L10929L
tp402
a(g217
L13644L
tp403
a(g219
L4475L
tp404
a(g221
L4423L
tp405
a(g223
L14078L
tp406
a(g225
L5662L
tp407
a(g227
L4408L
tp408
a(g229
L10876L
tp409
a(g231
L12827L
tp410
a(g233
L20900L
tp411
a(g235
L10860L
tp412
a(g237
L5114L
tp413
a(g239
L10886L
tp414
a(g241
L2835L
tp415
a(g243
L5712L
tp416
a(g245
L4550L
tp417
a(g247
L33137L
tp418
a(g249
L5705L
tp419
a(g251
L5682L
tp420
a(g253
L2841L
tp421
a(g255
L15840L
tp422
a(g257
L14396L
tp423
a(g259
L4583L
tp424
a(g261
L6358L
tp425
a(g263
L6747L
tp426
a(g265
L28040L
tp427
a(g267
L5126L
tp428
a(g269
L4609L
tp429
a(g271
L10848L
tp430
a(g273
L4411L
tp431
a(g275
L201L
tp432
a(g277
L21900L
tp433
a(g279
L12918L
tp434
a(g281
L20770L
tp435
a(g283
L7683L
tp436
a(g285
L33512L
tp437
a(g287
L4412L
tp438
a(g289
L10192L
tp439
a(g291
L15852L
tp440
a(g293
L14288L
tp441
aaI863380
a.