(lp1
(lp2
(Vbiological_process
p3
I160917
tp4
a(Vcellular_component
p5
I53491
tp6
a(Vmolecular_function
p7
I45147
tp8
a(Vorganelle
p9
I14021
tp10
a(Vanatomical structure development
p11
I12983
tp12
a(Vtransport
p13
I8426
tp14
a(Vsignal transduction
p15
I7810
tp16
a(Vcellular nitrogen compound metabolic process
p17
I7338
tp18
a(Vprotein complex
p19
I5597
tp20
a(Vresponse to stress
p21
I5544
tp22
a(Vsmall molecule metabolic process
p23
I5464
tp24
a(Vion binding
p25
I5073
tp26
a(Vbiosynthetic process
p27
I5053
tp28
a(Vcellular protein modification process
p29
I4010
tp30
a(Vimmune system process
p31
I3641
tp32
a(Vcatabolic process
p33
I3356
tp34
a(Vcell differentiation
p35
I3150
tp36
a(Vcellular component assembly
p37
I2386
tp38
a(Vlipid metabolic process
p39
I2307
tp40
a(Vcytosol
p41
I2302
tp42
a(Venzyme binding
p43
I2129
tp44
a(Vplasma membrane
p45
I2004
tp46
a(Vcytoplasm
p47
I1997
tp48
a(Vnucleus
p49
I1976
tp50
a(Vanatomical structure formation involved in morphogenesis
p51
I1933
tp52
a(Vlocomotion
p53
I1906
tp54
a(VDNA metabolic process
p55
I1764
tp56
a(Vnucleolus
p57
I1734
tp58
a(Vtransmembrane transporter activity
p59
I1671
tp60
a(Voxidoreductase activity
p61
I1650
tp62
a(Vvesicle-mediated transport
p63
I1645
tp64
a(VDNA binding
p65
I1620
tp66
a(Vcell motility
p67
I1431
tp68
a(Vsignal transducer activity
p69
I1426
tp70
a(Vcarbohydrate metabolic process
p71
I1403
tp72
a(Vkinase activity
p73
I1394
tp74
a(Vhomeostatic process
p75
I1393
tp76
a(Vmacromolecular complex assembly
p77
I1317
tp78
a(Vtransmembrane transport
p79
I1299
tp80
a(Vnucleobase-containing compound catabolic process
p81
I1253
tp82
a(Vchromosome organization
p83
I1230
tp84
a(Vneurological system process
p85
I1189
tp86
a(Vprotein maturation
p87
I1176
tp88
a(Vcytoskeletal protein binding
p89
I1149
tp90
a(Vembryo development
p91
I1148
tp92
a(Vgrowth
p93
I1134
tp94
a(Vcellular amino acid metabolic process
p95
I1107
tp96
a(Vprotein complex assembly
p97
I1070
tp98
a(Vcytoskeleton organization
p99
I1052
tp100
a(Vmitochondrion
p101
I949
tp102
a(VRNA binding
p103
I947
tp104
a(Vcytoskeleton
p105
I918
tp106
a(Vcell adhesion
p107
I874
tp108
a(Vpeptidase activity
p109
I820
tp110
a(VGolgi apparatus
p111
I820
tp112
a(VATPase activity
p113
I808
tp114
a(Vcytoplasmic membrane-bounded vesicle
p115
I797
tp116
a(Vligase activity
p117
I796
tp118
a(Vcell-cell signaling
p119
I786
tp120
a(Vendoplasmic reticulum
p121
I773
tp122
a(Vmembrane organization
p123
I752
tp124
a(Vcell death
p125
I740
tp126
a(Vlipid binding
p127
I732
tp128
a(Vcell proliferation
p129
I731
tp130
a(Vendosome
p131
I710
tp132
a(Vnucleoplasm
p133
I668
tp134
a(Venzyme regulator activity
p135
I639
tp136
a(Vtranscription factor binding
p137
I638
tp138
a(Vsulfur compound metabolic process
p139
I631
tp140
a(Vnucleic acid binding transcription factor activity
p141
I631
tp142
a(Vextracellular region
p143
I619
tp144
a(Vcell morphogenesis
p145
I612
tp146
a(Vprotein binding transcription factor activity
p147
I607
tp148
a(Vmicrotubule organizing center
p149
I585
tp150
a(Vstructural molecule activity
p151
I514
tp152
a(Vcofactor metabolic process
p153
I495
tp154
a(Vextracellular space
p155
I474
tp156
a(Vextracellular matrix organization
p157
I455
tp158
a(Vcilium
p159
I443
tp160
a(Vtransferase activity, transferring glycosyl groups
p161
I437
tp162
a(Vtransferase activity, transferring acyl groups
p163
I406
tp164
a(VmRNA processing
p165
I393
tp166
a(Vphosphatase activity
p167
I383
tp168
a(Vprotein targeting
p169
I380
tp170
a(Vsymbiosis, encompassing mutualism through parasitism
p171
I370
tp172
a(Vgeneration of precursor metabolites and energy
p173
I365
tp174
a(Vvacuole
p175
I357
tp176
a(Vcell cycle
p177
I347
tp178
a(Vhelicase activity
p179
I324
tp180
a(Vlyase activity
p181
I318
tp182
a(Vcell junction organization
p183
I297
tp184
a(Vnuclease activity
p185
I297
tp186
a(Vmethyltransferase activity
p187
I267
tp188
a(Vaging
p189
I262
tp190
a(Vnucleocytoplasmic transport
p191
I260
tp192
a(Vcirculatory system process
p193
I241
tp194
a(Vcell division
p195
I239
tp196
a(Vreproduction
p197
I238
tp198
a(Vmitochondrion organization
p199
I234
tp200
a(VGTPase activity
p201
I222
tp202
a(Vlysosome
p203
I220
tp204
a(Vdevelopmental maturation
p205
I217
tp206
a(Vproteinaceous extracellular matrix
p207
I215
tp208
a(Vprotein folding
p209
I207
tp210
a(Vribonucleoprotein complex assembly
p211
I201
tp212
a(Vplasma membrane organization
p213
I196
tp214
a(Vnucleotidyltransferase activity
p215
I193
tp216
a(Vchromosome
p217
I191
tp218
a(Vplastid
p219
I187
tp220
a(Vhydrolase activity, acting on carbon-nitrogen (but not peptide) bonds
p221
I186
tp222
a(Vhydrolase activity, acting on glycosyl bonds
p223
I175
tp224
a(Vhistone binding
p225
I175
tp226
a(Visomerase activity
p227
I171
tp228
a(Vcytoskeleton-dependent intracellular transport
p229
I169
tp230
a(VtRNA metabolic process
p231
I146
tp232
a(Vnuclear envelope
p233
I144
tp234
a(Vexternal encapsulating structure
p235
I142
tp236
a(VmRNA binding
p237
I142
tp238
a(Vsecondary metabolic process
p239
I140
tp240
a(Vcell wall
p241
I138
tp242
a(Vintracellular
p243
I133
tp244
a(Vtranslation
p245
I126
tp246
a(Vprotein binding, bridging
p247
I116
tp248
a(Vchromosome segregation
p249
I113
tp250
a(Vcell wall organization or biogenesis
p251
I112
tp252
a(Vperoxisome
p253
I108
tp254
a(Vmitosis
p255
I106
tp256
a(Vprotein transporter activity
p257
I104
tp258
a(Vstructural constituent of ribosome
p259
I101
tp260
a(Vtranslation factor activity, nucleic acid binding
p261
I98
tp262
a(Vunfolded protein binding
p263
I91
tp264
a(Vvacuolar transport
p265
I89
tp266
a(Vsmall conjugating protein binding
p267
I86
tp268
a(Vlipid particle
p269
I81
tp270
a(Vtransferase activity, transferring alkyl or aryl (other than methyl) groups
p271
I80
tp272
a(Vribosome
p273
I74
tp274
a(Vpigmentation
p275
I60
tp276
a(Vnuclear chromosome
p277
I54
tp278
a(VrRNA binding
p279
I52
tp280
a(Vribosome biogenesis
p281
I35
tp282
a(Vthylakoid
p283
I15
tp284
a(Vnitrogen cycle metabolic process
p285
I15
tp286
a(Vtransposition
p287
I13
tp288
a(Vcell
p289
I7
tp290
a(Vphotosynthesis
p291
I5
tp292
a(VRNA modification guide activity
p293
I1
tp294
aa(lp295
(g3
L6372L
tp296
a(g5
L4365L
tp297
a(g7
L2787L
tp298
a(g9
L21685L
tp299
a(g11
L26888L
tp300
a(g13
L5491L
tp301
a(g15
L5801L
tp302
a(g17
L18268L
tp303
a(g19
L21693L
tp304
a(g21
L5613L
tp305
a(g23
L22689L
tp306
a(g25
L21630L
tp307
a(g27
L7192L
tp308
a(g29
L5168L
tp309
a(g31
L1781L
tp310
a(g33
L7190L
tp311
a(g35
L13924L
tp312
a(g37
L13633L
tp313
a(g39
L5326L
tp314
a(g41
L4599L
tp315
a(g43
L12968L
tp316
a(g45
L4644L
tp317
a(g47
L4514L
tp318
a(g49
L4422L
tp319
a(g51
L26682L
tp320
a(g53
L20507L
tp321
a(g55
L4995L
tp322
a(g57
L4507L
tp323
a(g59
L13690L
tp324
a(g61
L10598L
tp325
a(g63
L10381L
tp326
a(g65
L2790L
tp327
a(g67
L26901L
tp328
a(g69
L3827L
tp329
a(g71
L4725L
tp330
a(g73
L10466L
tp331
a(g75
L21086L
tp332
a(g77
L31581L
tp333
a(g79
L29927L
tp334
a(g81
L18282L
tp335
a(g83
L28228L
tp336
a(g85
L27837L
tp337
a(g87
L28535L
tp338
a(g89
L6320L
tp339
a(g91
L7881L
tp340
a(g93
L20503L
tp341
a(g95
L5218L
tp342
a(g97
L5165L
tp343
a(g99
L5663L
tp344
a(g101
L4515L
tp345
a(g103
L2830L
tp346
a(g105
L4621L
tp347
a(g107
L5791L
tp348
a(g109
L6448L
tp349
a(g111
L4567L
tp350
a(g113
L10963L
tp351
a(g115
L10229L
tp352
a(g117
L10950L
tp353
a(g119
L5896L
tp354
a(g121
L4556L
tp355
a(g123
L30984L
tp356
a(g125
L6436L
tp357
a(g127
L6500L
tp358
a(g129
L6494L
tp359
a(g131
L4542L
tp360
a(g133
L4439L
tp361
a(g135
L14001L
tp362
a(g137
L6357L
tp363
a(g139
L5471L
tp364
a(g141
L759L
tp365
a(g143
L4366L
tp366
a(g145
L594L
tp367
a(g147
L677L
tp368
a(g149
L4586L
tp369
a(g151
L4118L
tp370
a(g153
L28144L
tp371
a(g155
L4405L
tp372
a(g157
L13967L
tp373
a(g159
L4684L
tp374
a(g161
L10840L
tp375
a(g163
L10829L
tp376
a(g165
L5112L
tp377
a(g167
L10870L
tp378
a(g169
L5302L
tp379
a(g171
L22810L
tp380
a(g173
L4838L
tp381
a(g175
L4546L
tp382
a(g177
L5695L
tp383
a(g179
L3404L
tp384
a(g181
L10905L
tp385
a(g183
L17965L
tp386
a(g185
L3518L
tp387
a(g187
L6389L
tp388
a(g189
L6169L
tp389
a(g191
L5582L
tp390
a(g193
L2364L
tp391
a(g195
L28251L
tp392
a(g197
L3L
tp393
a(g199
L5658L
tp394
a(g201
L2991L
tp395
a(g203
L4538L
tp396
a(g205
L13274L
tp397
a(g207
L4368L
tp398
a(g209
L5161L
tp399
a(g211
L13644L
tp400
a(g213
L5662L
tp401
a(g215
L10860L
tp402
a(g217
L4475L
tp403
a(g219
L7644L
tp404
a(g221
L10886L
tp405
a(g223
L10876L
tp406
a(g225
L20900L
tp407
a(g227
L10929L
tp408
a(g229
L14427L
tp409
a(g231
L5114L
tp410
a(g233
L4423L
tp411
a(g235
L14078L
tp412
a(g237
L2835L
tp413
a(g239
L12827L
tp414
a(g241
L4408L
tp415
a(g243
L4411L
tp416
a(g245
L5126L
tp417
a(g247
L14396L
tp418
a(g249
L5705L
tp419
a(g251
L33137L
tp420
a(g253
L4550L
tp421
a(g255
L5712L
tp422
a(g257
L6747L
tp423
a(g259
L2841L
tp424
a(g261
L6358L
tp425
a(g263
L28040L
tp426
a(g265
L5682L
tp427
a(g267
L15840L
tp428
a(g269
L4583L
tp429
a(g271
L10848L
tp430
a(g273
L4609L
tp431
a(g275
L21900L
tp432
a(g277
L201L
tp433
a(g279
L12918L
tp434
a(g281
L20770L
tp435
a(g283
L7683L
tp436
a(g285
L33512L
tp437
a(g287
L15852L
tp438
a(g289
L4412L
tp439
a(g291
L10192L
tp440
a(g293
L14288L
tp441
aaI434247
a.