(lp1
(lp2
(Vbiological_process
p3
I178991
tp4
a(Vcellular_component
p5
I58428
tp6
a(Vmolecular_function
p7
I49766
tp8
a(Vorganelle
p9
I14937
tp10
a(Vanatomical structure development
p11
I13821
tp12
a(Vtransport
p13
I9593
tp14
a(Vsignal transduction
p15
I8618
tp16
a(Vcellular nitrogen compound metabolic process
p17
I7868
tp18
a(Vprotein complex
p19
I6685
tp20
a(Vresponse to stress
p21
I6507
tp22
a(Vsmall molecule metabolic process
p23
I6358
tp24
a(Vion binding
p25
I6207
tp26
a(Vbiosynthetic process
p27
I5587
tp28
a(Vcellular protein modification process
p29
I4478
tp30
a(Vcatabolic process
p31
I4035
tp32
a(Vimmune system process
p33
I3920
tp34
a(Vcell differentiation
p35
I3408
tp36
a(Vcellular component assembly
p37
I3005
tp38
a(Vcytosol
p39
I2788
tp40
a(Venzyme binding
p41
I2671
tp42
a(Vlipid metabolic process
p43
I2666
tp44
a(Vlocomotion
p45
I2415
tp46
a(Vanatomical structure formation involved in morphogenesis
p47
I2261
tp48
a(Vplasma membrane
p49
I2139
tp50
a(Vvesicle-mediated transport
p51
I2033
tp52
a(Vnucleus
p53
I1903
tp54
a(Vnucleolus
p55
I1888
tp56
a(VDNA metabolic process
p57
I1871
tp58
a(Vcell motility
p59
I1846
tp60
a(Vtransmembrane transporter activity
p61
I1807
tp62
a(Vcarbohydrate metabolic process
p63
I1797
tp64
a(VDNA binding
p65
I1730
tp66
a(Vhomeostatic process
p67
I1715
tp68
a(Voxidoreductase activity
p69
I1712
tp70
a(Vmacromolecular complex assembly
p71
I1684
tp72
a(Vcytoplasm
p73
I1615
tp74
a(Vneurological system process
p75
I1578
tp76
a(Vchromosome organization
p77
I1536
tp78
a(Vkinase activity
p79
I1520
tp80
a(Vgrowth
p81
I1478
tp82
a(Vcytoskeletal protein binding
p83
I1427
tp84
a(Vnucleobase-containing compound catabolic process
p85
I1413
tp86
a(Vtransmembrane transport
p87
I1401
tp88
a(Vsignal transducer activity
p89
I1397
tp90
a(Vcytoskeleton organization
p91
I1386
tp92
a(Vprotein maturation
p93
I1361
tp94
a(Vembryo development
p95
I1360
tp96
a(Vprotein complex assembly
p97
I1341
tp98
a(Vcellular amino acid metabolic process
p99
I1312
tp100
a(Vcell adhesion
p101
I1112
tp102
a(Vmitochondrion
p103
I1061
tp104
a(VATPase activity
p105
I1053
tp106
a(VRNA binding
p107
I1035
tp108
a(Vcytoplasmic membrane-bounded vesicle
p109
I1035
tp110
a(Vcytoskeleton
p111
I992
tp112
a(VGolgi apparatus
p113
I992
tp114
a(Vmembrane organization
p115
I957
tp116
a(Vlipid binding
p117
I949
tp118
a(Vpeptidase activity
p119
I905
tp120
a(Vendoplasmic reticulum
p121
I852
tp122
a(Vligase activity
p123
I847
tp124
a(Vcell death
p125
I839
tp126
a(Venzyme regulator activity
p127
I832
tp128
a(Vendosome
p129
I827
tp130
a(Vcell proliferation
p131
I818
tp132
a(Vcell-cell signaling
p133
I811
tp134
a(Vcell morphogenesis
p135
I781
tp136
a(Vsulfur compound metabolic process
p137
I756
tp138
a(Vtranscription factor binding
p139
I753
tp140
a(Vprotein binding transcription factor activity
p141
I740
tp142
a(Vnucleoplasm
p143
I719
tp144
a(Vstructural molecule activity
p145
I709
tp146
a(Vmicrotubule organizing center
p147
I683
tp148
a(Vextracellular region
p149
I625
tp150
a(Vnucleic acid binding transcription factor activity
p151
I576
tp152
a(Vextracellular matrix organization
p153
I563
tp154
a(Vcofactor metabolic process
p155
I561
tp156
a(Vextracellular space
p157
I546
tp158
a(Vcilium
p159
I524
tp160
a(Vprotein targeting
p161
I501
tp162
a(Vgeneration of precursor metabolites and energy
p163
I476
tp164
a(Vtransferase activity, transferring acyl groups
p165
I462
tp166
a(VmRNA processing
p167
I461
tp168
a(Vvacuole
p169
I452
tp170
a(Vsymbiosis, encompassing mutualism through parasitism
p171
I442
tp172
a(Vtransferase activity, transferring glycosyl groups
p173
I427
tp174
a(Vphosphatase activity
p175
I385
tp176
a(Vlyase activity
p177
I376
tp178
a(Vcell junction organization
p179
I372
tp180
a(Vaging
p181
I358
tp182
a(Vhelicase activity
p183
I357
tp184
a(Vcell cycle
p185
I340
tp186
a(Vnucleocytoplasmic transport
p187
I326
tp188
a(Vplastid
p189
I294
tp190
a(Vreproduction
p191
I289
tp192
a(Vcell division
p193
I282
tp194
a(Vdevelopmental maturation
p195
I280
tp196
a(Vmitochondrion organization
p197
I278
tp198
a(Vribonucleoprotein complex assembly
p199
I272
tp200
a(Vmethyltransferase activity
p201
I263
tp202
a(Vlysosome
p203
I262
tp204
a(Vcirculatory system process
p205
I262
tp206
a(Vnuclease activity
p207
I261
tp208
a(Vproteinaceous extracellular matrix
p209
I249
tp210
a(Vprotein folding
p211
I247
tp212
a(Vcytoskeleton-dependent intracellular transport
p213
I235
tp214
a(Vchromosome
p215
I218
tp216
a(Vexternal encapsulating structure
p217
I216
tp218
a(Vhydrolase activity, acting on glycosyl bonds
p219
I212
tp220
a(Vcell wall
p221
I211
tp222
a(VGTPase activity
p223
I211
tp224
a(Vnuclear envelope
p225
I208
tp226
a(Visomerase activity
p227
I207
tp228
a(Vhistone binding
p229
I207
tp230
a(Vnucleotidyltransferase activity
p231
I199
tp232
a(Vsecondary metabolic process
p233
I197
tp234
a(Vhydrolase activity, acting on carbon-nitrogen (but not peptide) bonds
p235
I188
tp236
a(VtRNA metabolic process
p237
I180
tp238
a(VmRNA binding
p239
I179
tp240
a(Vplasma membrane organization
p241
I178
tp242
a(Vcell wall organization or biogenesis
p243
I167
tp244
a(Vprotein binding, bridging
p245
I148
tp246
a(Vchromosome segregation
p247
I136
tp248
a(Vsmall conjugating protein binding
p249
I134
tp250
a(Vperoxisome
p251
I130
tp252
a(Vprotein transporter activity
p253
I129
tp254
a(Vvacuolar transport
p255
I125
tp256
a(Vunfolded protein binding
p257
I120
tp258
a(Vtranslation factor activity, nucleic acid binding
p259
I120
tp260
a(Vstructural constituent of ribosome
p261
I119
tp262
a(Vmitosis
p263
I117
tp264
a(Vtranslation
p265
I116
tp266
a(Vlipid particle
p267
I111
tp268
a(Vintracellular
p269
I88
tp270
a(Vribosome
p271
I83
tp272
a(Vtransferase activity, transferring alkyl or aryl (other than methyl) groups
p273
I71
tp274
a(Vpigmentation
p275
I70
tp276
a(Vnuclear chromosome
p277
I63
tp278
a(VrRNA binding
p279
I45
tp280
a(Vribosome biogenesis
p281
I38
tp282
a(Vnitrogen cycle metabolic process
p283
I27
tp284
a(Vthylakoid
p285
I20
tp286
a(Vcell
p287
I8
tp288
a(Vphotosynthesis
p289
I5
tp290
a(Vtransposition
p291
I3
tp292
a(VRNA modification guide activity
p293
I1
tp294
aa(lp295
(g3
L6372L
tp296
a(g5
L4365L
tp297
a(g7
L2787L
tp298
a(g9
L21685L
tp299
a(g11
L26888L
tp300
a(g13
L5491L
tp301
a(g15
L5801L
tp302
a(g17
L18268L
tp303
a(g19
L21693L
tp304
a(g21
L5613L
tp305
a(g23
L22689L
tp306
a(g25
L21630L
tp307
a(g27
L7192L
tp308
a(g29
L5168L
tp309
a(g31
L7190L
tp310
a(g33
L1781L
tp311
a(g35
L13924L
tp312
a(g37
L13633L
tp313
a(g39
L4599L
tp314
a(g41
L12968L
tp315
a(g43
L5326L
tp316
a(g45
L20507L
tp317
a(g47
L26682L
tp318
a(g49
L4644L
tp319
a(g51
L10381L
tp320
a(g53
L4422L
tp321
a(g55
L4507L
tp322
a(g57
L4995L
tp323
a(g59
L26901L
tp324
a(g61
L13690L
tp325
a(g63
L4725L
tp326
a(g65
L2790L
tp327
a(g67
L21086L
tp328
a(g69
L10598L
tp329
a(g71
L31581L
tp330
a(g73
L4514L
tp331
a(g75
L27837L
tp332
a(g77
L28228L
tp333
a(g79
L10466L
tp334
a(g81
L20503L
tp335
a(g83
L6320L
tp336
a(g85
L18282L
tp337
a(g87
L29927L
tp338
a(g89
L3827L
tp339
a(g91
L5663L
tp340
a(g93
L28535L
tp341
a(g95
L7881L
tp342
a(g97
L5165L
tp343
a(g99
L5218L
tp344
a(g101
L5791L
tp345
a(g103
L4515L
tp346
a(g105
L10963L
tp347
a(g107
L2830L
tp348
a(g109
L10229L
tp349
a(g111
L4621L
tp350
a(g113
L4567L
tp351
a(g115
L30984L
tp352
a(g117
L6500L
tp353
a(g119
L6448L
tp354
a(g121
L4556L
tp355
a(g123
L10950L
tp356
a(g125
L6436L
tp357
a(g127
L14001L
tp358
a(g129
L4542L
tp359
a(g131
L6494L
tp360
a(g133
L5896L
tp361
a(g135
L594L
tp362
a(g137
L5471L
tp363
a(g139
L6357L
tp364
a(g141
L677L
tp365
a(g143
L4439L
tp366
a(g145
L4118L
tp367
a(g147
L4586L
tp368
a(g149
L4366L
tp369
a(g151
L759L
tp370
a(g153
L13967L
tp371
a(g155
L28144L
tp372
a(g157
L4405L
tp373
a(g159
L4684L
tp374
a(g161
L5302L
tp375
a(g163
L4838L
tp376
a(g165
L10829L
tp377
a(g167
L5112L
tp378
a(g169
L4546L
tp379
a(g171
L22810L
tp380
a(g173
L10840L
tp381
a(g175
L10870L
tp382
a(g177
L10905L
tp383
a(g179
L17965L
tp384
a(g181
L6169L
tp385
a(g183
L3404L
tp386
a(g185
L5695L
tp387
a(g187
L5582L
tp388
a(g189
L7644L
tp389
a(g191
L3L
tp390
a(g193
L28251L
tp391
a(g195
L13274L
tp392
a(g197
L5658L
tp393
a(g199
L13644L
tp394
a(g201
L6389L
tp395
a(g203
L4538L
tp396
a(g205
L2364L
tp397
a(g207
L3518L
tp398
a(g209
L4368L
tp399
a(g211
L5161L
tp400
a(g213
L14427L
tp401
a(g215
L4475L
tp402
a(g217
L14078L
tp403
a(g219
L10876L
tp404
a(g221
L4408L
tp405
a(g223
L2991L
tp406
a(g225
L4423L
tp407
a(g227
L10929L
tp408
a(g229
L20900L
tp409
a(g231
L10860L
tp410
a(g233
L12827L
tp411
a(g235
L10886L
tp412
a(g237
L5114L
tp413
a(g239
L2835L
tp414
a(g241
L5662L
tp415
a(g243
L33137L
tp416
a(g245
L14396L
tp417
a(g247
L5705L
tp418
a(g249
L15840L
tp419
a(g251
L4550L
tp420
a(g253
L6747L
tp421
a(g255
L5682L
tp422
a(g257
L28040L
tp423
a(g259
L6358L
tp424
a(g261
L2841L
tp425
a(g263
L5712L
tp426
a(g265
L5126L
tp427
a(g267
L4583L
tp428
a(g269
L4411L
tp429
a(g271
L4609L
tp430
a(g273
L10848L
tp431
a(g275
L21900L
tp432
a(g277
L201L
tp433
a(g279
L12918L
tp434
a(g281
L20770L
tp435
a(g283
L33512L
tp436
a(g285
L7683L
tp437
a(g287
L4412L
tp438
a(g289
L10192L
tp439
a(g291
L15852L
tp440
a(g293
L14288L
tp441
aaI485930
a.