(lp1
(lp2
(Vbiological_process
p3
I69341
tp4
a(Vcellular_component
p5
I21461
tp6
a(Vmolecular_function
p7
I18795
tp8
a(Vanatomical structure development
p9
I5665
tp10
a(Vorganelle
p11
I5369
tp12
a(Vtransport
p13
I3377
tp14
a(Vsignal transduction
p15
I3339
tp16
a(Vcellular nitrogen compound metabolic process
p17
I3104
tp18
a(Vsmall molecule metabolic process
p19
I2622
tp20
a(Vbiosynthetic process
p21
I2450
tp22
a(Vresponse to stress
p23
I2429
tp24
a(Vprotein complex
p25
I2322
tp26
a(Vion binding
p27
I2290
tp28
a(Vcellular protein modification process
p29
I1644
tp30
a(Vimmune system process
p31
I1603
tp32
a(Vcatabolic process
p33
I1502
tp34
a(Vcell differentiation
p35
I1492
tp36
a(Vcellular component assembly
p37
I1061
tp38
a(Vlipid metabolic process
p39
I985
tp40
a(Vlocomotion
p41
I938
tp42
a(Vanatomical structure formation involved in morphogenesis
p43
I918
tp44
a(Vcytosol
p45
I916
tp46
a(Venzyme binding
p47
I913
tp48
a(Vplasma membrane
p49
I773
tp50
a(Voxidoreductase activity
p51
I744
tp52
a(VDNA metabolic process
p53
I743
tp54
a(Vcell motility
p55
I734
tp56
a(Vkinase activity
p57
I718
tp58
a(Vvesicle-mediated transport
p59
I712
tp60
a(Vnucleus
p61
I697
tp62
a(Vcytoplasm
p63
I690
tp64
a(Vcarbohydrate metabolic process
p65
I684
tp66
a(Vtransmembrane transporter activity
p67
I621
tp68
a(Vgrowth
p69
I588
tp70
a(VDNA binding
p71
I582
tp72
a(Vcellular amino acid metabolic process
p73
I581
tp74
a(Vnucleolus
p75
I577
tp76
a(Vhomeostatic process
p77
I571
tp78
a(Vneurological system process
p79
I570
tp80
a(Vnucleobase-containing compound catabolic process
p81
I558
tp82
a(Vmacromolecular complex assembly
p83
I550
tp84
a(Vsignal transducer activity
p85
I524
tp86
a(Vcytoskeletal protein binding
p87
I523
tp88
a(Vcell adhesion
p89
I487
tp90
a(Vembryo development
p91
I487
tp92
a(VATPase activity
p93
I487
tp94
a(Vcytoskeleton organization
p95
I481
tp96
a(Vchromosome organization
p97
I473
tp98
a(Vprotein maturation
p99
I464
tp100
a(Vtransmembrane transport
p101
I456
tp102
a(Vprotein complex assembly
p103
I452
tp104
a(Vcytoskeleton
p105
I388
tp106
a(Vmitochondrion
p107
I383
tp108
a(Vligase activity
p109
I344
tp110
a(Vcell death
p111
I340
tp112
a(VRNA binding
p113
I338
tp114
a(Vsulfur compound metabolic process
p115
I323
tp116
a(Vmembrane organization
p117
I318
tp118
a(Vpeptidase activity
p119
I314
tp120
a(Vcell proliferation
p121
I314
tp122
a(Vcytoplasmic membrane-bounded vesicle
p123
I312
tp124
a(Vcell morphogenesis
p125
I311
tp126
a(VGolgi apparatus
p127
I309
tp128
a(Vendoplasmic reticulum
p129
I293
tp130
a(Vendosome
p131
I293
tp132
a(Vlipid binding
p133
I292
tp134
a(Vprotein binding transcription factor activity
p135
I263
tp136
a(Vcell-cell signaling
p137
I261
tp138
a(Vnucleoplasm
p139
I249
tp140
a(Vextracellular region
p141
I248
tp142
a(Vtranscription factor binding
p143
I247
tp144
a(Venzyme regulator activity
p145
I233
tp146
a(Vcofactor metabolic process
p147
I233
tp148
a(Vstructural molecule activity
p149
I225
tp150
a(Vmicrotubule organizing center
p151
I215
tp152
a(Vcilium
p153
I212
tp154
a(Vtransferase activity, transferring glycosyl groups
p155
I198
tp156
a(Vextracellular matrix organization
p157
I196
tp158
a(Vnucleic acid binding transcription factor activity
p159
I187
tp160
a(Vextracellular space
p161
I184
tp162
a(Vlyase activity
p163
I164
tp164
a(Vprotein targeting
p165
I162
tp166
a(Vvacuole
p167
I161
tp168
a(Vtransferase activity, transferring acyl groups
p169
I157
tp170
a(Vhelicase activity
p171
I155
tp172
a(Vgeneration of precursor metabolites and energy
p173
I153
tp174
a(Vcell junction organization
p175
I150
tp176
a(VmRNA processing
p177
I146
tp178
a(Vcell cycle
p179
I143
tp180
a(Vphosphatase activity
p181
I136
tp182
a(Vsymbiosis, encompassing mutualism through parasitism
p183
I136
tp184
a(Vaging
p185
I119
tp186
a(Vcell division
p187
I116
tp188
a(Vnuclease activity
p189
I115
tp190
a(Vproteinaceous extracellular matrix
p191
I104
tp192
a(Vplastid
p193
I102
tp194
a(Vnucleotidyltransferase activity
p195
I99
tp196
a(Vmethyltransferase activity
p197
I97
tp198
a(Vexternal encapsulating structure
p199
I95
tp200
a(Vcell wall
p201
I93
tp202
a(Vmitochondrion organization
p203
I93
tp204
a(Vlysosome
p205
I92
tp206
a(Vchromosome
p207
I91
tp208
a(Vdevelopmental maturation
p209
I90
tp210
a(Vnucleocytoplasmic transport
p211
I89
tp212
a(Vreproduction
p213
I87
tp214
a(Vhydrolase activity, acting on glycosyl bonds
p215
I85
tp216
a(Visomerase activity
p217
I84
tp218
a(Vhydrolase activity, acting on carbon-nitrogen (but not peptide) bonds
p219
I82
tp220
a(VtRNA metabolic process
p221
I82
tp222
a(Vribonucleoprotein complex assembly
p223
I80
tp224
a(VGTPase activity
p225
I76
tp226
a(Vprotein folding
p227
I73
tp228
a(Vcell wall organization or biogenesis
p229
I70
tp230
a(Vnuclear envelope
p231
I69
tp232
a(Vcirculatory system process
p233
I68
tp234
a(Vhistone binding
p235
I66
tp236
a(Vsecondary metabolic process
p237
I63
tp238
a(Vtranslation
p239
I60
tp240
a(Vcytoskeleton-dependent intracellular transport
p241
I58
tp242
a(Vplasma membrane organization
p243
I57
tp244
a(Vprotein transporter activity
p245
I55
tp246
a(VmRNA binding
p247
I54
tp248
a(Vprotein binding, bridging
p249
I47
tp250
a(Vchromosome segregation
p251
I46
tp252
a(Vintracellular
p253
I44
tp254
a(Vtranslation factor activity, nucleic acid binding
p255
I43
tp256
a(Vunfolded protein binding
p257
I40
tp258
a(Vlipid particle
p259
I40
tp260
a(Vperoxisome
p261
I39
tp262
a(Vstructural constituent of ribosome
p263
I38
tp264
a(Vmitosis
p265
I37
tp266
a(Vsmall conjugating protein binding
p267
I34
tp268
a(Vpigmentation
p269
I34
tp270
a(Vtransferase activity, transferring alkyl or aryl (other than methyl) groups
p271
I32
tp272
a(Vribosome
p273
I32
tp274
a(Vvacuolar transport
p275
I28
tp276
a(VrRNA binding
p277
I21
tp278
a(Vnuclear chromosome
p279
I21
tp280
a(Vribosome biogenesis
p281
I7
tp282
a(Vthylakoid
p283
I6
tp284
a(Vnitrogen cycle metabolic process
p285
I6
tp286
a(Vtransposition
p287
I2
tp288
a(Vphotosynthesis
p289
I1
tp290
a(VRNA modification guide activity
p291
I1
tp292
a(Vcell
p293
I1
tp294
aa(lp295
(g3
L6372L
tp296
a(g5
L4365L
tp297
a(g7
L2787L
tp298
a(g9
L26888L
tp299
a(g11
L21685L
tp300
a(g13
L5491L
tp301
a(g15
L5801L
tp302
a(g17
L18268L
tp303
a(g19
L22689L
tp304
a(g21
L7192L
tp305
a(g23
L5613L
tp306
a(g25
L21693L
tp307
a(g27
L21630L
tp308
a(g29
L5168L
tp309
a(g31
L1781L
tp310
a(g33
L7190L
tp311
a(g35
L13924L
tp312
a(g37
L13633L
tp313
a(g39
L5326L
tp314
a(g41
L20507L
tp315
a(g43
L26682L
tp316
a(g45
L4599L
tp317
a(g47
L12968L
tp318
a(g49
L4644L
tp319
a(g51
L10598L
tp320
a(g53
L4995L
tp321
a(g55
L26901L
tp322
a(g57
L10466L
tp323
a(g59
L10381L
tp324
a(g61
L4422L
tp325
a(g63
L4514L
tp326
a(g65
L4725L
tp327
a(g67
L13690L
tp328
a(g69
L20503L
tp329
a(g71
L2790L
tp330
a(g73
L5218L
tp331
a(g75
L4507L
tp332
a(g77
L21086L
tp333
a(g79
L27837L
tp334
a(g81
L18282L
tp335
a(g83
L31581L
tp336
a(g85
L3827L
tp337
a(g87
L6320L
tp338
a(g89
L5791L
tp339
a(g91
L7881L
tp340
a(g93
L10963L
tp341
a(g95
L5663L
tp342
a(g97
L28228L
tp343
a(g99
L28535L
tp344
a(g101
L29927L
tp345
a(g103
L5165L
tp346
a(g105
L4621L
tp347
a(g107
L4515L
tp348
a(g109
L10950L
tp349
a(g111
L6436L
tp350
a(g113
L2830L
tp351
a(g115
L5471L
tp352
a(g117
L30984L
tp353
a(g119
L6448L
tp354
a(g121
L6494L
tp355
a(g123
L10229L
tp356
a(g125
L594L
tp357
a(g127
L4567L
tp358
a(g129
L4556L
tp359
a(g131
L4542L
tp360
a(g133
L6500L
tp361
a(g135
L677L
tp362
a(g137
L5896L
tp363
a(g139
L4439L
tp364
a(g141
L4366L
tp365
a(g143
L6357L
tp366
a(g145
L14001L
tp367
a(g147
L28144L
tp368
a(g149
L4118L
tp369
a(g151
L4586L
tp370
a(g153
L4684L
tp371
a(g155
L10840L
tp372
a(g157
L13967L
tp373
a(g159
L759L
tp374
a(g161
L4405L
tp375
a(g163
L10905L
tp376
a(g165
L5302L
tp377
a(g167
L4546L
tp378
a(g169
L10829L
tp379
a(g171
L3404L
tp380
a(g173
L4838L
tp381
a(g175
L17965L
tp382
a(g177
L5112L
tp383
a(g179
L5695L
tp384
a(g181
L10870L
tp385
a(g183
L22810L
tp386
a(g185
L6169L
tp387
a(g187
L28251L
tp388
a(g189
L3518L
tp389
a(g191
L4368L
tp390
a(g193
L7644L
tp391
a(g195
L10860L
tp392
a(g197
L6389L
tp393
a(g199
L14078L
tp394
a(g201
L4408L
tp395
a(g203
L5658L
tp396
a(g205
L4538L
tp397
a(g207
L4475L
tp398
a(g209
L13274L
tp399
a(g211
L5582L
tp400
a(g213
L3L
tp401
a(g215
L10876L
tp402
a(g217
L10929L
tp403
a(g219
L10886L
tp404
a(g221
L5114L
tp405
a(g223
L13644L
tp406
a(g225
L2991L
tp407
a(g227
L5161L
tp408
a(g229
L33137L
tp409
a(g231
L4423L
tp410
a(g233
L2364L
tp411
a(g235
L20900L
tp412
a(g237
L12827L
tp413
a(g239
L5126L
tp414
a(g241
L14427L
tp415
a(g243
L5662L
tp416
a(g245
L6747L
tp417
a(g247
L2835L
tp418
a(g249
L14396L
tp419
a(g251
L5705L
tp420
a(g253
L4411L
tp421
a(g255
L6358L
tp422
a(g257
L28040L
tp423
a(g259
L4583L
tp424
a(g261
L4550L
tp425
a(g263
L2841L
tp426
a(g265
L5712L
tp427
a(g267
L15840L
tp428
a(g269
L21900L
tp429
a(g271
L10848L
tp430
a(g273
L4609L
tp431
a(g275
L5682L
tp432
a(g277
L12918L
tp433
a(g279
L201L
tp434
a(g281
L20770L
tp435
a(g283
L7683L
tp436
a(g285
L33512L
tp437
a(g287
L15852L
tp438
a(g289
L10192L
tp439
a(g291
L14288L
tp440
a(g293
L4412L
tp441
aaI184013
a.