(lp1
(lp2
(Vbiological_process
p3
I229538
tp4
a(Vcellular_component
p5
I76099
tp6
a(Vmolecular_function
p7
I63920
tp8
a(Vorganelle
p9
I20023
tp10
a(Vanatomical structure development
p11
I17520
tp12
a(Vtransport
p13
I12186
tp14
a(Vsignal transduction
p15
I10777
tp16
a(Vcellular nitrogen compound metabolic process
p17
I10397
tp18
a(Vprotein complex
p19
I8655
tp20
a(Vresponse to stress
p21
I8410
tp22
a(Vion binding
p23
I8058
tp24
a(Vsmall molecule metabolic process
p25
I7904
tp26
a(Vbiosynthetic process
p27
I7217
tp28
a(Vcellular protein modification process
p29
I5783
tp30
a(Vcatabolic process
p31
I5219
tp32
a(Vimmune system process
p33
I4786
tp34
a(Vcell differentiation
p35
I4366
tp36
a(Vcellular component assembly
p37
I3870
tp38
a(Vcytosol
p39
I3628
tp40
a(Vlipid metabolic process
p41
I3481
tp42
a(Venzyme binding
p43
I3376
tp44
a(Vlocomotion
p45
I3007
tp46
a(Vanatomical structure formation involved in morphogenesis
p47
I2787
tp48
a(Vplasma membrane
p49
I2732
tp50
a(Vvesicle-mediated transport
p51
I2687
tp52
a(Vnucleolus
p53
I2637
tp54
a(Vnucleus
p55
I2465
tp56
a(VDNA metabolic process
p57
I2447
tp58
a(Vtransmembrane transporter activity
p59
I2278
tp60
a(Voxidoreductase activity
p61
I2260
tp62
a(Vcell motility
p63
I2236
tp64
a(Vhomeostatic process
p65
I2216
tp66
a(VDNA binding
p67
I2203
tp68
a(Vcytoplasm
p69
I2144
tp70
a(Vchromosome organization
p71
I2103
tp72
a(Vmacromolecular complex assembly
p73
I2064
tp74
a(Vcarbohydrate metabolic process
p75
I2051
tp76
a(Vneurological system process
p77
I2038
tp78
a(Vcytoskeletal protein binding
p79
I1947
tp80
a(Vkinase activity
p81
I1911
tp82
a(Vnucleobase-containing compound catabolic process
p83
I1865
tp84
a(Vgrowth
p85
I1834
tp86
a(Vsignal transducer activity
p87
I1824
tp88
a(Vcytoskeleton organization
p89
I1789
tp90
a(Vembryo development
p91
I1774
tp92
a(Vprotein maturation
p93
I1722
tp94
a(Vtransmembrane transport
p95
I1716
tp96
a(Vprotein complex assembly
p97
I1661
tp98
a(Vcellular amino acid metabolic process
p99
I1563
tp100
a(VRNA binding
p101
I1426
tp102
a(Vlipid binding
p103
I1411
tp104
a(Vmitochondrion
p105
I1393
tp106
a(Vcytoplasmic membrane-bounded vesicle
p107
I1362
tp108
a(Vcell adhesion
p109
I1357
tp110
a(VGolgi apparatus
p111
I1353
tp112
a(Vcytoskeleton
p113
I1341
tp114
a(VATPase activity
p115
I1216
tp116
a(Vmembrane organization
p117
I1168
tp118
a(Vendoplasmic reticulum
p119
I1154
tp120
a(Vpeptidase activity
p121
I1146
tp122
a(Vcell death
p123
I1141
tp124
a(Vendosome
p125
I1123
tp126
a(Vcell-cell signaling
p127
I1092
tp128
a(Venzyme regulator activity
p129
I1068
tp130
a(Vligase activity
p131
I1064
tp132
a(Vcell proliferation
p133
I1051
tp134
a(Vnucleoplasm
p135
I982
tp136
a(Vmicrotubule organizing center
p137
I960
tp138
a(Vtranscription factor binding
p139
I947
tp140
a(Vprotein binding transcription factor activity
p141
I945
tp142
a(Vcell morphogenesis
p143
I932
tp144
a(Vsulfur compound metabolic process
p145
I910
tp146
a(Vstructural molecule activity
p147
I891
tp148
a(Vnucleic acid binding transcription factor activity
p149
I836
tp150
a(Vextracellular region
p151
I779
tp152
a(Vprotein targeting
p153
I739
tp154
a(Vcofactor metabolic process
p155
I700
tp156
a(Vextracellular matrix organization
p157
I683
tp158
a(Vextracellular space
p159
I681
tp160
a(Vcilium
p161
I649
tp162
a(Vtransferase activity, transferring acyl groups
p163
I627
tp164
a(VmRNA processing
p165
I616
tp166
a(Vvacuole
p167
I600
tp168
a(Vgeneration of precursor metabolites and energy
p169
I592
tp170
a(Vsymbiosis, encompassing mutualism through parasitism
p171
I563
tp172
a(Vtransferase activity, transferring glycosyl groups
p173
I513
tp174
a(Vphosphatase activity
p175
I509
tp176
a(Vcell cycle
p177
I491
tp178
a(Vcell junction organization
p179
I480
tp180
a(Vaging
p181
I471
tp182
a(Vlyase activity
p183
I429
tp184
a(Vnucleocytoplasmic transport
p185
I420
tp186
a(Vhelicase activity
p187
I419
tp188
a(Vcell division
p189
I416
tp190
a(Vreproduction
p191
I407
tp192
a(Vplastid
p193
I394
tp194
a(Vcirculatory system process
p195
I391
tp196
a(Vnuclease activity
p197
I368
tp198
a(Vdevelopmental maturation
p199
I360
tp200
a(Vmethyltransferase activity
p201
I355
tp202
a(Vlysosome
p203
I349
tp204
a(Vmitochondrion organization
p205
I340
tp206
a(Vribonucleoprotein complex assembly
p207
I319
tp208
a(Vcytoskeleton-dependent intracellular transport
p209
I315
tp210
a(Vchromosome
p211
I310
tp212
a(Vproteinaceous extracellular matrix
p213
I300
tp214
a(Vexternal encapsulating structure
p215
I300
tp216
a(Vprotein folding
p217
I296
tp218
a(Vcell wall
p219
I294
tp220
a(Vhistone binding
p221
I286
tp222
a(Vnuclear envelope
p223
I281
tp224
a(VGTPase activity
p225
I275
tp226
a(Visomerase activity
p227
I267
tp228
a(Vsecondary metabolic process
p229
I259
tp230
a(Vnucleotidyltransferase activity
p231
I245
tp232
a(VmRNA binding
p233
I239
tp234
a(Vhydrolase activity, acting on carbon-nitrogen (but not peptide) bonds
p235
I236
tp236
a(Vhydrolase activity, acting on glycosyl bonds
p237
I227
tp238
a(VtRNA metabolic process
p239
I226
tp240
a(Vcell wall organization or biogenesis
p241
I223
tp242
a(Vplasma membrane organization
p243
I216
tp244
a(Vstructural constituent of ribosome
p245
I211
tp246
a(Vmitosis
p247
I197
tp248
a(Vvacuolar transport
p249
I191
tp250
a(Vprotein binding, bridging
p251
I190
tp252
a(Vchromosome segregation
p253
I182
tp254
a(Vperoxisome
p255
I178
tp256
a(Vtranslation factor activity, nucleic acid binding
p257
I170
tp258
a(Vprotein transporter activity
p259
I160
tp260
a(Vsmall conjugating protein binding
p261
I158
tp262
a(Vtranslation
p263
I151
tp264
a(Vlipid particle
p265
I140
tp266
a(Vunfolded protein binding
p267
I138
tp268
a(Vribosome
p269
I119
tp270
a(Vtransferase activity, transferring alkyl or aryl (other than methyl) groups
p271
I102
tp272
a(Vintracellular
p273
I99
tp274
a(Vnuclear chromosome
p275
I91
tp276
a(Vpigmentation
p277
I87
tp278
a(Vribosome biogenesis
p279
I75
tp280
a(VrRNA binding
p281
I70
tp282
a(Vthylakoid
p283
I29
tp284
a(Vnitrogen cycle metabolic process
p285
I24
tp286
a(Vtransposition
p287
I10
tp288
a(Vphotosynthesis
p289
I6
tp290
a(Vcell
p291
I6
tp292
a(VRNA modification guide activity
p293
I1
tp294
aa(lp295
(g3
L6372L
tp296
a(g5
L4365L
tp297
a(g7
L2787L
tp298
a(g9
L21685L
tp299
a(g11
L26888L
tp300
a(g13
L5491L
tp301
a(g15
L5801L
tp302
a(g17
L18268L
tp303
a(g19
L21693L
tp304
a(g21
L5613L
tp305
a(g23
L21630L
tp306
a(g25
L22689L
tp307
a(g27
L7192L
tp308
a(g29
L5168L
tp309
a(g31
L7190L
tp310
a(g33
L1781L
tp311
a(g35
L13924L
tp312
a(g37
L13633L
tp313
a(g39
L4599L
tp314
a(g41
L5326L
tp315
a(g43
L12968L
tp316
a(g45
L20507L
tp317
a(g47
L26682L
tp318
a(g49
L4644L
tp319
a(g51
L10381L
tp320
a(g53
L4507L
tp321
a(g55
L4422L
tp322
a(g57
L4995L
tp323
a(g59
L13690L
tp324
a(g61
L10598L
tp325
a(g63
L26901L
tp326
a(g65
L21086L
tp327
a(g67
L2790L
tp328
a(g69
L4514L
tp329
a(g71
L28228L
tp330
a(g73
L31581L
tp331
a(g75
L4725L
tp332
a(g77
L27837L
tp333
a(g79
L6320L
tp334
a(g81
L10466L
tp335
a(g83
L18282L
tp336
a(g85
L20503L
tp337
a(g87
L3827L
tp338
a(g89
L5663L
tp339
a(g91
L7881L
tp340
a(g93
L28535L
tp341
a(g95
L29927L
tp342
a(g97
L5165L
tp343
a(g99
L5218L
tp344
a(g101
L2830L
tp345
a(g103
L6500L
tp346
a(g105
L4515L
tp347
a(g107
L10229L
tp348
a(g109
L5791L
tp349
a(g111
L4567L
tp350
a(g113
L4621L
tp351
a(g115
L10963L
tp352
a(g117
L30984L
tp353
a(g119
L4556L
tp354
a(g121
L6448L
tp355
a(g123
L6436L
tp356
a(g125
L4542L
tp357
a(g127
L5896L
tp358
a(g129
L14001L
tp359
a(g131
L10950L
tp360
a(g133
L6494L
tp361
a(g135
L4439L
tp362
a(g137
L4586L
tp363
a(g139
L6357L
tp364
a(g141
L677L
tp365
a(g143
L594L
tp366
a(g145
L5471L
tp367
a(g147
L4118L
tp368
a(g149
L759L
tp369
a(g151
L4366L
tp370
a(g153
L5302L
tp371
a(g155
L28144L
tp372
a(g157
L13967L
tp373
a(g159
L4405L
tp374
a(g161
L4684L
tp375
a(g163
L10829L
tp376
a(g165
L5112L
tp377
a(g167
L4546L
tp378
a(g169
L4838L
tp379
a(g171
L22810L
tp380
a(g173
L10840L
tp381
a(g175
L10870L
tp382
a(g177
L5695L
tp383
a(g179
L17965L
tp384
a(g181
L6169L
tp385
a(g183
L10905L
tp386
a(g185
L5582L
tp387
a(g187
L3404L
tp388
a(g189
L28251L
tp389
a(g191
L3L
tp390
a(g193
L7644L
tp391
a(g195
L2364L
tp392
a(g197
L3518L
tp393
a(g199
L13274L
tp394
a(g201
L6389L
tp395
a(g203
L4538L
tp396
a(g205
L5658L
tp397
a(g207
L13644L
tp398
a(g209
L14427L
tp399
a(g211
L4475L
tp400
a(g213
L4368L
tp401
a(g215
L14078L
tp402
a(g217
L5161L
tp403
a(g219
L4408L
tp404
a(g221
L20900L
tp405
a(g223
L4423L
tp406
a(g225
L2991L
tp407
a(g227
L10929L
tp408
a(g229
L12827L
tp409
a(g231
L10860L
tp410
a(g233
L2835L
tp411
a(g235
L10886L
tp412
a(g237
L10876L
tp413
a(g239
L5114L
tp414
a(g241
L33137L
tp415
a(g243
L5662L
tp416
a(g245
L2841L
tp417
a(g247
L5712L
tp418
a(g249
L5682L
tp419
a(g251
L14396L
tp420
a(g253
L5705L
tp421
a(g255
L4550L
tp422
a(g257
L6358L
tp423
a(g259
L6747L
tp424
a(g261
L15840L
tp425
a(g263
L5126L
tp426
a(g265
L4583L
tp427
a(g267
L28040L
tp428
a(g269
L4609L
tp429
a(g271
L10848L
tp430
a(g273
L4411L
tp431
a(g275
L201L
tp432
a(g277
L21900L
tp433
a(g279
L20770L
tp434
a(g281
L12918L
tp435
a(g283
L7683L
tp436
a(g285
L33512L
tp437
a(g287
L15852L
tp438
a(g289
L10192L
tp439
a(g291
L4412L
tp440
a(g293
L14288L
tp441
aaI625683
a.