(lp1
(lp2
(Vbiological_process
p3
I98922
tp4
a(Vcellular_component
p5
I31908
tp6
a(Vmolecular_function
p7
I26888
tp8
a(Vorganelle
p9
I8402
tp10
a(Vanatomical structure development
p11
I7686
tp12
a(Vtransport
p13
I4926
tp14
a(Vcellular nitrogen compound metabolic process
p15
I4797
tp16
a(Vsignal transduction
p17
I4658
tp18
a(Vsmall molecule metabolic process
p19
I3830
tp20
a(Vresponse to stress
p21
I3685
tp22
a(Vprotein complex
p23
I3624
tp24
a(Vbiosynthetic process
p25
I3526
tp26
a(Vion binding
p27
I3257
tp28
a(Vcellular protein modification process
p29
I2563
tp30
a(Vcatabolic process
p31
I2418
tp32
a(Vimmune system process
p33
I2283
tp34
a(Vcell differentiation
p35
I1884
tp36
a(Vcellular component assembly
p37
I1579
tp38
a(Vcytosol
p39
I1525
tp40
a(Vlipid metabolic process
p41
I1420
tp42
a(Venzyme binding
p43
I1316
tp44
a(Vlocomotion
p45
I1278
tp46
a(Vanatomical structure formation involved in morphogenesis
p47
I1172
tp48
a(Vplasma membrane
p49
I1129
tp50
a(VDNA metabolic process
p51
I1088
tp52
a(Vnucleus
p53
I1056
tp54
a(Vcarbohydrate metabolic process
p55
I1026
tp56
a(Vvesicle-mediated transport
p57
I1022
tp58
a(Voxidoreductase activity
p59
I1016
tp60
a(Vnucleolus
p61
I1014
tp62
a(Vkinase activity
p63
I984
tp64
a(Vcell motility
p65
I949
tp66
a(Vcytoplasm
p67
I930
tp68
a(Vcellular amino acid metabolic process
p69
I914
tp70
a(Vtransmembrane transporter activity
p71
I877
tp72
a(Vchromosome organization
p73
I854
tp74
a(Vmacromolecular complex assembly
p75
I844
tp76
a(Vgrowth
p77
I838
tp78
a(VDNA binding
p79
I832
tp80
a(Vnucleobase-containing compound catabolic process
p81
I831
tp82
a(Vhomeostatic process
p83
I811
tp84
a(Vembryo development
p85
I807
tp86
a(Vprotein maturation
p87
I778
tp88
a(Vneurological system process
p89
I732
tp90
a(Vcytoskeleton organization
p91
I726
tp92
a(Vcytoskeletal protein binding
p93
I721
tp94
a(Vprotein complex assembly
p95
I688
tp96
a(Vtransmembrane transport
p97
I660
tp98
a(VRNA binding
p99
I641
tp100
a(Vsignal transducer activity
p101
I638
tp102
a(VATPase activity
p103
I624
tp104
a(Vcell adhesion
p105
I612
tp106
a(Vmitochondrion
p107
I583
tp108
a(Vcytoskeleton
p109
I563
tp110
a(Vcell death
p111
I542
tp112
a(Vpeptidase activity
p113
I539
tp114
a(Vligase activity
p115
I526
tp116
a(VGolgi apparatus
p117
I519
tp118
a(Vcytoplasmic membrane-bounded vesicle
p119
I516
tp120
a(Vsulfur compound metabolic process
p121
I451
tp122
a(Vcell proliferation
p123
I443
tp124
a(Vcell morphogenesis
p125
I439
tp126
a(Vendoplasmic reticulum
p127
I438
tp128
a(Vmembrane organization
p129
I438
tp130
a(Vendosome
p131
I434
tp132
a(Vlipid binding
p133
I427
tp134
a(Vnucleoplasm
p135
I421
tp136
a(Vmicrotubule organizing center
p137
I377
tp138
a(Venzyme regulator activity
p139
I365
tp140
a(Vcell-cell signaling
p141
I363
tp142
a(Vtranscription factor binding
p143
I360
tp144
a(Vextracellular region
p145
I355
tp146
a(Vprotein binding transcription factor activity
p147
I355
tp148
a(Vcofactor metabolic process
p149
I353
tp150
a(Vstructural molecule activity
p151
I342
tp152
a(Vvacuole
p153
I296
tp154
a(Vcilium
p155
I282
tp156
a(VmRNA processing
p157
I276
tp158
a(Vprotein targeting
p159
I272
tp160
a(Vnucleic acid binding transcription factor activity
p161
I263
tp162
a(Vgeneration of precursor metabolites and energy
p163
I252
tp164
a(Vtransferase activity, transferring glycosyl groups
p165
I247
tp166
a(Vextracellular matrix organization
p167
I243
tp168
a(Vsymbiosis, encompassing mutualism through parasitism
p169
I239
tp170
a(Vextracellular space
p171
I234
tp172
a(Vcell cycle
p173
I234
tp174
a(Vtransferase activity, transferring acyl groups
p175
I232
tp176
a(Vhelicase activity
p177
I227
tp178
a(Vlyase activity
p179
I217
tp180
a(Vphosphatase activity
p181
I208
tp182
a(Vcell junction organization
p183
I208
tp184
a(Vcell division
p185
I193
tp186
a(Vreproduction
p187
I188
tp188
a(Vnuclease activity
p189
I177
tp190
a(Vnucleocytoplasmic transport
p191
I173
tp192
a(Vplastid
p193
I169
tp194
a(Vaging
p195
I165
tp196
a(Vmethyltransferase activity
p197
I165
tp198
a(Vexternal encapsulating structure
p199
I156
tp200
a(Vchromosome
p201
I156
tp202
a(Vcell wall
p203
I154
tp204
a(Vlysosome
p205
I153
tp206
a(VtRNA metabolic process
p207
I141
tp208
a(Vprotein folding
p209
I140
tp210
a(Vmitochondrion organization
p211
I136
tp212
a(Vdevelopmental maturation
p213
I133
tp214
a(Vnucleotidyltransferase activity
p215
I125
tp216
a(VGTPase activity
p217
I124
tp218
a(Vribonucleoprotein complex assembly
p219
I124
tp220
a(Vhydrolase activity, acting on carbon-nitrogen (but not peptide) bonds
p221
I119
tp222
a(Vproteinaceous extracellular matrix
p223
I114
tp224
a(Visomerase activity
p225
I114
tp226
a(Vsecondary metabolic process
p227
I113
tp228
a(Vcell wall organization or biogenesis
p229
I112
tp230
a(Vhydrolase activity, acting on glycosyl bonds
p231
I111
tp232
a(Vnuclear envelope
p233
I111
tp234
a(Vhistone binding
p235
I109
tp236
a(Vcirculatory system process
p237
I103
tp238
a(VmRNA binding
p239
I101
tp240
a(Vcytoskeleton-dependent intracellular transport
p241
I95
tp242
a(Vtranslation
p243
I88
tp244
a(Vplasma membrane organization
p245
I83
tp246
a(Vchromosome segregation
p247
I79
tp248
a(Vstructural constituent of ribosome
p249
I75
tp250
a(Vmitosis
p251
I74
tp252
a(Vprotein transporter activity
p253
I73
tp254
a(Vtranslation factor activity, nucleic acid binding
p255
I72
tp256
a(Vsmall conjugating protein binding
p257
I70
tp258
a(Vunfolded protein binding
p259
I70
tp260
a(Vperoxisome
p261
I63
tp262
a(Vprotein binding, bridging
p263
I60
tp264
a(Vvacuolar transport
p265
I59
tp266
a(Vlipid particle
p267
I59
tp268
a(Vintracellular
p269
I58
tp270
a(Vribosome
p271
I54
tp272
a(Vtransferase activity, transferring alkyl or aryl (other than methyl) groups
p273
I51
tp274
a(Vpigmentation
p275
I45
tp276
a(Vnuclear chromosome
p277
I42
tp278
a(VrRNA binding
p279
I32
tp280
a(Vribosome biogenesis
p281
I24
tp282
a(Vthylakoid
p283
I11
tp284
a(Vnitrogen cycle metabolic process
p285
I8
tp286
a(Vtransposition
p287
I2
tp288
a(Vcell
p289
I2
tp290
a(Vphotosynthesis
p291
I1
tp292
a(VRNA modification guide activity
p293
I1
tp294
aa(lp295
(g3
L6372L
tp296
a(g5
L4365L
tp297
a(g7
L2787L
tp298
a(g9
L21685L
tp299
a(g11
L26888L
tp300
a(g13
L5491L
tp301
a(g15
L18268L
tp302
a(g17
L5801L
tp303
a(g19
L22689L
tp304
a(g21
L5613L
tp305
a(g23
L21693L
tp306
a(g25
L7192L
tp307
a(g27
L21630L
tp308
a(g29
L5168L
tp309
a(g31
L7190L
tp310
a(g33
L1781L
tp311
a(g35
L13924L
tp312
a(g37
L13633L
tp313
a(g39
L4599L
tp314
a(g41
L5326L
tp315
a(g43
L12968L
tp316
a(g45
L20507L
tp317
a(g47
L26682L
tp318
a(g49
L4644L
tp319
a(g51
L4995L
tp320
a(g53
L4422L
tp321
a(g55
L4725L
tp322
a(g57
L10381L
tp323
a(g59
L10598L
tp324
a(g61
L4507L
tp325
a(g63
L10466L
tp326
a(g65
L26901L
tp327
a(g67
L4514L
tp328
a(g69
L5218L
tp329
a(g71
L13690L
tp330
a(g73
L28228L
tp331
a(g75
L31581L
tp332
a(g77
L20503L
tp333
a(g79
L2790L
tp334
a(g81
L18282L
tp335
a(g83
L21086L
tp336
a(g85
L7881L
tp337
a(g87
L28535L
tp338
a(g89
L27837L
tp339
a(g91
L5663L
tp340
a(g93
L6320L
tp341
a(g95
L5165L
tp342
a(g97
L29927L
tp343
a(g99
L2830L
tp344
a(g101
L3827L
tp345
a(g103
L10963L
tp346
a(g105
L5791L
tp347
a(g107
L4515L
tp348
a(g109
L4621L
tp349
a(g111
L6436L
tp350
a(g113
L6448L
tp351
a(g115
L10950L
tp352
a(g117
L4567L
tp353
a(g119
L10229L
tp354
a(g121
L5471L
tp355
a(g123
L6494L
tp356
a(g125
L594L
tp357
a(g127
L4556L
tp358
a(g129
L30984L
tp359
a(g131
L4542L
tp360
a(g133
L6500L
tp361
a(g135
L4439L
tp362
a(g137
L4586L
tp363
a(g139
L14001L
tp364
a(g141
L5896L
tp365
a(g143
L6357L
tp366
a(g145
L4366L
tp367
a(g147
L677L
tp368
a(g149
L28144L
tp369
a(g151
L4118L
tp370
a(g153
L4546L
tp371
a(g155
L4684L
tp372
a(g157
L5112L
tp373
a(g159
L5302L
tp374
a(g161
L759L
tp375
a(g163
L4838L
tp376
a(g165
L10840L
tp377
a(g167
L13967L
tp378
a(g169
L22810L
tp379
a(g171
L4405L
tp380
a(g173
L5695L
tp381
a(g175
L10829L
tp382
a(g177
L3404L
tp383
a(g179
L10905L
tp384
a(g181
L10870L
tp385
a(g183
L17965L
tp386
a(g185
L28251L
tp387
a(g187
L3L
tp388
a(g189
L3518L
tp389
a(g191
L5582L
tp390
a(g193
L7644L
tp391
a(g195
L6169L
tp392
a(g197
L6389L
tp393
a(g199
L14078L
tp394
a(g201
L4475L
tp395
a(g203
L4408L
tp396
a(g205
L4538L
tp397
a(g207
L5114L
tp398
a(g209
L5161L
tp399
a(g211
L5658L
tp400
a(g213
L13274L
tp401
a(g215
L10860L
tp402
a(g217
L2991L
tp403
a(g219
L13644L
tp404
a(g221
L10886L
tp405
a(g223
L4368L
tp406
a(g225
L10929L
tp407
a(g227
L12827L
tp408
a(g229
L33137L
tp409
a(g231
L10876L
tp410
a(g233
L4423L
tp411
a(g235
L20900L
tp412
a(g237
L2364L
tp413
a(g239
L2835L
tp414
a(g241
L14427L
tp415
a(g243
L5126L
tp416
a(g245
L5662L
tp417
a(g247
L5705L
tp418
a(g249
L2841L
tp419
a(g251
L5712L
tp420
a(g253
L6747L
tp421
a(g255
L6358L
tp422
a(g257
L15840L
tp423
a(g259
L28040L
tp424
a(g261
L4550L
tp425
a(g263
L14396L
tp426
a(g265
L5682L
tp427
a(g267
L4583L
tp428
a(g269
L4411L
tp429
a(g271
L4609L
tp430
a(g273
L10848L
tp431
a(g275
L21900L
tp432
a(g277
L201L
tp433
a(g279
L12918L
tp434
a(g281
L20770L
tp435
a(g283
L7683L
tp436
a(g285
L33512L
tp437
a(g287
L15852L
tp438
a(g289
L4412L
tp439
a(g291
L10192L
tp440
a(g293
L14288L
tp441
aaI267498
a.