(lp1
(lp2
(Vbiological_process
p3
I215767
tp4
a(Vcellular_component
p5
I69224
tp6
a(Vmolecular_function
p7
I57702
tp8
a(Vorganelle
p9
I18072
tp10
a(Vanatomical structure development
p11
I16911
tp12
a(Vtransport
p13
I11385
tp14
a(Vsignal transduction
p15
I10299
tp16
a(Vcellular nitrogen compound metabolic process
p17
I8964
tp18
a(Vresponse to stress
p19
I7654
tp20
a(Vprotein complex
p21
I7604
tp22
a(Vion binding
p23
I6937
tp24
a(Vsmall molecule metabolic process
p25
I6880
tp26
a(Vbiosynthetic process
p27
I6310
tp28
a(Vcellular protein modification process
p29
I5375
tp30
a(Vimmune system process
p31
I4810
tp32
a(Vcatabolic process
p33
I4472
tp34
a(Vcell differentiation
p35
I4250
tp36
a(Vcellular component assembly
p37
I3325
tp38
a(Vlipid metabolic process
p39
I3151
tp40
a(Venzyme binding
p41
I3125
tp42
a(Vcytosol
p43
I2990
tp44
a(Vlocomotion
p45
I2813
tp46
a(Vanatomical structure formation involved in morphogenesis
p47
I2562
tp48
a(Vplasma membrane
p49
I2473
tp50
a(Vvesicle-mediated transport
p51
I2375
tp52
a(Vnucleus
p53
I2322
tp54
a(Vtransmembrane transporter activity
p55
I2290
tp56
a(Vnucleolus
p57
I2193
tp58
a(VDNA metabolic process
p59
I2089
tp60
a(Vcell motility
p61
I2057
tp62
a(Vcytoplasm
p63
I2048
tp64
a(Vhomeostatic process
p65
I2039
tp66
a(Voxidoreductase activity
p67
I1982
tp68
a(VDNA binding
p69
I1954
tp70
a(Vneurological system process
p71
I1876
tp72
a(Vcarbohydrate metabolic process
p73
I1821
tp74
a(Vkinase activity
p75
I1777
tp76
a(Vmacromolecular complex assembly
p77
I1776
tp78
a(Vchromosome organization
p79
I1743
tp80
a(Vtransmembrane transport
p81
I1736
tp82
a(Vcytoskeletal protein binding
p83
I1699
tp84
a(Vgrowth
p85
I1679
tp86
a(Vsignal transducer activity
p87
I1659
tp88
a(Vprotein maturation
p89
I1652
tp90
a(Vnucleobase-containing compound catabolic process
p91
I1572
tp92
a(Vembryo development
p93
I1524
tp94
a(Vprotein complex assembly
p95
I1464
tp96
a(Vcytoskeleton organization
p97
I1451
tp98
a(Vcell adhesion
p99
I1301
tp100
a(Vcellular amino acid metabolic process
p101
I1290
tp102
a(Vmitochondrion
p103
I1225
tp104
a(Vcytoskeleton
p105
I1208
tp106
a(Vlipid binding
p107
I1197
tp108
a(Vcytoplasmic membrane-bounded vesicle
p109
I1180
tp110
a(VGolgi apparatus
p111
I1156
tp112
a(VRNA binding
p113
I1155
tp114
a(VATPase activity
p115
I1093
tp116
a(Vligase activity
p117
I1053
tp118
a(Vmembrane organization
p119
I1038
tp120
a(Vcell-cell signaling
p121
I1037
tp122
a(Vcell proliferation
p123
I1033
tp124
a(Vcell death
p125
I1032
tp126
a(Vendosome
p127
I1032
tp128
a(Vendoplasmic reticulum
p129
I1026
tp130
a(Vpeptidase activity
p131
I1011
tp132
a(Venzyme regulator activity
p133
I968
tp134
a(Vcell morphogenesis
p135
I898
tp136
a(Vtranscription factor binding
p137
I864
tp138
a(Vprotein binding transcription factor activity
p139
I861
tp140
a(Vnucleoplasm
p141
I813
tp142
a(Vmicrotubule organizing center
p143
I795
tp144
a(Vsulfur compound metabolic process
p145
I733
tp146
a(Vnucleic acid binding transcription factor activity
p147
I726
tp148
a(Vextracellular region
p149
I720
tp150
a(Vstructural molecule activity
p151
I638
tp152
a(Vextracellular space
p153
I617
tp154
a(Vcilium
p155
I597
tp156
a(Vcofactor metabolic process
p157
I584
tp158
a(Vextracellular matrix organization
p159
I579
tp160
a(Vprotein targeting
p161
I576
tp162
a(Vvacuole
p163
I559
tp164
a(Vtransferase activity, transferring acyl groups
p165
I520
tp166
a(Vsymbiosis, encompassing mutualism through parasitism
p167
I520
tp168
a(Vphosphatase activity
p169
I510
tp170
a(VmRNA processing
p171
I498
tp172
a(Vtransferase activity, transferring glycosyl groups
p173
I495
tp174
a(Vgeneration of precursor metabolites and energy
p175
I488
tp176
a(Vcell cycle
p177
I464
tp178
a(Vcell junction organization
p179
I423
tp180
a(Vhelicase activity
p181
I398
tp182
a(Vaging
p183
I374
tp184
a(Vnucleocytoplasmic transport
p185
I366
tp186
a(Vlyase activity
p187
I364
tp188
a(Vdevelopmental maturation
p189
I361
tp190
a(Vcell division
p191
I357
tp192
a(Vreproduction
p193
I341
tp194
a(Vlysosome
p195
I333
tp196
a(Vcirculatory system process
p197
I330
tp198
a(Vnuclease activity
p199
I326
tp200
a(Vmitochondrion organization
p201
I322
tp202
a(Vmethyltransferase activity
p203
I313
tp204
a(Vplastid
p205
I307
tp206
a(Vproteinaceous extracellular matrix
p207
I280
tp208
a(Vcytoskeleton-dependent intracellular transport
p209
I271
tp210
a(Vchromosome
p211
I259
tp212
a(Vprotein folding
p213
I249
tp214
a(Vribonucleoprotein complex assembly
p215
I249
tp216
a(Vhistone binding
p217
I243
tp218
a(VGTPase activity
p219
I241
tp220
a(Vhydrolase activity, acting on glycosyl bonds
p221
I238
tp222
a(Vnuclear envelope
p223
I233
tp224
a(Vplasma membrane organization
p225
I216
tp226
a(Vexternal encapsulating structure
p227
I213
tp228
a(Vsecondary metabolic process
p229
I212
tp230
a(Vhydrolase activity, acting on carbon-nitrogen (but not peptide) bonds
p231
I210
tp232
a(Vcell wall
p233
I207
tp234
a(Visomerase activity
p235
I205
tp236
a(Vnucleotidyltransferase activity
p237
I202
tp238
a(VmRNA binding
p239
I185
tp240
a(Vcell wall organization or biogenesis
p241
I180
tp242
a(Vprotein binding, bridging
p243
I170
tp244
a(VtRNA metabolic process
p245
I166
tp246
a(Vvacuolar transport
p247
I162
tp248
a(Vmitosis
p249
I161
tp250
a(Vperoxisome
p251
I152
tp252
a(Vchromosome segregation
p253
I149
tp254
a(Vsmall conjugating protein binding
p255
I135
tp256
a(Vprotein transporter activity
p257
I131
tp258
a(Vtranslation
p259
I129
tp260
a(Vintracellular
p261
I116
tp262
a(Vtranslation factor activity, nucleic acid binding
p263
I116
tp264
a(Vlipid particle
p265
I112
tp266
a(Vunfolded protein binding
p267
I109
tp268
a(Vribosome
p269
I101
tp270
a(Vstructural constituent of ribosome
p271
I100
tp272
a(Vtransferase activity, transferring alkyl or aryl (other than methyl) groups
p273
I86
tp274
a(Vpigmentation
p275
I86
tp276
a(Vnuclear chromosome
p277
I69
tp278
a(VrRNA binding
p279
I48
tp280
a(Vribosome biogenesis
p281
I45
tp282
a(Vthylakoid
p283
I25
tp284
a(Vnitrogen cycle metabolic process
p285
I24
tp286
a(Vphotosynthesis
p287
I10
tp288
a(Vtransposition
p289
I7
tp290
a(Vcell
p291
I5
tp292
a(VRNA modification guide activity
p293
I1
tp294
aa(lp295
(g3
L6372L
tp296
a(g5
L4365L
tp297
a(g7
L2787L
tp298
a(g9
L21685L
tp299
a(g11
L26888L
tp300
a(g13
L5491L
tp301
a(g15
L5801L
tp302
a(g17
L18268L
tp303
a(g19
L5613L
tp304
a(g21
L21693L
tp305
a(g23
L21630L
tp306
a(g25
L22689L
tp307
a(g27
L7192L
tp308
a(g29
L5168L
tp309
a(g31
L1781L
tp310
a(g33
L7190L
tp311
a(g35
L13924L
tp312
a(g37
L13633L
tp313
a(g39
L5326L
tp314
a(g41
L12968L
tp315
a(g43
L4599L
tp316
a(g45
L20507L
tp317
a(g47
L26682L
tp318
a(g49
L4644L
tp319
a(g51
L10381L
tp320
a(g53
L4422L
tp321
a(g55
L13690L
tp322
a(g57
L4507L
tp323
a(g59
L4995L
tp324
a(g61
L26901L
tp325
a(g63
L4514L
tp326
a(g65
L21086L
tp327
a(g67
L10598L
tp328
a(g69
L2790L
tp329
a(g71
L27837L
tp330
a(g73
L4725L
tp331
a(g75
L10466L
tp332
a(g77
L31581L
tp333
a(g79
L28228L
tp334
a(g81
L29927L
tp335
a(g83
L6320L
tp336
a(g85
L20503L
tp337
a(g87
L3827L
tp338
a(g89
L28535L
tp339
a(g91
L18282L
tp340
a(g93
L7881L
tp341
a(g95
L5165L
tp342
a(g97
L5663L
tp343
a(g99
L5791L
tp344
a(g101
L5218L
tp345
a(g103
L4515L
tp346
a(g105
L4621L
tp347
a(g107
L6500L
tp348
a(g109
L10229L
tp349
a(g111
L4567L
tp350
a(g113
L2830L
tp351
a(g115
L10963L
tp352
a(g117
L10950L
tp353
a(g119
L30984L
tp354
a(g121
L5896L
tp355
a(g123
L6494L
tp356
a(g125
L6436L
tp357
a(g127
L4542L
tp358
a(g129
L4556L
tp359
a(g131
L6448L
tp360
a(g133
L14001L
tp361
a(g135
L594L
tp362
a(g137
L6357L
tp363
a(g139
L677L
tp364
a(g141
L4439L
tp365
a(g143
L4586L
tp366
a(g145
L5471L
tp367
a(g147
L759L
tp368
a(g149
L4366L
tp369
a(g151
L4118L
tp370
a(g153
L4405L
tp371
a(g155
L4684L
tp372
a(g157
L28144L
tp373
a(g159
L13967L
tp374
a(g161
L5302L
tp375
a(g163
L4546L
tp376
a(g165
L10829L
tp377
a(g167
L22810L
tp378
a(g169
L10870L
tp379
a(g171
L5112L
tp380
a(g173
L10840L
tp381
a(g175
L4838L
tp382
a(g177
L5695L
tp383
a(g179
L17965L
tp384
a(g181
L3404L
tp385
a(g183
L6169L
tp386
a(g185
L5582L
tp387
a(g187
L10905L
tp388
a(g189
L13274L
tp389
a(g191
L28251L
tp390
a(g193
L3L
tp391
a(g195
L4538L
tp392
a(g197
L2364L
tp393
a(g199
L3518L
tp394
a(g201
L5658L
tp395
a(g203
L6389L
tp396
a(g205
L7644L
tp397
a(g207
L4368L
tp398
a(g209
L14427L
tp399
a(g211
L4475L
tp400
a(g213
L5161L
tp401
a(g215
L13644L
tp402
a(g217
L20900L
tp403
a(g219
L2991L
tp404
a(g221
L10876L
tp405
a(g223
L4423L
tp406
a(g225
L5662L
tp407
a(g227
L14078L
tp408
a(g229
L12827L
tp409
a(g231
L10886L
tp410
a(g233
L4408L
tp411
a(g235
L10929L
tp412
a(g237
L10860L
tp413
a(g239
L2835L
tp414
a(g241
L33137L
tp415
a(g243
L14396L
tp416
a(g245
L5114L
tp417
a(g247
L5682L
tp418
a(g249
L5712L
tp419
a(g251
L4550L
tp420
a(g253
L5705L
tp421
a(g255
L15840L
tp422
a(g257
L6747L
tp423
a(g259
L5126L
tp424
a(g261
L4411L
tp425
a(g263
L6358L
tp426
a(g265
L4583L
tp427
a(g267
L28040L
tp428
a(g269
L4609L
tp429
a(g271
L2841L
tp430
a(g273
L10848L
tp431
a(g275
L21900L
tp432
a(g277
L201L
tp433
a(g279
L12918L
tp434
a(g281
L20770L
tp435
a(g283
L7683L
tp436
a(g285
L33512L
tp437
a(g287
L10192L
tp438
a(g289
L15852L
tp439
a(g291
L4412L
tp440
a(g293
L14288L
tp441
aaI573346
a.