(lp1
(lp2
(Vbiological_process
p3
I224746
tp4
a(Vcellular_component
p5
I68678
tp6
a(Vmolecular_function
p7
I56202
tp8
a(Vanatomical structure development
p9
I18190
tp10
a(Vorganelle
p11
I17638
tp12
a(Vtransport
p13
I11701
tp14
a(Vsignal transduction
p15
I10527
tp16
a(Vcellular nitrogen compound metabolic process
p17
I8332
tp18
a(Vresponse to stress
p19
I7651
tp20
a(Vprotein complex
p21
I6941
tp22
a(Vsmall molecule metabolic process
p23
I6563
tp24
a(Vion binding
p25
I6452
tp26
a(Vbiosynthetic process
p27
I6091
tp28
a(Vcellular protein modification process
p29
I4974
tp30
a(Vcell differentiation
p31
I4429
tp32
a(Vimmune system process
p33
I4396
tp34
a(Vcatabolic process
p35
I4069
tp36
a(Vcellular component assembly
p37
I3134
tp38
a(Vlipid metabolic process
p39
I2896
tp40
a(Venzyme binding
p41
I2823
tp42
a(Vlocomotion
p43
I2742
tp44
a(Vcytosol
p45
I2647
tp46
a(Vanatomical structure formation involved in morphogenesis
p47
I2615
tp48
a(Vtransmembrane transporter activity
p49
I2584
tp50
a(Vplasma membrane
p51
I2513
tp52
a(Vsignal transducer activity
p53
I2348
tp54
a(Vnucleus
p55
I2261
tp56
a(Vvesicle-mediated transport
p57
I2189
tp58
a(Vhomeostatic process
p59
I2088
tp60
a(Vcytoplasm
p61
I2053
tp62
a(Vcell motility
p63
I2044
tp64
a(VDNA metabolic process
p65
I2037
tp66
a(Vneurological system process
p67
I2034
tp68
a(Vnucleolus
p69
I2003
tp70
a(VDNA binding
p71
I1963
tp72
a(Voxidoreductase activity
p73
I1806
tp74
a(Vtransmembrane transport
p75
I1784
tp76
a(Vcarbohydrate metabolic process
p77
I1703
tp78
a(Vgrowth
p79
I1692
tp80
a(Vkinase activity
p81
I1675
tp82
a(Vmacromolecular complex assembly
p83
I1666
tp84
a(Vchromosome organization
p85
I1634
tp86
a(Vcytoskeletal protein binding
p87
I1557
tp88
a(Vprotein maturation
p89
I1529
tp90
a(Vembryo development
p91
I1467
tp92
a(Vcell-cell signaling
p93
I1447
tp94
a(Vprotein complex assembly
p95
I1405
tp96
a(Vnucleobase-containing compound catabolic process
p97
I1346
tp98
a(Vcell adhesion
p99
I1334
tp100
a(Vcytoskeleton organization
p101
I1317
tp102
a(Vcellular amino acid metabolic process
p103
I1221
tp104
a(Vcytoplasmic membrane-bounded vesicle
p105
I1185
tp106
a(Vcytoskeleton
p107
I1159
tp108
a(VGolgi apparatus
p109
I1100
tp110
a(Vlipid binding
p111
I1091
tp112
a(Vmitochondrion
p113
I1047
tp114
a(Vpeptidase activity
p115
I1018
tp116
a(Vcell proliferation
p117
I1016
tp118
a(Vcell death
p119
I1009
tp120
a(Vendoplasmic reticulum
p121
I988
tp122
a(Vmembrane organization
p123
I970
tp124
a(VRNA binding
p125
I957
tp126
a(VATPase activity
p127
I945
tp128
a(Vendosome
p129
I935
tp130
a(Vcell morphogenesis
p131
I932
tp132
a(Vligase activity
p133
I907
tp134
a(Vtranscription factor binding
p135
I811
tp136
a(Vnucleic acid binding transcription factor activity
p137
I808
tp138
a(Vprotein binding transcription factor activity
p139
I796
tp140
a(Vsulfur compound metabolic process
p141
I786
tp142
a(Venzyme regulator activity
p143
I777
tp144
a(Vextracellular region
p145
I748
tp146
a(Vnucleoplasm
p147
I741
tp148
a(Vmicrotubule organizing center
p149
I735
tp150
a(Vextracellular space
p151
I655
tp152
a(Vextracellular matrix organization
p153
I614
tp154
a(Vcilium
p155
I612
tp156
a(Vstructural molecule activity
p157
I573
tp158
a(Vcirculatory system process
p159
I553
tp160
a(Vcofactor metabolic process
p161
I551
tp162
a(Vvacuole
p163
I547
tp164
a(Vtransferase activity, transferring acyl groups
p165
I518
tp166
a(Vtransferase activity, transferring glycosyl groups
p167
I508
tp168
a(Vcell cycle
p169
I466
tp170
a(Vphosphatase activity
p171
I453
tp172
a(Vprotein targeting
p173
I450
tp174
a(Vsymbiosis, encompassing mutualism through parasitism
p175
I423
tp176
a(VmRNA processing
p177
I407
tp178
a(Vaging
p179
I395
tp180
a(Vcell junction organization
p181
I390
tp182
a(Vgeneration of precursor metabolites and energy
p183
I383
tp184
a(Vcell division
p185
I381
tp186
a(Vhelicase activity
p187
I368
tp188
a(Vlyase activity
p189
I344
tp190
a(Vreproduction
p191
I332
tp192
a(Vlysosome
p193
I329
tp194
a(Vdevelopmental maturation
p195
I324
tp196
a(Vnuclease activity
p197
I310
tp198
a(Vmethyltransferase activity
p199
I308
tp200
a(Vnucleocytoplasmic transport
p201
I306
tp202
a(Vproteinaceous extracellular matrix
p203
I300
tp204
a(Vmitochondrion organization
p205
I279
tp206
a(Vchromosome
p207
I269
tp208
a(Vplastid
p209
I254
tp210
a(Vplasma membrane organization
p211
I240
tp212
a(Vhydrolase activity, acting on glycosyl bonds
p213
I227
tp214
a(Vcytoskeleton-dependent intracellular transport
p215
I226
tp216
a(VGTPase activity
p217
I215
tp218
a(Vprotein folding
p219
I213
tp220
a(Vhistone binding
p221
I211
tp222
a(Vnuclear envelope
p223
I205
tp224
a(Vhydrolase activity, acting on carbon-nitrogen (but not peptide) bonds
p225
I204
tp226
a(Vribonucleoprotein complex assembly
p227
I203
tp228
a(Vsecondary metabolic process
p229
I202
tp230
a(Vnucleotidyltransferase activity
p231
I198
tp232
a(Vexternal encapsulating structure
p233
I197
tp234
a(Visomerase activity
p235
I196
tp236
a(Vcell wall
p237
I189
tp238
a(VtRNA metabolic process
p239
I163
tp240
a(Vcell wall organization or biogenesis
p241
I160
tp242
a(Vprotein binding, bridging
p243
I156
tp244
a(VmRNA binding
p245
I153
tp246
a(Vchromosome segregation
p247
I149
tp248
a(Vmitosis
p249
I142
tp250
a(Vperoxisome
p251
I138
tp252
a(Vvacuolar transport
p253
I122
tp254
a(Vprotein transporter activity
p255
I118
tp256
a(Vsmall conjugating protein binding
p257
I118
tp258
a(Vtranslation
p259
I111
tp260
a(Vlipid particle
p261
I111
tp262
a(Vintracellular
p263
I108
tp264
a(Vunfolded protein binding
p265
I101
tp266
a(Vtranslation factor activity, nucleic acid binding
p267
I100
tp268
a(Vtransferase activity, transferring alkyl or aryl (other than methyl) groups
p269
I97
tp270
a(Vpigmentation
p271
I88
tp272
a(Vribosome
p273
I88
tp274
a(Vnuclear chromosome
p275
I64
tp276
a(Vstructural constituent of ribosome
p277
I51
tp278
a(VrRNA binding
p279
I40
tp280
a(Vribosome biogenesis
p281
I33
tp282
a(Vthylakoid
p283
I21
tp284
a(Vnitrogen cycle metabolic process
p285
I11
tp286
a(Vtransposition
p287
I6
tp288
a(Vcell
p289
I4
tp290
a(Vphotosynthesis
p291
I3
tp292
a(VRNA modification guide activity
p293
I1
tp294
aa(lp295
(g3
L6372L
tp296
a(g5
L4365L
tp297
a(g7
L2787L
tp298
a(g9
L26888L
tp299
a(g11
L21685L
tp300
a(g13
L5491L
tp301
a(g15
L5801L
tp302
a(g17
L18268L
tp303
a(g19
L5613L
tp304
a(g21
L21693L
tp305
a(g23
L22689L
tp306
a(g25
L21630L
tp307
a(g27
L7192L
tp308
a(g29
L5168L
tp309
a(g31
L13924L
tp310
a(g33
L1781L
tp311
a(g35
L7190L
tp312
a(g37
L13633L
tp313
a(g39
L5326L
tp314
a(g41
L12968L
tp315
a(g43
L20507L
tp316
a(g45
L4599L
tp317
a(g47
L26682L
tp318
a(g49
L13690L
tp319
a(g51
L4644L
tp320
a(g53
L3827L
tp321
a(g55
L4422L
tp322
a(g57
L10381L
tp323
a(g59
L21086L
tp324
a(g61
L4514L
tp325
a(g63
L26901L
tp326
a(g65
L4995L
tp327
a(g67
L27837L
tp328
a(g69
L4507L
tp329
a(g71
L2790L
tp330
a(g73
L10598L
tp331
a(g75
L29927L
tp332
a(g77
L4725L
tp333
a(g79
L20503L
tp334
a(g81
L10466L
tp335
a(g83
L31581L
tp336
a(g85
L28228L
tp337
a(g87
L6320L
tp338
a(g89
L28535L
tp339
a(g91
L7881L
tp340
a(g93
L5896L
tp341
a(g95
L5165L
tp342
a(g97
L18282L
tp343
a(g99
L5791L
tp344
a(g101
L5663L
tp345
a(g103
L5218L
tp346
a(g105
L10229L
tp347
a(g107
L4621L
tp348
a(g109
L4567L
tp349
a(g111
L6500L
tp350
a(g113
L4515L
tp351
a(g115
L6448L
tp352
a(g117
L6494L
tp353
a(g119
L6436L
tp354
a(g121
L4556L
tp355
a(g123
L30984L
tp356
a(g125
L2830L
tp357
a(g127
L10963L
tp358
a(g129
L4542L
tp359
a(g131
L594L
tp360
a(g133
L10950L
tp361
a(g135
L6357L
tp362
a(g137
L759L
tp363
a(g139
L677L
tp364
a(g141
L5471L
tp365
a(g143
L14001L
tp366
a(g145
L4366L
tp367
a(g147
L4439L
tp368
a(g149
L4586L
tp369
a(g151
L4405L
tp370
a(g153
L13967L
tp371
a(g155
L4684L
tp372
a(g157
L4118L
tp373
a(g159
L2364L
tp374
a(g161
L28144L
tp375
a(g163
L4546L
tp376
a(g165
L10829L
tp377
a(g167
L10840L
tp378
a(g169
L5695L
tp379
a(g171
L10870L
tp380
a(g173
L5302L
tp381
a(g175
L22810L
tp382
a(g177
L5112L
tp383
a(g179
L6169L
tp384
a(g181
L17965L
tp385
a(g183
L4838L
tp386
a(g185
L28251L
tp387
a(g187
L3404L
tp388
a(g189
L10905L
tp389
a(g191
L3L
tp390
a(g193
L4538L
tp391
a(g195
L13274L
tp392
a(g197
L3518L
tp393
a(g199
L6389L
tp394
a(g201
L5582L
tp395
a(g203
L4368L
tp396
a(g205
L5658L
tp397
a(g207
L4475L
tp398
a(g209
L7644L
tp399
a(g211
L5662L
tp400
a(g213
L10876L
tp401
a(g215
L14427L
tp402
a(g217
L2991L
tp403
a(g219
L5161L
tp404
a(g221
L20900L
tp405
a(g223
L4423L
tp406
a(g225
L10886L
tp407
a(g227
L13644L
tp408
a(g229
L12827L
tp409
a(g231
L10860L
tp410
a(g233
L14078L
tp411
a(g235
L10929L
tp412
a(g237
L4408L
tp413
a(g239
L5114L
tp414
a(g241
L33137L
tp415
a(g243
L14396L
tp416
a(g245
L2835L
tp417
a(g247
L5705L
tp418
a(g249
L5712L
tp419
a(g251
L4550L
tp420
a(g253
L5682L
tp421
a(g255
L6747L
tp422
a(g257
L15840L
tp423
a(g259
L5126L
tp424
a(g261
L4583L
tp425
a(g263
L4411L
tp426
a(g265
L28040L
tp427
a(g267
L6358L
tp428
a(g269
L10848L
tp429
a(g271
L21900L
tp430
a(g273
L4609L
tp431
a(g275
L201L
tp432
a(g277
L2841L
tp433
a(g279
L12918L
tp434
a(g281
L20770L
tp435
a(g283
L7683L
tp436
a(g285
L33512L
tp437
a(g287
L15852L
tp438
a(g289
L4412L
tp439
a(g291
L10192L
tp440
a(g293
L14288L
tp441
aaI574583
a.