(lp1
(lp2
(Vbiological_process
p3
I159277
tp4
a(Vcellular_component
p5
I51257
tp6
a(Vmolecular_function
p7
I42597
tp8
a(Vorganelle
p9
I13356
tp10
a(Vanatomical structure development
p11
I12167
tp12
a(Vtransport
p13
I8550
tp14
a(Vcellular nitrogen compound metabolic process
p15
I7559
tp16
a(Vsignal transduction
p17
I7245
tp18
a(Vsmall molecule metabolic process
p19
I6041
tp20
a(Vbiosynthetic process
p21
I5773
tp22
a(Vresponse to stress
p23
I5696
tp24
a(Vprotein complex
p25
I5685
tp26
a(Vion binding
p27
I4905
tp28
a(Vcellular protein modification process
p29
I3954
tp30
a(Vcatabolic process
p31
I3743
tp32
a(Vimmune system process
p33
I3160
tp34
a(Vcell differentiation
p35
I3005
tp36
a(Vlipid metabolic process
p37
I2682
tp38
a(Vcellular component assembly
p39
I2434
tp40
a(Vcytosol
p41
I2299
tp42
a(Venzyme binding
p43
I2066
tp44
a(Voxidoreductase activity
p45
I1884
tp46
a(Vlocomotion
p47
I1837
tp48
a(Vplasma membrane
p49
I1797
tp50
a(Vanatomical structure formation involved in morphogenesis
p51
I1774
tp52
a(VDNA metabolic process
p53
I1741
tp54
a(Vvesicle-mediated transport
p55
I1689
tp56
a(Vnucleus
p57
I1686
tp58
a(Vtransmembrane transporter activity
p59
I1672
tp60
a(Vnucleolus
p61
I1570
tp62
a(Vcarbohydrate metabolic process
p63
I1559
tp64
a(Vcytoplasm
p65
I1519
tp66
a(Vchromosome organization
p67
I1487
tp68
a(Vsignal transducer activity
p69
I1451
tp70
a(Vhomeostatic process
p71
I1426
tp72
a(VDNA binding
p73
I1380
tp74
a(Vkinase activity
p75
I1320
tp76
a(Vmacromolecular complex assembly
p77
I1315
tp78
a(Vgrowth
p79
I1308
tp80
a(Vcell motility
p81
I1298
tp82
a(Vnucleobase-containing compound catabolic process
p83
I1280
tp84
a(Vneurological system process
p85
I1243
tp86
a(Vtransmembrane transport
p87
I1223
tp88
a(Vembryo development
p89
I1215
tp90
a(Vcellular amino acid metabolic process
p91
I1194
tp92
a(Vcytoskeletal protein binding
p93
I1147
tp94
a(Vcytoskeleton organization
p95
I1120
tp96
a(Vprotein maturation
p97
I1092
tp98
a(Vprotein complex assembly
p99
I1060
tp100
a(Vmitochondrion
p101
I1009
tp102
a(VRNA binding
p103
I932
tp104
a(VATPase activity
p105
I834
tp106
a(Vcytoplasmic membrane-bounded vesicle
p107
I833
tp108
a(Vcytoskeleton
p109
I823
tp110
a(Vcell-cell signaling
p111
I819
tp112
a(Vcell adhesion
p113
I812
tp114
a(Vendoplasmic reticulum
p115
I794
tp116
a(Vcell death
p117
I788
tp118
a(VGolgi apparatus
p119
I762
tp120
a(Vlipid binding
p121
I747
tp122
a(Vpeptidase activity
p123
I736
tp124
a(Vmembrane organization
p125
I712
tp126
a(Vligase activity
p127
I705
tp128
a(Vendosome
p129
I689
tp130
a(Vcell proliferation
p131
I649
tp132
a(Vnucleoplasm
p133
I639
tp134
a(Vtranscription factor binding
p135
I629
tp136
a(Vcell morphogenesis
p137
I626
tp138
a(Venzyme regulator activity
p139
I624
tp140
a(Vmicrotubule organizing center
p141
I608
tp142
a(Vsulfur compound metabolic process
p143
I599
tp144
a(Vprotein binding transcription factor activity
p145
I590
tp146
a(Vcofactor metabolic process
p147
I536
tp148
a(Vextracellular region
p149
I526
tp150
a(Vcilium
p151
I517
tp152
a(Vtransferase activity, transferring glycosyl groups
p153
I498
tp154
a(Vnucleic acid binding transcription factor activity
p155
I490
tp156
a(Vtransferase activity, transferring acyl groups
p157
I477
tp158
a(Vstructural molecule activity
p159
I469
tp160
a(Vcell cycle
p161
I460
tp162
a(Vprotein targeting
p163
I419
tp164
a(Vgeneration of precursor metabolites and energy
p165
I414
tp166
a(Vphosphatase activity
p167
I391
tp168
a(VmRNA processing
p169
I382
tp170
a(Vvacuole
p171
I373
tp172
a(Vsymbiosis, encompassing mutualism through parasitism
p173
I367
tp174
a(Vlyase activity
p175
I362
tp176
a(Vextracellular matrix organization
p177
I329
tp178
a(Vextracellular space
p179
I328
tp180
a(Vcell division
p181
I315
tp182
a(Vcell junction organization
p183
I302
tp184
a(Vreproduction
p185
I296
tp186
a(Vhelicase activity
p187
I287
tp188
a(Vaging
p189
I270
tp190
a(Vnuclease activity
p191
I269
tp192
a(Vcirculatory system process
p193
I263
tp194
a(Vmethyltransferase activity
p195
I260
tp196
a(Vplastid
p197
I255
tp198
a(Vmitochondrion organization
p199
I242
tp200
a(Vnucleocytoplasmic transport
p201
I234
tp202
a(Vchromosome
p203
I234
tp204
a(Vcytoskeleton-dependent intracellular transport
p205
I214
tp206
a(Vprotein folding
p207
I208
tp208
a(Vnuclear envelope
p209
I207
tp210
a(VGTPase activity
p211
I206
tp212
a(Vlysosome
p213
I200
tp214
a(VtRNA metabolic process
p215
I197
tp216
a(Vexternal encapsulating structure
p217
I197
tp218
a(Vsecondary metabolic process
p219
I196
tp220
a(Vcell wall
p221
I195
tp222
a(Vribonucleoprotein complex assembly
p223
I194
tp224
a(Vnucleotidyltransferase activity
p225
I192
tp226
a(Visomerase activity
p227
I191
tp228
a(Vdevelopmental maturation
p229
I185
tp230
a(Vhistone binding
p231
I173
tp232
a(Vhydrolase activity, acting on glycosyl bonds
p233
I170
tp234
a(Vhydrolase activity, acting on carbon-nitrogen (but not peptide) bonds
p235
I168
tp236
a(Vcell wall organization or biogenesis
p237
I161
tp238
a(VmRNA binding
p239
I151
tp240
a(Vplasma membrane organization
p241
I146
tp242
a(Vproteinaceous extracellular matrix
p243
I144
tp244
a(Vchromosome segregation
p245
I134
tp246
a(Vtranslation
p247
I128
tp248
a(Vstructural constituent of ribosome
p249
I125
tp250
a(Vperoxisome
p251
I119
tp252
a(Vmitosis
p253
I118
tp254
a(Vvacuolar transport
p255
I113
tp256
a(Vtranslation factor activity, nucleic acid binding
p257
I111
tp258
a(Vlipid particle
p259
I102
tp260
a(Vprotein transporter activity
p261
I99
tp262
a(Vsmall conjugating protein binding
p263
I97
tp264
a(Vtransferase activity, transferring alkyl or aryl (other than methyl) groups
p265
I95
tp266
a(Vunfolded protein binding
p267
I95
tp268
a(Vprotein binding, bridging
p269
I90
tp270
a(Vintracellular
p271
I85
tp272
a(Vribosome
p273
I81
tp274
a(Vpigmentation
p275
I62
tp276
a(Vnuclear chromosome
p277
I57
tp278
a(VrRNA binding
p279
I48
tp280
a(Vribosome biogenesis
p281
I44
tp282
a(Vthylakoid
p283
I22
tp284
a(Vnitrogen cycle metabolic process
p285
I13
tp286
a(Vphotosynthesis
p287
I5
tp288
a(VRNA modification guide activity
p289
I3
tp290
a(Vcell
p291
I3
tp292
a(Vtransposition
p293
I2
tp294
aa(lp295
(g3
L6372L
tp296
a(g5
L4365L
tp297
a(g7
L2787L
tp298
a(g9
L21685L
tp299
a(g11
L26888L
tp300
a(g13
L5491L
tp301
a(g15
L18268L
tp302
a(g17
L5801L
tp303
a(g19
L22689L
tp304
a(g21
L7192L
tp305
a(g23
L5613L
tp306
a(g25
L21693L
tp307
a(g27
L21630L
tp308
a(g29
L5168L
tp309
a(g31
L7190L
tp310
a(g33
L1781L
tp311
a(g35
L13924L
tp312
a(g37
L5326L
tp313
a(g39
L13633L
tp314
a(g41
L4599L
tp315
a(g43
L12968L
tp316
a(g45
L10598L
tp317
a(g47
L20507L
tp318
a(g49
L4644L
tp319
a(g51
L26682L
tp320
a(g53
L4995L
tp321
a(g55
L10381L
tp322
a(g57
L4422L
tp323
a(g59
L13690L
tp324
a(g61
L4507L
tp325
a(g63
L4725L
tp326
a(g65
L4514L
tp327
a(g67
L28228L
tp328
a(g69
L3827L
tp329
a(g71
L21086L
tp330
a(g73
L2790L
tp331
a(g75
L10466L
tp332
a(g77
L31581L
tp333
a(g79
L20503L
tp334
a(g81
L26901L
tp335
a(g83
L18282L
tp336
a(g85
L27837L
tp337
a(g87
L29927L
tp338
a(g89
L7881L
tp339
a(g91
L5218L
tp340
a(g93
L6320L
tp341
a(g95
L5663L
tp342
a(g97
L28535L
tp343
a(g99
L5165L
tp344
a(g101
L4515L
tp345
a(g103
L2830L
tp346
a(g105
L10963L
tp347
a(g107
L10229L
tp348
a(g109
L4621L
tp349
a(g111
L5896L
tp350
a(g113
L5791L
tp351
a(g115
L4556L
tp352
a(g117
L6436L
tp353
a(g119
L4567L
tp354
a(g121
L6500L
tp355
a(g123
L6448L
tp356
a(g125
L30984L
tp357
a(g127
L10950L
tp358
a(g129
L4542L
tp359
a(g131
L6494L
tp360
a(g133
L4439L
tp361
a(g135
L6357L
tp362
a(g137
L594L
tp363
a(g139
L14001L
tp364
a(g141
L4586L
tp365
a(g143
L5471L
tp366
a(g145
L677L
tp367
a(g147
L28144L
tp368
a(g149
L4366L
tp369
a(g151
L4684L
tp370
a(g153
L10840L
tp371
a(g155
L759L
tp372
a(g157
L10829L
tp373
a(g159
L4118L
tp374
a(g161
L5695L
tp375
a(g163
L5302L
tp376
a(g165
L4838L
tp377
a(g167
L10870L
tp378
a(g169
L5112L
tp379
a(g171
L4546L
tp380
a(g173
L22810L
tp381
a(g175
L10905L
tp382
a(g177
L13967L
tp383
a(g179
L4405L
tp384
a(g181
L28251L
tp385
a(g183
L17965L
tp386
a(g185
L3L
tp387
a(g187
L3404L
tp388
a(g189
L6169L
tp389
a(g191
L3518L
tp390
a(g193
L2364L
tp391
a(g195
L6389L
tp392
a(g197
L7644L
tp393
a(g199
L5658L
tp394
a(g201
L5582L
tp395
a(g203
L4475L
tp396
a(g205
L14427L
tp397
a(g207
L5161L
tp398
a(g209
L4423L
tp399
a(g211
L2991L
tp400
a(g213
L4538L
tp401
a(g215
L5114L
tp402
a(g217
L14078L
tp403
a(g219
L12827L
tp404
a(g221
L4408L
tp405
a(g223
L13644L
tp406
a(g225
L10860L
tp407
a(g227
L10929L
tp408
a(g229
L13274L
tp409
a(g231
L20900L
tp410
a(g233
L10876L
tp411
a(g235
L10886L
tp412
a(g237
L33137L
tp413
a(g239
L2835L
tp414
a(g241
L5662L
tp415
a(g243
L4368L
tp416
a(g245
L5705L
tp417
a(g247
L5126L
tp418
a(g249
L2841L
tp419
a(g251
L4550L
tp420
a(g253
L5712L
tp421
a(g255
L5682L
tp422
a(g257
L6358L
tp423
a(g259
L4583L
tp424
a(g261
L6747L
tp425
a(g263
L15840L
tp426
a(g265
L10848L
tp427
a(g267
L28040L
tp428
a(g269
L14396L
tp429
a(g271
L4411L
tp430
a(g273
L4609L
tp431
a(g275
L21900L
tp432
a(g277
L201L
tp433
a(g279
L12918L
tp434
a(g281
L20770L
tp435
a(g283
L7683L
tp436
a(g285
L33512L
tp437
a(g287
L10192L
tp438
a(g289
L14288L
tp439
a(g291
L4412L
tp440
a(g293
L15852L
tp441
aaI426808
a.