(lp1
(lp2
(Vbiological_process
p3
I412002
tp4
a(Vcellular_component
p5
I141445
tp6
a(Vmolecular_function
p7
I114985
tp8
a(Vorganelle
p9
I38726
tp10
a(Vanatomical structure development
p11
I28524
tp12
a(Vtransport
p13
I24154
tp14
a(Vcellular nitrogen compound metabolic process
p15
I20214
tp16
a(Vsignal transduction
p17
I18465
tp18
a(Vresponse to stress
p19
I16471
tp20
a(Vprotein complex
p21
I15872
tp22
a(Vsmall molecule metabolic process
p23
I14489
tp24
a(Vbiosynthetic process
p25
I14452
tp26
a(Vion binding
p27
I14297
tp28
a(Vcellular protein modification process
p29
I11432
tp30
a(Vcatabolic process
p31
I10440
tp32
a(Vimmune system process
p33
I8031
tp34
a(Vcellular component assembly
p35
I7057
tp36
a(Vcytosol
p37
I6868
tp38
a(Vlipid metabolic process
p39
I6751
tp40
a(Vcell differentiation
p41
I6703
tp42
a(Venzyme binding
p43
I6115
tp44
a(Vplasma membrane
p45
I5305
tp46
a(Vtransmembrane transporter activity
p47
I4946
tp48
a(VDNA metabolic process
p49
I4897
tp50
a(Vvesicle-mediated transport
p51
I4851
tp52
a(Vnucleolus
p53
I4835
tp54
a(Vnucleus
p55
I4795
tp56
a(Vlocomotion
p57
I4733
tp58
a(Vcarbohydrate metabolic process
p59
I4476
tp60
a(Vanatomical structure formation involved in morphogenesis
p61
I4281
tp62
a(Vchromosome organization
p63
I4192
tp64
a(Voxidoreductase activity
p65
I4085
tp66
a(Vhomeostatic process
p67
I3926
tp68
a(Vmacromolecular complex assembly
p69
I3925
tp70
a(Vcytoplasm
p71
I3850
tp72
a(Vkinase activity
p73
I3713
tp74
a(VDNA binding
p75
I3665
tp76
a(Vtransmembrane transport
p77
I3593
tp78
a(Vnucleobase-containing compound catabolic process
p79
I3577
tp80
a(Vcytoskeletal protein binding
p81
I3527
tp82
a(Vgrowth
p83
I3420
tp84
a(Vcell motility
p85
I3346
tp86
a(Vembryo development
p87
I3286
tp88
a(Vcytoskeleton organization
p89
I3246
tp90
a(Vprotein complex assembly
p91
I3175
tp92
a(Vprotein maturation
p93
I3166
tp94
a(Vneurological system process
p95
I3075
tp96
a(VRNA binding
p97
I2859
tp98
a(Vmitochondrion
p99
I2710
tp100
a(Vcellular amino acid metabolic process
p101
I2666
tp102
a(VGolgi apparatus
p103
I2619
tp104
a(Vsignal transducer activity
p105
I2505
tp106
a(Vcytoskeleton
p107
I2461
tp108
a(Vlipid binding
p109
I2386
tp110
a(Vcytoplasmic membrane-bounded vesicle
p111
I2371
tp112
a(VATPase activity
p113
I2356
tp114
a(Vendoplasmic reticulum
p115
I2161
tp116
a(Vpeptidase activity
p117
I2096
tp118
a(Vmembrane organization
p119
I2095
tp120
a(Vmicrotubule organizing center
p121
I2014
tp122
a(Vendosome
p123
I1991
tp124
a(Vcell-cell signaling
p125
I1969
tp126
a(Vligase activity
p127
I1966
tp128
a(Vcell adhesion
p129
I1933
tp130
a(Vcell death
p131
I1929
tp132
a(Venzyme regulator activity
p133
I1880
tp134
a(Vnucleoplasm
p135
I1789
tp136
a(Vcell morphogenesis
p137
I1704
tp138
a(Vcell proliferation
p139
I1692
tp140
a(Vprotein targeting
p141
I1583
tp142
a(Vtranscription factor binding
p143
I1575
tp144
a(Vsulfur compound metabolic process
p145
I1558
tp146
a(Vstructural molecule activity
p147
I1477
tp148
a(Vcofactor metabolic process
p149
I1456
tp150
a(Vprotein binding transcription factor activity
p151
I1450
tp152
a(Vextracellular region
p153
I1402
tp154
a(Vcilium
p155
I1258
tp156
a(Vnucleic acid binding transcription factor activity
p157
I1257
tp158
a(Vtransferase activity, transferring acyl groups
p159
I1254
tp160
a(VmRNA processing
p161
I1217
tp162
a(Vvacuole
p163
I1211
tp164
a(Vgeneration of precursor metabolites and energy
p165
I1204
tp166
a(Vplastid
p167
I1128
tp168
a(Vcell cycle
p169
I1127
tp170
a(Vsymbiosis, encompassing mutualism through parasitism
p171
I1044
tp172
a(Vphosphatase activity
p173
I1035
tp174
a(Vextracellular space
p175
I977
tp176
a(Vhelicase activity
p177
I953
tp178
a(Vextracellular matrix organization
p179
I944
tp180
a(Vreproduction
p181
I941
tp182
a(Vtransferase activity, transferring glycosyl groups
p183
I868
tp184
a(Vnucleocytoplasmic transport
p185
I861
tp186
a(Vlyase activity
p187
I854
tp188
a(Vcell division
p189
I833
tp190
a(Vaging
p191
I789
tp192
a(Vmethyltransferase activity
p193
I751
tp194
a(Vcell junction organization
p195
I716
tp196
a(Vcytoskeleton-dependent intracellular transport
p197
I707
tp198
a(Vprotein folding
p199
I705
tp200
a(Vnuclease activity
p201
I681
tp202
a(Vdevelopmental maturation
p203
I681
tp204
a(Vcirculatory system process
p205
I675
tp206
a(Vexternal encapsulating structure
p207
I651
tp208
a(Vcell wall
p209
I642
tp210
a(Vchromosome
p211
I616
tp212
a(Vsecondary metabolic process
p213
I614
tp214
a(Vribonucleoprotein complex assembly
p215
I593
tp216
a(Visomerase activity
p217
I588
tp218
a(Vlysosome
p219
I587
tp220
a(Vmitochondrion organization
p221
I576
tp222
a(Vnuclear envelope
p223
I562
tp224
a(Vcell wall organization or biogenesis
p225
I519
tp226
a(VGTPase activity
p227
I511
tp228
a(Vhydrolase activity, acting on glycosyl bonds
p229
I503
tp230
a(VmRNA binding
p231
I497
tp232
a(Vhistone binding
p233
I459
tp234
a(Vnucleotidyltransferase activity
p235
I450
tp236
a(Vplasma membrane organization
p237
I422
tp238
a(Vperoxisome
p239
I415
tp240
a(Vchromosome segregation
p241
I413
tp242
a(Vvacuolar transport
p243
I410
tp244
a(Vmitosis
p245
I407
tp246
a(Vhydrolase activity, acting on carbon-nitrogen (but not peptide) bonds
p247
I396
tp248
a(Vprotein binding, bridging
p249
I388
tp250
a(VtRNA metabolic process
p251
I379
tp252
a(Vproteinaceous extracellular matrix
p253
I365
tp254
a(Vstructural constituent of ribosome
p255
I349
tp256
a(Vsmall conjugating protein binding
p257
I326
tp258
a(Vtranslation factor activity, nucleic acid binding
p259
I316
tp260
a(Vtranslation
p261
I277
tp262
a(Vunfolded protein binding
p263
I271
tp264
a(Vlipid particle
p265
I246
tp266
a(Vprotein transporter activity
p267
I236
tp268
a(Vribosome
p269
I233
tp270
a(Vtransferase activity, transferring alkyl or aryl (other than methyl) groups
p271
I194
tp272
a(Vribosome biogenesis
p273
I177
tp274
a(Vintracellular
p275
I176
tp276
a(Vnuclear chromosome
p277
I173
tp278
a(Vpigmentation
p279
I151
tp280
a(Vthylakoid
p281
I141
tp282
a(VrRNA binding
p283
I108
tp284
a(Vnitrogen cycle metabolic process
p285
I57
tp286
a(Vtransposition
p287
I46
tp288
a(Vphotosynthesis
p289
I41
tp290
a(Vcell
p291
I9
tp292
a(Vcytoplasmic chromosome
p293
I6
tp294
a(VRNA modification guide activity
p295
I2
tp296
aa(lp297
(g3
L6372L
tp298
a(g5
L4365L
tp299
a(g7
L2787L
tp300
a(g9
L21685L
tp301
a(g11
L26888L
tp302
a(g13
L5491L
tp303
a(g15
L18268L
tp304
a(g17
L5801L
tp305
a(g19
L5613L
tp306
a(g21
L21693L
tp307
a(g23
L22689L
tp308
a(g25
L7192L
tp309
a(g27
L21630L
tp310
a(g29
L5168L
tp311
a(g31
L7190L
tp312
a(g33
L1781L
tp313
a(g35
L13633L
tp314
a(g37
L4599L
tp315
a(g39
L5326L
tp316
a(g41
L13924L
tp317
a(g43
L12968L
tp318
a(g45
L4644L
tp319
a(g47
L13690L
tp320
a(g49
L4995L
tp321
a(g51
L10381L
tp322
a(g53
L4507L
tp323
a(g55
L4422L
tp324
a(g57
L20507L
tp325
a(g59
L4725L
tp326
a(g61
L26682L
tp327
a(g63
L28228L
tp328
a(g65
L10598L
tp329
a(g67
L21086L
tp330
a(g69
L31581L
tp331
a(g71
L4514L
tp332
a(g73
L10466L
tp333
a(g75
L2790L
tp334
a(g77
L29927L
tp335
a(g79
L18282L
tp336
a(g81
L6320L
tp337
a(g83
L20503L
tp338
a(g85
L26901L
tp339
a(g87
L7881L
tp340
a(g89
L5663L
tp341
a(g91
L5165L
tp342
a(g93
L28535L
tp343
a(g95
L27837L
tp344
a(g97
L2830L
tp345
a(g99
L4515L
tp346
a(g101
L5218L
tp347
a(g103
L4567L
tp348
a(g105
L3827L
tp349
a(g107
L4621L
tp350
a(g109
L6500L
tp351
a(g111
L10229L
tp352
a(g113
L10963L
tp353
a(g115
L4556L
tp354
a(g117
L6448L
tp355
a(g119
L30984L
tp356
a(g121
L4586L
tp357
a(g123
L4542L
tp358
a(g125
L5896L
tp359
a(g127
L10950L
tp360
a(g129
L5791L
tp361
a(g131
L6436L
tp362
a(g133
L14001L
tp363
a(g135
L4439L
tp364
a(g137
L594L
tp365
a(g139
L6494L
tp366
a(g141
L5302L
tp367
a(g143
L6357L
tp368
a(g145
L5471L
tp369
a(g147
L4118L
tp370
a(g149
L28144L
tp371
a(g151
L677L
tp372
a(g153
L4366L
tp373
a(g155
L4684L
tp374
a(g157
L759L
tp375
a(g159
L10829L
tp376
a(g161
L5112L
tp377
a(g163
L4546L
tp378
a(g165
L4838L
tp379
a(g167
L7644L
tp380
a(g169
L5695L
tp381
a(g171
L22810L
tp382
a(g173
L10870L
tp383
a(g175
L4405L
tp384
a(g177
L3404L
tp385
a(g179
L13967L
tp386
a(g181
L3L
tp387
a(g183
L10840L
tp388
a(g185
L5582L
tp389
a(g187
L10905L
tp390
a(g189
L28251L
tp391
a(g191
L6169L
tp392
a(g193
L6389L
tp393
a(g195
L17965L
tp394
a(g197
L14427L
tp395
a(g199
L5161L
tp396
a(g201
L3518L
tp397
a(g203
L13274L
tp398
a(g205
L2364L
tp399
a(g207
L14078L
tp400
a(g209
L4408L
tp401
a(g211
L4475L
tp402
a(g213
L12827L
tp403
a(g215
L13644L
tp404
a(g217
L10929L
tp405
a(g219
L4538L
tp406
a(g221
L5658L
tp407
a(g223
L4423L
tp408
a(g225
L33137L
tp409
a(g227
L2991L
tp410
a(g229
L10876L
tp411
a(g231
L2835L
tp412
a(g233
L20900L
tp413
a(g235
L10860L
tp414
a(g237
L5662L
tp415
a(g239
L4550L
tp416
a(g241
L5705L
tp417
a(g243
L5682L
tp418
a(g245
L5712L
tp419
a(g247
L10886L
tp420
a(g249
L14396L
tp421
a(g251
L5114L
tp422
a(g253
L4368L
tp423
a(g255
L2841L
tp424
a(g257
L15840L
tp425
a(g259
L6358L
tp426
a(g261
L5126L
tp427
a(g263
L28040L
tp428
a(g265
L4583L
tp429
a(g267
L6747L
tp430
a(g269
L4609L
tp431
a(g271
L10848L
tp432
a(g273
L20770L
tp433
a(g275
L4411L
tp434
a(g277
L201L
tp435
a(g279
L21900L
tp436
a(g281
L7683L
tp437
a(g283
L12918L
tp438
a(g285
L33512L
tp439
a(g287
L15852L
tp440
a(g289
L10192L
tp441
a(g291
L4412L
tp442
a(g293
L202L
tp443
a(g295
L14288L
tp444
aaI1140201
a.