(lp1
(lp2
(Vbiological_process
p3
I429841
tp4
a(Vcellular_component
p5
I145324
tp6
a(Vmolecular_function
p7
I118592
tp8
a(Vorganelle
p9
I39606
tp10
a(Vanatomical structure development
p11
I30355
tp12
a(Vtransport
p13
I25041
tp14
a(Vcellular nitrogen compound metabolic process
p15
I20312
tp16
a(Vsignal transduction
p17
I19320
tp18
a(Vresponse to stress
p19
I16912
tp20
a(Vprotein complex
p21
I16181
tp22
a(Vion binding
p23
I14515
tp24
a(Vsmall molecule metabolic process
p25
I14418
tp26
a(Vbiosynthetic process
p27
I14176
tp28
a(Vcellular protein modification process
p29
I11884
tp30
a(Vcatabolic process
p31
I10441
tp32
a(Vimmune system process
p33
I8536
tp34
a(Vcell differentiation
p35
I7204
tp36
a(Vcellular component assembly
p37
I7191
tp38
a(Vcytosol
p39
I6838
tp40
a(Vlipid metabolic process
p41
I6836
tp42
a(Venzyme binding
p43
I6424
tp44
a(Vplasma membrane
p45
I5344
tp46
a(Vtransmembrane transporter activity
p47
I5304
tp48
a(Vlocomotion
p49
I5092
tp50
a(VDNA metabolic process
p51
I5068
tp52
a(Vnucleus
p53
I4996
tp54
a(Vvesicle-mediated transport
p55
I4959
tp56
a(Vnucleolus
p57
I4825
tp58
a(Vanatomical structure formation involved in morphogenesis
p59
I4591
tp60
a(Vcarbohydrate metabolic process
p61
I4458
tp62
a(Vchromosome organization
p63
I4273
tp64
a(Vcytoplasm
p65
I4108
tp66
a(Vhomeostatic process
p67
I4068
tp68
a(Voxidoreductase activity
p69
I4028
tp70
a(Vmacromolecular complex assembly
p71
I3983
tp72
a(Vkinase activity
p73
I3917
tp74
a(Vtransmembrane transport
p75
I3827
tp76
a(VDNA binding
p77
I3790
tp78
a(Vcell motility
p79
I3602
tp80
a(Vnucleobase-containing compound catabolic process
p81
I3597
tp82
a(Vcytoskeletal protein binding
p83
I3561
tp84
a(Vgrowth
p85
I3527
tp86
a(Vembryo development
p87
I3292
tp88
a(Vprotein complex assembly
p89
I3264
tp90
a(Vprotein maturation
p91
I3246
tp92
a(Vcytoskeleton organization
p93
I3238
tp94
a(Vneurological system process
p95
I3181
tp96
a(VRNA binding
p97
I2740
tp98
a(Vmitochondrion
p99
I2721
tp100
a(VGolgi apparatus
p101
I2686
tp102
a(Vsignal transducer activity
p103
I2625
tp104
a(Vcellular amino acid metabolic process
p105
I2572
tp106
a(Vcytoskeleton
p107
I2516
tp108
a(VATPase activity
p109
I2467
tp110
a(Vlipid binding
p111
I2411
tp112
a(Vcytoplasmic membrane-bounded vesicle
p113
I2409
tp114
a(Vcell adhesion
p115
I2222
tp116
a(Vendoplasmic reticulum
p117
I2175
tp118
a(Vmembrane organization
p119
I2163
tp120
a(Vpeptidase activity
p121
I2138
tp122
a(Vligase activity
p123
I2136
tp124
a(Vendosome
p125
I2085
tp126
a(Vcell-cell signaling
p127
I2078
tp128
a(Vmicrotubule organizing center
p129
I2021
tp130
a(Vcell death
p131
I1948
tp132
a(Venzyme regulator activity
p133
I1894
tp134
a(Vcell morphogenesis
p135
I1880
tp136
a(Vcell proliferation
p137
I1812
tp138
a(Vnucleoplasm
p139
I1799
tp140
a(Vtranscription factor binding
p141
I1630
tp142
a(Vprotein targeting
p143
I1502
tp144
a(Vprotein binding transcription factor activity
p145
I1497
tp146
a(Vsulfur compound metabolic process
p147
I1451
tp148
a(Vcofactor metabolic process
p149
I1451
tp150
a(Vextracellular region
p151
I1448
tp152
a(Vstructural molecule activity
p153
I1390
tp154
a(Vcilium
p155
I1324
tp156
a(Vnucleic acid binding transcription factor activity
p157
I1295
tp158
a(Vtransferase activity, transferring acyl groups
p159
I1214
tp160
a(Vvacuole
p161
I1210
tp162
a(VmRNA processing
p163
I1182
tp164
a(Vcell cycle
p165
I1170
tp166
a(Vgeneration of precursor metabolites and energy
p167
I1152
tp168
a(Vphosphatase activity
p169
I1090
tp170
a(Vsymbiosis, encompassing mutualism through parasitism
p171
I1074
tp172
a(Vplastid
p173
I1055
tp174
a(Vhelicase activity
p175
I1016
tp176
a(Vextracellular space
p177
I994
tp178
a(Vreproduction
p179
I965
tp180
a(Vextracellular matrix organization
p181
I944
tp182
a(Vtransferase activity, transferring glycosyl groups
p183
I901
tp184
a(Vnucleocytoplasmic transport
p185
I880
tp186
a(Vcell division
p187
I856
tp188
a(Vlyase activity
p189
I840
tp190
a(Vaging
p191
I802
tp192
a(Vcell junction organization
p193
I766
tp194
a(Vmethyltransferase activity
p195
I750
tp196
a(Vcytoskeleton-dependent intracellular transport
p197
I730
tp198
a(Vnuclease activity
p199
I722
tp200
a(Vdevelopmental maturation
p201
I717
tp202
a(Vprotein folding
p203
I699
tp204
a(Vcirculatory system process
p205
I665
tp206
a(Vchromosome
p207
I614
tp208
a(Vsecondary metabolic process
p209
I608
tp210
a(Vmitochondrion organization
p211
I594
tp212
a(Vlysosome
p213
I592
tp214
a(Vexternal encapsulating structure
p215
I590
tp216
a(Vcell wall
p217
I580
tp218
a(Vribonucleoprotein complex assembly
p219
I564
tp220
a(Visomerase activity
p221
I564
tp222
a(Vnuclear envelope
p223
I561
tp224
a(Vhydrolase activity, acting on glycosyl bonds
p225
I498
tp226
a(Vcell wall organization or biogenesis
p227
I498
tp228
a(VGTPase activity
p229
I493
tp230
a(Vhistone binding
p231
I475
tp232
a(Vplasma membrane organization
p233
I464
tp234
a(Vnucleotidyltransferase activity
p235
I463
tp236
a(VmRNA binding
p237
I463
tp238
a(Vmitosis
p239
I409
tp240
a(Vvacuolar transport
p241
I409
tp242
a(Vchromosome segregation
p243
I407
tp244
a(Vprotein binding, bridging
p245
I401
tp246
a(Vproteinaceous extracellular matrix
p247
I397
tp248
a(Vhydrolase activity, acting on carbon-nitrogen (but not peptide) bonds
p249
I397
tp250
a(Vperoxisome
p251
I395
tp252
a(VtRNA metabolic process
p253
I348
tp254
a(Vsmall conjugating protein binding
p255
I343
tp256
a(Vtranslation factor activity, nucleic acid binding
p257
I275
tp258
a(Vprotein transporter activity
p259
I264
tp260
a(Vtranslation
p261
I262
tp262
a(Vunfolded protein binding
p263
I259
tp264
a(Vstructural constituent of ribosome
p265
I256
tp266
a(Vlipid particle
p267
I241
tp268
a(Vribosome
p269
I214
tp270
a(Vtransferase activity, transferring alkyl or aryl (other than methyl) groups
p271
I192
tp272
a(Vintracellular
p273
I183
tp274
a(Vribosome biogenesis
p275
I164
tp276
a(Vpigmentation
p277
I163
tp278
a(Vnuclear chromosome
p279
I160
tp280
a(Vthylakoid
p281
I137
tp282
a(VrRNA binding
p283
I88
tp284
a(Vnitrogen cycle metabolic process
p285
I60
tp286
a(Vtransposition
p287
I42
tp288
a(Vphotosynthesis
p289
I41
tp290
a(Vcell
p291
I16
tp292
a(Vcytoplasmic chromosome
p293
I6
tp294
a(VRNA modification guide activity
p295
I2
tp296
aa(lp297
(g3
L6372L
tp298
a(g5
L4365L
tp299
a(g7
L2787L
tp300
a(g9
L21685L
tp301
a(g11
L26888L
tp302
a(g13
L5491L
tp303
a(g15
L18268L
tp304
a(g17
L5801L
tp305
a(g19
L5613L
tp306
a(g21
L21693L
tp307
a(g23
L21630L
tp308
a(g25
L22689L
tp309
a(g27
L7192L
tp310
a(g29
L5168L
tp311
a(g31
L7190L
tp312
a(g33
L1781L
tp313
a(g35
L13924L
tp314
a(g37
L13633L
tp315
a(g39
L4599L
tp316
a(g41
L5326L
tp317
a(g43
L12968L
tp318
a(g45
L4644L
tp319
a(g47
L13690L
tp320
a(g49
L20507L
tp321
a(g51
L4995L
tp322
a(g53
L4422L
tp323
a(g55
L10381L
tp324
a(g57
L4507L
tp325
a(g59
L26682L
tp326
a(g61
L4725L
tp327
a(g63
L28228L
tp328
a(g65
L4514L
tp329
a(g67
L21086L
tp330
a(g69
L10598L
tp331
a(g71
L31581L
tp332
a(g73
L10466L
tp333
a(g75
L29927L
tp334
a(g77
L2790L
tp335
a(g79
L26901L
tp336
a(g81
L18282L
tp337
a(g83
L6320L
tp338
a(g85
L20503L
tp339
a(g87
L7881L
tp340
a(g89
L5165L
tp341
a(g91
L28535L
tp342
a(g93
L5663L
tp343
a(g95
L27837L
tp344
a(g97
L2830L
tp345
a(g99
L4515L
tp346
a(g101
L4567L
tp347
a(g103
L3827L
tp348
a(g105
L5218L
tp349
a(g107
L4621L
tp350
a(g109
L10963L
tp351
a(g111
L6500L
tp352
a(g113
L10229L
tp353
a(g115
L5791L
tp354
a(g117
L4556L
tp355
a(g119
L30984L
tp356
a(g121
L6448L
tp357
a(g123
L10950L
tp358
a(g125
L4542L
tp359
a(g127
L5896L
tp360
a(g129
L4586L
tp361
a(g131
L6436L
tp362
a(g133
L14001L
tp363
a(g135
L594L
tp364
a(g137
L6494L
tp365
a(g139
L4439L
tp366
a(g141
L6357L
tp367
a(g143
L5302L
tp368
a(g145
L677L
tp369
a(g147
L5471L
tp370
a(g149
L28144L
tp371
a(g151
L4366L
tp372
a(g153
L4118L
tp373
a(g155
L4684L
tp374
a(g157
L759L
tp375
a(g159
L10829L
tp376
a(g161
L4546L
tp377
a(g163
L5112L
tp378
a(g165
L5695L
tp379
a(g167
L4838L
tp380
a(g169
L10870L
tp381
a(g171
L22810L
tp382
a(g173
L7644L
tp383
a(g175
L3404L
tp384
a(g177
L4405L
tp385
a(g179
L3L
tp386
a(g181
L13967L
tp387
a(g183
L10840L
tp388
a(g185
L5582L
tp389
a(g187
L28251L
tp390
a(g189
L10905L
tp391
a(g191
L6169L
tp392
a(g193
L17965L
tp393
a(g195
L6389L
tp394
a(g197
L14427L
tp395
a(g199
L3518L
tp396
a(g201
L13274L
tp397
a(g203
L5161L
tp398
a(g205
L2364L
tp399
a(g207
L4475L
tp400
a(g209
L12827L
tp401
a(g211
L5658L
tp402
a(g213
L4538L
tp403
a(g215
L14078L
tp404
a(g217
L4408L
tp405
a(g219
L13644L
tp406
a(g221
L10929L
tp407
a(g223
L4423L
tp408
a(g225
L10876L
tp409
a(g227
L33137L
tp410
a(g229
L2991L
tp411
a(g231
L20900L
tp412
a(g233
L5662L
tp413
a(g235
L10860L
tp414
a(g237
L2835L
tp415
a(g239
L5712L
tp416
a(g241
L5682L
tp417
a(g243
L5705L
tp418
a(g245
L14396L
tp419
a(g247
L4368L
tp420
a(g249
L10886L
tp421
a(g251
L4550L
tp422
a(g253
L5114L
tp423
a(g255
L15840L
tp424
a(g257
L6358L
tp425
a(g259
L6747L
tp426
a(g261
L5126L
tp427
a(g263
L28040L
tp428
a(g265
L2841L
tp429
a(g267
L4583L
tp430
a(g269
L4609L
tp431
a(g271
L10848L
tp432
a(g273
L4411L
tp433
a(g275
L20770L
tp434
a(g277
L21900L
tp435
a(g279
L201L
tp436
a(g281
L7683L
tp437
a(g283
L12918L
tp438
a(g285
L33512L
tp439
a(g287
L15852L
tp440
a(g289
L10192L
tp441
a(g291
L4412L
tp442
a(g293
L202L
tp443
a(g295
L14288L
tp444
aaI1177118
a.