(lp1
(lp2
(Vbiological_process
p3
I29581
tp4
a(Vcellular_component
p5
I10447
tp6
a(Vmolecular_function
p7
I8093
tp8
a(Vorganelle
p9
I3033
tp10
a(Vanatomical structure development
p11
I2021
tp12
a(Vcellular nitrogen compound metabolic process
p13
I1693
tp14
a(Vtransport
p15
I1549
tp16
a(Vsignal transduction
p17
I1319
tp18
a(Vprotein complex
p19
I1302
tp20
a(Vresponse to stress
p21
I1256
tp22
a(Vsmall molecule metabolic process
p23
I1208
tp24
a(Vbiosynthetic process
p25
I1076
tp26
a(Vion binding
p27
I967
tp28
a(Vcellular protein modification process
p29
I919
tp30
a(Vcatabolic process
p31
I916
tp32
a(Vimmune system process
p33
I680
tp34
a(Vcytosol
p35
I609
tp36
a(Vcellular component assembly
p37
I518
tp38
a(Vnucleolus
p39
I437
tp40
a(Vlipid metabolic process
p41
I435
tp42
a(Venzyme binding
p43
I403
tp44
a(Vcell differentiation
p45
I392
tp46
a(Vchromosome organization
p47
I381
tp48
a(Vnucleus
p49
I359
tp50
a(Vplasma membrane
p51
I356
tp52
a(VDNA metabolic process
p53
I345
tp54
a(Vcarbohydrate metabolic process
p55
I342
tp56
a(Vlocomotion
p57
I340
tp58
a(Vcellular amino acid metabolic process
p59
I333
tp60
a(Vembryo development
p61
I320
tp62
a(Vprotein maturation
p63
I314
tp64
a(Vvesicle-mediated transport
p65
I310
tp66
a(VRNA binding
p67
I303
tp68
a(Vmacromolecular complex assembly
p69
I294
tp70
a(Vnucleobase-containing compound catabolic process
p71
I273
tp72
a(Voxidoreductase activity
p73
I272
tp74
a(Vkinase activity
p75
I266
tp76
a(Vtransmembrane transporter activity
p77
I256
tp78
a(Vanatomical structure formation involved in morphogenesis
p79
I254
tp80
a(Vgrowth
p81
I250
tp82
a(VDNA binding
p83
I250
tp84
a(Vcytoskeleton organization
p85
I245
tp86
a(Vcytoplasm
p87
I240
tp88
a(Vhomeostatic process
p89
I240
tp90
a(Vprotein complex assembly
p91
I236
tp92
a(Vpeptidase activity
p93
I225
tp94
a(Vcell motility
p95
I215
tp96
a(VGolgi apparatus
p97
I210
tp98
a(Vcytoplasmic membrane-bounded vesicle
p99
I204
tp100
a(Vtransmembrane transport
p101
I204
tp102
a(Vcell death
p103
I202
tp104
a(Vmitochondrion
p105
I200
tp106
a(Vcytoskeletal protein binding
p107
I198
tp108
a(Vligase activity
p109
I182
tp110
a(Vcytoskeleton
p111
I175
tp112
a(Vnucleoplasm
p113
I172
tp114
a(Vmicrotubule organizing center
p115
I162
tp116
a(Vneurological system process
p117
I162
tp118
a(Vendoplasmic reticulum
p119
I145
tp120
a(Vendosome
p121
I141
tp122
a(VATPase activity
p123
I137
tp124
a(Vvacuole
p125
I135
tp126
a(Vlipid binding
p127
I135
tp128
a(Venzyme regulator activity
p129
I132
tp130
a(VmRNA processing
p131
I130
tp132
a(Vcell proliferation
p133
I129
tp134
a(Vsulfur compound metabolic process
p135
I128
tp136
a(Vcell morphogenesis
p137
I128
tp138
a(Vcell adhesion
p139
I125
tp140
a(Vcofactor metabolic process
p141
I120
tp142
a(Vmembrane organization
p143
I120
tp144
a(Vstructural molecule activity
p145
I117
tp146
a(Vsignal transducer activity
p147
I114
tp148
a(Vtranscription factor binding
p149
I113
tp150
a(Vprotein targeting
p151
I110
tp152
a(Vextracellular region
p153
I107
tp154
a(Vsymbiosis, encompassing mutualism through parasitism
p155
I103
tp156
a(Vcell-cell signaling
p157
I102
tp158
a(Vreproduction
p159
I101
tp160
a(Vgeneration of precursor metabolites and energy
p161
I99
tp162
a(Vprotein binding transcription factor activity
p163
I92
tp164
a(Vcell cycle
p165
I91
tp166
a(Vnucleocytoplasmic transport
p167
I84
tp168
a(Vcell division
p169
I77
tp170
a(Vnucleic acid binding transcription factor activity
p171
I76
tp172
a(Vtransferase activity, transferring acyl groups
p173
I75
tp174
a(Vhelicase activity
p175
I72
tp176
a(Vphosphatase activity
p177
I72
tp178
a(Vcilium
p179
I70
tp180
a(Vmethyltransferase activity
p181
I68
tp182
a(Vplastid
p183
I67
tp184
a(Vprotein folding
p185
I67
tp186
a(Vchromosome
p187
I65
tp188
a(Vnuclease activity
p189
I62
tp190
a(Vlysosome
p191
I61
tp192
a(Vcell wall
p193
I61
tp194
a(Vexternal encapsulating structure
p195
I61
tp196
a(VtRNA metabolic process
p197
I59
tp198
a(Vcell junction organization
p199
I58
tp200
a(Vlyase activity
p201
I53
tp202
a(Vextracellular space
p203
I50
tp204
a(Vsecondary metabolic process
p205
I50
tp206
a(Vtransferase activity, transferring glycosyl groups
p207
I49
tp208
a(VGTPase activity
p209
I48
tp210
a(VmRNA binding
p211
I47
tp212
a(Vextracellular matrix organization
p213
I47
tp214
a(Vaging
p215
I46
tp216
a(Vribonucleoprotein complex assembly
p217
I44
tp218
a(Vhistone binding
p219
I43
tp220
a(Vdevelopmental maturation
p221
I43
tp222
a(Vmitochondrion organization
p223
I43
tp224
a(Vcell wall organization or biogenesis
p225
I42
tp226
a(Vnuclear envelope
p227
I42
tp228
a(Vstructural constituent of ribosome
p229
I37
tp230
a(Vhydrolase activity, acting on carbon-nitrogen (but not peptide) bonds
p231
I37
tp232
a(Vcytoskeleton-dependent intracellular transport
p233
I37
tp234
a(Vmitosis
p235
I37
tp236
a(Vsmall conjugating protein binding
p237
I36
tp238
a(Vcirculatory system process
p239
I35
tp240
a(Vchromosome segregation
p241
I33
tp242
a(Vvacuolar transport
p243
I31
tp244
a(Vunfolded protein binding
p245
I30
tp246
a(Visomerase activity
p247
I30
tp248
a(Vtranslation factor activity, nucleic acid binding
p249
I29
tp250
a(Vtranslation
p251
I28
tp252
a(Vhydrolase activity, acting on glycosyl bonds
p253
I26
tp254
a(Vplasma membrane organization
p255
I26
tp256
a(Vnucleotidyltransferase activity
p257
I26
tp258
a(Vperoxisome
p259
I24
tp260
a(Vribosome
p261
I22
tp262
a(Vnuclear chromosome
p263
I21
tp264
a(Vlipid particle
p265
I19
tp266
a(Vtransferase activity, transferring alkyl or aryl (other than methyl) groups
p267
I19
tp268
a(Vprotein transporter activity
p269
I18
tp270
a(Vribosome biogenesis
p271
I17
tp272
a(Vintracellular
p273
I14
tp274
a(Vprotein binding, bridging
p275
I13
tp276
a(Vpigmentation
p277
I11
tp278
a(VrRNA binding
p279
I11
tp280
a(Vproteinaceous extracellular matrix
p281
I10
tp282
a(Vthylakoid
p283
I5
tp284
a(Vnitrogen cycle metabolic process
p285
I2
tp286
a(Vcell
p287
I1
tp288
aa(lp289
(g3
L6372L
tp290
a(g5
L4365L
tp291
a(g7
L2787L
tp292
a(g9
L21685L
tp293
a(g11
L26888L
tp294
a(g13
L18268L
tp295
a(g15
L5491L
tp296
a(g17
L5801L
tp297
a(g19
L21693L
tp298
a(g21
L5613L
tp299
a(g23
L22689L
tp300
a(g25
L7192L
tp301
a(g27
L21630L
tp302
a(g29
L5168L
tp303
a(g31
L7190L
tp304
a(g33
L1781L
tp305
a(g35
L4599L
tp306
a(g37
L13633L
tp307
a(g39
L4507L
tp308
a(g41
L5326L
tp309
a(g43
L12968L
tp310
a(g45
L13924L
tp311
a(g47
L28228L
tp312
a(g49
L4422L
tp313
a(g51
L4644L
tp314
a(g53
L4995L
tp315
a(g55
L4725L
tp316
a(g57
L20507L
tp317
a(g59
L5218L
tp318
a(g61
L7881L
tp319
a(g63
L28535L
tp320
a(g65
L10381L
tp321
a(g67
L2830L
tp322
a(g69
L31581L
tp323
a(g71
L18282L
tp324
a(g73
L10598L
tp325
a(g75
L10466L
tp326
a(g77
L13690L
tp327
a(g79
L26682L
tp328
a(g81
L20503L
tp329
a(g83
L2790L
tp330
a(g85
L5663L
tp331
a(g87
L4514L
tp332
a(g89
L21086L
tp333
a(g91
L5165L
tp334
a(g93
L6448L
tp335
a(g95
L26901L
tp336
a(g97
L4567L
tp337
a(g99
L10229L
tp338
a(g101
L29927L
tp339
a(g103
L6436L
tp340
a(g105
L4515L
tp341
a(g107
L6320L
tp342
a(g109
L10950L
tp343
a(g111
L4621L
tp344
a(g113
L4439L
tp345
a(g115
L4586L
tp346
a(g117
L27837L
tp347
a(g119
L4556L
tp348
a(g121
L4542L
tp349
a(g123
L10963L
tp350
a(g125
L4546L
tp351
a(g127
L6500L
tp352
a(g129
L14001L
tp353
a(g131
L5112L
tp354
a(g133
L6494L
tp355
a(g135
L5471L
tp356
a(g137
L594L
tp357
a(g139
L5791L
tp358
a(g141
L28144L
tp359
a(g143
L30984L
tp360
a(g145
L4118L
tp361
a(g147
L3827L
tp362
a(g149
L6357L
tp363
a(g151
L5302L
tp364
a(g153
L4366L
tp365
a(g155
L22810L
tp366
a(g157
L5896L
tp367
a(g159
L3L
tp368
a(g161
L4838L
tp369
a(g163
L677L
tp370
a(g165
L5695L
tp371
a(g167
L5582L
tp372
a(g169
L28251L
tp373
a(g171
L759L
tp374
a(g173
L10829L
tp375
a(g175
L3404L
tp376
a(g177
L10870L
tp377
a(g179
L4684L
tp378
a(g181
L6389L
tp379
a(g183
L7644L
tp380
a(g185
L5161L
tp381
a(g187
L4475L
tp382
a(g189
L3518L
tp383
a(g191
L4538L
tp384
a(g193
L4408L
tp385
a(g195
L14078L
tp386
a(g197
L5114L
tp387
a(g199
L17965L
tp388
a(g201
L10905L
tp389
a(g203
L4405L
tp390
a(g205
L12827L
tp391
a(g207
L10840L
tp392
a(g209
L2991L
tp393
a(g211
L2835L
tp394
a(g213
L13967L
tp395
a(g215
L6169L
tp396
a(g217
L13644L
tp397
a(g219
L20900L
tp398
a(g221
L13274L
tp399
a(g223
L5658L
tp400
a(g225
L33137L
tp401
a(g227
L4423L
tp402
a(g229
L2841L
tp403
a(g231
L10886L
tp404
a(g233
L14427L
tp405
a(g235
L5712L
tp406
a(g237
L15840L
tp407
a(g239
L2364L
tp408
a(g241
L5705L
tp409
a(g243
L5682L
tp410
a(g245
L28040L
tp411
a(g247
L10929L
tp412
a(g249
L6358L
tp413
a(g251
L5126L
tp414
a(g253
L10876L
tp415
a(g255
L5662L
tp416
a(g257
L10860L
tp417
a(g259
L4550L
tp418
a(g261
L4609L
tp419
a(g263
L201L
tp420
a(g265
L4583L
tp421
a(g267
L10848L
tp422
a(g269
L6747L
tp423
a(g271
L20770L
tp424
a(g273
L4411L
tp425
a(g275
L14396L
tp426
a(g277
L21900L
tp427
a(g279
L12918L
tp428
a(g281
L4368L
tp429
a(g283
L7683L
tp430
a(g285
L33512L
tp431
a(g287
L4412L
tp432
aaI83485
a.