(lp1
(lp2
(Vbiological_process
p3
I121157
tp4
a(Vcellular_component
p5
I42477
tp6
a(Vmolecular_function
p7
I34445
tp8
a(Vorganelle
p9
I11685
tp10
a(Vanatomical structure development
p11
I9339
tp12
a(Vtransport
p13
I6598
tp14
a(Vcellular nitrogen compound metabolic process
p15
I5927
tp16
a(Vsignal transduction
p17
I5790
tp18
a(Vprotein complex
p19
I4577
tp20
a(Vresponse to stress
p21
I4371
tp22
a(Vsmall molecule metabolic process
p23
I4050
tp24
a(Vion binding
p25
I3750
tp26
a(Vbiosynthetic process
p27
I3679
tp28
a(Vcellular protein modification process
p29
I3285
tp30
a(Vcatabolic process
p31
I2770
tp32
a(Vimmune system process
p33
I2718
tp34
a(Vcell differentiation
p35
I2050
tp36
a(Vcytosol
p37
I1995
tp38
a(Vcellular component assembly
p39
I1843
tp40
a(Vlipid metabolic process
p41
I1757
tp42
a(Vnucleus
p43
I1638
tp44
a(Venzyme binding
p45
I1619
tp46
a(Vnucleolus
p47
I1594
tp48
a(Vplasma membrane
p49
I1587
tp50
a(Vcytoplasm
p51
I1547
tp52
a(VDNA metabolic process
p53
I1366
tp54
a(Vlocomotion
p55
I1308
tp56
a(Vtransmembrane transporter activity
p57
I1306
tp58
a(VDNA binding
p59
I1288
tp60
a(Vanatomical structure formation involved in morphogenesis
p61
I1269
tp62
a(Vvesicle-mediated transport
p63
I1243
tp64
a(Voxidoreductase activity
p65
I1178
tp66
a(Vchromosome organization
p67
I1138
tp68
a(Vhomeostatic process
p69
I1062
tp70
a(Vcarbohydrate metabolic process
p71
I1061
tp72
a(Vmacromolecular complex assembly
p73
I1061
tp74
a(Vtransmembrane transport
p75
I1047
tp76
a(Vprotein maturation
p77
I1026
tp78
a(Vsignal transducer activity
p79
I1016
tp80
a(Vembryo development
p81
I981
tp82
a(Vnucleobase-containing compound catabolic process
p83
I968
tp84
a(Vkinase activity
p85
I942
tp86
a(Vcell motility
p87
I912
tp88
a(VRNA binding
p89
I912
tp90
a(Vcellular amino acid metabolic process
p91
I859
tp92
a(Vprotein complex assembly
p93
I854
tp94
a(Vcytoskeletal protein binding
p95
I824
tp96
a(Vcytoskeleton organization
p97
I816
tp98
a(Vgrowth
p99
I796
tp100
a(Vneurological system process
p101
I781
tp102
a(Vmitochondrion
p103
I766
tp104
a(Vpeptidase activity
p105
I731
tp106
a(VGolgi apparatus
p107
I721
tp108
a(Vcytoskeleton
p109
I705
tp110
a(Vcytoplasmic membrane-bounded vesicle
p111
I689
tp112
a(Vligase activity
p113
I634
tp114
a(Vcell-cell signaling
p115
I627
tp116
a(Vendoplasmic reticulum
p117
I625
tp118
a(Vcell death
p119
I602
tp120
a(Vnucleoplasm
p121
I591
tp122
a(Vlipid binding
p123
I575
tp124
a(Vendosome
p125
I558
tp126
a(Vmembrane organization
p127
I554
tp128
a(Vcell proliferation
p129
I546
tp130
a(Venzyme regulator activity
p131
I538
tp132
a(Vmicrotubule organizing center
p133
I532
tp134
a(Vnucleic acid binding transcription factor activity
p135
I520
tp136
a(Vcell adhesion
p137
I512
tp138
a(Vtranscription factor binding
p139
I504
tp140
a(Vextracellular region
p141
I478
tp142
a(VATPase activity
p143
I458
tp144
a(Vsulfur compound metabolic process
p145
I436
tp146
a(Vprotein binding transcription factor activity
p147
I436
tp148
a(Vcell morphogenesis
p149
I429
tp150
a(Vstructural molecule activity
p151
I406
tp152
a(Vcofactor metabolic process
p153
I382
tp154
a(VmRNA processing
p155
I377
tp156
a(Vextracellular space
p157
I340
tp158
a(Vsymbiosis, encompassing mutualism through parasitism
p159
I337
tp160
a(Vvacuole
p161
I331
tp162
a(Vprotein targeting
p163
I328
tp164
a(Vtransferase activity, transferring acyl groups
p165
I324
tp166
a(Vphosphatase activity
p167
I319
tp168
a(Vgeneration of precursor metabolites and energy
p169
I311
tp170
a(Vextracellular matrix organization
p171
I306
tp172
a(Vcilium
p173
I301
tp174
a(Vcell cycle
p175
I295
tp176
a(Vtransferase activity, transferring glycosyl groups
p177
I288
tp178
a(Vnucleocytoplasmic transport
p179
I255
tp180
a(Vreproduction
p181
I252
tp182
a(Vnuclease activity
p183
I244
tp184
a(Vhelicase activity
p185
I241
tp186
a(Vmethyltransferase activity
p187
I238
tp188
a(Vcirculatory system process
p189
I208
tp190
a(Vlyase activity
p191
I207
tp192
a(Vcell junction organization
p193
I205
tp194
a(Vprotein folding
p195
I201
tp196
a(Vcell division
p197
I200
tp198
a(VGTPase activity
p199
I194
tp200
a(Vlysosome
p201
I189
tp202
a(Vaging
p203
I189
tp204
a(Vmitochondrion organization
p205
I184
tp206
a(Vdevelopmental maturation
p207
I170
tp208
a(Vplasma membrane organization
p209
I165
tp210
a(Vribonucleoprotein complex assembly
p211
I165
tp212
a(Vchromosome
p213
I165
tp214
a(Vplastid
p215
I152
tp216
a(Vhistone binding
p217
I152
tp218
a(Vcytoskeleton-dependent intracellular transport
p219
I148
tp220
a(Vhydrolase activity, acting on carbon-nitrogen (but not peptide) bonds
p221
I141
tp222
a(VmRNA binding
p223
I135
tp224
a(Vsecondary metabolic process
p225
I127
tp226
a(VtRNA metabolic process
p227
I123
tp228
a(Vproteinaceous extracellular matrix
p229
I121
tp230
a(Vnucleotidyltransferase activity
p231
I120
tp232
a(Visomerase activity
p233
I117
tp234
a(Vnuclear envelope
p235
I117
tp236
a(Vhydrolase activity, acting on glycosyl bonds
p237
I116
tp238
a(Vexternal encapsulating structure
p239
I108
tp240
a(Vmitosis
p241
I106
tp242
a(Vcell wall
p243
I106
tp244
a(Vintracellular
p245
I103
tp246
a(Vstructural constituent of ribosome
p247
I100
tp248
a(Vchromosome segregation
p249
I100
tp250
a(Vtranslation
p251
I94
tp252
a(Vperoxisome
p253
I93
tp254
a(Vvacuolar transport
p255
I92
tp256
a(Vsmall conjugating protein binding
p257
I88
tp258
a(Vcell wall organization or biogenesis
p259
I84
tp260
a(Vtranslation factor activity, nucleic acid binding
p261
I84
tp262
a(Vprotein binding, bridging
p263
I82
tp264
a(Vunfolded protein binding
p265
I81
tp266
a(Vprotein transporter activity
p267
I67
tp268
a(Vtransferase activity, transferring alkyl or aryl (other than methyl) groups
p269
I67
tp270
a(Vribosome
p271
I64
tp272
a(Vlipid particle
p273
I60
tp274
a(Vnuclear chromosome
p275
I54
tp276
a(Vribosome biogenesis
p277
I45
tp278
a(VrRNA binding
p279
I42
tp280
a(Vpigmentation
p281
I37
tp282
a(Vthylakoid
p283
I14
tp284
a(Vnitrogen cycle metabolic process
p285
I11
tp286
a(Vtransposition
p287
I11
tp288
a(Vcell
p289
I7
tp290
a(Vphotosynthesis
p291
I4
tp292
aa(lp293
(g3
L6372L
tp294
a(g5
L4365L
tp295
a(g7
L2787L
tp296
a(g9
L21685L
tp297
a(g11
L26888L
tp298
a(g13
L5491L
tp299
a(g15
L18268L
tp300
a(g17
L5801L
tp301
a(g19
L21693L
tp302
a(g21
L5613L
tp303
a(g23
L22689L
tp304
a(g25
L21630L
tp305
a(g27
L7192L
tp306
a(g29
L5168L
tp307
a(g31
L7190L
tp308
a(g33
L1781L
tp309
a(g35
L13924L
tp310
a(g37
L4599L
tp311
a(g39
L13633L
tp312
a(g41
L5326L
tp313
a(g43
L4422L
tp314
a(g45
L12968L
tp315
a(g47
L4507L
tp316
a(g49
L4644L
tp317
a(g51
L4514L
tp318
a(g53
L4995L
tp319
a(g55
L20507L
tp320
a(g57
L13690L
tp321
a(g59
L2790L
tp322
a(g61
L26682L
tp323
a(g63
L10381L
tp324
a(g65
L10598L
tp325
a(g67
L28228L
tp326
a(g69
L21086L
tp327
a(g71
L4725L
tp328
a(g73
L31581L
tp329
a(g75
L29927L
tp330
a(g77
L28535L
tp331
a(g79
L3827L
tp332
a(g81
L7881L
tp333
a(g83
L18282L
tp334
a(g85
L10466L
tp335
a(g87
L26901L
tp336
a(g89
L2830L
tp337
a(g91
L5218L
tp338
a(g93
L5165L
tp339
a(g95
L6320L
tp340
a(g97
L5663L
tp341
a(g99
L20503L
tp342
a(g101
L27837L
tp343
a(g103
L4515L
tp344
a(g105
L6448L
tp345
a(g107
L4567L
tp346
a(g109
L4621L
tp347
a(g111
L10229L
tp348
a(g113
L10950L
tp349
a(g115
L5896L
tp350
a(g117
L4556L
tp351
a(g119
L6436L
tp352
a(g121
L4439L
tp353
a(g123
L6500L
tp354
a(g125
L4542L
tp355
a(g127
L30984L
tp356
a(g129
L6494L
tp357
a(g131
L14001L
tp358
a(g133
L4586L
tp359
a(g135
L759L
tp360
a(g137
L5791L
tp361
a(g139
L6357L
tp362
a(g141
L4366L
tp363
a(g143
L10963L
tp364
a(g145
L5471L
tp365
a(g147
L677L
tp366
a(g149
L594L
tp367
a(g151
L4118L
tp368
a(g153
L28144L
tp369
a(g155
L5112L
tp370
a(g157
L4405L
tp371
a(g159
L22810L
tp372
a(g161
L4546L
tp373
a(g163
L5302L
tp374
a(g165
L10829L
tp375
a(g167
L10870L
tp376
a(g169
L4838L
tp377
a(g171
L13967L
tp378
a(g173
L4684L
tp379
a(g175
L5695L
tp380
a(g177
L10840L
tp381
a(g179
L5582L
tp382
a(g181
L3L
tp383
a(g183
L3518L
tp384
a(g185
L3404L
tp385
a(g187
L6389L
tp386
a(g189
L2364L
tp387
a(g191
L10905L
tp388
a(g193
L17965L
tp389
a(g195
L5161L
tp390
a(g197
L28251L
tp391
a(g199
L2991L
tp392
a(g201
L4538L
tp393
a(g203
L6169L
tp394
a(g205
L5658L
tp395
a(g207
L13274L
tp396
a(g209
L5662L
tp397
a(g211
L13644L
tp398
a(g213
L4475L
tp399
a(g215
L7644L
tp400
a(g217
L20900L
tp401
a(g219
L14427L
tp402
a(g221
L10886L
tp403
a(g223
L2835L
tp404
a(g225
L12827L
tp405
a(g227
L5114L
tp406
a(g229
L4368L
tp407
a(g231
L10860L
tp408
a(g233
L10929L
tp409
a(g235
L4423L
tp410
a(g237
L10876L
tp411
a(g239
L14078L
tp412
a(g241
L5712L
tp413
a(g243
L4408L
tp414
a(g245
L4411L
tp415
a(g247
L2841L
tp416
a(g249
L5705L
tp417
a(g251
L5126L
tp418
a(g253
L4550L
tp419
a(g255
L5682L
tp420
a(g257
L15840L
tp421
a(g259
L33137L
tp422
a(g261
L6358L
tp423
a(g263
L14396L
tp424
a(g265
L28040L
tp425
a(g267
L6747L
tp426
a(g269
L10848L
tp427
a(g271
L4609L
tp428
a(g273
L4583L
tp429
a(g275
L201L
tp430
a(g277
L20770L
tp431
a(g279
L12918L
tp432
a(g281
L21900L
tp433
a(g283
L7683L
tp434
a(g285
L33512L
tp435
a(g287
L15852L
tp436
a(g289
L4412L
tp437
a(g291
L10192L
tp438
aaI333719
a.