(lp1
(lp2
(Vbiological_process
p3
I189778
tp4
a(Vcellular_component
p5
I65085
tp6
a(Vmolecular_function
p7
I53218
tp8
a(Vorganelle
p9
I17687
tp10
a(Vanatomical structure development
p11
I13876
tp12
a(Vtransport
p13
I10358
tp14
a(Vcellular nitrogen compound metabolic process
p15
I8986
tp16
a(Vsignal transduction
p17
I8757
tp18
a(Vprotein complex
p19
I7635
tp20
a(Vresponse to stress
p21
I7237
tp22
a(Vion binding
p23
I6735
tp24
a(Vsmall molecule metabolic process
p25
I6490
tp26
a(Vbiosynthetic process
p27
I5843
tp28
a(Vcellular protein modification process
p29
I5058
tp30
a(Vcatabolic process
p31
I4633
tp32
a(Vimmune system process
p33
I3863
tp34
a(Vcellular component assembly
p35
I3327
tp36
a(Vcytosol
p37
I3321
tp38
a(Vcell differentiation
p39
I3266
tp40
a(Vlipid metabolic process
p41
I2931
tp42
a(Venzyme binding
p43
I2866
tp44
a(Vnucleolus
p45
I2497
tp46
a(Vlocomotion
p47
I2409
tp48
a(Vplasma membrane
p49
I2315
tp50
a(Vvesicle-mediated transport
p51
I2285
tp52
a(Vnucleus
p53
I2127
tp54
a(Vanatomical structure formation involved in morphogenesis
p55
I2123
tp56
a(VDNA metabolic process
p57
I2049
tp58
a(Vchromosome organization
p59
I2011
tp60
a(Vtransmembrane transporter activity
p61
I1913
tp62
a(Vhomeostatic process
p63
I1885
tp64
a(VDNA binding
p65
I1871
tp66
a(Vmacromolecular complex assembly
p67
I1808
tp68
a(Voxidoreductase activity
p69
I1788
tp70
a(Vcell motility
p71
I1717
tp72
a(Vcarbohydrate metabolic process
p73
I1709
tp74
a(Vcytoplasm
p75
I1694
tp76
a(Vneurological system process
p77
I1630
tp78
a(Vcytoskeletal protein binding
p79
I1622
tp80
a(Vembryo development
p81
I1607
tp82
a(Vnucleobase-containing compound catabolic process
p83
I1580
tp84
a(Vprotein maturation
p85
I1572
tp86
a(Vcytoskeleton organization
p87
I1553
tp88
a(Vgrowth
p89
I1496
tp90
a(Vtransmembrane transport
p91
I1464
tp92
a(Vkinase activity
p93
I1459
tp94
a(Vprotein complex assembly
p95
I1445
tp96
a(Vsignal transducer activity
p97
I1414
tp98
a(VRNA binding
p99
I1391
tp100
a(Vcellular amino acid metabolic process
p101
I1315
tp102
a(VGolgi apparatus
p103
I1254
tp104
a(Vlipid binding
p105
I1254
tp106
a(Vcytoplasmic membrane-bounded vesicle
p107
I1254
tp108
a(Vmitochondrion
p109
I1210
tp110
a(Vcytoskeleton
p111
I1128
tp112
a(Vpeptidase activity
p113
I1057
tp114
a(Vendoplasmic reticulum
p115
I1006
tp116
a(Vcell death
p117
I1003
tp118
a(Vcell adhesion
p119
I995
tp120
a(Vendosome
p121
I971
tp122
a(Vmembrane organization
p123
I970
tp124
a(Venzyme regulator activity
p125
I967
tp126
a(Vcell-cell signaling
p127
I933
tp128
a(Vmicrotubule organizing center
p129
I907
tp130
a(Vnucleoplasm
p131
I905
tp132
a(Vligase activity
p133
I902
tp134
a(Vcell proliferation
p135
I866
tp136
a(VATPase activity
p137
I866
tp138
a(Vtranscription factor binding
p139
I813
tp140
a(Vstructural molecule activity
p141
I783
tp142
a(Vprotein binding transcription factor activity
p143
I774
tp144
a(Vcell morphogenesis
p145
I749
tp146
a(Vnucleic acid binding transcription factor activity
p147
I725
tp148
a(Vsulfur compound metabolic process
p149
I715
tp150
a(Vprotein targeting
p151
I687
tp152
a(Vextracellular region
p153
I638
tp154
a(VmRNA processing
p155
I600
tp156
a(Vcofactor metabolic process
p157
I587
tp158
a(Vvacuole
p159
I574
tp160
a(Vextracellular space
p161
I547
tp162
a(Vtransferase activity, transferring acyl groups
p163
I545
tp164
a(Vgeneration of precursor metabolites and energy
p165
I538
tp166
a(Vextracellular matrix organization
p167
I534
tp168
a(Vsymbiosis, encompassing mutualism through parasitism
p169
I530
tp170
a(Vcilium
p171
I507
tp172
a(Vphosphatase activity
p173
I445
tp174
a(Vcell cycle
p175
I439
tp176
a(Vreproduction
p177
I421
tp178
a(Vnucleocytoplasmic transport
p179
I415
tp180
a(Vaging
p181
I398
tp182
a(Vcell junction organization
p183
I388
tp184
a(Vcell division
p185
I377
tp186
a(Vtransferase activity, transferring glycosyl groups
p187
I364
tp188
a(Vplastid
p189
I359
tp190
a(Vcirculatory system process
p191
I358
tp192
a(Vhelicase activity
p193
I336
tp194
a(Vmethyltransferase activity
p195
I326
tp196
a(Vlysosome
p197
I318
tp198
a(Vlyase activity
p199
I318
tp200
a(Vnuclease activity
p201
I315
tp202
a(Vdevelopmental maturation
p203
I313
tp204
a(Vcytoskeleton-dependent intracellular transport
p205
I294
tp206
a(Vprotein folding
p207
I290
tp208
a(Vmitochondrion organization
p209
I290
tp210
a(Vchromosome
p211
I284
tp212
a(Vribonucleoprotein complex assembly
p213
I283
tp214
a(Vexternal encapsulating structure
p215
I266
tp216
a(Vhistone binding
p217
I263
tp218
a(Vcell wall
p219
I262
tp220
a(Vnuclear envelope
p221
I254
tp222
a(VGTPase activity
p223
I247
tp224
a(Vsecondary metabolic process
p225
I246
tp226
a(VmRNA binding
p227
I232
tp228
a(Visomerase activity
p229
I213
tp230
a(Vstructural constituent of ribosome
p231
I210
tp232
a(Vproteinaceous extracellular matrix
p233
I206
tp234
a(VtRNA metabolic process
p235
I203
tp236
a(Vmitosis
p237
I197
tp238
a(Vcell wall organization or biogenesis
p239
I195
tp240
a(Vvacuolar transport
p241
I194
tp242
a(Vhydrolase activity, acting on carbon-nitrogen (but not peptide) bonds
p243
I191
tp244
a(Vplasma membrane organization
p245
I185
tp246
a(Vnucleotidyltransferase activity
p247
I172
tp248
a(Vchromosome segregation
p249
I169
tp250
a(Vhydrolase activity, acting on glycosyl bonds
p251
I168
tp252
a(Vperoxisome
p253
I163
tp254
a(Vsmall conjugating protein binding
p255
I160
tp256
a(Vtranslation factor activity, nucleic acid binding
p257
I156
tp258
a(Vprotein binding, bridging
p259
I156
tp260
a(Vunfolded protein binding
p261
I128
tp262
a(Vprotein transporter activity
p263
I123
tp264
a(Vtranslation
p265
I119
tp266
a(Vlipid particle
p267
I119
tp268
a(Vribosome
p269
I109
tp270
a(Vnuclear chromosome
p271
I91
tp272
a(Vtransferase activity, transferring alkyl or aryl (other than methyl) groups
p273
I89
tp274
a(Vribosome biogenesis
p275
I85
tp276
a(Vintracellular
p277
I69
tp278
a(Vpigmentation
p279
I64
tp280
a(VrRNA binding
p281
I60
tp282
a(Vthylakoid
p283
I28
tp284
a(Vnitrogen cycle metabolic process
p285
I20
tp286
a(Vtransposition
p287
I8
tp288
a(Vcell
p289
I6
tp290
a(Vphotosynthesis
p291
I5
tp292
aa(lp293
(g3
L6372L
tp294
a(g5
L4365L
tp295
a(g7
L2787L
tp296
a(g9
L21685L
tp297
a(g11
L26888L
tp298
a(g13
L5491L
tp299
a(g15
L18268L
tp300
a(g17
L5801L
tp301
a(g19
L21693L
tp302
a(g21
L5613L
tp303
a(g23
L21630L
tp304
a(g25
L22689L
tp305
a(g27
L7192L
tp306
a(g29
L5168L
tp307
a(g31
L7190L
tp308
a(g33
L1781L
tp309
a(g35
L13633L
tp310
a(g37
L4599L
tp311
a(g39
L13924L
tp312
a(g41
L5326L
tp313
a(g43
L12968L
tp314
a(g45
L4507L
tp315
a(g47
L20507L
tp316
a(g49
L4644L
tp317
a(g51
L10381L
tp318
a(g53
L4422L
tp319
a(g55
L26682L
tp320
a(g57
L4995L
tp321
a(g59
L28228L
tp322
a(g61
L13690L
tp323
a(g63
L21086L
tp324
a(g65
L2790L
tp325
a(g67
L31581L
tp326
a(g69
L10598L
tp327
a(g71
L26901L
tp328
a(g73
L4725L
tp329
a(g75
L4514L
tp330
a(g77
L27837L
tp331
a(g79
L6320L
tp332
a(g81
L7881L
tp333
a(g83
L18282L
tp334
a(g85
L28535L
tp335
a(g87
L5663L
tp336
a(g89
L20503L
tp337
a(g91
L29927L
tp338
a(g93
L10466L
tp339
a(g95
L5165L
tp340
a(g97
L3827L
tp341
a(g99
L2830L
tp342
a(g101
L5218L
tp343
a(g103
L4567L
tp344
a(g105
L6500L
tp345
a(g107
L10229L
tp346
a(g109
L4515L
tp347
a(g111
L4621L
tp348
a(g113
L6448L
tp349
a(g115
L4556L
tp350
a(g117
L6436L
tp351
a(g119
L5791L
tp352
a(g121
L4542L
tp353
a(g123
L30984L
tp354
a(g125
L14001L
tp355
a(g127
L5896L
tp356
a(g129
L4586L
tp357
a(g131
L4439L
tp358
a(g133
L10950L
tp359
a(g135
L6494L
tp360
a(g137
L10963L
tp361
a(g139
L6357L
tp362
a(g141
L4118L
tp363
a(g143
L677L
tp364
a(g145
L594L
tp365
a(g147
L759L
tp366
a(g149
L5471L
tp367
a(g151
L5302L
tp368
a(g153
L4366L
tp369
a(g155
L5112L
tp370
a(g157
L28144L
tp371
a(g159
L4546L
tp372
a(g161
L4405L
tp373
a(g163
L10829L
tp374
a(g165
L4838L
tp375
a(g167
L13967L
tp376
a(g169
L22810L
tp377
a(g171
L4684L
tp378
a(g173
L10870L
tp379
a(g175
L5695L
tp380
a(g177
L3L
tp381
a(g179
L5582L
tp382
a(g181
L6169L
tp383
a(g183
L17965L
tp384
a(g185
L28251L
tp385
a(g187
L10840L
tp386
a(g189
L7644L
tp387
a(g191
L2364L
tp388
a(g193
L3404L
tp389
a(g195
L6389L
tp390
a(g197
L4538L
tp391
a(g199
L10905L
tp392
a(g201
L3518L
tp393
a(g203
L13274L
tp394
a(g205
L14427L
tp395
a(g207
L5161L
tp396
a(g209
L5658L
tp397
a(g211
L4475L
tp398
a(g213
L13644L
tp399
a(g215
L14078L
tp400
a(g217
L20900L
tp401
a(g219
L4408L
tp402
a(g221
L4423L
tp403
a(g223
L2991L
tp404
a(g225
L12827L
tp405
a(g227
L2835L
tp406
a(g229
L10929L
tp407
a(g231
L2841L
tp408
a(g233
L4368L
tp409
a(g235
L5114L
tp410
a(g237
L5712L
tp411
a(g239
L33137L
tp412
a(g241
L5682L
tp413
a(g243
L10886L
tp414
a(g245
L5662L
tp415
a(g247
L10860L
tp416
a(g249
L5705L
tp417
a(g251
L10876L
tp418
a(g253
L4550L
tp419
a(g255
L15840L
tp420
a(g257
L6358L
tp421
a(g259
L14396L
tp422
a(g261
L28040L
tp423
a(g263
L6747L
tp424
a(g265
L5126L
tp425
a(g267
L4583L
tp426
a(g269
L4609L
tp427
a(g271
L201L
tp428
a(g273
L10848L
tp429
a(g275
L20770L
tp430
a(g277
L4411L
tp431
a(g279
L21900L
tp432
a(g281
L12918L
tp433
a(g283
L7683L
tp434
a(g285
L33512L
tp435
a(g287
L15852L
tp436
a(g289
L4412L
tp437
a(g291
L10192L
tp438
aaI525155
a.