(lp1
(lp2
(Vbiological_process
p3
I207617
tp4
a(Vcellular_component
p5
I68964
tp6
a(Vmolecular_function
p7
I56825
tp8
a(Vorganelle
p9
I18567
tp10
a(Vanatomical structure development
p11
I15707
tp12
a(Vtransport
p13
I11245
tp14
a(Vsignal transduction
p15
I9612
tp16
a(Vcellular nitrogen compound metabolic process
p17
I9084
tp18
a(Vprotein complex
p19
I7944
tp20
a(Vresponse to stress
p21
I7678
tp22
a(Vion binding
p23
I6953
tp24
a(Vsmall molecule metabolic process
p25
I6419
tp26
a(Vbiosynthetic process
p27
I5567
tp28
a(Vcellular protein modification process
p29
I5510
tp30
a(Vcatabolic process
p31
I4634
tp32
a(Vimmune system process
p33
I4368
tp34
a(Vcell differentiation
p35
I3767
tp36
a(Vcellular component assembly
p37
I3461
tp38
a(Vcytosol
p39
I3291
tp40
a(Venzyme binding
p41
I3175
tp42
a(Vlipid metabolic process
p43
I3016
tp44
a(Vlocomotion
p45
I2768
tp46
a(Vnucleolus
p47
I2487
tp48
a(Vanatomical structure formation involved in morphogenesis
p49
I2433
tp50
a(Vvesicle-mediated transport
p51
I2393
tp52
a(Vplasma membrane
p53
I2354
tp54
a(Vnucleus
p55
I2328
tp56
a(Vtransmembrane transporter activity
p57
I2271
tp58
a(VDNA metabolic process
p59
I2220
tp60
a(Vchromosome organization
p61
I2092
tp62
a(Vhomeostatic process
p63
I2027
tp64
a(VDNA binding
p65
I1996
tp66
a(Vcell motility
p67
I1973
tp68
a(Vcytoplasm
p69
I1952
tp70
a(Vmacromolecular complex assembly
p71
I1866
tp72
a(Vneurological system process
p73
I1736
tp74
a(Voxidoreductase activity
p75
I1731
tp76
a(Vtransmembrane transport
p77
I1698
tp78
a(Vcarbohydrate metabolic process
p79
I1691
tp80
a(Vkinase activity
p81
I1663
tp82
a(Vcytoskeletal protein binding
p83
I1656
tp84
a(Vprotein maturation
p85
I1652
tp86
a(Vembryo development
p87
I1613
tp88
a(Vgrowth
p89
I1603
tp90
a(Vnucleobase-containing compound catabolic process
p91
I1600
tp92
a(Vcytoskeleton organization
p93
I1545
tp94
a(Vprotein complex assembly
p95
I1534
tp96
a(Vsignal transducer activity
p97
I1534
tp98
a(VGolgi apparatus
p99
I1321
tp100
a(Vcytoplasmic membrane-bounded vesicle
p101
I1292
tp102
a(Vcell adhesion
p103
I1284
tp104
a(Vlipid binding
p105
I1279
tp106
a(VRNA binding
p107
I1272
tp108
a(Vcellular amino acid metabolic process
p109
I1221
tp110
a(Vmitochondrion
p111
I1221
tp112
a(Vcytoskeleton
p113
I1183
tp114
a(Vpeptidase activity
p115
I1099
tp116
a(Vligase activity
p117
I1072
tp118
a(Vendosome
p119
I1065
tp120
a(Vcell-cell signaling
p121
I1042
tp122
a(Vmembrane organization
p123
I1038
tp124
a(Vcell death
p125
I1022
tp126
a(Vendoplasmic reticulum
p127
I1020
tp128
a(Vcell proliferation
p129
I986
tp130
a(Venzyme regulator activity
p131
I981
tp132
a(VATPase activity
p133
I977
tp134
a(Vcell morphogenesis
p135
I925
tp136
a(Vnucleoplasm
p137
I915
tp138
a(Vmicrotubule organizing center
p139
I914
tp140
a(Vtranscription factor binding
p141
I868
tp142
a(Vprotein binding transcription factor activity
p143
I821
tp144
a(Vnucleic acid binding transcription factor activity
p145
I763
tp146
a(Vstructural molecule activity
p147
I696
tp148
a(Vextracellular region
p149
I684
tp150
a(Vsulfur compound metabolic process
p151
I608
tp152
a(Vprotein targeting
p153
I606
tp154
a(Vcofactor metabolic process
p155
I582
tp156
a(Vvacuole
p157
I573
tp158
a(Vcilium
p159
I573
tp160
a(VmRNA processing
p161
I565
tp162
a(Vextracellular space
p163
I564
tp164
a(Vsymbiosis, encompassing mutualism through parasitism
p165
I560
tp166
a(Vextracellular matrix organization
p167
I534
tp168
a(Vtransferase activity, transferring acyl groups
p169
I505
tp170
a(Vphosphatase activity
p171
I500
tp172
a(Vgeneration of precursor metabolites and energy
p173
I486
tp174
a(Vcell cycle
p175
I482
tp176
a(Vreproduction
p177
I445
tp178
a(Vcell junction organization
p179
I438
tp180
a(Vnucleocytoplasmic transport
p181
I434
tp182
a(Vaging
p183
I411
tp184
a(Vcell division
p185
I400
tp186
a(Vhelicase activity
p187
I399
tp188
a(Vtransferase activity, transferring glycosyl groups
p189
I397
tp190
a(Vnuclease activity
p191
I356
tp192
a(Vdevelopmental maturation
p193
I349
tp194
a(Vcirculatory system process
p195
I348
tp196
a(Vmethyltransferase activity
p197
I325
tp198
a(Vlysosome
p199
I323
tp200
a(Vcytoskeleton-dependent intracellular transport
p201
I317
tp202
a(Vmitochondrion organization
p203
I308
tp204
a(Vlyase activity
p205
I304
tp206
a(Vplastid
p207
I286
tp208
a(Vprotein folding
p209
I284
tp210
a(Vchromosome
p211
I282
tp212
a(Vhistone binding
p213
I279
tp214
a(Vribonucleoprotein complex assembly
p215
I254
tp216
a(Vnuclear envelope
p217
I253
tp218
a(Vsecondary metabolic process
p219
I240
tp220
a(Vproteinaceous extracellular matrix
p221
I238
tp222
a(VGTPase activity
p223
I229
tp224
a(Vplasma membrane organization
p225
I227
tp226
a(Vexternal encapsulating structure
p227
I205
tp228
a(Vcell wall
p229
I200
tp230
a(Vmitosis
p231
I199
tp232
a(VmRNA binding
p233
I198
tp234
a(Vvacuolar transport
p235
I193
tp236
a(Vhydrolase activity, acting on carbon-nitrogen (but not peptide) bonds
p237
I192
tp238
a(Visomerase activity
p239
I189
tp240
a(Vnucleotidyltransferase activity
p241
I185
tp242
a(Vsmall conjugating protein binding
p243
I177
tp244
a(Vcell wall organization or biogenesis
p245
I174
tp246
a(VtRNA metabolic process
p247
I172
tp248
a(Vprotein binding, bridging
p249
I169
tp250
a(Vhydrolase activity, acting on glycosyl bonds
p251
I163
tp252
a(Vchromosome segregation
p253
I163
tp254
a(Vprotein transporter activity
p255
I151
tp256
a(Vperoxisome
p257
I143
tp258
a(Vstructural constituent of ribosome
p259
I117
tp260
a(Vunfolded protein binding
p261
I116
tp262
a(Vtranslation factor activity, nucleic acid binding
p263
I115
tp264
a(Vlipid particle
p265
I114
tp266
a(Vtranslation
p267
I104
tp268
a(Vribosome
p269
I90
tp270
a(Vtransferase activity, transferring alkyl or aryl (other than methyl) groups
p271
I87
tp272
a(Vnuclear chromosome
p273
I78
tp274
a(Vpigmentation
p275
I76
tp276
a(Vintracellular
p277
I76
tp278
a(Vribosome biogenesis
p279
I72
tp280
a(VrRNA binding
p281
I40
tp282
a(Vthylakoid
p283
I24
tp284
a(Vnitrogen cycle metabolic process
p285
I23
tp286
a(Vcell
p287
I13
tp288
a(Vphotosynthesis
p289
I5
tp290
a(Vtransposition
p291
I4
tp292
aa(lp293
(g3
L6372L
tp294
a(g5
L4365L
tp295
a(g7
L2787L
tp296
a(g9
L21685L
tp297
a(g11
L26888L
tp298
a(g13
L5491L
tp299
a(g15
L5801L
tp300
a(g17
L18268L
tp301
a(g19
L21693L
tp302
a(g21
L5613L
tp303
a(g23
L21630L
tp304
a(g25
L22689L
tp305
a(g27
L7192L
tp306
a(g29
L5168L
tp307
a(g31
L7190L
tp308
a(g33
L1781L
tp309
a(g35
L13924L
tp310
a(g37
L13633L
tp311
a(g39
L4599L
tp312
a(g41
L12968L
tp313
a(g43
L5326L
tp314
a(g45
L20507L
tp315
a(g47
L4507L
tp316
a(g49
L26682L
tp317
a(g51
L10381L
tp318
a(g53
L4644L
tp319
a(g55
L4422L
tp320
a(g57
L13690L
tp321
a(g59
L4995L
tp322
a(g61
L28228L
tp323
a(g63
L21086L
tp324
a(g65
L2790L
tp325
a(g67
L26901L
tp326
a(g69
L4514L
tp327
a(g71
L31581L
tp328
a(g73
L27837L
tp329
a(g75
L10598L
tp330
a(g77
L29927L
tp331
a(g79
L4725L
tp332
a(g81
L10466L
tp333
a(g83
L6320L
tp334
a(g85
L28535L
tp335
a(g87
L7881L
tp336
a(g89
L20503L
tp337
a(g91
L18282L
tp338
a(g93
L5663L
tp339
a(g95
L5165L
tp340
a(g97
L3827L
tp341
a(g99
L4567L
tp342
a(g101
L10229L
tp343
a(g103
L5791L
tp344
a(g105
L6500L
tp345
a(g107
L2830L
tp346
a(g109
L5218L
tp347
a(g111
L4515L
tp348
a(g113
L4621L
tp349
a(g115
L6448L
tp350
a(g117
L10950L
tp351
a(g119
L4542L
tp352
a(g121
L5896L
tp353
a(g123
L30984L
tp354
a(g125
L6436L
tp355
a(g127
L4556L
tp356
a(g129
L6494L
tp357
a(g131
L14001L
tp358
a(g133
L10963L
tp359
a(g135
L594L
tp360
a(g137
L4439L
tp361
a(g139
L4586L
tp362
a(g141
L6357L
tp363
a(g143
L677L
tp364
a(g145
L759L
tp365
a(g147
L4118L
tp366
a(g149
L4366L
tp367
a(g151
L5471L
tp368
a(g153
L5302L
tp369
a(g155
L28144L
tp370
a(g157
L4546L
tp371
a(g159
L4684L
tp372
a(g161
L5112L
tp373
a(g163
L4405L
tp374
a(g165
L22810L
tp375
a(g167
L13967L
tp376
a(g169
L10829L
tp377
a(g171
L10870L
tp378
a(g173
L4838L
tp379
a(g175
L5695L
tp380
a(g177
L3L
tp381
a(g179
L17965L
tp382
a(g181
L5582L
tp383
a(g183
L6169L
tp384
a(g185
L28251L
tp385
a(g187
L3404L
tp386
a(g189
L10840L
tp387
a(g191
L3518L
tp388
a(g193
L13274L
tp389
a(g195
L2364L
tp390
a(g197
L6389L
tp391
a(g199
L4538L
tp392
a(g201
L14427L
tp393
a(g203
L5658L
tp394
a(g205
L10905L
tp395
a(g207
L7644L
tp396
a(g209
L5161L
tp397
a(g211
L4475L
tp398
a(g213
L20900L
tp399
a(g215
L13644L
tp400
a(g217
L4423L
tp401
a(g219
L12827L
tp402
a(g221
L4368L
tp403
a(g223
L2991L
tp404
a(g225
L5662L
tp405
a(g227
L14078L
tp406
a(g229
L4408L
tp407
a(g231
L5712L
tp408
a(g233
L2835L
tp409
a(g235
L5682L
tp410
a(g237
L10886L
tp411
a(g239
L10929L
tp412
a(g241
L10860L
tp413
a(g243
L15840L
tp414
a(g245
L33137L
tp415
a(g247
L5114L
tp416
a(g249
L14396L
tp417
a(g251
L10876L
tp418
a(g253
L5705L
tp419
a(g255
L6747L
tp420
a(g257
L4550L
tp421
a(g259
L2841L
tp422
a(g261
L28040L
tp423
a(g263
L6358L
tp424
a(g265
L4583L
tp425
a(g267
L5126L
tp426
a(g269
L4609L
tp427
a(g271
L10848L
tp428
a(g273
L201L
tp429
a(g275
L21900L
tp430
a(g277
L4411L
tp431
a(g279
L20770L
tp432
a(g281
L12918L
tp433
a(g283
L7683L
tp434
a(g285
L33512L
tp435
a(g287
L4412L
tp436
a(g289
L10192L
tp437
a(g291
L15852L
tp438
aaI562072
a.