(lp1
(lp2
(Vbiological_process
p3
I176007
tp4
a(Vcellular_component
p5
I58210
tp6
a(Vmolecular_function
p7
I47000
tp8
a(Vorganelle
p9
I15736
tp10
a(Vanatomical structure development
p11
I13267
tp12
a(Vtransport
p13
I9557
tp14
a(Vsignal transduction
p15
I8279
tp16
a(Vcellular nitrogen compound metabolic process
p17
I7553
tp18
a(Vprotein complex
p19
I6584
tp20
a(Vresponse to stress
p21
I6481
tp22
a(Vion binding
p23
I5614
tp24
a(Vsmall molecule metabolic process
p25
I5466
tp26
a(Vbiosynthetic process
p27
I4936
tp28
a(Vcellular protein modification process
p29
I4650
tp30
a(Vimmune system process
p31
I3887
tp32
a(Vcatabolic process
p33
I3886
tp34
a(Vcell differentiation
p35
I3150
tp36
a(Vcellular component assembly
p37
I2782
tp38
a(Vcytosol
p39
I2683
tp40
a(Venzyme binding
p41
I2615
tp42
a(Vlipid metabolic process
p43
I2601
tp44
a(Vlocomotion
p45
I2215
tp46
a(Vplasma membrane
p47
I2056
tp48
a(Vnucleolus
p49
I2053
tp50
a(Vnucleus
p51
I1984
tp52
a(Vvesicle-mediated transport
p53
I1973
tp54
a(Vtransmembrane transporter activity
p55
I1925
tp56
a(Vanatomical structure formation involved in morphogenesis
p57
I1898
tp58
a(Vhomeostatic process
p59
I1708
tp60
a(VDNA metabolic process
p61
I1691
tp62
a(Vchromosome organization
p63
I1651
tp64
a(VDNA binding
p65
I1622
tp66
a(Vcytoplasm
p67
I1598
tp68
a(Vcell motility
p69
I1538
tp70
a(Vmacromolecular complex assembly
p71
I1520
tp72
a(Voxidoreductase activity
p73
I1510
tp74
a(Vprotein maturation
p75
I1502
tp76
a(Vtransmembrane transport
p77
I1484
tp78
a(Vcarbohydrate metabolic process
p79
I1479
tp80
a(Vneurological system process
p81
I1468
tp82
a(Vcytoskeletal protein binding
p83
I1374
tp84
a(Vembryo development
p85
I1357
tp86
a(Vgrowth
p87
I1341
tp88
a(Vkinase activity
p89
I1325
tp90
a(Vnucleobase-containing compound catabolic process
p91
I1287
tp92
a(Vsignal transducer activity
p93
I1249
tp94
a(Vprotein complex assembly
p95
I1248
tp96
a(Vcytoskeleton organization
p97
I1215
tp98
a(VRNA binding
p99
I1120
tp100
a(Vcytoplasmic membrane-bounded vesicle
p101
I1072
tp102
a(VGolgi apparatus
p103
I1057
tp104
a(Vcellular amino acid metabolic process
p105
I1042
tp106
a(Vmitochondrion
p107
I1042
tp108
a(Vlipid binding
p109
I1040
tp110
a(Vcytoskeleton
p111
I995
tp112
a(Vcell adhesion
p113
I939
tp114
a(Vpeptidase activity
p115
I922
tp116
a(Vcell death
p117
I894
tp118
a(Vligase activity
p119
I891
tp120
a(Vendosome
p121
I880
tp122
a(Vcell-cell signaling
p123
I878
tp124
a(Vendoplasmic reticulum
p125
I878
tp126
a(Venzyme regulator activity
p127
I867
tp128
a(Vcell proliferation
p129
I848
tp130
a(Vmembrane organization
p131
I840
tp132
a(VATPase activity
p133
I743
tp134
a(Vmicrotubule organizing center
p135
I742
tp136
a(Vnucleoplasm
p137
I736
tp138
a(Vtranscription factor binding
p139
I730
tp140
a(Vcell morphogenesis
p141
I715
tp142
a(Vprotein binding transcription factor activity
p143
I690
tp144
a(Vnucleic acid binding transcription factor activity
p145
I615
tp146
a(Vextracellular region
p147
I579
tp148
a(Vsulfur compound metabolic process
p149
I538
tp150
a(Vvacuole
p151
I533
tp152
a(Vstructural molecule activity
p153
I530
tp154
a(Vprotein targeting
p155
I524
tp156
a(Vsymbiosis, encompassing mutualism through parasitism
p157
I487
tp158
a(Vextracellular space
p159
I483
tp160
a(VmRNA processing
p161
I482
tp162
a(Vcofactor metabolic process
p163
I471
tp164
a(Vcilium
p165
I455
tp166
a(Vphosphatase activity
p167
I446
tp168
a(Vtransferase activity, transferring acyl groups
p169
I438
tp170
a(Vgeneration of precursor metabolites and energy
p171
I434
tp172
a(Vextracellular matrix organization
p173
I430
tp174
a(Vcell cycle
p175
I412
tp176
a(Vnucleocytoplasmic transport
p177
I361
tp178
a(Vreproduction
p179
I355
tp180
a(Vtransferase activity, transferring glycosyl groups
p181
I346
tp182
a(Vcell junction organization
p183
I331
tp184
a(Vcell division
p185
I318
tp186
a(Vhelicase activity
p187
I315
tp188
a(Vdevelopmental maturation
p189
I314
tp190
a(Vlysosome
p191
I302
tp192
a(Vaging
p193
I301
tp194
a(Vcirculatory system process
p195
I297
tp196
a(Vmethyltransferase activity
p197
I284
tp198
a(Vnuclease activity
p199
I273
tp200
a(Vplastid
p201
I272
tp202
a(Vmitochondrion organization
p203
I272
tp204
a(Vlyase activity
p205
I253
tp206
a(Vcytoskeleton-dependent intracellular transport
p207
I250
tp208
a(Vprotein folding
p209
I243
tp210
a(Vchromosome
p211
I233
tp212
a(Vhistone binding
p213
I220
tp214
a(Vribonucleoprotein complex assembly
p215
I213
tp216
a(VGTPase activity
p217
I213
tp218
a(Vnuclear envelope
p219
I206
tp220
a(Vsecondary metabolic process
p221
I199
tp222
a(Vproteinaceous extracellular matrix
p223
I186
tp224
a(Vplasma membrane organization
p225
I185
tp226
a(Vhydrolase activity, acting on glycosyl bonds
p227
I179
tp228
a(Vexternal encapsulating structure
p229
I179
tp230
a(VmRNA binding
p231
I178
tp232
a(Vcell wall
p233
I175
tp234
a(Vhydrolase activity, acting on carbon-nitrogen (but not peptide) bonds
p235
I165
tp236
a(Vvacuolar transport
p237
I165
tp238
a(Vmitosis
p239
I161
tp240
a(Vcell wall organization or biogenesis
p241
I152
tp242
a(Visomerase activity
p243
I151
tp244
a(VtRNA metabolic process
p245
I143
tp246
a(Vsmall conjugating protein binding
p247
I137
tp248
a(Vperoxisome
p249
I137
tp250
a(Vchromosome segregation
p251
I136
tp252
a(Vprotein binding, bridging
p253
I136
tp254
a(Vnucleotidyltransferase activity
p255
I129
tp256
a(Vtranslation factor activity, nucleic acid binding
p257
I102
tp258
a(Vunfolded protein binding
p259
I99
tp260
a(Vstructural constituent of ribosome
p261
I99
tp262
a(Vtranslation
p263
I97
tp264
a(Vprotein transporter activity
p265
I94
tp266
a(Vlipid particle
p267
I91
tp268
a(Vribosome
p269
I91
tp270
a(Vintracellular
p271
I86
tp272
a(Vtransferase activity, transferring alkyl or aryl (other than methyl) groups
p273
I73
tp274
a(Vnuclear chromosome
p275
I69
tp276
a(Vpigmentation
p277
I63
tp278
a(Vribosome biogenesis
p279
I55
tp280
a(VrRNA binding
p281
I38
tp282
a(Vthylakoid
p283
I24
tp284
a(Vnitrogen cycle metabolic process
p285
I20
tp286
a(Vphotosynthesis
p287
I9
tp288
a(Vcell
p289
I5
tp290
a(Vtransposition
p291
I5
tp292
aa(lp293
(g3
L6372L
tp294
a(g5
L4365L
tp295
a(g7
L2787L
tp296
a(g9
L21685L
tp297
a(g11
L26888L
tp298
a(g13
L5491L
tp299
a(g15
L5801L
tp300
a(g17
L18268L
tp301
a(g19
L21693L
tp302
a(g21
L5613L
tp303
a(g23
L21630L
tp304
a(g25
L22689L
tp305
a(g27
L7192L
tp306
a(g29
L5168L
tp307
a(g31
L1781L
tp308
a(g33
L7190L
tp309
a(g35
L13924L
tp310
a(g37
L13633L
tp311
a(g39
L4599L
tp312
a(g41
L12968L
tp313
a(g43
L5326L
tp314
a(g45
L20507L
tp315
a(g47
L4644L
tp316
a(g49
L4507L
tp317
a(g51
L4422L
tp318
a(g53
L10381L
tp319
a(g55
L13690L
tp320
a(g57
L26682L
tp321
a(g59
L21086L
tp322
a(g61
L4995L
tp323
a(g63
L28228L
tp324
a(g65
L2790L
tp325
a(g67
L4514L
tp326
a(g69
L26901L
tp327
a(g71
L31581L
tp328
a(g73
L10598L
tp329
a(g75
L28535L
tp330
a(g77
L29927L
tp331
a(g79
L4725L
tp332
a(g81
L27837L
tp333
a(g83
L6320L
tp334
a(g85
L7881L
tp335
a(g87
L20503L
tp336
a(g89
L10466L
tp337
a(g91
L18282L
tp338
a(g93
L3827L
tp339
a(g95
L5165L
tp340
a(g97
L5663L
tp341
a(g99
L2830L
tp342
a(g101
L10229L
tp343
a(g103
L4567L
tp344
a(g105
L5218L
tp345
a(g107
L4515L
tp346
a(g109
L6500L
tp347
a(g111
L4621L
tp348
a(g113
L5791L
tp349
a(g115
L6448L
tp350
a(g117
L6436L
tp351
a(g119
L10950L
tp352
a(g121
L4542L
tp353
a(g123
L5896L
tp354
a(g125
L4556L
tp355
a(g127
L14001L
tp356
a(g129
L6494L
tp357
a(g131
L30984L
tp358
a(g133
L10963L
tp359
a(g135
L4586L
tp360
a(g137
L4439L
tp361
a(g139
L6357L
tp362
a(g141
L594L
tp363
a(g143
L677L
tp364
a(g145
L759L
tp365
a(g147
L4366L
tp366
a(g149
L5471L
tp367
a(g151
L4546L
tp368
a(g153
L4118L
tp369
a(g155
L5302L
tp370
a(g157
L22810L
tp371
a(g159
L4405L
tp372
a(g161
L5112L
tp373
a(g163
L28144L
tp374
a(g165
L4684L
tp375
a(g167
L10870L
tp376
a(g169
L10829L
tp377
a(g171
L4838L
tp378
a(g173
L13967L
tp379
a(g175
L5695L
tp380
a(g177
L5582L
tp381
a(g179
L3L
tp382
a(g181
L10840L
tp383
a(g183
L17965L
tp384
a(g185
L28251L
tp385
a(g187
L3404L
tp386
a(g189
L13274L
tp387
a(g191
L4538L
tp388
a(g193
L6169L
tp389
a(g195
L2364L
tp390
a(g197
L6389L
tp391
a(g199
L3518L
tp392
a(g201
L7644L
tp393
a(g203
L5658L
tp394
a(g205
L10905L
tp395
a(g207
L14427L
tp396
a(g209
L5161L
tp397
a(g211
L4475L
tp398
a(g213
L20900L
tp399
a(g215
L13644L
tp400
a(g217
L2991L
tp401
a(g219
L4423L
tp402
a(g221
L12827L
tp403
a(g223
L4368L
tp404
a(g225
L5662L
tp405
a(g227
L10876L
tp406
a(g229
L14078L
tp407
a(g231
L2835L
tp408
a(g233
L4408L
tp409
a(g235
L10886L
tp410
a(g237
L5682L
tp411
a(g239
L5712L
tp412
a(g241
L33137L
tp413
a(g243
L10929L
tp414
a(g245
L5114L
tp415
a(g247
L15840L
tp416
a(g249
L4550L
tp417
a(g251
L5705L
tp418
a(g253
L14396L
tp419
a(g255
L10860L
tp420
a(g257
L6358L
tp421
a(g259
L28040L
tp422
a(g261
L2841L
tp423
a(g263
L5126L
tp424
a(g265
L6747L
tp425
a(g267
L4583L
tp426
a(g269
L4609L
tp427
a(g271
L4411L
tp428
a(g273
L10848L
tp429
a(g275
L201L
tp430
a(g277
L21900L
tp431
a(g279
L20770L
tp432
a(g281
L12918L
tp433
a(g283
L7683L
tp434
a(g285
L33512L
tp435
a(g287
L10192L
tp436
a(g289
L4412L
tp437
a(g291
L15852L
tp438
aaI472818
a.