(lp1
(lp2
(Vbiological_process
p3
I139231
tp4
a(Vcellular_component
p5
I47414
tp6
a(Vmolecular_function
p7
I39064
tp8
a(Vorganelle
p9
I12601
tp10
a(Vanatomical structure development
p11
I10177
tp12
a(Vtransport
p13
I7765
tp14
a(Vsignal transduction
p15
I6598
tp16
a(Vcellular nitrogen compound metabolic process
p17
I6457
tp18
a(Vprotein complex
p19
I5665
tp20
a(Vresponse to stress
p21
I5334
tp22
a(Vsmall molecule metabolic process
p23
I4944
tp24
a(Vion binding
p25
I4884
tp26
a(Vbiosynthetic process
p27
I4213
tp28
a(Vcellular protein modification process
p29
I3753
tp30
a(Vcatabolic process
p31
I3449
tp32
a(Vimmune system process
p33
I2997
tp34
a(Vcytosol
p35
I2481
tp36
a(Vcellular component assembly
p37
I2462
tp38
a(Vcell differentiation
p39
I2308
tp40
a(Venzyme binding
p41
I2161
tp42
a(Vlipid metabolic process
p43
I2116
tp44
a(Vlocomotion
p45
I1817
tp46
a(Vnucleolus
p47
I1748
tp48
a(Vplasma membrane
p49
I1722
tp50
a(Vvesicle-mediated transport
p51
I1631
tp52
a(Vanatomical structure formation involved in morphogenesis
p53
I1597
tp54
a(Vnucleus
p55
I1565
tp56
a(VDNA metabolic process
p57
I1473
tp58
a(Vcarbohydrate metabolic process
p59
I1455
tp60
a(Vchromosome organization
p61
I1444
tp62
a(Vtransmembrane transporter activity
p63
I1442
tp64
a(Vmacromolecular complex assembly
p65
I1428
tp66
a(VDNA binding
p67
I1398
tp68
a(Vhomeostatic process
p69
I1384
tp70
a(Vcell motility
p71
I1327
tp72
a(Voxidoreductase activity
p73
I1240
tp74
a(Vprotein maturation
p75
I1211
tp76
a(Vembryo development
p77
I1193
tp78
a(Vneurological system process
p79
I1170
tp80
a(Vcytoplasm
p81
I1165
tp82
a(Vcytoskeleton organization
p83
I1150
tp84
a(Vtransmembrane transport
p85
I1149
tp86
a(Vgrowth
p87
I1140
tp88
a(Vnucleobase-containing compound catabolic process
p89
I1128
tp90
a(Vprotein complex assembly
p91
I1125
tp92
a(Vcytoskeletal protein binding
p93
I1102
tp94
a(Vkinase activity
p95
I1068
tp96
a(Vcellular amino acid metabolic process
p97
I1064
tp98
a(VRNA binding
p99
I1000
tp100
a(Vsignal transducer activity
p101
I987
tp102
a(Vcytoplasmic membrane-bounded vesicle
p103
I927
tp104
a(VGolgi apparatus
p105
I893
tp106
a(Vmitochondrion
p107
I878
tp108
a(Vpeptidase activity
p109
I816
tp110
a(Vlipid binding
p111
I792
tp112
a(Vcytoskeleton
p113
I779
tp114
a(Vmembrane organization
p115
I759
tp116
a(Vcell adhesion
p117
I750
tp118
a(Venzyme regulator activity
p119
I731
tp120
a(Vendoplasmic reticulum
p121
I704
tp122
a(VATPase activity
p123
I703
tp124
a(Vcell death
p125
I701
tp126
a(Vligase activity
p127
I685
tp128
a(Vendosome
p129
I675
tp130
a(Vcell-cell signaling
p131
I652
tp132
a(Vnucleoplasm
p133
I642
tp134
a(Vcell proliferation
p135
I633
tp136
a(Vmicrotubule organizing center
p137
I630
tp138
a(Vtranscription factor binding
p139
I619
tp140
a(Vstructural molecule activity
p141
I601
tp142
a(Vcell morphogenesis
p143
I598
tp144
a(Vprotein binding transcription factor activity
p145
I569
tp146
a(Vsulfur compound metabolic process
p147
I561
tp148
a(Vextracellular region
p149
I484
tp150
a(Vnucleic acid binding transcription factor activity
p151
I465
tp152
a(Vprotein targeting
p153
I449
tp154
a(Vcofactor metabolic process
p155
I448
tp156
a(VmRNA processing
p157
I445
tp158
a(Vvacuole
p159
I426
tp160
a(Vgeneration of precursor metabolites and energy
p161
I422
tp162
a(Vextracellular matrix organization
p163
I414
tp164
a(Vextracellular space
p165
I412
tp166
a(Vsymbiosis, encompassing mutualism through parasitism
p167
I409
tp168
a(Vcilium
p169
I382
tp170
a(Vtransferase activity, transferring acyl groups
p171
I380
tp172
a(Vnucleocytoplasmic transport
p173
I321
tp174
a(Vphosphatase activity
p175
I321
tp176
a(Vreproduction
p177
I303
tp178
a(Vcell cycle
p179
I288
tp180
a(Vaging
p181
I285
tp182
a(Vcell junction organization
p183
I280
tp184
a(Vtransferase activity, transferring glycosyl groups
p185
I278
tp186
a(Vhelicase activity
p187
I274
tp188
a(Vlyase activity
p189
I265
tp190
a(Vplastid
p191
I259
tp192
a(Vcell division
p193
I243
tp194
a(Vprotein folding
p195
I241
tp196
a(Vribonucleoprotein complex assembly
p197
I236
tp198
a(Vmethyltransferase activity
p199
I234
tp200
a(Vdevelopmental maturation
p201
I233
tp202
a(Vlysosome
p203
I231
tp204
a(Vcirculatory system process
p205
I229
tp206
a(Vmitochondrion organization
p207
I228
tp208
a(Vcytoskeleton-dependent intracellular transport
p209
I214
tp210
a(Vnuclease activity
p211
I208
tp212
a(Vchromosome
p213
I192
tp214
a(Vhistone binding
p215
I184
tp216
a(Vsecondary metabolic process
p217
I184
tp218
a(VGTPase activity
p219
I183
tp220
a(Vexternal encapsulating structure
p221
I182
tp222
a(Vnuclear envelope
p223
I181
tp224
a(Vcell wall
p225
I179
tp226
a(VmRNA binding
p227
I172
tp228
a(VtRNA metabolic process
p229
I157
tp230
a(Vproteinaceous extracellular matrix
p231
I155
tp232
a(Vhydrolase activity, acting on glycosyl bonds
p233
I153
tp234
a(Visomerase activity
p235
I153
tp236
a(Vplasma membrane organization
p237
I147
tp238
a(Vhydrolase activity, acting on carbon-nitrogen (but not peptide) bonds
p239
I143
tp240
a(Vcell wall organization or biogenesis
p241
I139
tp242
a(Vsmall conjugating protein binding
p243
I136
tp244
a(Vvacuolar transport
p245
I128
tp246
a(Vnucleotidyltransferase activity
p247
I126
tp248
a(Vchromosome segregation
p249
I123
tp250
a(Vstructural constituent of ribosome
p251
I118
tp252
a(Vmitosis
p253
I117
tp254
a(Vperoxisome
p255
I115
tp256
a(Vprotein binding, bridging
p257
I114
tp258
a(Vunfolded protein binding
p259
I110
tp260
a(Vtranslation factor activity, nucleic acid binding
p261
I106
tp262
a(Vprotein transporter activity
p263
I92
tp264
a(Vlipid particle
p265
I90
tp266
a(Vtranslation
p267
I84
tp268
a(Vribosome
p269
I73
tp270
a(Vnuclear chromosome
p271
I63
tp272
a(Vintracellular
p273
I58
tp274
a(Vtransferase activity, transferring alkyl or aryl (other than methyl) groups
p275
I58
tp276
a(Vribosome biogenesis
p277
I48
tp278
a(Vpigmentation
p279
I47
tp280
a(VrRNA binding
p281
I35
tp282
a(Vnitrogen cycle metabolic process
p283
I23
tp284
a(Vthylakoid
p285
I19
tp286
a(Vcell
p287
I8
tp288
a(Vphotosynthesis
p289
I4
tp290
a(Vtransposition
p291
I1
tp292
aa(lp293
(g3
L6372L
tp294
a(g5
L4365L
tp295
a(g7
L2787L
tp296
a(g9
L21685L
tp297
a(g11
L26888L
tp298
a(g13
L5491L
tp299
a(g15
L5801L
tp300
a(g17
L18268L
tp301
a(g19
L21693L
tp302
a(g21
L5613L
tp303
a(g23
L22689L
tp304
a(g25
L21630L
tp305
a(g27
L7192L
tp306
a(g29
L5168L
tp307
a(g31
L7190L
tp308
a(g33
L1781L
tp309
a(g35
L4599L
tp310
a(g37
L13633L
tp311
a(g39
L13924L
tp312
a(g41
L12968L
tp313
a(g43
L5326L
tp314
a(g45
L20507L
tp315
a(g47
L4507L
tp316
a(g49
L4644L
tp317
a(g51
L10381L
tp318
a(g53
L26682L
tp319
a(g55
L4422L
tp320
a(g57
L4995L
tp321
a(g59
L4725L
tp322
a(g61
L28228L
tp323
a(g63
L13690L
tp324
a(g65
L31581L
tp325
a(g67
L2790L
tp326
a(g69
L21086L
tp327
a(g71
L26901L
tp328
a(g73
L10598L
tp329
a(g75
L28535L
tp330
a(g77
L7881L
tp331
a(g79
L27837L
tp332
a(g81
L4514L
tp333
a(g83
L5663L
tp334
a(g85
L29927L
tp335
a(g87
L20503L
tp336
a(g89
L18282L
tp337
a(g91
L5165L
tp338
a(g93
L6320L
tp339
a(g95
L10466L
tp340
a(g97
L5218L
tp341
a(g99
L2830L
tp342
a(g101
L3827L
tp343
a(g103
L10229L
tp344
a(g105
L4567L
tp345
a(g107
L4515L
tp346
a(g109
L6448L
tp347
a(g111
L6500L
tp348
a(g113
L4621L
tp349
a(g115
L30984L
tp350
a(g117
L5791L
tp351
a(g119
L14001L
tp352
a(g121
L4556L
tp353
a(g123
L10963L
tp354
a(g125
L6436L
tp355
a(g127
L10950L
tp356
a(g129
L4542L
tp357
a(g131
L5896L
tp358
a(g133
L4439L
tp359
a(g135
L6494L
tp360
a(g137
L4586L
tp361
a(g139
L6357L
tp362
a(g141
L4118L
tp363
a(g143
L594L
tp364
a(g145
L677L
tp365
a(g147
L5471L
tp366
a(g149
L4366L
tp367
a(g151
L759L
tp368
a(g153
L5302L
tp369
a(g155
L28144L
tp370
a(g157
L5112L
tp371
a(g159
L4546L
tp372
a(g161
L4838L
tp373
a(g163
L13967L
tp374
a(g165
L4405L
tp375
a(g167
L22810L
tp376
a(g169
L4684L
tp377
a(g171
L10829L
tp378
a(g173
L5582L
tp379
a(g175
L10870L
tp380
a(g177
L3L
tp381
a(g179
L5695L
tp382
a(g181
L6169L
tp383
a(g183
L17965L
tp384
a(g185
L10840L
tp385
a(g187
L3404L
tp386
a(g189
L10905L
tp387
a(g191
L7644L
tp388
a(g193
L28251L
tp389
a(g195
L5161L
tp390
a(g197
L13644L
tp391
a(g199
L6389L
tp392
a(g201
L13274L
tp393
a(g203
L4538L
tp394
a(g205
L2364L
tp395
a(g207
L5658L
tp396
a(g209
L14427L
tp397
a(g211
L3518L
tp398
a(g213
L4475L
tp399
a(g215
L20900L
tp400
a(g217
L12827L
tp401
a(g219
L2991L
tp402
a(g221
L14078L
tp403
a(g223
L4423L
tp404
a(g225
L4408L
tp405
a(g227
L2835L
tp406
a(g229
L5114L
tp407
a(g231
L4368L
tp408
a(g233
L10876L
tp409
a(g235
L10929L
tp410
a(g237
L5662L
tp411
a(g239
L10886L
tp412
a(g241
L33137L
tp413
a(g243
L15840L
tp414
a(g245
L5682L
tp415
a(g247
L10860L
tp416
a(g249
L5705L
tp417
a(g251
L2841L
tp418
a(g253
L5712L
tp419
a(g255
L4550L
tp420
a(g257
L14396L
tp421
a(g259
L28040L
tp422
a(g261
L6358L
tp423
a(g263
L6747L
tp424
a(g265
L4583L
tp425
a(g267
L5126L
tp426
a(g269
L4609L
tp427
a(g271
L201L
tp428
a(g273
L4411L
tp429
a(g275
L10848L
tp430
a(g277
L20770L
tp431
a(g279
L21900L
tp432
a(g281
L12918L
tp433
a(g283
L33512L
tp434
a(g285
L7683L
tp435
a(g287
L4412L
tp436
a(g289
L10192L
tp437
a(g291
L15852L
tp438
aaI385402
a.