(lp1
(lp2
(Vbiological_process
p3
I119517
tp4
a(Vcellular_component
p5
I40243
tp6
a(Vmolecular_function
p7
I31895
tp8
a(Vorganelle
p9
I11020
tp10
a(Vanatomical structure development
p11
I8523
tp12
a(Vtransport
p13
I6722
tp14
a(Vcellular nitrogen compound metabolic process
p15
I6148
tp16
a(Vsignal transduction
p17
I5225
tp18
a(Vprotein complex
p19
I4665
tp20
a(Vsmall molecule metabolic process
p21
I4627
tp22
a(Vresponse to stress
p23
I4523
tp24
a(Vbiosynthetic process
p25
I4399
tp26
a(Vion binding
p27
I3582
tp28
a(Vcellular protein modification process
p29
I3229
tp30
a(Vcatabolic process
p31
I3157
tp32
a(Vimmune system process
p33
I2237
tp34
a(Vlipid metabolic process
p35
I2132
tp36
a(Vcytosol
p37
I1992
tp38
a(Vcell differentiation
p39
I1905
tp40
a(Vcellular component assembly
p41
I1891
tp42
a(Venzyme binding
p43
I1556
tp44
a(Vnucleolus
p45
I1430
tp46
a(Voxidoreductase activity
p47
I1412
tp48
a(Vchromosome organization
p49
I1395
tp50
a(Vplasma membrane
p51
I1380
tp52
a(Vnucleus
p53
I1348
tp54
a(VDNA metabolic process
p55
I1343
tp56
a(Vtransmembrane transporter activity
p57
I1307
tp58
a(Vvesicle-mediated transport
p59
I1287
tp60
a(Vlocomotion
p61
I1239
tp62
a(Vcarbohydrate metabolic process
p63
I1217
tp64
a(Vanatomical structure formation involved in morphogenesis
p65
I1110
tp66
a(Vhomeostatic process
p67
I1095
tp68
a(Vcytoplasm
p69
I1069
tp70
a(Vmacromolecular complex assembly
p71
I1059
tp72
a(Vembryo development
p73
I1048
tp74
a(VDNA binding
p75
I1048
tp76
a(Vsignal transducer activity
p77
I1041
tp78
a(Vnucleobase-containing compound catabolic process
p79
I995
tp80
a(Vtransmembrane transport
p81
I971
tp82
a(Vgrowth
p83
I970
tp84
a(Vcellular amino acid metabolic process
p85
I946
tp86
a(Vprotein maturation
p87
I942
tp88
a(VRNA binding
p89
I897
tp90
a(Vcytoskeleton organization
p91
I884
tp92
a(Vkinase activity
p93
I868
tp94
a(Vprotein complex assembly
p95
I844
tp96
a(Vneurological system process
p97
I835
tp98
a(Vmitochondrion
p99
I826
tp100
a(Vcytoskeletal protein binding
p101
I822
tp102
a(Vcell motility
p103
I779
tp104
a(Vcytoplasmic membrane-bounded vesicle
p105
I725
tp106
a(VGolgi apparatus
p107
I663
tp108
a(Vcell-cell signaling
p109
I660
tp110
a(Vcell death
p111
I650
tp112
a(Vpeptidase activity
p113
I647
tp114
a(Vendoplasmic reticulum
p115
I646
tp116
a(Vcytoskeleton
p117
I610
tp118
a(Vlipid binding
p119
I590
tp120
a(Vnucleoplasm
p121
I562
tp122
a(Vmicrotubule organizing center
p123
I555
tp124
a(Vligase activity
p125
I543
tp126
a(Vendosome
p127
I537
tp128
a(Venzyme regulator activity
p129
I523
tp130
a(Vmembrane organization
p131
I514
tp132
a(Vtranscription factor binding
p133
I495
tp134
a(VATPase activity
p135
I484
tp136
a(Vcell proliferation
p137
I464
tp138
a(Vcell adhesion
p139
I450
tp140
a(Vcell morphogenesis
p141
I443
tp142
a(Vcofactor metabolic process
p143
I423
tp144
a(Vprotein binding transcription factor activity
p145
I419
tp146
a(Vcell cycle
p147
I408
tp148
a(Vsulfur compound metabolic process
p149
I404
tp150
a(Vtransferase activity, transferring acyl groups
p151
I395
tp152
a(Vextracellular region
p153
I385
tp154
a(Vnucleic acid binding transcription factor activity
p155
I379
tp156
a(Vcilium
p157
I375
tp158
a(Vprotein targeting
p159
I367
tp160
a(VmRNA processing
p161
I366
tp162
a(Vstructural molecule activity
p163
I361
tp164
a(Vgeneration of precursor metabolites and energy
p165
I360
tp166
a(Vtransferase activity, transferring glycosyl groups
p167
I349
tp168
a(Vvacuole
p169
I347
tp170
a(Vsymbiosis, encompassing mutualism through parasitism
p171
I334
tp172
a(Vphosphatase activity
p173
I327
tp174
a(Vreproduction
p175
I310
tp176
a(Vcell division
p177
I276
tp178
a(Vlyase activity
p179
I251
tp180
a(Vmethyltransferase activity
p181
I231
tp182
a(Vcirculatory system process
p183
I230
tp184
a(Vnucleocytoplasmic transport
p185
I229
tp186
a(Vplastid
p187
I220
tp188
a(Vnuclease activity
p189
I216
tp190
a(Vcell junction organization
p191
I210
tp192
a(Vchromosome
p193
I208
tp194
a(Vhelicase activity
p195
I204
tp196
a(Vprotein folding
p197
I202
tp198
a(Vaging
p199
I197
tp200
a(Vextracellular space
p201
I194
tp202
a(Vcytoskeleton-dependent intracellular transport
p203
I193
tp204
a(Vmitochondrion organization
p205
I192
tp206
a(Vsecondary metabolic process
p207
I183
tp208
a(Vnuclear envelope
p209
I180
tp210
a(Vextracellular matrix organization
p211
I180
tp212
a(VGTPase activity
p213
I178
tp214
a(VtRNA metabolic process
p215
I174
tp216
a(Vlysosome
p217
I169
tp218
a(Vcell wall
p219
I163
tp220
a(Vexternal encapsulating structure
p221
I163
tp222
a(Vribonucleoprotein complex assembly
p223
I158
tp224
a(Vhistone binding
p225
I150
tp226
a(VmRNA binding
p227
I144
tp228
a(Vdevelopmental maturation
p229
I138
tp230
a(Visomerase activity
p231
I137
tp232
a(Vcell wall organization or biogenesis
p233
I133
tp234
a(Vstructural constituent of ribosome
p235
I124
tp236
a(Vhydrolase activity, acting on carbon-nitrogen (but not peptide) bonds
p237
I123
tp238
a(Vchromosome segregation
p239
I121
tp240
a(Vnucleotidyltransferase activity
p241
I119
tp242
a(Vmitosis
p243
I118
tp244
a(Vvacuolar transport
p245
I116
tp246
a(Vplasma membrane organization
p247
I115
tp248
a(Vhydrolase activity, acting on glycosyl bonds
p249
I111
tp250
a(Vperoxisome
p251
I104
tp252
a(Vsmall conjugating protein binding
p253
I99
tp254
a(Vtranslation factor activity, nucleic acid binding
p255
I97
tp256
a(Vtranslation
p257
I96
tp258
a(Vunfolded protein binding
p259
I85
tp260
a(Vtransferase activity, transferring alkyl or aryl (other than methyl) groups
p261
I82
tp262
a(Vlipid particle
p263
I81
tp264
a(Vribosome
p265
I71
tp266
a(Vprotein transporter activity
p267
I62
tp268
a(Vnuclear chromosome
p269
I57
tp270
a(Vprotein binding, bridging
p271
I56
tp272
a(Vintracellular
p273
I55
tp274
a(Vribosome biogenesis
p275
I54
tp276
a(Vproteinaceous extracellular matrix
p277
I50
tp278
a(Vpigmentation
p279
I39
tp280
a(VrRNA binding
p281
I38
tp282
a(Vthylakoid
p283
I21
tp284
a(Vnitrogen cycle metabolic process
p285
I9
tp286
a(Vphotosynthesis
p287
I4
tp288
a(Vcell
p289
I3
tp290
a(VRNA modification guide activity
p291
I2
tp292
aa(lp293
(g3
L6372L
tp294
a(g5
L4365L
tp295
a(g7
L2787L
tp296
a(g9
L21685L
tp297
a(g11
L26888L
tp298
a(g13
L5491L
tp299
a(g15
L18268L
tp300
a(g17
L5801L
tp301
a(g19
L21693L
tp302
a(g21
L22689L
tp303
a(g23
L5613L
tp304
a(g25
L7192L
tp305
a(g27
L21630L
tp306
a(g29
L5168L
tp307
a(g31
L7190L
tp308
a(g33
L1781L
tp309
a(g35
L5326L
tp310
a(g37
L4599L
tp311
a(g39
L13924L
tp312
a(g41
L13633L
tp313
a(g43
L12968L
tp314
a(g45
L4507L
tp315
a(g47
L10598L
tp316
a(g49
L28228L
tp317
a(g51
L4644L
tp318
a(g53
L4422L
tp319
a(g55
L4995L
tp320
a(g57
L13690L
tp321
a(g59
L10381L
tp322
a(g61
L20507L
tp323
a(g63
L4725L
tp324
a(g65
L26682L
tp325
a(g67
L21086L
tp326
a(g69
L4514L
tp327
a(g71
L31581L
tp328
a(g73
L7881L
tp329
a(g75
L2790L
tp330
a(g77
L3827L
tp331
a(g79
L18282L
tp332
a(g81
L29927L
tp333
a(g83
L20503L
tp334
a(g85
L5218L
tp335
a(g87
L28535L
tp336
a(g89
L2830L
tp337
a(g91
L5663L
tp338
a(g93
L10466L
tp339
a(g95
L5165L
tp340
a(g97
L27837L
tp341
a(g99
L4515L
tp342
a(g101
L6320L
tp343
a(g103
L26901L
tp344
a(g105
L10229L
tp345
a(g107
L4567L
tp346
a(g109
L5896L
tp347
a(g111
L6436L
tp348
a(g113
L6448L
tp349
a(g115
L4556L
tp350
a(g117
L4621L
tp351
a(g119
L6500L
tp352
a(g121
L4439L
tp353
a(g123
L4586L
tp354
a(g125
L10950L
tp355
a(g127
L4542L
tp356
a(g129
L14001L
tp357
a(g131
L30984L
tp358
a(g133
L6357L
tp359
a(g135
L10963L
tp360
a(g137
L6494L
tp361
a(g139
L5791L
tp362
a(g141
L594L
tp363
a(g143
L28144L
tp364
a(g145
L677L
tp365
a(g147
L5695L
tp366
a(g149
L5471L
tp367
a(g151
L10829L
tp368
a(g153
L4366L
tp369
a(g155
L759L
tp370
a(g157
L4684L
tp371
a(g159
L5302L
tp372
a(g161
L5112L
tp373
a(g163
L4118L
tp374
a(g165
L4838L
tp375
a(g167
L10840L
tp376
a(g169
L4546L
tp377
a(g171
L22810L
tp378
a(g173
L10870L
tp379
a(g175
L3L
tp380
a(g177
L28251L
tp381
a(g179
L10905L
tp382
a(g181
L6389L
tp383
a(g183
L2364L
tp384
a(g185
L5582L
tp385
a(g187
L7644L
tp386
a(g189
L3518L
tp387
a(g191
L17965L
tp388
a(g193
L4475L
tp389
a(g195
L3404L
tp390
a(g197
L5161L
tp391
a(g199
L6169L
tp392
a(g201
L4405L
tp393
a(g203
L14427L
tp394
a(g205
L5658L
tp395
a(g207
L12827L
tp396
a(g209
L4423L
tp397
a(g211
L13967L
tp398
a(g213
L2991L
tp399
a(g215
L5114L
tp400
a(g217
L4538L
tp401
a(g219
L4408L
tp402
a(g221
L14078L
tp403
a(g223
L13644L
tp404
a(g225
L20900L
tp405
a(g227
L2835L
tp406
a(g229
L13274L
tp407
a(g231
L10929L
tp408
a(g233
L33137L
tp409
a(g235
L2841L
tp410
a(g237
L10886L
tp411
a(g239
L5705L
tp412
a(g241
L10860L
tp413
a(g243
L5712L
tp414
a(g245
L5682L
tp415
a(g247
L5662L
tp416
a(g249
L10876L
tp417
a(g251
L4550L
tp418
a(g253
L15840L
tp419
a(g255
L6358L
tp420
a(g257
L5126L
tp421
a(g259
L28040L
tp422
a(g261
L10848L
tp423
a(g263
L4583L
tp424
a(g265
L4609L
tp425
a(g267
L6747L
tp426
a(g269
L201L
tp427
a(g271
L14396L
tp428
a(g273
L4411L
tp429
a(g275
L20770L
tp430
a(g277
L4368L
tp431
a(g279
L21900L
tp432
a(g281
L12918L
tp433
a(g283
L7683L
tp434
a(g285
L33512L
tp435
a(g287
L10192L
tp436
a(g289
L4412L
tp437
a(g291
L14288L
tp438
aaI326280
a.