(lp1
(lp2
(Vbiological_process
p3
I184986
tp4
a(Vcellular_component
p5
I57664
tp6
a(Vmolecular_function
p7
I45500
tp8
a(Vorganelle
p9
I15302
tp10
a(Vanatomical structure development
p11
I14546
tp12
a(Vtransport
p13
I9873
tp14
a(Vsignal transduction
p15
I8507
tp16
a(Vcellular nitrogen compound metabolic process
p17
I6921
tp18
a(Vresponse to stress
p19
I6478
tp20
a(Vprotein complex
p21
I5921
tp22
a(Vsmall molecule metabolic process
p23
I5149
tp24
a(Vion binding
p25
I5129
tp26
a(Vbiosynthetic process
p27
I4717
tp28
a(Vcellular protein modification process
p29
I4249
tp30
a(Vcatabolic process
p31
I3483
tp32
a(Vimmune system process
p33
I3473
tp34
a(Vcell differentiation
p35
I3329
tp36
a(Vcellular component assembly
p37
I2591
tp38
a(Vlipid metabolic process
p39
I2346
tp40
a(Vcytosol
p41
I2340
tp42
a(Venzyme binding
p43
I2313
tp44
a(Vtransmembrane transporter activity
p45
I2219
tp46
a(Vlocomotion
p47
I2144
tp48
a(Vplasma membrane
p49
I2096
tp50
a(Vanatomical structure formation involved in morphogenesis
p51
I1951
tp52
a(Vsignal transducer activity
p53
I1938
tp54
a(Vnucleus
p55
I1923
tp56
a(Vnucleolus
p57
I1863
tp58
a(Vvesicle-mediated transport
p59
I1787
tp60
a(Vhomeostatic process
p61
I1757
tp62
a(VDNA metabolic process
p63
I1639
tp64
a(VDNA binding
p65
I1631
tp66
a(Vneurological system process
p67
I1626
tp68
a(Vcytoplasm
p69
I1603
tp70
a(Vchromosome organization
p71
I1542
tp72
a(Vtransmembrane transport
p73
I1532
tp74
a(Vcell motility
p75
I1525
tp76
a(Vmacromolecular complex assembly
p77
I1410
tp78
a(Vprotein maturation
p79
I1379
tp80
a(Vcarbohydrate metabolic process
p81
I1361
tp82
a(Vgrowth
p83
I1354
tp84
a(Voxidoreductase activity
p85
I1334
tp86
a(Vembryo development
p87
I1300
tp88
a(Vcell-cell signaling
p89
I1288
tp90
a(Vcytoskeletal protein binding
p91
I1232
tp92
a(Vkinase activity
p93
I1223
tp94
a(Vprotein complex assembly
p95
I1189
tp96
a(Vcytoskeleton organization
p97
I1081
tp98
a(Vcytoplasmic membrane-bounded vesicle
p99
I1077
tp100
a(Vnucleobase-containing compound catabolic process
p101
I1061
tp102
a(VGolgi apparatus
p103
I1001
tp104
a(Vcellular amino acid metabolic process
p105
I973
tp106
a(Vcell adhesion
p107
I972
tp108
a(Vcytoskeleton
p109
I946
tp110
a(Vlipid binding
p111
I934
tp112
a(Vpeptidase activity
p113
I929
tp114
a(VRNA binding
p115
I922
tp116
a(Vcell death
p117
I871
tp118
a(Vmitochondrion
p119
I864
tp120
a(Vendoplasmic reticulum
p121
I840
tp122
a(Vcell proliferation
p123
I831
tp124
a(Vendosome
p125
I783
tp126
a(Vmembrane organization
p127
I772
tp128
a(Vcell morphogenesis
p129
I749
tp130
a(Vligase activity
p131
I745
tp132
a(Vnucleic acid binding transcription factor activity
p133
I697
tp134
a(Vmicrotubule organizing center
p135
I682
tp136
a(Vtranscription factor binding
p137
I677
tp138
a(Venzyme regulator activity
p139
I676
tp140
a(Vnucleoplasm
p141
I664
tp142
a(Vprotein binding transcription factor activity
p143
I625
tp144
a(Vextracellular region
p145
I607
tp146
a(VATPase activity
p147
I595
tp148
a(Vsulfur compound metabolic process
p149
I591
tp150
a(Vvacuole
p151
I521
tp152
a(Vextracellular space
p153
I521
tp154
a(Vcirculatory system process
p155
I520
tp156
a(Vcilium
p157
I470
tp158
a(Vstructural molecule activity
p159
I465
tp160
a(Vextracellular matrix organization
p161
I465
tp162
a(Vcofactor metabolic process
p163
I438
tp164
a(Vtransferase activity, transferring acyl groups
p165
I436
tp166
a(Vcell cycle
p167
I414
tp168
a(Vprotein targeting
p169
I398
tp170
a(VmRNA processing
p171
I391
tp172
a(Vsymbiosis, encompassing mutualism through parasitism
p173
I390
tp174
a(Vphosphatase activity
p175
I389
tp176
a(Vtransferase activity, transferring glycosyl groups
p177
I359
tp178
a(Vreproduction
p179
I346
tp180
a(Vcell division
p181
I342
tp182
a(Vgeneration of precursor metabolites and energy
p183
I329
tp184
a(Vaging
p185
I322
tp186
a(Vnucleocytoplasmic transport
p187
I301
tp188
a(Vlysosome
p189
I298
tp190
a(Vcell junction organization
p191
I298
tp192
a(Vhelicase activity
p193
I285
tp194
a(Vmethyltransferase activity
p195
I279
tp196
a(Vdevelopmental maturation
p197
I277
tp198
a(Vnuclease activity
p199
I257
tp200
a(Vchromosome
p201
I243
tp202
a(Vlyase activity
p203
I233
tp204
a(Vmitochondrion organization
p205
I229
tp206
a(Vplastid
p207
I219
tp208
a(Vplasma membrane organization
p209
I209
tp210
a(Vprotein folding
p211
I207
tp212
a(Vproteinaceous extracellular matrix
p213
I206
tp214
a(Vcytoskeleton-dependent intracellular transport
p215
I205
tp216
a(Vsecondary metabolic process
p217
I189
tp218
a(Vhistone binding
p219
I188
tp220
a(VGTPase activity
p221
I187
tp222
a(Vnuclear envelope
p223
I178
tp224
a(Vhydrolase activity, acting on glycosyl bonds
p225
I168
tp226
a(Vribonucleoprotein complex assembly
p227
I167
tp228
a(Vexternal encapsulating structure
p229
I163
tp230
a(Vhydrolase activity, acting on carbon-nitrogen (but not peptide) bonds
p231
I159
tp232
a(Vcell wall
p233
I157
tp234
a(VmRNA binding
p235
I146
tp236
a(Vmitosis
p237
I142
tp238
a(Visomerase activity
p239
I142
tp240
a(VtRNA metabolic process
p241
I140
tp242
a(Vchromosome segregation
p243
I136
tp244
a(Vcell wall organization or biogenesis
p245
I132
tp246
a(Vnucleotidyltransferase activity
p247
I125
tp248
a(Vvacuolar transport
p249
I125
tp250
a(Vperoxisome
p251
I123
tp252
a(Vprotein binding, bridging
p253
I122
tp254
a(Vsmall conjugating protein binding
p255
I120
tp256
a(Vunfolded protein binding
p257
I91
tp258
a(Vlipid particle
p259
I90
tp260
a(Vtranslation factor activity, nucleic acid binding
p261
I86
tp262
a(Vtransferase activity, transferring alkyl or aryl (other than methyl) groups
p263
I84
tp264
a(Vprotein transporter activity
p265
I81
tp266
a(Vtranslation
p267
I79
tp268
a(Vintracellular
p269
I78
tp270
a(Vribosome
p271
I78
tp272
a(Vpigmentation
p273
I65
tp274
a(Vnuclear chromosome
p275
I64
tp276
a(Vstructural constituent of ribosome
p277
I50
tp278
a(Vribosome biogenesis
p279
I43
tp280
a(VrRNA binding
p281
I30
tp282
a(Vthylakoid
p283
I20
tp284
a(Vnitrogen cycle metabolic process
p285
I7
tp286
a(Vcell
p287
I4
tp288
a(Vtransposition
p289
I4
tp290
a(Vphotosynthesis
p291
I2
tp292
aa(lp293
(g3
L6372L
tp294
a(g5
L4365L
tp295
a(g7
L2787L
tp296
a(g9
L21685L
tp297
a(g11
L26888L
tp298
a(g13
L5491L
tp299
a(g15
L5801L
tp300
a(g17
L18268L
tp301
a(g19
L5613L
tp302
a(g21
L21693L
tp303
a(g23
L22689L
tp304
a(g25
L21630L
tp305
a(g27
L7192L
tp306
a(g29
L5168L
tp307
a(g31
L7190L
tp308
a(g33
L1781L
tp309
a(g35
L13924L
tp310
a(g37
L13633L
tp311
a(g39
L5326L
tp312
a(g41
L4599L
tp313
a(g43
L12968L
tp314
a(g45
L13690L
tp315
a(g47
L20507L
tp316
a(g49
L4644L
tp317
a(g51
L26682L
tp318
a(g53
L3827L
tp319
a(g55
L4422L
tp320
a(g57
L4507L
tp321
a(g59
L10381L
tp322
a(g61
L21086L
tp323
a(g63
L4995L
tp324
a(g65
L2790L
tp325
a(g67
L27837L
tp326
a(g69
L4514L
tp327
a(g71
L28228L
tp328
a(g73
L29927L
tp329
a(g75
L26901L
tp330
a(g77
L31581L
tp331
a(g79
L28535L
tp332
a(g81
L4725L
tp333
a(g83
L20503L
tp334
a(g85
L10598L
tp335
a(g87
L7881L
tp336
a(g89
L5896L
tp337
a(g91
L6320L
tp338
a(g93
L10466L
tp339
a(g95
L5165L
tp340
a(g97
L5663L
tp341
a(g99
L10229L
tp342
a(g101
L18282L
tp343
a(g103
L4567L
tp344
a(g105
L5218L
tp345
a(g107
L5791L
tp346
a(g109
L4621L
tp347
a(g111
L6500L
tp348
a(g113
L6448L
tp349
a(g115
L2830L
tp350
a(g117
L6436L
tp351
a(g119
L4515L
tp352
a(g121
L4556L
tp353
a(g123
L6494L
tp354
a(g125
L4542L
tp355
a(g127
L30984L
tp356
a(g129
L594L
tp357
a(g131
L10950L
tp358
a(g133
L759L
tp359
a(g135
L4586L
tp360
a(g137
L6357L
tp361
a(g139
L14001L
tp362
a(g141
L4439L
tp363
a(g143
L677L
tp364
a(g145
L4366L
tp365
a(g147
L10963L
tp366
a(g149
L5471L
tp367
a(g151
L4546L
tp368
a(g153
L4405L
tp369
a(g155
L2364L
tp370
a(g157
L4684L
tp371
a(g159
L4118L
tp372
a(g161
L13967L
tp373
a(g163
L28144L
tp374
a(g165
L10829L
tp375
a(g167
L5695L
tp376
a(g169
L5302L
tp377
a(g171
L5112L
tp378
a(g173
L22810L
tp379
a(g175
L10870L
tp380
a(g177
L10840L
tp381
a(g179
L3L
tp382
a(g181
L28251L
tp383
a(g183
L4838L
tp384
a(g185
L6169L
tp385
a(g187
L5582L
tp386
a(g189
L4538L
tp387
a(g191
L17965L
tp388
a(g193
L3404L
tp389
a(g195
L6389L
tp390
a(g197
L13274L
tp391
a(g199
L3518L
tp392
a(g201
L4475L
tp393
a(g203
L10905L
tp394
a(g205
L5658L
tp395
a(g207
L7644L
tp396
a(g209
L5662L
tp397
a(g211
L5161L
tp398
a(g213
L4368L
tp399
a(g215
L14427L
tp400
a(g217
L12827L
tp401
a(g219
L20900L
tp402
a(g221
L2991L
tp403
a(g223
L4423L
tp404
a(g225
L10876L
tp405
a(g227
L13644L
tp406
a(g229
L14078L
tp407
a(g231
L10886L
tp408
a(g233
L4408L
tp409
a(g235
L2835L
tp410
a(g237
L5712L
tp411
a(g239
L10929L
tp412
a(g241
L5114L
tp413
a(g243
L5705L
tp414
a(g245
L33137L
tp415
a(g247
L10860L
tp416
a(g249
L5682L
tp417
a(g251
L4550L
tp418
a(g253
L14396L
tp419
a(g255
L15840L
tp420
a(g257
L28040L
tp421
a(g259
L4583L
tp422
a(g261
L6358L
tp423
a(g263
L10848L
tp424
a(g265
L6747L
tp425
a(g267
L5126L
tp426
a(g269
L4411L
tp427
a(g271
L4609L
tp428
a(g273
L21900L
tp429
a(g275
L201L
tp430
a(g277
L2841L
tp431
a(g279
L20770L
tp432
a(g281
L12918L
tp433
a(g283
L7683L
tp434
a(g285
L33512L
tp435
a(g287
L4412L
tp436
a(g289
L15852L
tp437
a(g291
L10192L
tp438
aaI474055
a.