(lp1
(lp2
(Vbiological_process
p3
I314446
tp4
a(Vcellular_component
p5
I100932
tp6
a(Vmolecular_function
p7
I84842
tp8
a(Vorganelle
p9
I26882
tp10
a(Vanatomical structure development
p11
I24342
tp12
a(Vtransport
p13
I16332
tp14
a(Vsignal transduction
p15
I15291
tp16
a(Vcellular nitrogen compound metabolic process
p17
I13125
tp18
a(Vresponse to stress
p19
I11694
tp20
a(Vprotein complex
p21
I11477
tp22
a(Vion binding
p23
I10688
tp24
a(Vsmall molecule metabolic process
p25
I9822
tp26
a(Vbiosynthetic process
p27
I8492
tp28
a(Vcellular protein modification process
p29
I8057
tp30
a(Vimmune system process
p31
I7097
tp32
a(Vcatabolic process
p33
I6922
tp34
a(Vcell differentiation
p35
I5897
tp36
a(Vcellular component assembly
p37
I5155
tp38
a(Vcytosol
p39
I4806
tp40
a(Vlipid metabolic process
p41
I4804
tp42
a(Venzyme binding
p43
I4673
tp44
a(Vlocomotion
p45
I4118
tp46
a(Vanatomical structure formation involved in morphogenesis
p47
I3712
tp48
a(Vnucleolus
p49
I3621
tp50
a(Vplasma membrane
p51
I3532
tp52
a(Vtransmembrane transporter activity
p53
I3456
tp54
a(Vnucleus
p55
I3416
tp56
a(Vvesicle-mediated transport
p57
I3390
tp58
a(Vhomeostatic process
p59
I3145
tp60
a(VDNA binding
p61
I3106
tp62
a(VDNA metabolic process
p63
I3099
tp64
a(Vcell motility
p65
I2996
tp66
a(Vmacromolecular complex assembly
p67
I2944
tp68
a(Vcytoplasm
p69
I2915
tp70
a(Voxidoreductase activity
p71
I2876
tp72
a(Vchromosome organization
p73
I2829
tp74
a(Vprotein maturation
p75
I2669
tp76
a(Vsignal transducer activity
p77
I2612
tp78
a(Vcarbohydrate metabolic process
p79
I2576
tp80
a(Vtransmembrane transport
p81
I2555
tp82
a(Vneurological system process
p83
I2501
tp84
a(Vprotein complex assembly
p85
I2439
tp86
a(Vkinase activity
p87
I2432
tp88
a(Vgrowth
p89
I2405
tp90
a(Vembryo development
p91
I2402
tp92
a(Vnucleobase-containing compound catabolic process
p93
I2353
tp94
a(Vcytoskeletal protein binding
p95
I2259
tp96
a(Vcytoskeleton organization
p97
I2111
tp98
a(Vcell adhesion
p99
I1960
tp100
a(VRNA binding
p101
I1946
tp102
a(Vmitochondrion
p103
I1895
tp104
a(VGolgi apparatus
p105
I1892
tp106
a(Vcytoplasmic membrane-bounded vesicle
p107
I1840
tp108
a(Vlipid binding
p109
I1827
tp110
a(Vcellular amino acid metabolic process
p111
I1818
tp112
a(Vcytoskeleton
p113
I1673
tp114
a(Vcell proliferation
p115
I1646
tp116
a(Vcell-cell signaling
p117
I1621
tp118
a(Vpeptidase activity
p119
I1617
tp120
a(Vendoplasmic reticulum
p121
I1573
tp122
a(Vligase activity
p123
I1566
tp124
a(Vendosome
p125
I1514
tp126
a(Vmembrane organization
p127
I1496
tp128
a(Vcell death
p129
I1489
tp130
a(Venzyme regulator activity
p131
I1396
tp132
a(VATPase activity
p133
I1391
tp134
a(Vnucleoplasm
p135
I1313
tp136
a(Vcell morphogenesis
p137
I1312
tp138
a(Vtranscription factor binding
p139
I1306
tp140
a(Vnucleic acid binding transcription factor activity
p141
I1255
tp142
a(Vmicrotubule organizing center
p143
I1251
tp144
a(Vprotein binding transcription factor activity
p145
I1227
tp146
a(Vstructural molecule activity
p147
I1062
tp148
a(Vextracellular region
p149
I1059
tp150
a(Vsulfur compound metabolic process
p151
I962
tp152
a(Vprotein targeting
p153
I912
tp154
a(Vcofactor metabolic process
p155
I902
tp156
a(Vextracellular space
p157
I896
tp158
a(Vextracellular matrix organization
p159
I870
tp160
a(Vsymbiosis, encompassing mutualism through parasitism
p161
I864
tp162
a(Vvacuole
p163
I844
tp164
a(Vtransferase activity, transferring acyl groups
p165
I795
tp166
a(VmRNA processing
p167
I789
tp168
a(Vcilium
p169
I776
tp170
a(Vgeneration of precursor metabolites and energy
p171
I742
tp172
a(Vphosphatase activity
p173
I697
tp174
a(Vaging
p175
I650
tp176
a(Vtransferase activity, transferring glycosyl groups
p177
I632
tp178
a(Vreproduction
p179
I622
tp180
a(Vcell cycle
p181
I621
tp182
a(Vdevelopmental maturation
p183
I606
tp184
a(Vnucleocytoplasmic transport
p185
I601
tp186
a(Vcell division
p187
I573
tp188
a(Vcell junction organization
p189
I573
tp190
a(Vcirculatory system process
p191
I562
tp192
a(Vhelicase activity
p193
I533
tp194
a(Vlyase activity
p195
I530
tp196
a(Vlysosome
p197
I504
tp198
a(Vplastid
p199
I492
tp200
a(Vprotein folding
p201
I473
tp202
a(Vmitochondrion organization
p203
I470
tp204
a(Vnuclease activity
p205
I464
tp206
a(Vmethyltransferase activity
p207
I461
tp208
a(Vcytoskeleton-dependent intracellular transport
p209
I421
tp210
a(VGTPase activity
p211
I402
tp212
a(Vribonucleoprotein complex assembly
p213
I400
tp214
a(Vchromosome
p215
I371
tp216
a(Vsecondary metabolic process
p217
I369
tp218
a(Vhistone binding
p219
I368
tp220
a(Vexternal encapsulating structure
p221
I353
tp222
a(Vproteinaceous extracellular matrix
p223
I347
tp224
a(Vnuclear envelope
p225
I343
tp226
a(Vcell wall
p227
I343
tp228
a(Visomerase activity
p229
I317
tp230
a(VmRNA binding
p231
I313
tp232
a(Vplasma membrane organization
p233
I310
tp234
a(Vhydrolase activity, acting on carbon-nitrogen (but not peptide) bonds
p235
I281
tp236
a(Vmitosis
p237
I277
tp238
a(Vhydrolase activity, acting on glycosyl bonds
p239
I273
tp240
a(Vvacuolar transport
p241
I257
tp242
a(Vnucleotidyltransferase activity
p243
I255
tp244
a(Vprotein binding, bridging
p245
I247
tp246
a(Vcell wall organization or biogenesis
p247
I243
tp248
a(Vchromosome segregation
p249
I239
tp250
a(Vsmall conjugating protein binding
p251
I238
tp252
a(Vperoxisome
p253
I237
tp254
a(VtRNA metabolic process
p255
I229
tp256
a(Vunfolded protein binding
p257
I209
tp258
a(Vlipid particle
p259
I204
tp260
a(Vstructural constituent of ribosome
p261
I201
tp262
a(Vtranslation factor activity, nucleic acid binding
p263
I193
tp264
a(Vprotein transporter activity
p265
I181
tp266
a(Vtranslation
p267
I165
tp268
a(Vtransferase activity, transferring alkyl or aryl (other than methyl) groups
p269
I142
tp270
a(Vribosome
p271
I138
tp272
a(Vintracellular
p273
I111
tp274
a(Vpigmentation
p275
I110
tp276
a(Vnuclear chromosome
p277
I109
tp278
a(Vribosome biogenesis
p279
I101
tp280
a(VrRNA binding
p281
I63
tp282
a(Vnitrogen cycle metabolic process
p283
I53
tp284
a(Vthylakoid
p285
I36
tp286
a(Vcell
p287
I15
tp288
a(Vphotosynthesis
p289
I13
tp290
a(Vtransposition
p291
I12
tp292
aa(lp293
(g3
L6372L
tp294
a(g5
L4365L
tp295
a(g7
L2787L
tp296
a(g9
L21685L
tp297
a(g11
L26888L
tp298
a(g13
L5491L
tp299
a(g15
L5801L
tp300
a(g17
L18268L
tp301
a(g19
L5613L
tp302
a(g21
L21693L
tp303
a(g23
L21630L
tp304
a(g25
L22689L
tp305
a(g27
L7192L
tp306
a(g29
L5168L
tp307
a(g31
L1781L
tp308
a(g33
L7190L
tp309
a(g35
L13924L
tp310
a(g37
L13633L
tp311
a(g39
L4599L
tp312
a(g41
L5326L
tp313
a(g43
L12968L
tp314
a(g45
L20507L
tp315
a(g47
L26682L
tp316
a(g49
L4507L
tp317
a(g51
L4644L
tp318
a(g53
L13690L
tp319
a(g55
L4422L
tp320
a(g57
L10381L
tp321
a(g59
L21086L
tp322
a(g61
L2790L
tp323
a(g63
L4995L
tp324
a(g65
L26901L
tp325
a(g67
L31581L
tp326
a(g69
L4514L
tp327
a(g71
L10598L
tp328
a(g73
L28228L
tp329
a(g75
L28535L
tp330
a(g77
L3827L
tp331
a(g79
L4725L
tp332
a(g81
L29927L
tp333
a(g83
L27837L
tp334
a(g85
L5165L
tp335
a(g87
L10466L
tp336
a(g89
L20503L
tp337
a(g91
L7881L
tp338
a(g93
L18282L
tp339
a(g95
L6320L
tp340
a(g97
L5663L
tp341
a(g99
L5791L
tp342
a(g101
L2830L
tp343
a(g103
L4515L
tp344
a(g105
L4567L
tp345
a(g107
L10229L
tp346
a(g109
L6500L
tp347
a(g111
L5218L
tp348
a(g113
L4621L
tp349
a(g115
L6494L
tp350
a(g117
L5896L
tp351
a(g119
L6448L
tp352
a(g121
L4556L
tp353
a(g123
L10950L
tp354
a(g125
L4542L
tp355
a(g127
L30984L
tp356
a(g129
L6436L
tp357
a(g131
L14001L
tp358
a(g133
L10963L
tp359
a(g135
L4439L
tp360
a(g137
L594L
tp361
a(g139
L6357L
tp362
a(g141
L759L
tp363
a(g143
L4586L
tp364
a(g145
L677L
tp365
a(g147
L4118L
tp366
a(g149
L4366L
tp367
a(g151
L5471L
tp368
a(g153
L5302L
tp369
a(g155
L28144L
tp370
a(g157
L4405L
tp371
a(g159
L13967L
tp372
a(g161
L22810L
tp373
a(g163
L4546L
tp374
a(g165
L10829L
tp375
a(g167
L5112L
tp376
a(g169
L4684L
tp377
a(g171
L4838L
tp378
a(g173
L10870L
tp379
a(g175
L6169L
tp380
a(g177
L10840L
tp381
a(g179
L3L
tp382
a(g181
L5695L
tp383
a(g183
L13274L
tp384
a(g185
L5582L
tp385
a(g187
L28251L
tp386
a(g189
L17965L
tp387
a(g191
L2364L
tp388
a(g193
L3404L
tp389
a(g195
L10905L
tp390
a(g197
L4538L
tp391
a(g199
L7644L
tp392
a(g201
L5161L
tp393
a(g203
L5658L
tp394
a(g205
L3518L
tp395
a(g207
L6389L
tp396
a(g209
L14427L
tp397
a(g211
L2991L
tp398
a(g213
L13644L
tp399
a(g215
L4475L
tp400
a(g217
L12827L
tp401
a(g219
L20900L
tp402
a(g221
L14078L
tp403
a(g223
L4368L
tp404
a(g225
L4423L
tp405
a(g227
L4408L
tp406
a(g229
L10929L
tp407
a(g231
L2835L
tp408
a(g233
L5662L
tp409
a(g235
L10886L
tp410
a(g237
L5712L
tp411
a(g239
L10876L
tp412
a(g241
L5682L
tp413
a(g243
L10860L
tp414
a(g245
L14396L
tp415
a(g247
L33137L
tp416
a(g249
L5705L
tp417
a(g251
L15840L
tp418
a(g253
L4550L
tp419
a(g255
L5114L
tp420
a(g257
L28040L
tp421
a(g259
L4583L
tp422
a(g261
L2841L
tp423
a(g263
L6358L
tp424
a(g265
L6747L
tp425
a(g267
L5126L
tp426
a(g269
L10848L
tp427
a(g271
L4609L
tp428
a(g273
L4411L
tp429
a(g275
L21900L
tp430
a(g277
L201L
tp431
a(g279
L20770L
tp432
a(g281
L12918L
tp433
a(g283
L33512L
tp434
a(g285
L7683L
tp435
a(g287
L4412L
tp436
a(g289
L10192L
tp437
a(g291
L15852L
tp438
aaI843095
a.