(lp1
(lp2
(Vbiological_process
p3
I296607
tp4
a(Vcellular_component
p5
I97053
tp6
a(Vmolecular_function
p7
I81235
tp8
a(Vorganelle
p9
I26002
tp10
a(Vanatomical structure development
p11
I22511
tp12
a(Vtransport
p13
I15445
tp14
a(Vsignal transduction
p15
I14436
tp16
a(Vcellular nitrogen compound metabolic process
p17
I13027
tp18
a(Vresponse to stress
p19
I11253
tp20
a(Vprotein complex
p21
I11168
tp22
a(Vion binding
p23
I10470
tp24
a(Vsmall molecule metabolic process
p25
I9893
tp26
a(Vbiosynthetic process
p27
I8768
tp28
a(Vcellular protein modification process
p29
I7605
tp30
a(Vcatabolic process
p31
I6921
tp32
a(Vimmune system process
p33
I6592
tp34
a(Vcell differentiation
p35
I5396
tp36
a(Vcellular component assembly
p37
I5021
tp38
a(Vcytosol
p39
I4836
tp40
a(Vlipid metabolic process
p41
I4719
tp42
a(Venzyme binding
p43
I4364
tp44
a(Vlocomotion
p45
I3759
tp46
a(Vnucleolus
p47
I3631
tp48
a(Vplasma membrane
p49
I3493
tp50
a(Vanatomical structure formation involved in morphogenesis
p51
I3402
tp52
a(Vvesicle-mediated transport
p53
I3282
tp54
a(Vnucleus
p55
I3215
tp56
a(Vtransmembrane transporter activity
p57
I3098
tp58
a(Vhomeostatic process
p59
I3003
tp60
a(VDNA binding
p61
I2981
tp62
a(Voxidoreductase activity
p63
I2933
tp64
a(VDNA metabolic process
p65
I2928
tp66
a(Vmacromolecular complex assembly
p67
I2886
tp68
a(Vchromosome organization
p69
I2748
tp70
a(Vcell motility
p71
I2740
tp72
a(Vcytoplasm
p73
I2657
tp74
a(Vcarbohydrate metabolic process
p75
I2594
tp76
a(Vprotein maturation
p77
I2589
tp78
a(Vsignal transducer activity
p79
I2492
tp80
a(Vembryo development
p81
I2396
tp82
a(Vneurological system process
p83
I2395
tp84
a(Vprotein complex assembly
p85
I2350
tp86
a(Vnucleobase-containing compound catabolic process
p87
I2333
tp88
a(Vtransmembrane transport
p89
I2321
tp90
a(Vgrowth
p91
I2298
tp92
a(Vkinase activity
p93
I2228
tp94
a(Vcytoskeletal protein binding
p95
I2225
tp96
a(Vcytoskeleton organization
p97
I2119
tp98
a(VRNA binding
p99
I2065
tp100
a(Vcellular amino acid metabolic process
p101
I1912
tp102
a(Vmitochondrion
p103
I1884
tp104
a(VGolgi apparatus
p105
I1825
tp106
a(Vcytoplasmic membrane-bounded vesicle
p107
I1802
tp108
a(Vlipid binding
p109
I1802
tp110
a(Vcell adhesion
p111
I1671
tp112
a(Vcytoskeleton
p113
I1618
tp114
a(Vpeptidase activity
p115
I1575
tp116
a(Vendoplasmic reticulum
p117
I1559
tp118
a(Vcell proliferation
p119
I1526
tp120
a(Vcell-cell signaling
p121
I1512
tp122
a(Vcell death
p123
I1470
tp124
a(Vmembrane organization
p125
I1428
tp126
a(Vendosome
p127
I1420
tp128
a(Vligase activity
p129
I1396
tp130
a(Venzyme regulator activity
p131
I1382
tp132
a(Vnucleoplasm
p133
I1303
tp134
a(VATPase activity
p135
I1280
tp136
a(Vtranscription factor binding
p137
I1251
tp138
a(Vmicrotubule organizing center
p139
I1244
tp140
a(Vnucleic acid binding transcription factor activity
p141
I1217
tp142
a(Vprotein binding transcription factor activity
p143
I1180
tp144
a(Vstructural molecule activity
p145
I1149
tp146
a(Vcell morphogenesis
p147
I1136
tp148
a(Vsulfur compound metabolic process
p149
I1069
tp150
a(Vextracellular region
p151
I1013
tp152
a(Vprotein targeting
p153
I993
tp154
a(Vcofactor metabolic process
p155
I907
tp156
a(Vextracellular space
p157
I879
tp158
a(Vextracellular matrix organization
p159
I870
tp160
a(Vvacuole
p161
I845
tp162
a(Vtransferase activity, transferring acyl groups
p163
I835
tp164
a(Vsymbiosis, encompassing mutualism through parasitism
p165
I834
tp166
a(VmRNA processing
p167
I824
tp168
a(Vgeneration of precursor metabolites and energy
p169
I794
tp170
a(Vcilium
p171
I710
tp172
a(Vphosphatase activity
p173
I642
tp174
a(Vaging
p175
I637
tp176
a(Vtransferase activity, transferring glycosyl groups
p177
I599
tp178
a(Vreproduction
p179
I598
tp180
a(Vnucleocytoplasmic transport
p181
I582
tp182
a(Vcell cycle
p183
I578
tp184
a(Vcirculatory system process
p185
I572
tp186
a(Vdevelopmental maturation
p187
I570
tp188
a(Vplastid
p189
I565
tp190
a(Vcell division
p191
I550
tp192
a(Vlyase activity
p193
I544
tp194
a(Vcell junction organization
p195
I523
tp196
a(Vlysosome
p197
I499
tp198
a(Vprotein folding
p199
I479
tp200
a(Vhelicase activity
p201
I470
tp202
a(Vmethyltransferase activity
p203
I462
tp204
a(Vmitochondrion organization
p205
I452
tp206
a(Vribonucleoprotein complex assembly
p207
I429
tp208
a(Vnuclease activity
p209
I423
tp210
a(VGTPase activity
p211
I420
tp212
a(Vexternal encapsulating structure
p213
I414
tp214
a(Vcell wall
p215
I405
tp216
a(Vcytoskeleton-dependent intracellular transport
p217
I398
tp218
a(Vsecondary metabolic process
p219
I375
tp220
a(Vchromosome
p221
I373
tp222
a(Vhistone binding
p223
I352
tp224
a(VmRNA binding
p225
I347
tp226
a(Vnuclear envelope
p227
I344
tp228
a(Visomerase activity
p229
I341
tp230
a(Vproteinaceous extracellular matrix
p231
I315
tp232
a(Vstructural constituent of ribosome
p233
I294
tp234
a(Vhydrolase activity, acting on carbon-nitrogen (but not peptide) bonds
p235
I280
tp236
a(Vhydrolase activity, acting on glycosyl bonds
p237
I278
tp238
a(Vmitosis
p239
I275
tp240
a(Vplasma membrane organization
p241
I268
tp242
a(Vcell wall organization or biogenesis
p243
I264
tp244
a(VtRNA metabolic process
p245
I260
tp246
a(Vvacuolar transport
p247
I258
tp248
a(Vperoxisome
p249
I257
tp250
a(Vchromosome segregation
p251
I245
tp252
a(Vnucleotidyltransferase activity
p253
I242
tp254
a(Vtranslation factor activity, nucleic acid binding
p255
I234
tp256
a(Vprotein binding, bridging
p257
I234
tp258
a(Vsmall conjugating protein binding
p259
I221
tp260
a(Vunfolded protein binding
p261
I221
tp262
a(Vlipid particle
p263
I209
tp264
a(Vtranslation
p265
I180
tp266
a(Vribosome
p267
I157
tp268
a(Vprotein transporter activity
p269
I153
tp270
a(Vtransferase activity, transferring alkyl or aryl (other than methyl) groups
p271
I144
tp272
a(Vnuclear chromosome
p273
I122
tp274
a(Vribosome biogenesis
p275
I114
tp276
a(Vintracellular
p277
I104
tp278
a(Vpigmentation
p279
I98
tp280
a(VrRNA binding
p281
I83
tp282
a(Vnitrogen cycle metabolic process
p283
I50
tp284
a(Vthylakoid
p285
I40
tp286
a(Vtransposition
p287
I16
tp288
a(Vphotosynthesis
p289
I13
tp290
a(Vcell
p291
I8
tp292
aa(lp293
(g3
L6372L
tp294
a(g5
L4365L
tp295
a(g7
L2787L
tp296
a(g9
L21685L
tp297
a(g11
L26888L
tp298
a(g13
L5491L
tp299
a(g15
L5801L
tp300
a(g17
L18268L
tp301
a(g19
L5613L
tp302
a(g21
L21693L
tp303
a(g23
L21630L
tp304
a(g25
L22689L
tp305
a(g27
L7192L
tp306
a(g29
L5168L
tp307
a(g31
L7190L
tp308
a(g33
L1781L
tp309
a(g35
L13924L
tp310
a(g37
L13633L
tp311
a(g39
L4599L
tp312
a(g41
L5326L
tp313
a(g43
L12968L
tp314
a(g45
L20507L
tp315
a(g47
L4507L
tp316
a(g49
L4644L
tp317
a(g51
L26682L
tp318
a(g53
L10381L
tp319
a(g55
L4422L
tp320
a(g57
L13690L
tp321
a(g59
L21086L
tp322
a(g61
L2790L
tp323
a(g63
L10598L
tp324
a(g65
L4995L
tp325
a(g67
L31581L
tp326
a(g69
L28228L
tp327
a(g71
L26901L
tp328
a(g73
L4514L
tp329
a(g75
L4725L
tp330
a(g77
L28535L
tp331
a(g79
L3827L
tp332
a(g81
L7881L
tp333
a(g83
L27837L
tp334
a(g85
L5165L
tp335
a(g87
L18282L
tp336
a(g89
L29927L
tp337
a(g91
L20503L
tp338
a(g93
L10466L
tp339
a(g95
L6320L
tp340
a(g97
L5663L
tp341
a(g99
L2830L
tp342
a(g101
L5218L
tp343
a(g103
L4515L
tp344
a(g105
L4567L
tp345
a(g107
L10229L
tp346
a(g109
L6500L
tp347
a(g111
L5791L
tp348
a(g113
L4621L
tp349
a(g115
L6448L
tp350
a(g117
L4556L
tp351
a(g119
L6494L
tp352
a(g121
L5896L
tp353
a(g123
L6436L
tp354
a(g125
L30984L
tp355
a(g127
L4542L
tp356
a(g129
L10950L
tp357
a(g131
L14001L
tp358
a(g133
L4439L
tp359
a(g135
L10963L
tp360
a(g137
L6357L
tp361
a(g139
L4586L
tp362
a(g141
L759L
tp363
a(g143
L677L
tp364
a(g145
L4118L
tp365
a(g147
L594L
tp366
a(g149
L5471L
tp367
a(g151
L4366L
tp368
a(g153
L5302L
tp369
a(g155
L28144L
tp370
a(g157
L4405L
tp371
a(g159
L13967L
tp372
a(g161
L4546L
tp373
a(g163
L10829L
tp374
a(g165
L22810L
tp375
a(g167
L5112L
tp376
a(g169
L4838L
tp377
a(g171
L4684L
tp378
a(g173
L10870L
tp379
a(g175
L6169L
tp380
a(g177
L10840L
tp381
a(g179
L3L
tp382
a(g181
L5582L
tp383
a(g183
L5695L
tp384
a(g185
L2364L
tp385
a(g187
L13274L
tp386
a(g189
L7644L
tp387
a(g191
L28251L
tp388
a(g193
L10905L
tp389
a(g195
L17965L
tp390
a(g197
L4538L
tp391
a(g199
L5161L
tp392
a(g201
L3404L
tp393
a(g203
L6389L
tp394
a(g205
L5658L
tp395
a(g207
L13644L
tp396
a(g209
L3518L
tp397
a(g211
L2991L
tp398
a(g213
L14078L
tp399
a(g215
L4408L
tp400
a(g217
L14427L
tp401
a(g219
L12827L
tp402
a(g221
L4475L
tp403
a(g223
L20900L
tp404
a(g225
L2835L
tp405
a(g227
L4423L
tp406
a(g229
L10929L
tp407
a(g231
L4368L
tp408
a(g233
L2841L
tp409
a(g235
L10886L
tp410
a(g237
L10876L
tp411
a(g239
L5712L
tp412
a(g241
L5662L
tp413
a(g243
L33137L
tp414
a(g245
L5114L
tp415
a(g247
L5682L
tp416
a(g249
L4550L
tp417
a(g251
L5705L
tp418
a(g253
L10860L
tp419
a(g255
L6358L
tp420
a(g257
L14396L
tp421
a(g259
L15840L
tp422
a(g261
L28040L
tp423
a(g263
L4583L
tp424
a(g265
L5126L
tp425
a(g267
L4609L
tp426
a(g269
L6747L
tp427
a(g271
L10848L
tp428
a(g273
L201L
tp429
a(g275
L20770L
tp430
a(g277
L4411L
tp431
a(g279
L21900L
tp432
a(g281
L12918L
tp433
a(g283
L33512L
tp434
a(g285
L7683L
tp435
a(g287
L15852L
tp436
a(g289
L10192L
tp437
a(g291
L4412L
tp438
aaI806178
a.