(lp1
(lp2
(Vbiological_process
p3
I287686
tp4
a(Vcellular_component
p5
I95484
tp6
a(Vmolecular_function
p7
I79703
tp8
a(Vorganelle
p9
I25102
tp10
a(Vanatomical structure development
p11
I21842
tp12
a(Vtransport
p13
I15912
tp14
a(Vsignal transduction
p15
I13572
tp16
a(Vcellular nitrogen compound metabolic process
p17
I12155
tp18
a(Vprotein complex
p19
I11005
tp20
a(Vresponse to stress
p21
I10500
tp22
a(Vion binding
p23
I9903
tp24
a(Vsmall molecule metabolic process
p25
I8947
tp26
a(Vbiosynthetic process
p27
I7628
tp28
a(Vcellular protein modification process
p29
I7425
tp30
a(Vcatabolic process
p31
I6251
tp32
a(Vimmune system process
p33
I6005
tp34
a(Vcell differentiation
p35
I5291
tp36
a(Vcellular component assembly
p37
I4887
tp38
a(Vcytosol
p39
I4554
tp40
a(Venzyme binding
p41
I4530
tp42
a(Vlipid metabolic process
p43
I4262
tp44
a(Vlocomotion
p45
I3905
tp46
a(Vanatomical structure formation involved in morphogenesis
p47
I3522
tp48
a(Vvesicle-mediated transport
p49
I3404
tp50
a(Vplasma membrane
p51
I3364
tp52
a(Vnucleolus
p53
I3361
tp54
a(Vtransmembrane transporter activity
p55
I3201
tp56
a(Vnucleus
p57
I3175
tp58
a(VDNA metabolic process
p59
I3003
tp60
a(Vhomeostatic process
p61
I2931
tp62
a(VDNA binding
p63
I2894
tp64
a(Vcell motility
p65
I2870
tp66
a(Vchromosome organization
p67
I2774
tp68
a(Vmacromolecular complex assembly
p69
I2706
tp70
a(Vcytoplasm
p71
I2637
tp72
a(Vneurological system process
p73
I2582
tp74
a(Vcarbohydrate metabolic process
p75
I2462
tp76
a(Vtransmembrane transport
p77
I2439
tp78
a(Voxidoreductase activity
p79
I2427
tp80
a(Vcytoskeletal protein binding
p81
I2362
tp82
a(Vsignal transducer activity
p83
I2293
tp84
a(Vgrowth
p85
I2243
tp86
a(Vprotein maturation
p87
I2235
tp88
a(Vcytoskeleton organization
p89
I2205
tp90
a(Vkinase activity
p91
I2199
tp92
a(Vprotein complex assembly
p93
I2187
tp94
a(Vnucleobase-containing compound catabolic process
p95
I2182
tp96
a(Vembryo development
p97
I2166
tp98
a(Vcytoplasmic membrane-bounded vesicle
p99
I1811
tp100
a(Vlipid binding
p101
I1801
tp102
a(VGolgi apparatus
p103
I1794
tp104
a(Vcell adhesion
p105
I1784
tp106
a(Vmitochondrion
p107
I1699
tp108
a(VRNA binding
p109
I1666
tp110
a(Vcellular amino acid metabolic process
p111
I1619
tp112
a(Vcytoskeleton
p113
I1612
tp114
a(Vmembrane organization
p115
I1557
tp116
a(Vcell-cell signaling
p117
I1490
tp118
a(Vpeptidase activity
p119
I1465
tp120
a(Vendosome
p121
I1458
tp122
a(Venzyme regulator activity
p123
I1448
tp124
a(Vendoplasmic reticulum
p125
I1434
tp126
a(VATPase activity
p127
I1406
tp128
a(Vligase activity
p129
I1393
tp130
a(Vcell proliferation
p131
I1361
tp132
a(Vcell death
p133
I1319
tp134
a(Vcell morphogenesis
p135
I1267
tp136
a(Vtranscription factor binding
p137
I1261
tp138
a(Vmicrotubule organizing center
p139
I1220
tp140
a(Vnucleoplasm
p141
I1213
tp142
a(Vprotein binding transcription factor activity
p143
I1206
tp144
a(Vnucleic acid binding transcription factor activity
p145
I1076
tp146
a(Vstructural molecule activity
p147
I1063
tp148
a(Vextracellular region
p149
I954
tp150
a(Vsulfur compound metabolic process
p151
I913
tp152
a(Vextracellular space
p153
I876
tp154
a(Vextracellular matrix organization
p155
I854
tp156
a(Vprotein targeting
p157
I835
tp158
a(Vcilium
p159
I815
tp160
a(Vcofactor metabolic process
p161
I790
tp162
a(Vsymbiosis, encompassing mutualism through parasitism
p163
I763
tp164
a(VmRNA processing
p165
I750
tp166
a(Vtransferase activity, transferring acyl groups
p167
I735
tp168
a(Vvacuole
p169
I729
tp170
a(Vgeneration of precursor metabolites and energy
p171
I710
tp172
a(Vphosphatase activity
p173
I677
tp174
a(Vaging
p175
I604
tp176
a(Vcell junction organization
p177
I602
tp178
a(Vcell cycle
p179
I588
tp180
a(Vnucleocytoplasmic transport
p181
I587
tp182
a(Vtransferase activity, transferring glycosyl groups
p183
I577
tp184
a(Vreproduction
p185
I546
tp186
a(Vhelicase activity
p187
I529
tp188
a(Vcirculatory system process
p189
I507
tp190
a(Vdevelopmental maturation
p191
I496
tp192
a(Vcell division
p193
I489
tp194
a(Vlyase activity
p195
I463
tp196
a(Vcytoskeleton-dependent intracellular transport
p197
I457
tp198
a(Vmitochondrion organization
p199
I450
tp200
a(Vnuclease activity
p201
I440
tp202
a(Vlysosome
p203
I432
tp204
a(Vmethyltransferase activity
p205
I423
tp206
a(Vplastid
p207
I411
tp208
a(Vribonucleoprotein complex assembly
p209
I402
tp210
a(Vprotein folding
p211
I391
tp212
a(Vhistone binding
p213
I377
tp214
a(Vproteinaceous extracellular matrix
p215
I373
tp216
a(Vnuclear envelope
p217
I350
tp218
a(Vchromosome
p219
I344
tp220
a(Vsecondary metabolic process
p221
I324
tp222
a(Vplasma membrane organization
p223
I322
tp224
a(VGTPase activity
p225
I316
tp226
a(Visomerase activity
p227
I282
tp228
a(VmRNA binding
p229
I276
tp230
a(Vexternal encapsulating structure
p231
I265
tp232
a(Vhydrolase activity, acting on glycosyl bonds
p233
I264
tp234
a(Vhydrolase activity, acting on carbon-nitrogen (but not peptide) bonds
p235
I261
tp236
a(Vnucleotidyltransferase activity
p237
I259
tp238
a(Vvacuolar transport
p239
I259
tp240
a(Vprotein binding, bridging
p241
I257
tp242
a(Vcell wall
p243
I257
tp244
a(Vmitosis
p245
I242
tp246
a(Vsmall conjugating protein binding
p247
I241
tp248
a(Vcell wall organization or biogenesis
p249
I229
tp250
a(Vchromosome segregation
p251
I220
tp252
a(VtRNA metabolic process
p253
I211
tp254
a(Vperoxisome
p255
I210
tp256
a(Vprotein transporter activity
p257
I207
tp258
a(Vlipid particle
p259
I166
tp260
a(Vunfolded protein binding
p261
I166
tp262
a(Vtranslation factor activity, nucleic acid binding
p263
I163
tp264
a(Vstructural constituent of ribosome
p265
I161
tp266
a(Vtranslation
p267
I132
tp268
a(Vribosome
p269
I119
tp270
a(Vtransferase activity, transferring alkyl or aryl (other than methyl) groups
p271
I107
tp272
a(Vintracellular
p273
I106
tp274
a(Vpigmentation
p275
I101
tp276
a(Vnuclear chromosome
p277
I99
tp278
a(Vribosome biogenesis
p279
I86
tp280
a(VrRNA binding
p281
I53
tp282
a(Vnitrogen cycle metabolic process
p283
I42
tp284
a(Vthylakoid
p285
I33
tp286
a(Vcell
p287
I19
tp288
a(Vphotosynthesis
p289
I9
tp290
a(Vtransposition
p291
I5
tp292
aa(lp293
(g3
L6372L
tp294
a(g5
L4365L
tp295
a(g7
L2787L
tp296
a(g9
L21685L
tp297
a(g11
L26888L
tp298
a(g13
L5491L
tp299
a(g15
L5801L
tp300
a(g17
L18268L
tp301
a(g19
L21693L
tp302
a(g21
L5613L
tp303
a(g23
L21630L
tp304
a(g25
L22689L
tp305
a(g27
L7192L
tp306
a(g29
L5168L
tp307
a(g31
L7190L
tp308
a(g33
L1781L
tp309
a(g35
L13924L
tp310
a(g37
L13633L
tp311
a(g39
L4599L
tp312
a(g41
L12968L
tp313
a(g43
L5326L
tp314
a(g45
L20507L
tp315
a(g47
L26682L
tp316
a(g49
L10381L
tp317
a(g51
L4644L
tp318
a(g53
L4507L
tp319
a(g55
L13690L
tp320
a(g57
L4422L
tp321
a(g59
L4995L
tp322
a(g61
L21086L
tp323
a(g63
L2790L
tp324
a(g65
L26901L
tp325
a(g67
L28228L
tp326
a(g69
L31581L
tp327
a(g71
L4514L
tp328
a(g73
L27837L
tp329
a(g75
L4725L
tp330
a(g77
L29927L
tp331
a(g79
L10598L
tp332
a(g81
L6320L
tp333
a(g83
L3827L
tp334
a(g85
L20503L
tp335
a(g87
L28535L
tp336
a(g89
L5663L
tp337
a(g91
L10466L
tp338
a(g93
L5165L
tp339
a(g95
L18282L
tp340
a(g97
L7881L
tp341
a(g99
L10229L
tp342
a(g101
L6500L
tp343
a(g103
L4567L
tp344
a(g105
L5791L
tp345
a(g107
L4515L
tp346
a(g109
L2830L
tp347
a(g111
L5218L
tp348
a(g113
L4621L
tp349
a(g115
L30984L
tp350
a(g117
L5896L
tp351
a(g119
L6448L
tp352
a(g121
L4542L
tp353
a(g123
L14001L
tp354
a(g125
L4556L
tp355
a(g127
L10963L
tp356
a(g129
L10950L
tp357
a(g131
L6494L
tp358
a(g133
L6436L
tp359
a(g135
L594L
tp360
a(g137
L6357L
tp361
a(g139
L4586L
tp362
a(g141
L4439L
tp363
a(g143
L677L
tp364
a(g145
L759L
tp365
a(g147
L4118L
tp366
a(g149
L4366L
tp367
a(g151
L5471L
tp368
a(g153
L4405L
tp369
a(g155
L13967L
tp370
a(g157
L5302L
tp371
a(g159
L4684L
tp372
a(g161
L28144L
tp373
a(g163
L22810L
tp374
a(g165
L5112L
tp375
a(g167
L10829L
tp376
a(g169
L4546L
tp377
a(g171
L4838L
tp378
a(g173
L10870L
tp379
a(g175
L6169L
tp380
a(g177
L17965L
tp381
a(g179
L5695L
tp382
a(g181
L5582L
tp383
a(g183
L10840L
tp384
a(g185
L3L
tp385
a(g187
L3404L
tp386
a(g189
L2364L
tp387
a(g191
L13274L
tp388
a(g193
L28251L
tp389
a(g195
L10905L
tp390
a(g197
L14427L
tp391
a(g199
L5658L
tp392
a(g201
L3518L
tp393
a(g203
L4538L
tp394
a(g205
L6389L
tp395
a(g207
L7644L
tp396
a(g209
L13644L
tp397
a(g211
L5161L
tp398
a(g213
L20900L
tp399
a(g215
L4368L
tp400
a(g217
L4423L
tp401
a(g219
L4475L
tp402
a(g221
L12827L
tp403
a(g223
L5662L
tp404
a(g225
L2991L
tp405
a(g227
L10929L
tp406
a(g229
L2835L
tp407
a(g231
L14078L
tp408
a(g233
L10876L
tp409
a(g235
L10886L
tp410
a(g237
L10860L
tp411
a(g239
L5682L
tp412
a(g241
L14396L
tp413
a(g243
L4408L
tp414
a(g245
L5712L
tp415
a(g247
L15840L
tp416
a(g249
L33137L
tp417
a(g251
L5705L
tp418
a(g253
L5114L
tp419
a(g255
L4550L
tp420
a(g257
L6747L
tp421
a(g259
L4583L
tp422
a(g261
L28040L
tp423
a(g263
L6358L
tp424
a(g265
L2841L
tp425
a(g267
L5126L
tp426
a(g269
L4609L
tp427
a(g271
L10848L
tp428
a(g273
L4411L
tp429
a(g275
L21900L
tp430
a(g277
L201L
tp431
a(g279
L20770L
tp432
a(g281
L12918L
tp433
a(g283
L33512L
tp434
a(g285
L7683L
tp435
a(g287
L4412L
tp436
a(g289
L10192L
tp437
a(g291
L15852L
tp438
aaI780504
a.