(lp1
(lp2
(Vbiological_process
p3
I265055
tp4
a(Vcellular_component
p5
I84184
tp6
a(Vmolecular_function
p7
I68378
tp8
a(Vorganelle
p9
I21837
tp10
a(Vanatomical structure development
p11
I20681
tp12
a(Vtransport
p13
I14540
tp14
a(Vsignal transduction
p15
I12467
tp16
a(Vcellular nitrogen compound metabolic process
p17
I9992
tp18
a(Vresponse to stress
p19
I9300
tp20
a(Vprotein complex
p21
I8982
tp22
a(Vion binding
p23
I8079
tp24
a(Vsmall molecule metabolic process
p25
I7677
tp26
a(Vbiosynthetic process
p27
I6778
tp28
a(Vcellular protein modification process
p29
I6164
tp30
a(Vimmune system process
p31
I5110
tp32
a(Vcatabolic process
p33
I5100
tp34
a(Vcell differentiation
p35
I4853
tp36
a(Vcellular component assembly
p37
I4017
tp38
a(Venzyme binding
p39
I3668
tp40
a(Vcytosol
p41
I3603
tp42
a(Vlipid metabolic process
p43
I3592
tp44
a(Vlocomotion
p45
I3281
tp46
a(Vtransmembrane transporter activity
p47
I3149
tp48
a(Vplasma membrane
p49
I3106
tp50
a(Vanatomical structure formation involved in morphogenesis
p51
I3040
tp52
a(Vvesicle-mediated transport
p53
I2798
tp54
a(Vnucleus
p55
I2770
tp56
a(Vnucleolus
p57
I2737
tp58
a(Vsignal transducer activity
p59
I2697
tp60
a(Vhomeostatic process
p61
I2661
tp62
a(VDNA binding
p63
I2529
tp64
a(Vneurological system process
p65
I2472
tp66
a(Vcell motility
p67
I2422
tp68
a(VDNA metabolic process
p69
I2422
tp70
a(Vcytoplasm
p71
I2288
tp72
a(Vtransmembrane transport
p73
I2273
tp74
a(Vmacromolecular complex assembly
p75
I2250
tp76
a(Vchromosome organization
p77
I2224
tp78
a(Vcarbohydrate metabolic process
p79
I2132
tp80
a(Voxidoreductase activity
p81
I2030
tp82
a(Vgrowth
p83
I1994
tp84
a(Vprotein maturation
p85
I1962
tp86
a(Vcytoskeletal protein binding
p87
I1938
tp88
a(Vembryo development
p89
I1853
tp90
a(Vprotein complex assembly
p91
I1842
tp92
a(Vkinase activity
p93
I1759
tp94
a(Vcytoskeleton organization
p95
I1741
tp96
a(Vcell-cell signaling
p97
I1736
tp98
a(Vnucleobase-containing compound catabolic process
p99
I1643
tp100
a(Vcytoplasmic membrane-bounded vesicle
p101
I1596
tp102
a(VGolgi apparatus
p103
I1474
tp104
a(Vcell adhesion
p105
I1472
tp106
a(Vlipid binding
p107
I1456
tp108
a(Vcytoskeleton
p109
I1375
tp110
a(Vcellular amino acid metabolic process
p111
I1371
tp112
a(Vmitochondrion
p113
I1342
tp114
a(VRNA binding
p115
I1316
tp116
a(Vpeptidase activity
p117
I1295
tp118
a(Vmembrane organization
p119
I1291
tp120
a(Vendoplasmic reticulum
p121
I1254
tp122
a(Vcell proliferation
p123
I1206
tp124
a(Vendosome
p125
I1176
tp126
a(Vcell death
p127
I1168
tp128
a(Venzyme regulator activity
p129
I1143
tp130
a(Vcell morphogenesis
p131
I1091
tp132
a(Vtranscription factor binding
p133
I1070
tp134
a(Vligase activity
p135
I1066
tp136
a(VATPase activity
p137
I1024
tp138
a(Vnucleic acid binding transcription factor activity
p139
I1010
tp140
a(Vprotein binding transcription factor activity
p141
I1010
tp142
a(Vmicrotubule organizing center
p143
I988
tp144
a(Vnucleoplasm
p145
I962
tp146
a(Vsulfur compound metabolic process
p147
I896
tp148
a(Vextracellular region
p149
I877
tp150
a(Vextracellular space
p151
I833
tp152
a(Vstructural molecule activity
p153
I832
tp154
a(Vextracellular matrix organization
p155
I785
tp156
a(Vcilium
p157
I712
tp158
a(Vcirculatory system process
p159
I679
tp160
a(Vvacuole
p161
I677
tp162
a(Vtransferase activity, transferring acyl groups
p163
I666
tp164
a(Vcofactor metabolic process
p165
I646
tp166
a(Vprotein targeting
p167
I627
tp168
a(Vsymbiosis, encompassing mutualism through parasitism
p169
I593
tp170
a(VmRNA processing
p171
I576
tp172
a(Vphosphatase activity
p173
I566
tp174
a(Vgeneration of precursor metabolites and energy
p175
I553
tp176
a(Vtransferase activity, transferring glycosyl groups
p177
I539
tp178
a(Vcell cycle
p179
I520
tp180
a(Vaging
p181
I515
tp182
a(Vcell junction organization
p183
I462
tp184
a(Vnucleocytoplasmic transport
p185
I454
tp186
a(Vreproduction
p187
I447
tp188
a(Vcell division
p189
I431
tp190
a(Vdevelopmental maturation
p191
I424
tp192
a(Vhelicase activity
p193
I415
tp194
a(Vlysosome
p195
I407
tp196
a(Vlyase activity
p197
I392
tp198
a(Vmethyltransferase activity
p199
I377
tp200
a(Vmitochondrion organization
p201
I371
tp202
a(Vcytoskeleton-dependent intracellular transport
p203
I345
tp204
a(Vplastid
p205
I344
tp206
a(Vproteinaceous extracellular matrix
p207
I341
tp208
a(Vnuclease activity
p209
I341
tp210
a(Vribonucleoprotein complex assembly
p211
I315
tp212
a(Vprotein folding
p213
I314
tp214
a(Vchromosome
p215
I305
tp216
a(Vplasma membrane organization
p217
I304
tp218
a(Vhistone binding
p219
I286
tp220
a(Vnuclear envelope
p221
I275
tp222
a(VGTPase activity
p223
I274
tp224
a(Vsecondary metabolic process
p225
I273
tp226
a(Vhydrolase activity, acting on glycosyl bonds
p227
I269
tp228
a(Visomerase activity
p229
I235
tp230
a(Vhydrolase activity, acting on carbon-nitrogen (but not peptide) bonds
p231
I228
tp232
a(VmRNA binding
p233
I224
tp234
a(Vexternal encapsulating structure
p235
I223
tp236
a(Vcell wall
p237
I214
tp238
a(Vprotein binding, bridging
p239
I210
tp240
a(Vnucleotidyltransferase activity
p241
I199
tp242
a(Vchromosome segregation
p243
I193
tp244
a(Vvacuolar transport
p245
I191
tp246
a(Vperoxisome
p247
I190
tp248
a(Vcell wall organization or biogenesis
p249
I187
tp250
a(Vmitosis
p251
I185
tp252
a(Vsmall conjugating protein binding
p253
I184
tp254
a(VtRNA metabolic process
p255
I179
tp256
a(Vlipid particle
p257
I142
tp258
a(Vunfolded protein binding
p259
I141
tp260
a(Vprotein transporter activity
p261
I137
tp262
a(Vtranslation factor activity, nucleic acid binding
p263
I134
tp264
a(Vintracellular
p265
I108
tp266
a(Vtranslation
p267
I107
tp268
a(Vribosome
p269
I107
tp270
a(Vtransferase activity, transferring alkyl or aryl (other than methyl) groups
p271
I104
tp272
a(Vstructural constituent of ribosome
p273
I94
tp274
a(Vpigmentation
p275
I90
tp276
a(Vnuclear chromosome
p277
I85
tp278
a(Vribosome biogenesis
p279
I57
tp280
a(VrRNA binding
p281
I43
tp282
a(Vthylakoid
p283
I29
tp284
a(Vnitrogen cycle metabolic process
p285
I26
tp286
a(Vcell
p287
I10
tp288
a(Vphotosynthesis
p289
I6
tp290
a(Vtransposition
p291
I5
tp292
aa(lp293
(g3
L6372L
tp294
a(g5
L4365L
tp295
a(g7
L2787L
tp296
a(g9
L21685L
tp297
a(g11
L26888L
tp298
a(g13
L5491L
tp299
a(g15
L5801L
tp300
a(g17
L18268L
tp301
a(g19
L5613L
tp302
a(g21
L21693L
tp303
a(g23
L21630L
tp304
a(g25
L22689L
tp305
a(g27
L7192L
tp306
a(g29
L5168L
tp307
a(g31
L1781L
tp308
a(g33
L7190L
tp309
a(g35
L13924L
tp310
a(g37
L13633L
tp311
a(g39
L12968L
tp312
a(g41
L4599L
tp313
a(g43
L5326L
tp314
a(g45
L20507L
tp315
a(g47
L13690L
tp316
a(g49
L4644L
tp317
a(g51
L26682L
tp318
a(g53
L10381L
tp319
a(g55
L4422L
tp320
a(g57
L4507L
tp321
a(g59
L3827L
tp322
a(g61
L21086L
tp323
a(g63
L2790L
tp324
a(g65
L27837L
tp325
a(g67
L26901L
tp326
a(g69
L4995L
tp327
a(g71
L4514L
tp328
a(g73
L29927L
tp329
a(g75
L31581L
tp330
a(g77
L28228L
tp331
a(g79
L4725L
tp332
a(g81
L10598L
tp333
a(g83
L20503L
tp334
a(g85
L28535L
tp335
a(g87
L6320L
tp336
a(g89
L7881L
tp337
a(g91
L5165L
tp338
a(g93
L10466L
tp339
a(g95
L5663L
tp340
a(g97
L5896L
tp341
a(g99
L18282L
tp342
a(g101
L10229L
tp343
a(g103
L4567L
tp344
a(g105
L5791L
tp345
a(g107
L6500L
tp346
a(g109
L4621L
tp347
a(g111
L5218L
tp348
a(g113
L4515L
tp349
a(g115
L2830L
tp350
a(g117
L6448L
tp351
a(g119
L30984L
tp352
a(g121
L4556L
tp353
a(g123
L6494L
tp354
a(g125
L4542L
tp355
a(g127
L6436L
tp356
a(g129
L14001L
tp357
a(g131
L594L
tp358
a(g133
L6357L
tp359
a(g135
L10950L
tp360
a(g137
L10963L
tp361
a(g139
L759L
tp362
a(g141
L677L
tp363
a(g143
L4586L
tp364
a(g145
L4439L
tp365
a(g147
L5471L
tp366
a(g149
L4366L
tp367
a(g151
L4405L
tp368
a(g153
L4118L
tp369
a(g155
L13967L
tp370
a(g157
L4684L
tp371
a(g159
L2364L
tp372
a(g161
L4546L
tp373
a(g163
L10829L
tp374
a(g165
L28144L
tp375
a(g167
L5302L
tp376
a(g169
L22810L
tp377
a(g171
L5112L
tp378
a(g173
L10870L
tp379
a(g175
L4838L
tp380
a(g177
L10840L
tp381
a(g179
L5695L
tp382
a(g181
L6169L
tp383
a(g183
L17965L
tp384
a(g185
L5582L
tp385
a(g187
L3L
tp386
a(g189
L28251L
tp387
a(g191
L13274L
tp388
a(g193
L3404L
tp389
a(g195
L4538L
tp390
a(g197
L10905L
tp391
a(g199
L6389L
tp392
a(g201
L5658L
tp393
a(g203
L14427L
tp394
a(g205
L7644L
tp395
a(g207
L4368L
tp396
a(g209
L3518L
tp397
a(g211
L13644L
tp398
a(g213
L5161L
tp399
a(g215
L4475L
tp400
a(g217
L5662L
tp401
a(g219
L20900L
tp402
a(g221
L4423L
tp403
a(g223
L2991L
tp404
a(g225
L12827L
tp405
a(g227
L10876L
tp406
a(g229
L10929L
tp407
a(g231
L10886L
tp408
a(g233
L2835L
tp409
a(g235
L14078L
tp410
a(g237
L4408L
tp411
a(g239
L14396L
tp412
a(g241
L10860L
tp413
a(g243
L5705L
tp414
a(g245
L5682L
tp415
a(g247
L4550L
tp416
a(g249
L33137L
tp417
a(g251
L5712L
tp418
a(g253
L15840L
tp419
a(g255
L5114L
tp420
a(g257
L4583L
tp421
a(g259
L28040L
tp422
a(g261
L6747L
tp423
a(g263
L6358L
tp424
a(g265
L4411L
tp425
a(g267
L5126L
tp426
a(g269
L4609L
tp427
a(g271
L10848L
tp428
a(g273
L2841L
tp429
a(g275
L21900L
tp430
a(g277
L201L
tp431
a(g279
L20770L
tp432
a(g281
L12918L
tp433
a(g283
L7683L
tp434
a(g285
L33512L
tp435
a(g287
L4412L
tp436
a(g289
L10192L
tp437
a(g291
L15852L
tp438
aaI692487
a.