(lp1
(lp2
(Vbiological_process
p3
I238002
tp4
a(Vcellular_component
p5
I79793
tp6
a(Vmolecular_function
p7
I65259
tp8
a(Vorganelle
p9
I21355
tp10
a(Vanatomical structure development
p11
I18564
tp12
a(Vtransport
p13
I13057
tp14
a(Vsignal transduction
p15
I11431
tp16
a(Vcellular nitrogen compound metabolic process
p17
I10094
tp18
a(Vprotein complex
p19
I8557
tp20
a(Vresponse to stress
p21
I8340
tp22
a(Vion binding
p23
I7430
tp24
a(Vsmall molecule metabolic process
p25
I7100
tp26
a(Vbiosynthetic process
p27
I6463
tp28
a(Vcellular protein modification process
p29
I6097
tp30
a(Vimmune system process
p31
I5245
tp32
a(Vcatabolic process
p33
I4824
tp34
a(Vcell differentiation
p35
I4416
tp36
a(Vcellular component assembly
p37
I3589
tp38
a(Vlipid metabolic process
p39
I3488
tp40
a(Vcytosol
p41
I3460
tp42
a(Venzyme binding
p43
I3428
tp44
a(Vplasma membrane
p45
I2931
tp46
a(Vnucleus
p47
I2904
tp48
a(Vlocomotion
p49
I2843
tp50
a(Vnucleolus
p51
I2773
tp52
a(Vtransmembrane transporter activity
p53
I2719
tp54
a(Vcytoplasm
p55
I2665
tp56
a(Vanatomical structure formation involved in morphogenesis
p57
I2659
tp58
a(Vvesicle-mediated transport
p59
I2596
tp60
a(VDNA binding
p61
I2410
tp62
a(VDNA metabolic process
p63
I2367
tp64
a(Vhomeostatic process
p65
I2290
tp66
a(Voxidoreductase activity
p67
I2144
tp68
a(Vtransmembrane transport
p69
I2123
tp70
a(Vsignal transducer activity
p71
I2037
tp72
a(Vchromosome organization
p73
I2027
tp74
a(Vcell motility
p75
I2020
tp76
a(Vmacromolecular complex assembly
p77
I1993
tp78
a(Vneurological system process
p79
I1925
tp80
a(Vprotein maturation
p81
I1900
tp82
a(Vcarbohydrate metabolic process
p83
I1856
tp84
a(Vcytoskeletal protein binding
p85
I1802
tp86
a(Vkinase activity
p87
I1735
tp88
a(Vnucleobase-containing compound catabolic process
p89
I1709
tp90
a(Vembryo development
p91
I1698
tp92
a(Vgrowth
p93
I1637
tp94
a(Vprotein complex assembly
p95
I1630
tp96
a(Vcytoskeleton organization
p97
I1541
tp98
a(VRNA binding
p99
I1426
tp100
a(Vmitochondrion
p101
I1408
tp102
a(VGolgi apparatus
p103
I1358
tp104
a(Vcytoplasmic membrane-bounded vesicle
p105
I1353
tp106
a(Vcytoskeleton
p107
I1350
tp108
a(Vlipid binding
p109
I1345
tp110
a(Vcell-cell signaling
p111
I1301
tp112
a(Vcellular amino acid metabolic process
p113
I1235
tp114
a(Vendoplasmic reticulum
p115
I1213
tp116
a(Vpeptidase activity
p117
I1203
tp118
a(Vcell adhesion
p119
I1201
tp120
a(Vligase activity
p121
I1161
tp122
a(Vendosome
p123
I1156
tp124
a(Vmembrane organization
p125
I1154
tp126
a(Venzyme regulator activity
p127
I1141
tp128
a(Vcell proliferation
p129
I1136
tp130
a(Vcell death
p131
I1092
tp132
a(Vtranscription factor binding
p133
I1008
tp134
a(Vnucleic acid binding transcription factor activity
p135
I983
tp136
a(Vnucleoplasm
p137
I983
tp138
a(Vmicrotubule organizing center
p139
I950
tp140
a(Vprotein binding transcription factor activity
p141
I942
tp142
a(VATPase activity
p143
I927
tp144
a(Vcell morphogenesis
p145
I888
tp146
a(Vextracellular region
p147
I843
tp148
a(Vextracellular space
p149
I723
tp150
a(Vsulfur compound metabolic process
p151
I718
tp152
a(Vstructural molecule activity
p153
I702
tp154
a(Vextracellular matrix organization
p155
I642
tp156
a(Vprotein targeting
p157
I632
tp158
a(Vphosphatase activity
p159
I621
tp160
a(Vsymbiosis, encompassing mutualism through parasitism
p161
I618
tp162
a(Vcilium
p163
I616
tp164
a(Vcofactor metabolic process
p165
I613
tp166
a(Vtransferase activity, transferring acyl groups
p167
I612
tp168
a(VmRNA processing
p169
I599
tp170
a(Vvacuole
p171
I594
tp172
a(Vgeneration of precursor metabolites and energy
p173
I547
tp174
a(Vtransferase activity, transferring glycosyl groups
p175
I536
tp176
a(Vcell cycle
p177
I525
tp178
a(Vnucleocytoplasmic transport
p179
I448
tp180
a(Vcirculatory system process
p181
I435
tp182
a(Vcell junction organization
p183
I420
tp184
a(Vhelicase activity
p185
I412
tp186
a(Vreproduction
p187
I405
tp188
a(Vdevelopmental maturation
p189
I398
tp190
a(Vaging
p191
I398
tp192
a(Vnuclease activity
p193
I393
tp194
a(Vmethyltransferase activity
p195
I386
tp196
a(Vmitochondrion organization
p197
I370
tp198
a(Vlysosome
p199
I369
tp200
a(Vcell division
p201
I364
tp202
a(Vlyase activity
p203
I354
tp204
a(Vcytoskeleton-dependent intracellular transport
p205
I324
tp206
a(VGTPase activity
p207
I311
tp208
a(Vprotein folding
p209
I310
tp210
a(Vplasma membrane organization
p211
I298
tp212
a(Vplastid
p213
I290
tp214
a(Vribonucleoprotein complex assembly
p215
I290
tp216
a(Vproteinaceous extracellular matrix
p217
I287
tp218
a(Vhistone binding
p219
I286
tp220
a(Vchromosome
p221
I268
tp222
a(Vhydrolase activity, acting on glycosyl bonds
p223
I243
tp224
a(Vnuclear envelope
p225
I239
tp226
a(Vhydrolase activity, acting on carbon-nitrogen (but not peptide) bonds
p227
I232
tp228
a(Vsecondary metabolic process
p229
I226
tp230
a(VmRNA binding
p231
I219
tp232
a(Visomerase activity
p233
I208
tp234
a(Vnucleotidyltransferase activity
p235
I197
tp236
a(Vvacuolar transport
p237
I195
tp238
a(Vmitosis
p239
I193
tp240
a(Vprotein binding, bridging
p241
I192
tp242
a(Vperoxisome
p243
I182
tp244
a(Vchromosome segregation
p245
I170
tp246
a(Vexternal encapsulating structure
p247
I165
tp248
a(Vintracellular
p249
I161
tp250
a(Vcell wall
p251
I159
tp252
a(Vsmall conjugating protein binding
p253
I153
tp254
a(Vcell wall organization or biogenesis
p255
I152
tp256
a(VtRNA metabolic process
p257
I148
tp258
a(Vtranslation
p259
I135
tp260
a(Vtranslation factor activity, nucleic acid binding
p261
I128
tp262
a(Vstructural constituent of ribosome
p263
I125
tp264
a(Vprotein transporter activity
p265
I125
tp266
a(Vunfolded protein binding
p267
I120
tp268
a(Vlipid particle
p269
I113
tp270
a(Vribosome
p271
I111
tp272
a(Vtransferase activity, transferring alkyl or aryl (other than methyl) groups
p273
I102
tp274
a(Vnuclear chromosome
p275
I81
tp276
a(Vpigmentation
p277
I78
tp278
a(Vribosome biogenesis
p279
I66
tp280
a(VrRNA binding
p281
I58
tp282
a(Vthylakoid
p283
I28
tp284
a(Vnitrogen cycle metabolic process
p285
I27
tp286
a(Vtransposition
p287
I16
tp288
a(Vphotosynthesis
p289
I13
tp290
a(Vcell
p291
I10
tp292
aa(lp293
(g3
L6372L
tp294
a(g5
L4365L
tp295
a(g7
L2787L
tp296
a(g9
L21685L
tp297
a(g11
L26888L
tp298
a(g13
L5491L
tp299
a(g15
L5801L
tp300
a(g17
L18268L
tp301
a(g19
L21693L
tp302
a(g21
L5613L
tp303
a(g23
L21630L
tp304
a(g25
L22689L
tp305
a(g27
L7192L
tp306
a(g29
L5168L
tp307
a(g31
L1781L
tp308
a(g33
L7190L
tp309
a(g35
L13924L
tp310
a(g37
L13633L
tp311
a(g39
L5326L
tp312
a(g41
L4599L
tp313
a(g43
L12968L
tp314
a(g45
L4644L
tp315
a(g47
L4422L
tp316
a(g49
L20507L
tp317
a(g51
L4507L
tp318
a(g53
L13690L
tp319
a(g55
L4514L
tp320
a(g57
L26682L
tp321
a(g59
L10381L
tp322
a(g61
L2790L
tp323
a(g63
L4995L
tp324
a(g65
L21086L
tp325
a(g67
L10598L
tp326
a(g69
L29927L
tp327
a(g71
L3827L
tp328
a(g73
L28228L
tp329
a(g75
L26901L
tp330
a(g77
L31581L
tp331
a(g79
L27837L
tp332
a(g81
L28535L
tp333
a(g83
L4725L
tp334
a(g85
L6320L
tp335
a(g87
L10466L
tp336
a(g89
L18282L
tp337
a(g91
L7881L
tp338
a(g93
L20503L
tp339
a(g95
L5165L
tp340
a(g97
L5663L
tp341
a(g99
L2830L
tp342
a(g101
L4515L
tp343
a(g103
L4567L
tp344
a(g105
L10229L
tp345
a(g107
L4621L
tp346
a(g109
L6500L
tp347
a(g111
L5896L
tp348
a(g113
L5218L
tp349
a(g115
L4556L
tp350
a(g117
L6448L
tp351
a(g119
L5791L
tp352
a(g121
L10950L
tp353
a(g123
L4542L
tp354
a(g125
L30984L
tp355
a(g127
L14001L
tp356
a(g129
L6494L
tp357
a(g131
L6436L
tp358
a(g133
L6357L
tp359
a(g135
L759L
tp360
a(g137
L4439L
tp361
a(g139
L4586L
tp362
a(g141
L677L
tp363
a(g143
L10963L
tp364
a(g145
L594L
tp365
a(g147
L4366L
tp366
a(g149
L4405L
tp367
a(g151
L5471L
tp368
a(g153
L4118L
tp369
a(g155
L13967L
tp370
a(g157
L5302L
tp371
a(g159
L10870L
tp372
a(g161
L22810L
tp373
a(g163
L4684L
tp374
a(g165
L28144L
tp375
a(g167
L10829L
tp376
a(g169
L5112L
tp377
a(g171
L4546L
tp378
a(g173
L4838L
tp379
a(g175
L10840L
tp380
a(g177
L5695L
tp381
a(g179
L5582L
tp382
a(g181
L2364L
tp383
a(g183
L17965L
tp384
a(g185
L3404L
tp385
a(g187
L3L
tp386
a(g189
L13274L
tp387
a(g191
L6169L
tp388
a(g193
L3518L
tp389
a(g195
L6389L
tp390
a(g197
L5658L
tp391
a(g199
L4538L
tp392
a(g201
L28251L
tp393
a(g203
L10905L
tp394
a(g205
L14427L
tp395
a(g207
L2991L
tp396
a(g209
L5161L
tp397
a(g211
L5662L
tp398
a(g213
L7644L
tp399
a(g215
L13644L
tp400
a(g217
L4368L
tp401
a(g219
L20900L
tp402
a(g221
L4475L
tp403
a(g223
L10876L
tp404
a(g225
L4423L
tp405
a(g227
L10886L
tp406
a(g229
L12827L
tp407
a(g231
L2835L
tp408
a(g233
L10929L
tp409
a(g235
L10860L
tp410
a(g237
L5682L
tp411
a(g239
L5712L
tp412
a(g241
L14396L
tp413
a(g243
L4550L
tp414
a(g245
L5705L
tp415
a(g247
L14078L
tp416
a(g249
L4411L
tp417
a(g251
L4408L
tp418
a(g253
L15840L
tp419
a(g255
L33137L
tp420
a(g257
L5114L
tp421
a(g259
L5126L
tp422
a(g261
L6358L
tp423
a(g263
L2841L
tp424
a(g265
L6747L
tp425
a(g267
L28040L
tp426
a(g269
L4583L
tp427
a(g271
L4609L
tp428
a(g273
L10848L
tp429
a(g275
L201L
tp430
a(g277
L21900L
tp431
a(g279
L20770L
tp432
a(g281
L12918L
tp433
a(g283
L7683L
tp434
a(g285
L33512L
tp435
a(g287
L15852L
tp436
a(g289
L10192L
tp437
a(g291
L4412L
tp438
aaI639567
a.