(lp1
(lp2
(Vbiological_process
p3
I91576
tp4
a(Vcellular_component
p5
I32030
tp6
a(Vmolecular_function
p7
I26352
tp8
a(Vorganelle
p9
I8652
tp10
a(Vanatomical structure development
p11
I7318
tp12
a(Vtransport
p13
I5049
tp14
a(Vsignal transduction
p15
I4471
tp16
a(Vcellular nitrogen compound metabolic process
p17
I4234
tp18
a(Vprotein complex
p19
I3275
tp20
a(Vresponse to stress
p21
I3115
tp22
a(Vsmall molecule metabolic process
p23
I2842
tp24
a(Vion binding
p25
I2783
tp26
a(Vbiosynthetic process
p27
I2603
tp28
a(Vcellular protein modification process
p29
I2366
tp30
a(Vimmune system process
p31
I2038
tp32
a(Vcatabolic process
p33
I1854
tp34
a(Vcell differentiation
p35
I1658
tp36
a(Vcytosol
p37
I1386
tp38
a(Vcellular component assembly
p39
I1325
tp40
a(Vlipid metabolic process
p41
I1322
tp42
a(Vcytoplasm
p43
I1307
tp44
a(Vnucleus
p45
I1279
tp46
a(Vplasma membrane
p47
I1231
tp48
a(Venzyme binding
p49
I1216
tp50
a(Vnucleolus
p51
I1157
tp52
a(Vtransmembrane transporter activity
p53
I1050
tp54
a(VDNA binding
p55
I1038
tp56
a(VDNA metabolic process
p57
I1021
tp58
a(Vanatomical structure formation involved in morphogenesis
p59
I1015
tp60
a(Vlocomotion
p61
I968
tp62
a(Vvesicle-mediated transport
p63
I933
tp64
a(Voxidoreductase activity
p65
I906
tp66
a(Vsignal transducer activity
p67
I902
tp68
a(Vtransmembrane transport
p69
I843
tp70
a(Vhomeostatic process
p71
I822
tp72
a(Vmacromolecular complex assembly
p73
I767
tp74
a(Vchromosome organization
p75
I757
tp76
a(Vcarbohydrate metabolic process
p77
I719
tp78
a(Vprotein maturation
p79
I712
tp80
a(Vcell motility
p81
I697
tp82
a(Vnucleobase-containing compound catabolic process
p83
I695
tp84
a(Vkinase activity
p85
I676
tp86
a(Vembryo development
p87
I661
tp88
a(Vcytoskeletal protein binding
p89
I626
tp90
a(Vneurological system process
p91
I619
tp92
a(Vprotein complex assembly
p93
I618
tp94
a(VRNA binding
p95
I609
tp96
a(Vcytoskeleton organization
p97
I571
tp98
a(Vmitochondrion
p99
I566
tp100
a(Vgrowth
p101
I546
tp102
a(Vcytoskeleton
p103
I530
tp104
a(Vcellular amino acid metabolic process
p105
I526
tp106
a(Vcell-cell signaling
p107
I525
tp108
a(VGolgi apparatus
p109
I511
tp110
a(Vpeptidase activity
p111
I506
tp112
a(Vcytoplasmic membrane-bounded vesicle
p113
I485
tp114
a(Vendoplasmic reticulum
p115
I480
tp116
a(Vligase activity
p117
I452
tp118
a(Vnucleic acid binding transcription factor activity
p119
I444
tp120
a(Vlipid binding
p121
I440
tp122
a(Vmembrane organization
p123
I434
tp124
a(Vnucleoplasm
p125
I419
tp126
a(Vcell proliferation
p127
I417
tp128
a(Vendosome
p129
I417
tp130
a(Venzyme regulator activity
p131
I406
tp132
a(Vcell death
p133
I400
tp134
a(Vtranscription factor binding
p135
I391
tp136
a(Vcell adhesion
p137
I387
tp138
a(Vextracellular region
p139
I371
tp140
a(Vmicrotubule organizing center
p141
I370
tp142
a(Vprotein binding transcription factor activity
p143
I344
tp144
a(VATPase activity
p145
I321
tp146
a(Vsulfur compound metabolic process
p147
I308
tp148
a(Vcell morphogenesis
p149
I301
tp150
a(Vextracellular space
p151
I290
tp152
a(Vstructural molecule activity
p153
I289
tp154
a(Vcofactor metabolic process
p155
I262
tp156
a(Vextracellular matrix organization
p157
I259
tp158
a(Vtransferase activity, transferring acyl groups
p159
I249
tp160
a(VmRNA processing
p161
I247
tp162
a(Vphosphatase activity
p163
I247
tp164
a(Vtransferase activity, transferring glycosyl groups
p165
I239
tp166
a(Vsymbiosis, encompassing mutualism through parasitism
p167
I234
tp168
a(Vcilium
p169
I231
tp170
a(Vprotein targeting
p171
I218
tp172
a(Vgeneration of precursor metabolites and energy
p173
I212
tp174
a(Vcell cycle
p175
I204
tp176
a(Vvacuole
p177
I196
tp178
a(Vnuclease activity
p179
I182
tp180
a(Vcirculatory system process
p181
I173
tp182
a(Vnucleocytoplasmic transport
p183
I171
tp184
a(Vmethyltransferase activity
p185
I170
tp186
a(Vhelicase activity
p187
I169
tp188
a(Vlyase activity
p189
I154
tp190
a(Vreproduction
p191
I151
tp192
a(Vcell junction organization
p193
I147
tp194
a(VGTPase activity
p195
I146
tp196
a(Vaging
p197
I143
tp198
a(Vmitochondrion organization
p199
I141
tp200
a(Vplasma membrane organization
p201
I139
tp202
a(Vprotein folding
p203
I134
tp204
a(Vlysosome
p205
I128
tp206
a(Vdevelopmental maturation
p207
I127
tp208
a(Vcell division
p209
I123
tp210
a(Vribonucleoprotein complex assembly
p211
I121
tp212
a(Vproteinaceous extracellular matrix
p213
I111
tp214
a(Vcytoskeleton-dependent intracellular transport
p215
I111
tp216
a(Vhistone binding
p217
I109
tp218
a(Vhydrolase activity, acting on carbon-nitrogen (but not peptide) bonds
p219
I104
tp220
a(Vchromosome
p221
I100
tp222
a(Vnucleotidyltransferase activity
p223
I94
tp224
a(Vhydrolase activity, acting on glycosyl bonds
p225
I90
tp226
a(Vintracellular
p227
I89
tp228
a(VmRNA binding
p229
I88
tp230
a(Visomerase activity
p231
I87
tp232
a(Vplastid
p233
I85
tp234
a(Vsecondary metabolic process
p235
I77
tp236
a(Vnuclear envelope
p237
I75
tp238
a(Vmitosis
p239
I69
tp240
a(Vprotein binding, bridging
p241
I69
tp242
a(Vperoxisome
p243
I69
tp244
a(Vchromosome segregation
p245
I67
tp246
a(Vtranslation
p247
I66
tp248
a(VtRNA metabolic process
p249
I64
tp250
a(Vstructural constituent of ribosome
p251
I63
tp252
a(Vvacuolar transport
p253
I61
tp254
a(Vtranslation factor activity, nucleic acid binding
p255
I55
tp256
a(Vsmall conjugating protein binding
p257
I52
tp258
a(Vunfolded protein binding
p259
I51
tp260
a(Vprotein transporter activity
p261
I49
tp262
a(Vtransferase activity, transferring alkyl or aryl (other than methyl) groups
p263
I48
tp264
a(Vexternal encapsulating structure
p265
I47
tp266
a(Vcell wall
p267
I45
tp268
a(Vcell wall organization or biogenesis
p269
I42
tp270
a(Vribosome
p271
I42
tp272
a(Vlipid particle
p273
I41
tp274
a(Vnuclear chromosome
p275
I33
tp276
a(VrRNA binding
p277
I31
tp278
a(Vribosome biogenesis
p279
I28
tp280
a(Vpigmentation
p281
I26
tp282
a(Vtransposition
p283
I11
tp284
a(Vthylakoid
p285
I9
tp286
a(Vnitrogen cycle metabolic process
p287
I9
tp288
a(Vcell
p289
I6
tp290
a(Vphotosynthesis
p291
I4
tp292
aa(lp293
(g3
L6372L
tp294
a(g5
L4365L
tp295
a(g7
L2787L
tp296
a(g9
L21685L
tp297
a(g11
L26888L
tp298
a(g13
L5491L
tp299
a(g15
L5801L
tp300
a(g17
L18268L
tp301
a(g19
L21693L
tp302
a(g21
L5613L
tp303
a(g23
L22689L
tp304
a(g25
L21630L
tp305
a(g27
L7192L
tp306
a(g29
L5168L
tp307
a(g31
L1781L
tp308
a(g33
L7190L
tp309
a(g35
L13924L
tp310
a(g37
L4599L
tp311
a(g39
L13633L
tp312
a(g41
L5326L
tp313
a(g43
L4514L
tp314
a(g45
L4422L
tp315
a(g47
L4644L
tp316
a(g49
L12968L
tp317
a(g51
L4507L
tp318
a(g53
L13690L
tp319
a(g55
L2790L
tp320
a(g57
L4995L
tp321
a(g59
L26682L
tp322
a(g61
L20507L
tp323
a(g63
L10381L
tp324
a(g65
L10598L
tp325
a(g67
L3827L
tp326
a(g69
L29927L
tp327
a(g71
L21086L
tp328
a(g73
L31581L
tp329
a(g75
L28228L
tp330
a(g77
L4725L
tp331
a(g79
L28535L
tp332
a(g81
L26901L
tp333
a(g83
L18282L
tp334
a(g85
L10466L
tp335
a(g87
L7881L
tp336
a(g89
L6320L
tp337
a(g91
L27837L
tp338
a(g93
L5165L
tp339
a(g95
L2830L
tp340
a(g97
L5663L
tp341
a(g99
L4515L
tp342
a(g101
L20503L
tp343
a(g103
L4621L
tp344
a(g105
L5218L
tp345
a(g107
L5896L
tp346
a(g109
L4567L
tp347
a(g111
L6448L
tp348
a(g113
L10229L
tp349
a(g115
L4556L
tp350
a(g117
L10950L
tp351
a(g119
L759L
tp352
a(g121
L6500L
tp353
a(g123
L30984L
tp354
a(g125
L4439L
tp355
a(g127
L6494L
tp356
a(g129
L4542L
tp357
a(g131
L14001L
tp358
a(g133
L6436L
tp359
a(g135
L6357L
tp360
a(g137
L5791L
tp361
a(g139
L4366L
tp362
a(g141
L4586L
tp363
a(g143
L677L
tp364
a(g145
L10963L
tp365
a(g147
L5471L
tp366
a(g149
L594L
tp367
a(g151
L4405L
tp368
a(g153
L4118L
tp369
a(g155
L28144L
tp370
a(g157
L13967L
tp371
a(g159
L10829L
tp372
a(g161
L5112L
tp373
a(g163
L10870L
tp374
a(g165
L10840L
tp375
a(g167
L22810L
tp376
a(g169
L4684L
tp377
a(g171
L5302L
tp378
a(g173
L4838L
tp379
a(g175
L5695L
tp380
a(g177
L4546L
tp381
a(g179
L3518L
tp382
a(g181
L2364L
tp383
a(g183
L5582L
tp384
a(g185
L6389L
tp385
a(g187
L3404L
tp386
a(g189
L10905L
tp387
a(g191
L3L
tp388
a(g193
L17965L
tp389
a(g195
L2991L
tp390
a(g197
L6169L
tp391
a(g199
L5658L
tp392
a(g201
L5662L
tp393
a(g203
L5161L
tp394
a(g205
L4538L
tp395
a(g207
L13274L
tp396
a(g209
L28251L
tp397
a(g211
L13644L
tp398
a(g213
L4368L
tp399
a(g215
L14427L
tp400
a(g217
L20900L
tp401
a(g219
L10886L
tp402
a(g221
L4475L
tp403
a(g223
L10860L
tp404
a(g225
L10876L
tp405
a(g227
L4411L
tp406
a(g229
L2835L
tp407
a(g231
L10929L
tp408
a(g233
L7644L
tp409
a(g235
L12827L
tp410
a(g237
L4423L
tp411
a(g239
L5712L
tp412
a(g241
L14396L
tp413
a(g243
L4550L
tp414
a(g245
L5705L
tp415
a(g247
L5126L
tp416
a(g249
L5114L
tp417
a(g251
L2841L
tp418
a(g253
L5682L
tp419
a(g255
L6358L
tp420
a(g257
L15840L
tp421
a(g259
L28040L
tp422
a(g261
L6747L
tp423
a(g263
L10848L
tp424
a(g265
L14078L
tp425
a(g267
L4408L
tp426
a(g269
L33137L
tp427
a(g271
L4609L
tp428
a(g273
L4583L
tp429
a(g275
L201L
tp430
a(g277
L12918L
tp431
a(g279
L20770L
tp432
a(g281
L21900L
tp433
a(g283
L15852L
tp434
a(g285
L7683L
tp435
a(g287
L33512L
tp436
a(g289
L4412L
tp437
a(g291
L10192L
tp438
aaI250234
a.