(lp1
(lp2
(Vbiological_process
p3
I251773
tp4
a(Vcellular_component
p5
I86668
tp6
a(Vmolecular_function
p7
I71477
tp8
a(Vorganelle
p9
I23306
tp10
a(Vanatomical structure development
p11
I19173
tp12
a(Vtransport
p13
I13858
tp14
a(Vsignal transduction
p15
I11909
tp16
a(Vcellular nitrogen compound metabolic process
p17
I11527
tp18
a(Vprotein complex
p19
I9608
tp20
a(Vresponse to stress
p21
I9096
tp22
a(Vion binding
p23
I8551
tp24
a(Vsmall molecule metabolic process
p25
I8124
tp26
a(Vbiosynthetic process
p27
I7370
tp28
a(Vcellular protein modification process
p29
I6505
tp30
a(Vcatabolic process
p31
I5571
tp32
a(Vimmune system process
p33
I5221
tp34
a(Vcell differentiation
p35
I4532
tp36
a(Vcellular component assembly
p37
I4134
tp38
a(Vcytosol
p39
I4098
tp40
a(Vlipid metabolic process
p41
I3818
tp42
a(Venzyme binding
p43
I3679
tp44
a(Vnucleolus
p45
I3217
tp46
a(Vplasma membrane
p47
I3190
tp48
a(Vnucleus
p49
I3047
tp50
a(Vlocomotion
p51
I3037
tp52
a(Vvesicle-mediated transport
p53
I2908
tp54
a(Vanatomical structure formation involved in morphogenesis
p55
I2884
tp56
a(Vcytoplasm
p57
I2761
tp58
a(VDNA metabolic process
p59
I2725
tp60
a(Vtransmembrane transporter activity
p61
I2707
tp62
a(VDNA binding
p63
I2659
tp64
a(Vhomeostatic process
p65
I2467
tp66
a(Voxidoreductase activity
p67
I2422
tp68
a(Vchromosome organization
p69
I2387
tp70
a(Vmacromolecular complex assembly
p71
I2281
tp72
a(Vsignal transducer activity
p73
I2202
tp74
a(Vcell motility
p75
I2199
tp76
a(Vtransmembrane transport
p77
I2103
tp78
a(Vneurological system process
p79
I2087
tp80
a(Vcarbohydrate metabolic process
p81
I2086
tp82
a(Vcytoskeletal protein binding
p83
I2050
tp84
a(Vnucleobase-containing compound catabolic process
p85
I2002
tp86
a(Vprotein maturation
p87
I1970
tp88
a(Vembryo development
p89
I1948
tp90
a(Vcytoskeleton organization
p91
I1879
tp92
a(Vkinase activity
p93
I1869
tp94
a(Vprotein complex assembly
p95
I1827
tp96
a(Vgrowth
p97
I1792
tp98
a(VRNA binding
p99
I1697
tp100
a(Vmitochondrion
p101
I1576
tp102
a(Vlipid binding
p103
I1559
tp104
a(VGolgi apparatus
p105
I1555
tp106
a(Vcytoplasmic membrane-bounded vesicle
p107
I1535
tp108
a(Vcellular amino acid metabolic process
p109
I1508
tp110
a(Vcytoskeleton
p111
I1483
tp112
a(Vcell-cell signaling
p113
I1356
tp114
a(Vendoplasmic reticulum
p115
I1341
tp116
a(Vpeptidase activity
p117
I1338
tp118
a(Vmembrane organization
p119
I1284
tp120
a(Vcell adhesion
p121
I1257
tp122
a(Vendosome
p123
I1247
tp124
a(Venzyme regulator activity
p125
I1241
tp126
a(Vcell death
p127
I1201
tp128
a(Vligase activity
p129
I1172
tp130
a(Vcell proliferation
p131
I1154
tp132
a(Vnucleoplasm
p133
I1152
tp134
a(Vmicrotubule organizing center
p135
I1115
tp136
a(Vnucleic acid binding transcription factor activity
p137
I1093
tp138
a(Vtranscription factor binding
p139
I1091
tp140
a(VATPase activity
p141
I1050
tp142
a(Vprotein binding transcription factor activity
p143
I1026
tp144
a(Vstructural molecule activity
p145
I955
tp146
a(Vcell morphogenesis
p147
I922
tp148
a(Vextracellular region
p149
I902
tp150
a(Vsulfur compound metabolic process
p151
I895
tp152
a(Vprotein targeting
p153
I795
tp154
a(Vextracellular space
p155
I787
tp156
a(Vextracellular matrix organization
p157
I746
tp158
a(Vcofactor metabolic process
p159
I729
tp160
a(Vtransferase activity, transferring acyl groups
p161
I719
tp162
a(VmRNA processing
p163
I717
tp164
a(Vcilium
p165
I668
tp166
a(Vsymbiosis, encompassing mutualism through parasitism
p167
I661
tp168
a(Vgeneration of precursor metabolites and energy
p169
I651
tp170
a(Vvacuole
p171
I635
tp172
a(Vphosphatase activity
p173
I620
tp174
a(Vtransferase activity, transferring glycosyl groups
p175
I554
tp176
a(Vcell cycle
p177
I552
tp178
a(Vnucleocytoplasmic transport
p179
I502
tp180
a(Vcirculatory system process
p181
I496
tp182
a(Vaging
p183
I495
tp184
a(Vcell junction organization
p185
I477
tp186
a(Vreproduction
p187
I471
tp188
a(Vnuclease activity
p189
I435
tp190
a(Vhelicase activity
p191
I433
tp192
a(Vmethyltransferase activity
p193
I428
tp194
a(Vcell division
p195
I423
tp196
a(Vlyase activity
p197
I419
tp198
a(Vdevelopmental maturation
p199
I397
tp200
a(Vmitochondrion organization
p201
I388
tp202
a(Vlysosome
p203
I385
tp204
a(Vplastid
p205
I377
tp206
a(Vcytoskeleton-dependent intracellular transport
p207
I368
tp208
a(Vribonucleoprotein complex assembly
p209
I360
tp210
a(Vprotein folding
p211
I357
tp212
a(VGTPase activity
p213
I345
tp214
a(Vhistone binding
p215
I329
tp216
a(Vchromosome
p217
I319
tp218
a(Vproteinaceous extracellular matrix
p219
I307
tp220
a(Vplasma membrane organization
p221
I298
tp222
a(Vnuclear envelope
p223
I287
tp224
a(VmRNA binding
p225
I273
tp226
a(Vsecondary metabolic process
p227
I273
tp228
a(Visomerase activity
p229
I270
tp230
a(Vhydrolase activity, acting on carbon-nitrogen (but not peptide) bonds
p231
I258
tp232
a(Vexternal encapsulating structure
p233
I252
tp234
a(Vcell wall
p235
I246
tp236
a(Vnucleotidyltransferase activity
p237
I240
tp238
a(Vstructural constituent of ribosome
p239
I236
tp240
a(Vhydrolase activity, acting on glycosyl bonds
p241
I232
tp242
a(Vmitosis
p243
I229
tp244
a(Vvacuolar transport
p245
I224
tp246
a(Vprotein binding, bridging
p247
I212
tp248
a(VtRNA metabolic process
p249
I208
tp250
a(Vperoxisome
p251
I208
tp252
a(Vchromosome segregation
p253
I203
tp254
a(Vcell wall organization or biogenesis
p255
I195
tp256
a(Vtranslation factor activity, nucleic acid binding
p257
I182
tp258
a(Vsmall conjugating protein binding
p259
I176
tp260
a(Vtranslation
p261
I157
tp262
a(Vprotein transporter activity
p263
I154
tp264
a(Vunfolded protein binding
p265
I149
tp266
a(Vintracellular
p267
I144
tp268
a(Vlipid particle
p269
I141
tp270
a(Vribosome
p271
I129
tp272
a(Vtransferase activity, transferring alkyl or aryl (other than methyl) groups
p273
I118
tp274
a(Vnuclear chromosome
p275
I103
tp276
a(Vribosome biogenesis
p277
I96
tp278
a(VrRNA binding
p279
I80
tp280
a(Vpigmentation
p281
I79
tp282
a(Vthylakoid
p283
I32
tp284
a(Vnitrogen cycle metabolic process
p285
I27
tp286
a(Vtransposition
p287
I19
tp288
a(Vcell
p289
I11
tp290
a(Vphotosynthesis
p291
I9
tp292
aa(lp293
(g3
L6372L
tp294
a(g5
L4365L
tp295
a(g7
L2787L
tp296
a(g9
L21685L
tp297
a(g11
L26888L
tp298
a(g13
L5491L
tp299
a(g15
L5801L
tp300
a(g17
L18268L
tp301
a(g19
L21693L
tp302
a(g21
L5613L
tp303
a(g23
L21630L
tp304
a(g25
L22689L
tp305
a(g27
L7192L
tp306
a(g29
L5168L
tp307
a(g31
L7190L
tp308
a(g33
L1781L
tp309
a(g35
L13924L
tp310
a(g37
L13633L
tp311
a(g39
L4599L
tp312
a(g41
L5326L
tp313
a(g43
L12968L
tp314
a(g45
L4507L
tp315
a(g47
L4644L
tp316
a(g49
L4422L
tp317
a(g51
L20507L
tp318
a(g53
L10381L
tp319
a(g55
L26682L
tp320
a(g57
L4514L
tp321
a(g59
L4995L
tp322
a(g61
L13690L
tp323
a(g63
L2790L
tp324
a(g65
L21086L
tp325
a(g67
L10598L
tp326
a(g69
L28228L
tp327
a(g71
L31581L
tp328
a(g73
L3827L
tp329
a(g75
L26901L
tp330
a(g77
L29927L
tp331
a(g79
L27837L
tp332
a(g81
L4725L
tp333
a(g83
L6320L
tp334
a(g85
L18282L
tp335
a(g87
L28535L
tp336
a(g89
L7881L
tp337
a(g91
L5663L
tp338
a(g93
L10466L
tp339
a(g95
L5165L
tp340
a(g97
L20503L
tp341
a(g99
L2830L
tp342
a(g101
L4515L
tp343
a(g103
L6500L
tp344
a(g105
L4567L
tp345
a(g107
L10229L
tp346
a(g109
L5218L
tp347
a(g111
L4621L
tp348
a(g113
L5896L
tp349
a(g115
L4556L
tp350
a(g117
L6448L
tp351
a(g119
L30984L
tp352
a(g121
L5791L
tp353
a(g123
L4542L
tp354
a(g125
L14001L
tp355
a(g127
L6436L
tp356
a(g129
L10950L
tp357
a(g131
L6494L
tp358
a(g133
L4439L
tp359
a(g135
L4586L
tp360
a(g137
L759L
tp361
a(g139
L6357L
tp362
a(g141
L10963L
tp363
a(g143
L677L
tp364
a(g145
L4118L
tp365
a(g147
L594L
tp366
a(g149
L4366L
tp367
a(g151
L5471L
tp368
a(g153
L5302L
tp369
a(g155
L4405L
tp370
a(g157
L13967L
tp371
a(g159
L28144L
tp372
a(g161
L10829L
tp373
a(g163
L5112L
tp374
a(g165
L4684L
tp375
a(g167
L22810L
tp376
a(g169
L4838L
tp377
a(g171
L4546L
tp378
a(g173
L10870L
tp379
a(g175
L10840L
tp380
a(g177
L5695L
tp381
a(g179
L5582L
tp382
a(g181
L2364L
tp383
a(g183
L6169L
tp384
a(g185
L17965L
tp385
a(g187
L3L
tp386
a(g189
L3518L
tp387
a(g191
L3404L
tp388
a(g193
L6389L
tp389
a(g195
L28251L
tp390
a(g197
L10905L
tp391
a(g199
L13274L
tp392
a(g201
L5658L
tp393
a(g203
L4538L
tp394
a(g205
L7644L
tp395
a(g207
L14427L
tp396
a(g209
L13644L
tp397
a(g211
L5161L
tp398
a(g213
L2991L
tp399
a(g215
L20900L
tp400
a(g217
L4475L
tp401
a(g219
L4368L
tp402
a(g221
L5662L
tp403
a(g223
L4423L
tp404
a(g225
L2835L
tp405
a(g227
L12827L
tp406
a(g229
L10929L
tp407
a(g231
L10886L
tp408
a(g233
L14078L
tp409
a(g235
L4408L
tp410
a(g237
L10860L
tp411
a(g239
L2841L
tp412
a(g241
L10876L
tp413
a(g243
L5712L
tp414
a(g245
L5682L
tp415
a(g247
L14396L
tp416
a(g249
L5114L
tp417
a(g251
L4550L
tp418
a(g253
L5705L
tp419
a(g255
L33137L
tp420
a(g257
L6358L
tp421
a(g259
L15840L
tp422
a(g261
L5126L
tp423
a(g263
L6747L
tp424
a(g265
L28040L
tp425
a(g267
L4411L
tp426
a(g269
L4583L
tp427
a(g271
L4609L
tp428
a(g273
L10848L
tp429
a(g275
L201L
tp430
a(g277
L20770L
tp431
a(g279
L12918L
tp432
a(g281
L21900L
tp433
a(g283
L7683L
tp434
a(g285
L33512L
tp435
a(g287
L15852L
tp436
a(g289
L4412L
tp437
a(g291
L10192L
tp438
aaI691904
a.