(lp1
(lp2
(Vbiological_process
p3
I306623
tp4
a(Vcellular_component
p5
I102401
tp6
a(Vmolecular_function
p7
I84032
tp8
a(Vorganelle
p9
I27357
tp10
a(Vanatomical structure development
p11
I23101
tp12
a(Vtransport
p13
I16817
tp14
a(Vsignal transduction
p15
I14398
tp16
a(Vcellular nitrogen compound metabolic process
p17
I13153
tp18
a(Vprotein complex
p19
I11615
tp20
a(Vresponse to stress
p21
I11206
tp22
a(Vion binding
p23
I10415
tp24
a(Vsmall molecule metabolic process
p25
I9540
tp26
a(Vbiosynthetic process
p27
I8627
tp28
a(Vcellular protein modification process
p29
I7870
tp30
a(Vcatabolic process
p31
I6687
tp32
a(Vimmune system process
p33
I6390
tp34
a(Vcell differentiation
p35
I5632
tp36
a(Vcellular component assembly
p37
I5073
tp38
a(Vcytosol
p39
I4786
tp40
a(Venzyme binding
p41
I4675
tp42
a(Vlipid metabolic process
p43
I4662
tp44
a(Vlocomotion
p45
I3944
tp46
a(Vnucleolus
p47
I3676
tp48
a(Vplasma membrane
p49
I3659
tp50
a(Vvesicle-mediated transport
p51
I3638
tp52
a(Vanatomical structure formation involved in morphogenesis
p53
I3513
tp54
a(Vnucleus
p55
I3393
tp56
a(Vtransmembrane transporter activity
p57
I3326
tp58
a(Vhomeostatic process
p59
I3113
tp60
a(VDNA metabolic process
p61
I3050
tp62
a(VDNA binding
p63
I2993
tp64
a(Vchromosome organization
p65
I2900
tp66
a(Vcell motility
p67
I2825
tp68
a(Vcytoplasm
p69
I2812
tp70
a(Vneurological system process
p71
I2774
tp72
a(Voxidoreductase activity
p73
I2754
tp74
a(Vmacromolecular complex assembly
p75
I2740
tp76
a(Vcytoskeletal protein binding
p77
I2600
tp78
a(Vtransmembrane transport
p79
I2540
tp80
a(Vcarbohydrate metabolic process
p81
I2504
tp82
a(Vprotein maturation
p83
I2446
tp84
a(Vsignal transducer activity
p85
I2435
tp86
a(Vgrowth
p87
I2337
tp88
a(Vembryo development
p89
I2324
tp90
a(Vnucleobase-containing compound catabolic process
p91
I2321
tp92
a(Vcytoskeleton organization
p93
I2278
tp94
a(Vkinase activity
p95
I2252
tp96
a(Vprotein complex assembly
p97
I2221
tp98
a(Vlipid binding
p99
I2024
tp100
a(Vcytoplasmic membrane-bounded vesicle
p101
I1918
tp102
a(VRNA binding
p103
I1905
tp104
a(VGolgi apparatus
p105
I1891
tp106
a(Vmitochondrion
p107
I1852
tp108
a(Vcytoskeleton
p109
I1773
tp110
a(Vcellular amino acid metabolic process
p111
I1691
tp112
a(Vcell adhesion
p113
I1684
tp114
a(Vcell-cell signaling
p115
I1607
tp116
a(Vendoplasmic reticulum
p117
I1594
tp118
a(Venzyme regulator activity
p119
I1570
tp120
a(Vmembrane organization
p121
I1570
tp122
a(Vendosome
p123
I1569
tp124
a(Vpeptidase activity
p125
I1529
tp126
a(Vcell death
p127
I1493
tp128
a(Vcell proliferation
p129
I1456
tp130
a(Vligase activity
p131
I1429
tp132
a(VATPase activity
p133
I1335
tp134
a(Vmicrotubule organizing center
p135
I1325
tp136
a(Vtranscription factor binding
p137
I1317
tp138
a(Vnucleoplasm
p139
I1297
tp140
a(Vprotein binding transcription factor activity
p141
I1280
tp142
a(Vcell morphogenesis
p143
I1208
tp144
a(Vnucleic acid binding transcription factor activity
p145
I1188
tp146
a(Vstructural molecule activity
p147
I1079
tp148
a(Vextracellular region
p149
I1003
tp150
a(Vsulfur compound metabolic process
p151
I997
tp152
a(Vprotein targeting
p153
I991
tp154
a(Vextracellular space
p155
I930
tp156
a(Vextracellular matrix organization
p157
I870
tp158
a(Vvacuole
p159
I837
tp160
a(Vtransferase activity, transferring acyl groups
p161
I833
tp162
a(Vcilium
p163
I822
tp164
a(VmRNA processing
p165
I822
tp166
a(Vcofactor metabolic process
p167
I818
tp168
a(Vsymbiosis, encompassing mutualism through parasitism
p169
I811
tp170
a(Vgeneration of precursor metabolites and energy
p171
I774
tp172
a(Vphosphatase activity
p173
I747
tp174
a(Vcell cycle
p175
I669
tp176
a(Vtransferase activity, transferring glycosyl groups
p177
I612
tp178
a(Vnucleocytoplasmic transport
p179
I608
tp180
a(Vaging
p181
I607
tp182
a(Vcell junction organization
p183
I603
tp184
a(Vcirculatory system process
p185
I585
tp186
a(Vreproduction
p187
I574
tp188
a(Vdevelopmental maturation
p189
I541
tp190
a(Vcell division
p191
I541
tp192
a(Vhelicase activity
p193
I507
tp194
a(Vlysosome
p195
I498
tp196
a(Vplastid
p197
I497
tp198
a(Vmitochondrion organization
p199
I476
tp200
a(Vmethyltransferase activity
p201
I474
tp202
a(Vcytoskeleton-dependent intracellular transport
p203
I470
tp204
a(Vlyase activity
p205
I465
tp206
a(Vnuclease activity
p207
I464
tp208
a(Vribonucleoprotein complex assembly
p209
I408
tp210
a(Vprotein folding
p211
I399
tp212
a(Vhistone binding
p213
I397
tp214
a(Vchromosome
p215
I387
tp216
a(Vnuclear envelope
p217
I376
tp218
a(Vproteinaceous extracellular matrix
p219
I372
tp220
a(VGTPase activity
p221
I364
tp222
a(Vsecondary metabolic process
p223
I345
tp224
a(Vexternal encapsulating structure
p225
I323
tp226
a(Vplasma membrane organization
p227
I318
tp228
a(VmRNA binding
p229
I316
tp230
a(Vcell wall
p231
I315
tp232
a(Visomerase activity
p233
I304
tp234
a(Vvacuolar transport
p235
I297
tp236
a(Vhydrolase activity, acting on glycosyl bonds
p237
I295
tp238
a(Vmitosis
p239
I284
tp240
a(Vhydrolase activity, acting on carbon-nitrogen (but not peptide) bonds
p241
I282
tp242
a(Vprotein binding, bridging
p243
I266
tp244
a(Vcell wall organization or biogenesis
p245
I263
tp246
a(Vperoxisome
p247
I252
tp248
a(Vnucleotidyltransferase activity
p249
I249
tp250
a(Vchromosome segregation
p251
I239
tp252
a(Vstructural constituent of ribosome
p253
I235
tp254
a(VtRNA metabolic process
p255
I228
tp256
a(Vsmall conjugating protein binding
p257
I225
tp258
a(Vtranslation factor activity, nucleic acid binding
p259
I200
tp260
a(Vprotein transporter activity
p261
I181
tp262
a(Vlipid particle
p263
I172
tp264
a(Vunfolded protein binding
p265
I167
tp266
a(Vtranslation
p267
I160
tp268
a(Vribosome
p269
I156
tp270
a(Vintracellular
p271
I127
tp272
a(Vtransferase activity, transferring alkyl or aryl (other than methyl) groups
p273
I124
tp274
a(Vnuclear chromosome
p275
I118
tp276
a(Vribosome biogenesis
p277
I106
tp278
a(Vpigmentation
p279
I105
tp280
a(VrRNA binding
p281
I76
tp282
a(Vthylakoid
p283
I42
tp284
a(Vnitrogen cycle metabolic process
p285
I36
tp286
a(Vphotosynthesis
p287
I14
tp288
a(Vtransposition
p289
I13
tp290
a(Vcell
p291
I9
tp292
aa(lp293
(g3
L6372L
tp294
a(g5
L4365L
tp295
a(g7
L2787L
tp296
a(g9
L21685L
tp297
a(g11
L26888L
tp298
a(g13
L5491L
tp299
a(g15
L5801L
tp300
a(g17
L18268L
tp301
a(g19
L21693L
tp302
a(g21
L5613L
tp303
a(g23
L21630L
tp304
a(g25
L22689L
tp305
a(g27
L7192L
tp306
a(g29
L5168L
tp307
a(g31
L7190L
tp308
a(g33
L1781L
tp309
a(g35
L13924L
tp310
a(g37
L13633L
tp311
a(g39
L4599L
tp312
a(g41
L12968L
tp313
a(g43
L5326L
tp314
a(g45
L20507L
tp315
a(g47
L4507L
tp316
a(g49
L4644L
tp317
a(g51
L10381L
tp318
a(g53
L26682L
tp319
a(g55
L4422L
tp320
a(g57
L13690L
tp321
a(g59
L21086L
tp322
a(g61
L4995L
tp323
a(g63
L2790L
tp324
a(g65
L28228L
tp325
a(g67
L26901L
tp326
a(g69
L4514L
tp327
a(g71
L27837L
tp328
a(g73
L10598L
tp329
a(g75
L31581L
tp330
a(g77
L6320L
tp331
a(g79
L29927L
tp332
a(g81
L4725L
tp333
a(g83
L28535L
tp334
a(g85
L3827L
tp335
a(g87
L20503L
tp336
a(g89
L7881L
tp337
a(g91
L18282L
tp338
a(g93
L5663L
tp339
a(g95
L10466L
tp340
a(g97
L5165L
tp341
a(g99
L6500L
tp342
a(g101
L10229L
tp343
a(g103
L2830L
tp344
a(g105
L4567L
tp345
a(g107
L4515L
tp346
a(g109
L4621L
tp347
a(g111
L5218L
tp348
a(g113
L5791L
tp349
a(g115
L5896L
tp350
a(g117
L4556L
tp351
a(g119
L14001L
tp352
a(g121
L30984L
tp353
a(g123
L4542L
tp354
a(g125
L6448L
tp355
a(g127
L6436L
tp356
a(g129
L6494L
tp357
a(g131
L10950L
tp358
a(g133
L10963L
tp359
a(g135
L4586L
tp360
a(g137
L6357L
tp361
a(g139
L4439L
tp362
a(g141
L677L
tp363
a(g143
L594L
tp364
a(g145
L759L
tp365
a(g147
L4118L
tp366
a(g149
L4366L
tp367
a(g151
L5471L
tp368
a(g153
L5302L
tp369
a(g155
L4405L
tp370
a(g157
L13967L
tp371
a(g159
L4546L
tp372
a(g161
L10829L
tp373
a(g163
L4684L
tp374
a(g165
L5112L
tp375
a(g167
L28144L
tp376
a(g169
L22810L
tp377
a(g171
L4838L
tp378
a(g173
L10870L
tp379
a(g175
L5695L
tp380
a(g177
L10840L
tp381
a(g179
L5582L
tp382
a(g181
L6169L
tp383
a(g183
L17965L
tp384
a(g185
L2364L
tp385
a(g187
L3L
tp386
a(g189
L13274L
tp387
a(g191
L28251L
tp388
a(g193
L3404L
tp389
a(g195
L4538L
tp390
a(g197
L7644L
tp391
a(g199
L5658L
tp392
a(g201
L6389L
tp393
a(g203
L14427L
tp394
a(g205
L10905L
tp395
a(g207
L3518L
tp396
a(g209
L13644L
tp397
a(g211
L5161L
tp398
a(g213
L20900L
tp399
a(g215
L4475L
tp400
a(g217
L4423L
tp401
a(g219
L4368L
tp402
a(g221
L2991L
tp403
a(g223
L12827L
tp404
a(g225
L14078L
tp405
a(g227
L5662L
tp406
a(g229
L2835L
tp407
a(g231
L4408L
tp408
a(g233
L10929L
tp409
a(g235
L5682L
tp410
a(g237
L10876L
tp411
a(g239
L5712L
tp412
a(g241
L10886L
tp413
a(g243
L14396L
tp414
a(g245
L33137L
tp415
a(g247
L4550L
tp416
a(g249
L10860L
tp417
a(g251
L5705L
tp418
a(g253
L2841L
tp419
a(g255
L5114L
tp420
a(g257
L15840L
tp421
a(g259
L6358L
tp422
a(g261
L6747L
tp423
a(g263
L4583L
tp424
a(g265
L28040L
tp425
a(g267
L5126L
tp426
a(g269
L4609L
tp427
a(g271
L4411L
tp428
a(g273
L10848L
tp429
a(g275
L201L
tp430
a(g277
L20770L
tp431
a(g279
L21900L
tp432
a(g281
L12918L
tp433
a(g283
L7683L
tp434
a(g285
L33512L
tp435
a(g287
L10192L
tp436
a(g289
L15852L
tp437
a(g291
L4412L
tp438
aaI831003
a.