(lp1
(lp2
(Vbiological_process
p3
I146426
tp4
a(Vcellular_component
p5
I47763
tp6
a(Vmolecular_function
p7
I38907
tp8
a(Vorganelle
p9
I12703
tp10
a(Vanatomical structure development
p11
I11246
tp12
a(Vtransport
p13
I8008
tp14
a(Vsignal transduction
p15
I6960
tp16
a(Vcellular nitrogen compound metabolic process
p17
I5860
tp18
a(Vprotein complex
p19
I5282
tp20
a(Vresponse to stress
p21
I5225
tp22
a(Vion binding
p23
I4647
tp24
a(Vsmall molecule metabolic process
p25
I4258
tp26
a(Vbiosynthetic process
p27
I3860
tp28
a(Vcellular protein modification process
p29
I3731
tp30
a(Vimmune system process
p31
I3207
tp32
a(Vcatabolic process
p33
I2970
tp34
a(Vcell differentiation
p35
I2758
tp36
a(Vcellular component assembly
p37
I2264
tp38
a(Venzyme binding
p39
I2212
tp40
a(Vlipid metabolic process
p41
I2166
tp42
a(Vcytosol
p43
I2074
tp44
a(Vlocomotion
p45
I1875
tp46
a(Vplasma membrane
p47
I1700
tp48
a(Vtransmembrane transporter activity
p49
I1669
tp50
a(Vvesicle-mediated transport
p51
I1663
tp52
a(Vanatomical structure formation involved in morphogenesis
p53
I1644
tp54
a(Vnucleus
p55
I1625
tp56
a(Vnucleolus
p57
I1616
tp58
a(Vhomeostatic process
p59
I1468
tp60
a(VDNA binding
p61
I1372
tp62
a(Vcytoplasm
p63
I1358
tp64
a(VDNA metabolic process
p65
I1346
tp66
a(Vcell motility
p67
I1323
tp68
a(Vneurological system process
p69
I1306
tp70
a(Vtransmembrane transport
p71
I1280
tp72
a(Vchromosome organization
p73
I1270
tp74
a(Voxidoreductase activity
p75
I1238
tp76
a(Vmacromolecular complex assembly
p77
I1226
tp78
a(Vprotein maturation
p79
I1188
tp80
a(Vcytoskeletal protein binding
p81
I1176
tp82
a(Vcarbohydrate metabolic process
p83
I1137
tp84
a(Vsignal transducer activity
p85
I1135
tp86
a(Vgrowth
p87
I1091
tp88
a(Vkinase activity
p89
I1059
tp90
a(Vembryo development
p91
I1037
tp92
a(Vnucleobase-containing compound catabolic process
p93
I1014
tp94
a(Vprotein complex assembly
p95
I1012
tp96
a(Vcytoskeleton organization
p97
I970
tp98
a(Vlipid binding
p99
I905
tp100
a(Vcytoplasmic membrane-bounded vesicle
p101
I868
tp102
a(VGolgi apparatus
p103
I847
tp104
a(Vmitochondrion
p105
I842
tp106
a(Vcytoskeleton
p107
I820
tp108
a(VRNA binding
p109
I817
tp110
a(Vcell adhesion
p111
I814
tp112
a(Vcell-cell signaling
p113
I776
tp114
a(Vendosome
p115
I739
tp116
a(Venzyme regulator activity
p117
I735
tp118
a(Vendoplasmic reticulum
p119
I733
tp120
a(Vmembrane organization
p121
I720
tp122
a(Vcell proliferation
p123
I719
tp124
a(Vcellular amino acid metabolic process
p125
I709
tp126
a(Vligase activity
p127
I709
tp128
a(Vpeptidase activity
p129
I697
tp130
a(Vcell death
p131
I692
tp132
a(Vtranscription factor binding
p133
I617
tp134
a(VATPase activity
p135
I606
tp136
a(Vprotein binding transcription factor activity
p137
I598
tp138
a(Vcell morphogenesis
p139
I587
tp140
a(Vmicrotubule organizing center
p141
I580
tp142
a(Vnucleoplasm
p143
I564
tp144
a(Vnucleic acid binding transcription factor activity
p145
I539
tp146
a(Vextracellular region
p147
I472
tp148
a(Vextracellular space
p149
I433
tp150
a(Vprotein targeting
p151
I414
tp152
a(Vstructural molecule activity
p153
I413
tp154
a(Vsulfur compound metabolic process
p155
I410
tp156
a(Vvacuole
p157
I398
tp158
a(Vcilium
p159
I385
tp160
a(Vsymbiosis, encompassing mutualism through parasitism
p161
I384
tp162
a(Vextracellular matrix organization
p163
I383
tp164
a(Vphosphatase activity
p165
I374
tp166
a(Vtransferase activity, transferring acyl groups
p167
I363
tp168
a(VmRNA processing
p169
I352
tp170
a(Vcofactor metabolic process
p171
I351
tp172
a(Vgeneration of precursor metabolites and energy
p173
I335
tp174
a(Vcell cycle
p175
I321
tp176
a(Vtransferase activity, transferring glycosyl groups
p177
I297
tp178
a(Vnucleocytoplasmic transport
p179
I277
tp180
a(Vcell junction organization
p181
I273
tp182
a(Vdevelopmental maturation
p183
I271
tp184
a(Vcirculatory system process
p185
I262
tp186
a(Vaging
p187
I255
tp188
a(Vreproduction
p189
I254
tp190
a(Vhelicase activity
p191
I243
tp192
a(Vcell division
p193
I241
tp194
a(Vlysosome
p195
I241
tp196
a(Vmitochondrion organization
p197
I229
tp198
a(Vmethyltransferase activity
p199
I216
tp200
a(Vcytoskeleton-dependent intracellular transport
p201
I213
tp202
a(Vnuclease activity
p203
I211
tp204
a(Vplastid
p205
I205
tp206
a(Vlyase activity
p207
I200
tp208
a(Vhistone binding
p209
I177
tp210
a(Vproteinaceous extracellular matrix
p211
I176
tp212
a(Vprotein folding
p213
I176
tp214
a(Vribonucleoprotein complex assembly
p215
I169
tp216
a(Vchromosome
p217
I168
tp218
a(VGTPase activity
p219
I165
tp220
a(Vnuclear envelope
p221
I164
tp222
a(Vplasma membrane organization
p223
I159
tp224
a(Vhydrolase activity, acting on glycosyl bonds
p225
I153
tp226
a(Vsecondary metabolic process
p227
I149
tp228
a(Vvacuolar transport
p229
I134
tp230
a(VmRNA binding
p231
I131
tp232
a(Vhydrolase activity, acting on carbon-nitrogen (but not peptide) bonds
p233
I128
tp234
a(Vmitosis
p235
I124
tp236
a(Vprotein binding, bridging
p237
I123
tp238
a(Visomerase activity
p239
I121
tp240
a(Vexternal encapsulating structure
p241
I118
tp242
a(Vcell wall
p243
I114
tp244
a(Vperoxisome
p245
I113
tp246
a(Vcell wall organization or biogenesis
p247
I110
tp248
a(Vchromosome segregation
p249
I103
tp250
a(Vnucleotidyltransferase activity
p251
I103
tp252
a(Vsmall conjugating protein binding
p253
I101
tp254
a(VtRNA metabolic process
p255
I84
tp256
a(Vprotein transporter activity
p257
I76
tp258
a(Vtranslation factor activity, nucleic acid binding
p259
I73
tp260
a(Vlipid particle
p261
I72
tp262
a(Vintracellular
p263
I72
tp264
a(Vribosome
p265
I69
tp266
a(Vtranslation
p267
I69
tp268
a(Vunfolded protein binding
p269
I69
tp270
a(Vstructural constituent of ribosome
p271
I62
tp272
a(Vtransferase activity, transferring alkyl or aryl (other than methyl) groups
p273
I54
tp274
a(Vpigmentation
p275
I52
tp276
a(Vnuclear chromosome
p277
I48
tp278
a(Vribosome biogenesis
p279
I38
tp280
a(VrRNA binding
p281
I27
tp282
a(Vthylakoid
p283
I19
tp284
a(Vnitrogen cycle metabolic process
p285
I18
tp286
a(Vphotosynthesis
p287
I9
tp288
a(Vtransposition
p289
I5
tp290
a(Vcell
p291
I4
tp292
aa(lp293
(g3
L6372L
tp294
a(g5
L4365L
tp295
a(g7
L2787L
tp296
a(g9
L21685L
tp297
a(g11
L26888L
tp298
a(g13
L5491L
tp299
a(g15
L5801L
tp300
a(g17
L18268L
tp301
a(g19
L21693L
tp302
a(g21
L5613L
tp303
a(g23
L21630L
tp304
a(g25
L22689L
tp305
a(g27
L7192L
tp306
a(g29
L5168L
tp307
a(g31
L1781L
tp308
a(g33
L7190L
tp309
a(g35
L13924L
tp310
a(g37
L13633L
tp311
a(g39
L12968L
tp312
a(g41
L5326L
tp313
a(g43
L4599L
tp314
a(g45
L20507L
tp315
a(g47
L4644L
tp316
a(g49
L13690L
tp317
a(g51
L10381L
tp318
a(g53
L26682L
tp319
a(g55
L4422L
tp320
a(g57
L4507L
tp321
a(g59
L21086L
tp322
a(g61
L2790L
tp323
a(g63
L4514L
tp324
a(g65
L4995L
tp325
a(g67
L26901L
tp326
a(g69
L27837L
tp327
a(g71
L29927L
tp328
a(g73
L28228L
tp329
a(g75
L10598L
tp330
a(g77
L31581L
tp331
a(g79
L28535L
tp332
a(g81
L6320L
tp333
a(g83
L4725L
tp334
a(g85
L3827L
tp335
a(g87
L20503L
tp336
a(g89
L10466L
tp337
a(g91
L7881L
tp338
a(g93
L18282L
tp339
a(g95
L5165L
tp340
a(g97
L5663L
tp341
a(g99
L6500L
tp342
a(g101
L10229L
tp343
a(g103
L4567L
tp344
a(g105
L4515L
tp345
a(g107
L4621L
tp346
a(g109
L2830L
tp347
a(g111
L5791L
tp348
a(g113
L5896L
tp349
a(g115
L4542L
tp350
a(g117
L14001L
tp351
a(g119
L4556L
tp352
a(g121
L30984L
tp353
a(g123
L6494L
tp354
a(g125
L5218L
tp355
a(g127
L10950L
tp356
a(g129
L6448L
tp357
a(g131
L6436L
tp358
a(g133
L6357L
tp359
a(g135
L10963L
tp360
a(g137
L677L
tp361
a(g139
L594L
tp362
a(g141
L4586L
tp363
a(g143
L4439L
tp364
a(g145
L759L
tp365
a(g147
L4366L
tp366
a(g149
L4405L
tp367
a(g151
L5302L
tp368
a(g153
L4118L
tp369
a(g155
L5471L
tp370
a(g157
L4546L
tp371
a(g159
L4684L
tp372
a(g161
L22810L
tp373
a(g163
L13967L
tp374
a(g165
L10870L
tp375
a(g167
L10829L
tp376
a(g169
L5112L
tp377
a(g171
L28144L
tp378
a(g173
L4838L
tp379
a(g175
L5695L
tp380
a(g177
L10840L
tp381
a(g179
L5582L
tp382
a(g181
L17965L
tp383
a(g183
L13274L
tp384
a(g185
L2364L
tp385
a(g187
L6169L
tp386
a(g189
L3L
tp387
a(g191
L3404L
tp388
a(g193
L28251L
tp389
a(g195
L4538L
tp390
a(g197
L5658L
tp391
a(g199
L6389L
tp392
a(g201
L14427L
tp393
a(g203
L3518L
tp394
a(g205
L7644L
tp395
a(g207
L10905L
tp396
a(g209
L20900L
tp397
a(g211
L4368L
tp398
a(g213
L5161L
tp399
a(g215
L13644L
tp400
a(g217
L4475L
tp401
a(g219
L2991L
tp402
a(g221
L4423L
tp403
a(g223
L5662L
tp404
a(g225
L10876L
tp405
a(g227
L12827L
tp406
a(g229
L5682L
tp407
a(g231
L2835L
tp408
a(g233
L10886L
tp409
a(g235
L5712L
tp410
a(g237
L14396L
tp411
a(g239
L10929L
tp412
a(g241
L14078L
tp413
a(g243
L4408L
tp414
a(g245
L4550L
tp415
a(g247
L33137L
tp416
a(g249
L5705L
tp417
a(g251
L10860L
tp418
a(g253
L15840L
tp419
a(g255
L5114L
tp420
a(g257
L6747L
tp421
a(g259
L6358L
tp422
a(g261
L4583L
tp423
a(g263
L4411L
tp424
a(g265
L4609L
tp425
a(g267
L5126L
tp426
a(g269
L28040L
tp427
a(g271
L2841L
tp428
a(g273
L10848L
tp429
a(g275
L21900L
tp430
a(g277
L201L
tp431
a(g279
L20770L
tp432
a(g281
L12918L
tp433
a(g283
L7683L
tp434
a(g285
L33512L
tp435
a(g287
L10192L
tp436
a(g289
L15852L
tp437
a(g291
L4412L
tp438
aaI389333
a.