(lp1
(lp2
(Vbiological_process
p3
I324462
tp4
a(Vcellular_component
p5
I106280
tp6
a(Vmolecular_function
p7
I87639
tp8
a(Vorganelle
p9
I28237
tp10
a(Vanatomical structure development
p11
I24932
tp12
a(Vtransport
p13
I17704
tp14
a(Vsignal transduction
p15
I15253
tp16
a(Vcellular nitrogen compound metabolic process
p17
I13251
tp18
a(Vprotein complex
p19
I11924
tp20
a(Vresponse to stress
p21
I11647
tp22
a(Vion binding
p23
I10633
tp24
a(Vsmall molecule metabolic process
p25
I9469
tp26
a(Vbiosynthetic process
p27
I8351
tp28
a(Vcellular protein modification process
p29
I8322
tp30
a(Vimmune system process
p31
I6895
tp32
a(Vcatabolic process
p33
I6688
tp34
a(Vcell differentiation
p35
I6133
tp36
a(Vcellular component assembly
p37
I5207
tp38
a(Venzyme binding
p39
I4984
tp40
a(Vcytosol
p41
I4756
tp42
a(Vlipid metabolic process
p43
I4747
tp44
a(Vlocomotion
p45
I4303
tp46
a(Vanatomical structure formation involved in morphogenesis
p47
I3823
tp48
a(Vvesicle-mediated transport
p49
I3746
tp50
a(Vplasma membrane
p51
I3698
tp52
a(Vtransmembrane transporter activity
p53
I3684
tp54
a(Vnucleolus
p55
I3666
tp56
a(Vnucleus
p57
I3594
tp58
a(Vhomeostatic process
p59
I3255
tp60
a(VDNA metabolic process
p61
I3221
tp62
a(VDNA binding
p63
I3118
tp64
a(Vcell motility
p65
I3081
tp66
a(Vcytoplasm
p67
I3070
tp68
a(Vchromosome organization
p69
I2981
tp70
a(Vneurological system process
p71
I2880
tp72
a(Vmacromolecular complex assembly
p73
I2798
tp74
a(Vtransmembrane transport
p75
I2774
tp76
a(Voxidoreductase activity
p77
I2697
tp78
a(Vcytoskeletal protein binding
p79
I2634
tp80
a(Vsignal transducer activity
p81
I2555
tp82
a(Vprotein maturation
p83
I2526
tp84
a(Vcarbohydrate metabolic process
p85
I2486
tp86
a(Vkinase activity
p87
I2456
tp88
a(Vgrowth
p89
I2444
tp90
a(Vnucleobase-containing compound catabolic process
p91
I2341
tp92
a(Vembryo development
p93
I2330
tp94
a(Vprotein complex assembly
p95
I2310
tp96
a(Vcytoskeleton organization
p97
I2270
tp98
a(Vlipid binding
p99
I2049
tp100
a(Vcell adhesion
p101
I1973
tp102
a(VGolgi apparatus
p103
I1958
tp104
a(Vcytoplasmic membrane-bounded vesicle
p105
I1956
tp106
a(Vmitochondrion
p107
I1863
tp108
a(Vcytoskeleton
p109
I1828
tp110
a(VRNA binding
p111
I1786
tp112
a(Vcell-cell signaling
p113
I1716
tp114
a(Vendosome
p115
I1663
tp116
a(Vmembrane organization
p117
I1638
tp118
a(Vendoplasmic reticulum
p119
I1608
tp120
a(Vligase activity
p121
I1599
tp122
a(Vcellular amino acid metabolic process
p123
I1597
tp124
a(Venzyme regulator activity
p125
I1584
tp126
a(Vcell proliferation
p127
I1576
tp128
a(Vpeptidase activity
p129
I1571
tp130
a(Vcell death
p131
I1512
tp132
a(VATPase activity
p133
I1446
tp134
a(Vcell morphogenesis
p135
I1384
tp136
a(Vtranscription factor binding
p137
I1372
tp138
a(Vmicrotubule organizing center
p139
I1332
tp140
a(Vprotein binding transcription factor activity
p141
I1327
tp142
a(Vnucleoplasm
p143
I1307
tp144
a(Vnucleic acid binding transcription factor activity
p145
I1226
tp146
a(Vextracellular region
p147
I1049
tp148
a(Vstructural molecule activity
p149
I992
tp150
a(Vextracellular space
p151
I947
tp152
a(Vprotein targeting
p153
I910
tp154
a(Vsulfur compound metabolic process
p155
I890
tp156
a(Vcilium
p157
I888
tp158
a(Vextracellular matrix organization
p159
I870
tp160
a(Vsymbiosis, encompassing mutualism through parasitism
p161
I841
tp162
a(Vvacuole
p163
I836
tp164
a(Vcofactor metabolic process
p165
I813
tp166
a(Vphosphatase activity
p167
I802
tp168
a(Vtransferase activity, transferring acyl groups
p169
I793
tp170
a(VmRNA processing
p171
I787
tp172
a(Vgeneration of precursor metabolites and energy
p173
I722
tp174
a(Vcell cycle
p175
I712
tp176
a(Vcell junction organization
p177
I653
tp178
a(Vtransferase activity, transferring glycosyl groups
p179
I645
tp180
a(Vnucleocytoplasmic transport
p181
I627
tp182
a(Vaging
p183
I620
tp184
a(Vreproduction
p185
I598
tp186
a(Vdevelopmental maturation
p187
I577
tp188
a(Vcirculatory system process
p189
I575
tp190
a(Vhelicase activity
p191
I570
tp192
a(Vcell division
p193
I564
tp194
a(Vnuclease activity
p195
I505
tp196
a(Vlysosome
p197
I503
tp198
a(Vmitochondrion organization
p199
I494
tp200
a(Vcytoskeleton-dependent intracellular transport
p201
I493
tp202
a(Vmethyltransferase activity
p203
I473
tp204
a(Vlyase activity
p205
I451
tp206
a(Vplastid
p207
I424
tp208
a(Vhistone binding
p209
I413
tp210
a(Vproteinaceous extracellular matrix
p211
I404
tp212
a(Vprotein folding
p213
I393
tp214
a(Vchromosome
p215
I385
tp216
a(Vribonucleoprotein complex assembly
p217
I379
tp218
a(Vnuclear envelope
p219
I375
tp220
a(Vplasma membrane organization
p221
I360
tp222
a(VGTPase activity
p223
I346
tp224
a(Vsecondary metabolic process
p225
I339
tp226
a(Vvacuolar transport
p227
I296
tp228
a(Vhydrolase activity, acting on glycosyl bonds
p229
I290
tp230
a(Vmitosis
p231
I286
tp232
a(Vhydrolase activity, acting on carbon-nitrogen (but not peptide) bonds
p233
I283
tp234
a(VmRNA binding
p235
I282
tp236
a(Visomerase activity
p237
I280
tp238
a(Vprotein binding, bridging
p239
I279
tp240
a(Vexternal encapsulating structure
p241
I262
tp242
a(Vnucleotidyltransferase activity
p243
I262
tp244
a(Vcell wall
p245
I253
tp246
a(Vsmall conjugating protein binding
p247
I242
tp248
a(Vcell wall organization or biogenesis
p249
I242
tp250
a(Vchromosome segregation
p251
I233
tp252
a(Vperoxisome
p253
I232
tp254
a(Vprotein transporter activity
p255
I209
tp256
a(VtRNA metabolic process
p257
I197
tp258
a(Vlipid particle
p259
I167
tp260
a(Vtranslation factor activity, nucleic acid binding
p261
I159
tp262
a(Vunfolded protein binding
p263
I155
tp264
a(Vtranslation
p265
I145
tp266
a(Vstructural constituent of ribosome
p267
I142
tp268
a(Vribosome
p269
I137
tp270
a(Vintracellular
p271
I134
tp272
a(Vtransferase activity, transferring alkyl or aryl (other than methyl) groups
p273
I122
tp274
a(Vpigmentation
p275
I117
tp276
a(Vnuclear chromosome
p277
I105
tp278
a(Vribosome biogenesis
p279
I93
tp280
a(VrRNA binding
p281
I56
tp282
a(Vnitrogen cycle metabolic process
p283
I39
tp284
a(Vthylakoid
p285
I38
tp286
a(Vcell
p287
I16
tp288
a(Vphotosynthesis
p289
I14
tp290
a(Vtransposition
p291
I9
tp292
aa(lp293
(g3
L6372L
tp294
a(g5
L4365L
tp295
a(g7
L2787L
tp296
a(g9
L21685L
tp297
a(g11
L26888L
tp298
a(g13
L5491L
tp299
a(g15
L5801L
tp300
a(g17
L18268L
tp301
a(g19
L21693L
tp302
a(g21
L5613L
tp303
a(g23
L21630L
tp304
a(g25
L22689L
tp305
a(g27
L7192L
tp306
a(g29
L5168L
tp307
a(g31
L1781L
tp308
a(g33
L7190L
tp309
a(g35
L13924L
tp310
a(g37
L13633L
tp311
a(g39
L12968L
tp312
a(g41
L4599L
tp313
a(g43
L5326L
tp314
a(g45
L20507L
tp315
a(g47
L26682L
tp316
a(g49
L10381L
tp317
a(g51
L4644L
tp318
a(g53
L13690L
tp319
a(g55
L4507L
tp320
a(g57
L4422L
tp321
a(g59
L21086L
tp322
a(g61
L4995L
tp323
a(g63
L2790L
tp324
a(g65
L26901L
tp325
a(g67
L4514L
tp326
a(g69
L28228L
tp327
a(g71
L27837L
tp328
a(g73
L31581L
tp329
a(g75
L29927L
tp330
a(g77
L10598L
tp331
a(g79
L6320L
tp332
a(g81
L3827L
tp333
a(g83
L28535L
tp334
a(g85
L4725L
tp335
a(g87
L10466L
tp336
a(g89
L20503L
tp337
a(g91
L18282L
tp338
a(g93
L7881L
tp339
a(g95
L5165L
tp340
a(g97
L5663L
tp341
a(g99
L6500L
tp342
a(g101
L5791L
tp343
a(g103
L4567L
tp344
a(g105
L10229L
tp345
a(g107
L4515L
tp346
a(g109
L4621L
tp347
a(g111
L2830L
tp348
a(g113
L5896L
tp349
a(g115
L4542L
tp350
a(g117
L30984L
tp351
a(g119
L4556L
tp352
a(g121
L10950L
tp353
a(g123
L5218L
tp354
a(g125
L14001L
tp355
a(g127
L6494L
tp356
a(g129
L6448L
tp357
a(g131
L6436L
tp358
a(g133
L10963L
tp359
a(g135
L594L
tp360
a(g137
L6357L
tp361
a(g139
L4586L
tp362
a(g141
L677L
tp363
a(g143
L4439L
tp364
a(g145
L759L
tp365
a(g147
L4366L
tp366
a(g149
L4118L
tp367
a(g151
L4405L
tp368
a(g153
L5302L
tp369
a(g155
L5471L
tp370
a(g157
L4684L
tp371
a(g159
L13967L
tp372
a(g161
L22810L
tp373
a(g163
L4546L
tp374
a(g165
L28144L
tp375
a(g167
L10870L
tp376
a(g169
L10829L
tp377
a(g171
L5112L
tp378
a(g173
L4838L
tp379
a(g175
L5695L
tp380
a(g177
L17965L
tp381
a(g179
L10840L
tp382
a(g181
L5582L
tp383
a(g183
L6169L
tp384
a(g185
L3L
tp385
a(g187
L13274L
tp386
a(g189
L2364L
tp387
a(g191
L3404L
tp388
a(g193
L28251L
tp389
a(g195
L3518L
tp390
a(g197
L4538L
tp391
a(g199
L5658L
tp392
a(g201
L14427L
tp393
a(g203
L6389L
tp394
a(g205
L10905L
tp395
a(g207
L7644L
tp396
a(g209
L20900L
tp397
a(g211
L4368L
tp398
a(g213
L5161L
tp399
a(g215
L4475L
tp400
a(g217
L13644L
tp401
a(g219
L4423L
tp402
a(g221
L5662L
tp403
a(g223
L2991L
tp404
a(g225
L12827L
tp405
a(g227
L5682L
tp406
a(g229
L10876L
tp407
a(g231
L5712L
tp408
a(g233
L10886L
tp409
a(g235
L2835L
tp410
a(g237
L10929L
tp411
a(g239
L14396L
tp412
a(g241
L14078L
tp413
a(g243
L10860L
tp414
a(g245
L4408L
tp415
a(g247
L15840L
tp416
a(g249
L33137L
tp417
a(g251
L5705L
tp418
a(g253
L4550L
tp419
a(g255
L6747L
tp420
a(g257
L5114L
tp421
a(g259
L4583L
tp422
a(g261
L6358L
tp423
a(g263
L28040L
tp424
a(g265
L5126L
tp425
a(g267
L2841L
tp426
a(g269
L4609L
tp427
a(g271
L4411L
tp428
a(g273
L10848L
tp429
a(g275
L21900L
tp430
a(g277
L201L
tp431
a(g279
L20770L
tp432
a(g281
L12918L
tp433
a(g283
L33512L
tp434
a(g285
L7683L
tp435
a(g287
L4412L
tp436
a(g289
L10192L
tp437
a(g291
L15852L
tp438
aaI867920
a.