(lp1
(lp2
(Vbiological_process
p3
I236362
tp4
a(Vcellular_component
p5
I77559
tp6
a(Vmolecular_function
p7
I62709
tp8
a(Vorganelle
p9
I20690
tp10
a(Vanatomical structure development
p11
I17748
tp12
a(Vtransport
p13
I13181
tp14
a(Vsignal transduction
p15
I10866
tp16
a(Vcellular nitrogen compound metabolic process
p17
I10315
tp18
a(Vprotein complex
p19
I8645
tp20
a(Vresponse to stress
p21
I8492
tp22
a(Vsmall molecule metabolic process
p23
I7677
tp24
a(Vion binding
p25
I7262
tp26
a(Vbiosynthetic process
p27
I7183
tp28
a(Vcellular protein modification process
p29
I6041
tp30
a(Vcatabolic process
p31
I5211
tp32
a(Vimmune system process
p33
I4764
tp34
a(Vcell differentiation
p35
I4271
tp36
a(Vlipid metabolic process
p37
I3863
tp38
a(Vcellular component assembly
p39
I3637
tp40
a(Vcytosol
p41
I3457
tp42
a(Venzyme binding
p43
I3365
tp44
a(Vlocomotion
p45
I2774
tp46
a(Vplasma membrane
p47
I2724
tp48
a(Vtransmembrane transporter activity
p49
I2720
tp50
a(Vvesicle-mediated transport
p51
I2640
tp52
a(Vnucleus
p53
I2614
tp54
a(Vnucleolus
p55
I2609
tp56
a(Vanatomical structure formation involved in morphogenesis
p57
I2500
tp58
a(Voxidoreductase activity
p59
I2378
tp60
a(VDNA metabolic process
p61
I2344
tp62
a(Vhomeostatic process
p63
I2323
tp64
a(Vchromosome organization
p65
I2284
tp66
a(Vcytoplasm
p67
I2187
tp68
a(VDNA binding
p69
I2170
tp70
a(Vsignal transducer activity
p71
I2062
tp72
a(Vtransmembrane transport
p73
I2047
tp74
a(Vcarbohydrate metabolic process
p75
I2012
tp76
a(Vmacromolecular complex assembly
p77
I1991
tp78
a(Vneurological system process
p79
I1979
tp80
a(Vcell motility
p81
I1887
tp82
a(Vprotein maturation
p83
I1816
tp84
a(Vgrowth
p85
I1811
tp86
a(Vcytoskeletal protein binding
p87
I1800
tp88
a(Vembryo development
p89
I1765
tp90
a(Vnucleobase-containing compound catabolic process
p91
I1736
tp92
a(Vkinase activity
p93
I1661
tp94
a(Vprotein complex assembly
p95
I1620
tp96
a(Vcytoskeleton organization
p97
I1609
tp98
a(Vmitochondrion
p99
I1468
tp100
a(VRNA binding
p101
I1411
tp102
a(Vcytoplasmic membrane-bounded vesicle
p103
I1389
tp104
a(Vlipid binding
p105
I1360
tp106
a(Vcell-cell signaling
p107
I1334
tp108
a(Vcellular amino acid metabolic process
p109
I1322
tp110
a(VGolgi apparatus
p111
I1300
tp112
a(Vcytoskeleton
p113
I1255
tp114
a(Vendoplasmic reticulum
p115
I1234
tp116
a(Vcell death
p117
I1140
tp118
a(Vcell adhesion
p119
I1139
tp120
a(Vendosome
p121
I1135
tp122
a(Venzyme regulator activity
p123
I1126
tp124
a(Vpeptidase activity
p125
I1119
tp126
a(Vmembrane organization
p127
I1114
tp128
a(Vligase activity
p129
I1070
tp130
a(Vcell proliferation
p131
I1054
tp132
a(Vtranscription factor binding
p133
I999
tp134
a(Vmicrotubule organizing center
p135
I973
tp136
a(Vnucleoplasm
p137
I954
tp138
a(VATPase activity
p139
I953
tp140
a(Vprotein binding transcription factor activity
p141
I925
tp142
a(Vcell morphogenesis
p143
I902
tp144
a(Vnucleic acid binding transcription factor activity
p145
I842
tp146
a(Vextracellular region
p147
I750
tp148
a(Vcilium
p149
I690
tp150
a(Vsulfur compound metabolic process
p151
I686
tp152
a(Vtransferase activity, transferring acyl groups
p153
I683
tp154
a(Vprotein targeting
p155
I671
tp156
a(Vstructural molecule activity
p157
I657
tp158
a(Vcofactor metabolic process
p159
I654
tp160
a(Vcell cycle
p161
I638
tp162
a(Vphosphatase activity
p163
I629
tp164
a(Vsymbiosis, encompassing mutualism through parasitism
p165
I615
tp166
a(Vvacuole
p167
I610
tp168
a(Vtransferase activity, transferring glycosyl groups
p169
I597
tp170
a(Vgeneration of precursor metabolites and energy
p171
I596
tp172
a(VmRNA processing
p173
I588
tp174
a(Vextracellular space
p175
I577
tp176
a(Vextracellular matrix organization
p177
I516
tp178
a(Vreproduction
p179
I463
tp180
a(Vcirculatory system process
p181
I457
tp182
a(Vcell division
p183
I440
tp184
a(Vcell junction organization
p185
I425
tp186
a(Vnucleocytoplasmic transport
p187
I422
tp188
a(Vaging
p189
I406
tp190
a(Vlyase activity
p191
I398
tp192
a(Vmethyltransferase activity
p193
I379
tp194
a(Vmitochondrion organization
p195
I378
tp196
a(Vhelicase activity
p197
I375
tp198
a(Vcytoskeleton-dependent intracellular transport
p199
I369
tp200
a(Vdevelopmental maturation
p201
I366
tp202
a(Vnuclease activity
p203
I365
tp204
a(Vplastid
p205
I358
tp206
a(Vlysosome
p207
I349
tp208
a(Vchromosome
p209
I311
tp210
a(Vprotein folding
p211
I311
tp212
a(Vnuclear envelope
p213
I302
tp214
a(VGTPase activity
p215
I295
tp216
a(Vhistone binding
p217
I284
tp218
a(Vribonucleoprotein complex assembly
p219
I283
tp220
a(Vsecondary metabolic process
p221
I282
tp222
a(Vplasma membrane organization
p223
I248
tp224
a(Vhydrolase activity, acting on glycosyl bonds
p225
I238
tp226
a(VmRNA binding
p227
I228
tp228
a(Visomerase activity
p229
I228
tp230
a(Vexternal encapsulating structure
p231
I220
tp232
a(Vvacuolar transport
p233
I219
tp234
a(Vproteinaceous extracellular matrix
p235
I216
tp236
a(Vcell wall
p237
I216
tp238
a(Vhydrolase activity, acting on carbon-nitrogen (but not peptide) bonds
p239
I214
tp240
a(Vmitosis
p241
I205
tp242
a(Vcell wall organization or biogenesis
p243
I201
tp244
a(VtRNA metabolic process
p245
I199
tp246
a(Vnucleotidyltransferase activity
p247
I196
tp248
a(Vperoxisome
p249
I193
tp250
a(Vchromosome segregation
p251
I191
tp252
a(Vprotein binding, bridging
p253
I166
tp254
a(Vsmall conjugating protein binding
p255
I164
tp256
a(Vstructural constituent of ribosome
p257
I149
tp258
a(Vtranslation factor activity, nucleic acid binding
p259
I141
tp260
a(Vtranslation
p261
I137
tp262
a(Vlipid particle
p263
I134
tp264
a(Vunfolded protein binding
p265
I124
tp266
a(Vprotein transporter activity
p267
I120
tp268
a(Vribosome
p269
I118
tp270
a(Vtransferase activity, transferring alkyl or aryl (other than methyl) groups
p271
I117
tp272
a(Vintracellular
p273
I113
tp274
a(Vnuclear chromosome
p275
I84
tp276
a(Vpigmentation
p277
I80
tp278
a(Vribosome biogenesis
p279
I75
tp280
a(VrRNA binding
p281
I54
tp282
a(Vthylakoid
p283
I35
tp284
a(Vnitrogen cycle metabolic process
p285
I25
tp286
a(Vphotosynthesis
p287
I13
tp288
a(Vcell
p289
I6
tp290
a(Vtransposition
p291
I5
tp292
a(VRNA modification guide activity
p293
I2
tp294
aa(lp295
(g3
L6372L
tp296
a(g5
L4365L
tp297
a(g7
L2787L
tp298
a(g9
L21685L
tp299
a(g11
L26888L
tp300
a(g13
L5491L
tp301
a(g15
L5801L
tp302
a(g17
L18268L
tp303
a(g19
L21693L
tp304
a(g21
L5613L
tp305
a(g23
L22689L
tp306
a(g25
L21630L
tp307
a(g27
L7192L
tp308
a(g29
L5168L
tp309
a(g31
L7190L
tp310
a(g33
L1781L
tp311
a(g35
L13924L
tp312
a(g37
L5326L
tp313
a(g39
L13633L
tp314
a(g41
L4599L
tp315
a(g43
L12968L
tp316
a(g45
L20507L
tp317
a(g47
L4644L
tp318
a(g49
L13690L
tp319
a(g51
L10381L
tp320
a(g53
L4422L
tp321
a(g55
L4507L
tp322
a(g57
L26682L
tp323
a(g59
L10598L
tp324
a(g61
L4995L
tp325
a(g63
L21086L
tp326
a(g65
L28228L
tp327
a(g67
L4514L
tp328
a(g69
L2790L
tp329
a(g71
L3827L
tp330
a(g73
L29927L
tp331
a(g75
L4725L
tp332
a(g77
L31581L
tp333
a(g79
L27837L
tp334
a(g81
L26901L
tp335
a(g83
L28535L
tp336
a(g85
L20503L
tp337
a(g87
L6320L
tp338
a(g89
L7881L
tp339
a(g91
L18282L
tp340
a(g93
L10466L
tp341
a(g95
L5165L
tp342
a(g97
L5663L
tp343
a(g99
L4515L
tp344
a(g101
L2830L
tp345
a(g103
L10229L
tp346
a(g105
L6500L
tp347
a(g107
L5896L
tp348
a(g109
L5218L
tp349
a(g111
L4567L
tp350
a(g113
L4621L
tp351
a(g115
L4556L
tp352
a(g117
L6436L
tp353
a(g119
L5791L
tp354
a(g121
L4542L
tp355
a(g123
L14001L
tp356
a(g125
L6448L
tp357
a(g127
L30984L
tp358
a(g129
L10950L
tp359
a(g131
L6494L
tp360
a(g133
L6357L
tp361
a(g135
L4586L
tp362
a(g137
L4439L
tp363
a(g139
L10963L
tp364
a(g141
L677L
tp365
a(g143
L594L
tp366
a(g145
L759L
tp367
a(g147
L4366L
tp368
a(g149
L4684L
tp369
a(g151
L5471L
tp370
a(g153
L10829L
tp371
a(g155
L5302L
tp372
a(g157
L4118L
tp373
a(g159
L28144L
tp374
a(g161
L5695L
tp375
a(g163
L10870L
tp376
a(g165
L22810L
tp377
a(g167
L4546L
tp378
a(g169
L10840L
tp379
a(g171
L4838L
tp380
a(g173
L5112L
tp381
a(g175
L4405L
tp382
a(g177
L13967L
tp383
a(g179
L3L
tp384
a(g181
L2364L
tp385
a(g183
L28251L
tp386
a(g185
L17965L
tp387
a(g187
L5582L
tp388
a(g189
L6169L
tp389
a(g191
L10905L
tp390
a(g193
L6389L
tp391
a(g195
L5658L
tp392
a(g197
L3404L
tp393
a(g199
L14427L
tp394
a(g201
L13274L
tp395
a(g203
L3518L
tp396
a(g205
L7644L
tp397
a(g207
L4538L
tp398
a(g209
L4475L
tp399
a(g211
L5161L
tp400
a(g213
L4423L
tp401
a(g215
L2991L
tp402
a(g217
L20900L
tp403
a(g219
L13644L
tp404
a(g221
L12827L
tp405
a(g223
L5662L
tp406
a(g225
L10876L
tp407
a(g227
L2835L
tp408
a(g229
L10929L
tp409
a(g231
L14078L
tp410
a(g233
L5682L
tp411
a(g235
L4368L
tp412
a(g237
L4408L
tp413
a(g239
L10886L
tp414
a(g241
L5712L
tp415
a(g243
L33137L
tp416
a(g245
L5114L
tp417
a(g247
L10860L
tp418
a(g249
L4550L
tp419
a(g251
L5705L
tp420
a(g253
L14396L
tp421
a(g255
L15840L
tp422
a(g257
L2841L
tp423
a(g259
L6358L
tp424
a(g261
L5126L
tp425
a(g263
L4583L
tp426
a(g265
L28040L
tp427
a(g267
L6747L
tp428
a(g269
L4609L
tp429
a(g271
L10848L
tp430
a(g273
L4411L
tp431
a(g275
L201L
tp432
a(g277
L21900L
tp433
a(g279
L20770L
tp434
a(g281
L12918L
tp435
a(g283
L7683L
tp436
a(g285
L33512L
tp437
a(g287
L10192L
tp438
a(g289
L4412L
tp439
a(g291
L15852L
tp440
a(g293
L14288L
tp441
aaI632128
a.