(lp1
(lp2
(Vbiological_process
p3
I301831
tp4
a(Vcellular_component
p5
I94980
tp6
a(Vmolecular_function
p7
I76314
tp8
a(Vorganelle
p9
I24972
tp10
a(Vanatomical structure development
p11
I23771
tp12
a(Vtransport
p13
I16332
tp14
a(Vsignal transduction
p15
I14148
tp16
a(Vcellular nitrogen compound metabolic process
p17
I11088
tp18
a(Vresponse to stress
p19
I10447
tp20
a(Vprotein complex
p21
I9901
tp22
a(Vion binding
p23
I8809
tp24
a(Vsmall molecule metabolic process
p25
I8199
tp26
a(Vbiosynthetic process
p27
I7501
tp28
a(Vcellular protein modification process
p29
I7061
tp30
a(Vimmune system process
p31
I6000
tp32
a(Vcell differentiation
p33
I5695
tp34
a(Vcatabolic process
p35
I5537
tp36
a(Vcellular component assembly
p37
I4337
tp38
a(Venzyme binding
p39
I4122
tp40
a(Vlipid metabolic process
p41
I4077
tp42
a(Vcytosol
p43
I3805
tp44
a(Vlocomotion
p45
I3679
tp46
a(Vtransmembrane transporter activity
p47
I3632
tp48
a(Vplasma membrane
p49
I3440
tp50
a(Vanatomical structure formation involved in morphogenesis
p51
I3341
tp52
a(Vnucleus
p53
I3189
tp54
a(Vvesicle-mediated transport
p55
I3140
tp56
a(Vnucleolus
p57
I3042
tp58
a(Vhomeostatic process
p59
I2985
tp60
a(Vsignal transducer activity
p61
I2959
tp62
a(Vneurological system process
p63
I2770
tp64
a(VDNA binding
p65
I2753
tp66
a(Vcytoplasm
p67
I2721
tp68
a(VDNA metabolic process
p69
I2640
tp70
a(Vcell motility
p71
I2633
tp72
a(Vtransmembrane transport
p73
I2608
tp74
a(Vchromosome organization
p75
I2431
tp76
a(Vmacromolecular complex assembly
p77
I2342
tp78
a(Voxidoreductase activity
p79
I2300
tp80
a(Vprotein maturation
p81
I2253
tp82
a(Vcytoskeletal protein binding
p83
I2210
tp84
a(Vgrowth
p85
I2195
tp86
a(Vcarbohydrate metabolic process
p87
I2156
tp88
a(Vembryo development
p89
I2017
tp90
a(Vkinase activity
p91
I2016
tp92
a(Vprotein complex assembly
p93
I1965
tp94
a(Vcell-cell signaling
p95
I1962
tp96
a(Vcytoskeleton organization
p97
I1806
tp98
a(Vnucleobase-containing compound catabolic process
p99
I1802
tp100
a(Vcytoplasmic membrane-bounded vesicle
p101
I1741
tp102
a(Vlipid binding
p103
I1704
tp104
a(Vcell adhesion
p105
I1661
tp106
a(VGolgi apparatus
p107
I1638
tp108
a(Vcytoskeleton
p109
I1591
tp110
a(Vmitochondrion
p111
I1506
tp112
a(VRNA binding
p113
I1436
tp114
a(Vendoplasmic reticulum
p115
I1428
tp116
a(Vcell proliferation
p117
I1421
tp118
a(Vpeptidase activity
p119
I1401
tp120
a(Vendosome
p121
I1381
tp122
a(Vmembrane organization
p123
I1372
tp124
a(Vcell death
p125
I1361
tp126
a(Vcellular amino acid metabolic process
p127
I1349
tp128
a(Venzyme regulator activity
p129
I1279
tp130
a(Vligase activity
p131
I1272
tp132
a(Vcell morphogenesis
p133
I1208
tp134
a(Vtranscription factor binding
p135
I1181
tp136
a(Vnucleic acid binding transcription factor activity
p137
I1160
tp138
a(Vprotein binding transcription factor activity
p139
I1131
tp140
a(Vmicrotubule organizing center
p141
I1100
tp142
a(VATPase activity
p143
I1064
tp144
a(Vnucleoplasm
p145
I1056
tp146
a(Vextracellular region
p147
I972
tp148
a(Vextracellular space
p149
I904
tp150
a(Vsulfur compound metabolic process
p151
I873
tp152
a(Vextracellular matrix organization
p153
I801
tp154
a(Vcilium
p155
I785
tp156
a(Vvacuole
p157
I784
tp158
a(Vstructural molecule activity
p159
I761
tp160
a(Vcirculatory system process
p161
I747
tp162
a(Vtransferase activity, transferring acyl groups
p163
I724
tp164
a(Vprotein targeting
p165
I702
tp166
a(Vphosphatase activity
p167
I691
tp168
a(Vsymbiosis, encompassing mutualism through parasitism
p169
I671
tp170
a(Vcofactor metabolic process
p171
I669
tp172
a(Vcell cycle
p173
I644
tp174
a(VmRNA processing
p175
I613
tp176
a(Vtransferase activity, transferring glycosyl groups
p177
I607
tp178
a(Vgeneration of precursor metabolites and energy
p179
I565
tp180
a(Vaging
p181
I531
tp182
a(Vcell junction organization
p183
I513
tp184
a(Vcell division
p185
I506
tp186
a(Vdevelopmental maturation
p187
I505
tp188
a(Vreproduction
p189
I499
tp190
a(Vnucleocytoplasmic transport
p191
I494
tp192
a(Vlysosome
p193
I478
tp194
a(Vhelicase activity
p195
I456
tp196
a(Vmethyltransferase activity
p197
I427
tp198
a(Vmitochondrion organization
p199
I415
tp200
a(Vnuclease activity
p201
I406
tp202
a(Vcytoskeleton-dependent intracellular transport
p203
I381
tp204
a(Vlyase activity
p205
I380
tp206
a(Vproteinaceous extracellular matrix
p207
I372
tp208
a(Vplastid
p209
I357
tp210
a(Vchromosome
p211
I346
tp212
a(Vplasma membrane organization
p213
I342
tp214
a(Vhistone binding
p215
I322
tp216
a(Vprotein folding
p217
I316
tp218
a(VGTPase activity
p219
I304
tp220
a(Vnuclear envelope
p221
I300
tp222
a(Vhydrolase activity, acting on glycosyl bonds
p223
I295
tp224
a(Vribonucleoprotein complex assembly
p225
I292
tp226
a(Vsecondary metabolic process
p227
I288
tp228
a(Vhydrolase activity, acting on carbon-nitrogen (but not peptide) bonds
p229
I250
tp230
a(Visomerase activity
p231
I233
tp232
a(Vprotein binding, bridging
p233
I232
tp234
a(VmRNA binding
p235
I230
tp236
a(Vmitosis
p237
I229
tp238
a(Vvacuolar transport
p239
I228
tp240
a(Vexternal encapsulating structure
p241
I220
tp242
a(Vperoxisome
p243
I212
tp244
a(Vcell wall
p245
I210
tp246
a(Vchromosome segregation
p247
I206
tp248
a(Vnucleotidyltransferase activity
p249
I202
tp250
a(Vcell wall organization or biogenesis
p251
I200
tp252
a(Vsmall conjugating protein binding
p253
I185
tp254
a(VtRNA metabolic process
p255
I165
tp256
a(Vlipid particle
p257
I143
tp258
a(Vprotein transporter activity
p259
I139
tp260
a(Vintracellular
p261
I136
tp262
a(Vunfolded protein binding
p263
I130
tp264
a(Vtranslation factor activity, nucleic acid binding
p265
I130
tp266
a(Vribosome
p267
I125
tp268
a(Vtranslation
p269
I120
tp270
a(Vtransferase activity, transferring alkyl or aryl (other than methyl) groups
p271
I119
tp272
a(Vpigmentation
p273
I106
tp274
a(Vnuclear chromosome
p275
I91
tp276
a(Vstructural constituent of ribosome
p277
I75
tp278
a(Vribosome biogenesis
p279
I64
tp280
a(VrRNA binding
p281
I46
tp282
a(Vthylakoid
p283
I34
tp284
a(Vnitrogen cycle metabolic process
p285
I23
tp286
a(Vphotosynthesis
p287
I11
tp288
a(Vtransposition
p289
I9
tp290
a(Vcell
p291
I7
tp292
aa(lp293
(g3
L6372L
tp294
a(g5
L4365L
tp295
a(g7
L2787L
tp296
a(g9
L21685L
tp297
a(g11
L26888L
tp298
a(g13
L5491L
tp299
a(g15
L5801L
tp300
a(g17
L18268L
tp301
a(g19
L5613L
tp302
a(g21
L21693L
tp303
a(g23
L21630L
tp304
a(g25
L22689L
tp305
a(g27
L7192L
tp306
a(g29
L5168L
tp307
a(g31
L1781L
tp308
a(g33
L13924L
tp309
a(g35
L7190L
tp310
a(g37
L13633L
tp311
a(g39
L12968L
tp312
a(g41
L5326L
tp313
a(g43
L4599L
tp314
a(g45
L20507L
tp315
a(g47
L13690L
tp316
a(g49
L4644L
tp317
a(g51
L26682L
tp318
a(g53
L4422L
tp319
a(g55
L10381L
tp320
a(g57
L4507L
tp321
a(g59
L21086L
tp322
a(g61
L3827L
tp323
a(g63
L27837L
tp324
a(g65
L2790L
tp325
a(g67
L4514L
tp326
a(g69
L4995L
tp327
a(g71
L26901L
tp328
a(g73
L29927L
tp329
a(g75
L28228L
tp330
a(g77
L31581L
tp331
a(g79
L10598L
tp332
a(g81
L28535L
tp333
a(g83
L6320L
tp334
a(g85
L20503L
tp335
a(g87
L4725L
tp336
a(g89
L7881L
tp337
a(g91
L10466L
tp338
a(g93
L5165L
tp339
a(g95
L5896L
tp340
a(g97
L5663L
tp341
a(g99
L18282L
tp342
a(g101
L10229L
tp343
a(g103
L6500L
tp344
a(g105
L5791L
tp345
a(g107
L4567L
tp346
a(g109
L4621L
tp347
a(g111
L4515L
tp348
a(g113
L2830L
tp349
a(g115
L4556L
tp350
a(g117
L6494L
tp351
a(g119
L6448L
tp352
a(g121
L4542L
tp353
a(g123
L30984L
tp354
a(g125
L6436L
tp355
a(g127
L5218L
tp356
a(g129
L14001L
tp357
a(g131
L10950L
tp358
a(g133
L594L
tp359
a(g135
L6357L
tp360
a(g137
L759L
tp361
a(g139
L677L
tp362
a(g141
L4586L
tp363
a(g143
L10963L
tp364
a(g145
L4439L
tp365
a(g147
L4366L
tp366
a(g149
L4405L
tp367
a(g151
L5471L
tp368
a(g153
L13967L
tp369
a(g155
L4684L
tp370
a(g157
L4546L
tp371
a(g159
L4118L
tp372
a(g161
L2364L
tp373
a(g163
L10829L
tp374
a(g165
L5302L
tp375
a(g167
L10870L
tp376
a(g169
L22810L
tp377
a(g171
L28144L
tp378
a(g173
L5695L
tp379
a(g175
L5112L
tp380
a(g177
L10840L
tp381
a(g179
L4838L
tp382
a(g181
L6169L
tp383
a(g183
L17965L
tp384
a(g185
L28251L
tp385
a(g187
L13274L
tp386
a(g189
L3L
tp387
a(g191
L5582L
tp388
a(g193
L4538L
tp389
a(g195
L3404L
tp390
a(g197
L6389L
tp391
a(g199
L5658L
tp392
a(g201
L3518L
tp393
a(g203
L14427L
tp394
a(g205
L10905L
tp395
a(g207
L4368L
tp396
a(g209
L7644L
tp397
a(g211
L4475L
tp398
a(g213
L5662L
tp399
a(g215
L20900L
tp400
a(g217
L5161L
tp401
a(g219
L2991L
tp402
a(g221
L4423L
tp403
a(g223
L10876L
tp404
a(g225
L13644L
tp405
a(g227
L12827L
tp406
a(g229
L10886L
tp407
a(g231
L10929L
tp408
a(g233
L14396L
tp409
a(g235
L2835L
tp410
a(g237
L5712L
tp411
a(g239
L5682L
tp412
a(g241
L14078L
tp413
a(g243
L4550L
tp414
a(g245
L4408L
tp415
a(g247
L5705L
tp416
a(g249
L10860L
tp417
a(g251
L33137L
tp418
a(g253
L15840L
tp419
a(g255
L5114L
tp420
a(g257
L4583L
tp421
a(g259
L6747L
tp422
a(g261
L4411L
tp423
a(g263
L28040L
tp424
a(g265
L6358L
tp425
a(g267
L4609L
tp426
a(g269
L5126L
tp427
a(g271
L10848L
tp428
a(g273
L21900L
tp429
a(g275
L201L
tp430
a(g277
L2841L
tp431
a(g279
L20770L
tp432
a(g281
L12918L
tp433
a(g283
L7683L
tp434
a(g285
L33512L
tp435
a(g287
L10192L
tp436
a(g289
L15852L
tp437
a(g291
L4412L
tp438
aaI779903
a.