(lp1
(lp2
(Vbiological_process
p3
I314453
tp4
a(Vcellular_component
p5
I103231
tp6
a(Vmolecular_function
p7
I84585
tp8
a(Vorganelle
p9
I27246
tp10
a(Vanatomical structure development
p11
I23980
tp12
a(Vtransport
p13
I17612
tp14
a(Vsignal transduction
p15
I14307
tp16
a(Vcellular nitrogen compound metabolic process
p17
I13430
tp18
a(Vresponse to stress
p19
I11372
tp20
a(Vprotein complex
p21
I11001
tp22
a(Vion binding
p23
I10339
tp24
a(Vsmall molecule metabolic process
p25
I10049
tp26
a(Vbiosynthetic process
p27
I8934
tp28
a(Vcellular protein modification process
p29
I7663
tp30
a(Vimmune system process
p31
I6808
tp32
a(Vcatabolic process
p33
I6798
tp34
a(Vcell differentiation
p35
I5448
tp36
a(Vcellular component assembly
p37
I4860
tp38
a(Vlipid metabolic process
p39
I4634
tp40
a(Venzyme binding
p41
I4460
tp42
a(Vcytosol
p43
I4406
tp44
a(Vtransmembrane transporter activity
p45
I3956
tp46
a(Vlocomotion
p47
I3924
tp48
a(Vplasma membrane
p49
I3634
tp50
a(Vvesicle-mediated transport
p51
I3439
tp52
a(Vnucleus
p53
I3352
tp54
a(Vnucleolus
p55
I3341
tp56
a(Vanatomical structure formation involved in morphogenesis
p57
I3293
tp58
a(VDNA metabolic process
p59
I3227
tp60
a(Vcytoplasm
p61
I3103
tp62
a(Vhomeostatic process
p63
I3044
tp64
a(Voxidoreductase activity
p65
I2946
tp66
a(Vtransmembrane transport
p67
I2805
tp68
a(VDNA binding
p69
I2784
tp70
a(Vchromosome organization
p71
I2777
tp72
a(Vcell motility
p73
I2726
tp74
a(Vneurological system process
p75
I2704
tp76
a(Vmacromolecular complex assembly
p77
I2658
tp78
a(Vcarbohydrate metabolic process
p79
I2621
tp80
a(Vcytoskeletal protein binding
p81
I2557
tp82
a(Vprotein maturation
p83
I2530
tp84
a(Vkinase activity
p85
I2454
tp86
a(Vsignal transducer activity
p87
I2398
tp88
a(Vnucleobase-containing compound catabolic process
p89
I2350
tp90
a(Vembryo development
p91
I2297
tp92
a(Vgrowth
p93
I2291
tp94
a(Vprotein complex assembly
p95
I2184
tp96
a(Vcytoskeleton organization
p97
I2106
tp98
a(Vcellular amino acid metabolic process
p99
I1903
tp100
a(VGolgi apparatus
p101
I1898
tp102
a(Vcytoskeleton
p103
I1826
tp104
a(VRNA binding
p105
I1803
tp106
a(Vcell adhesion
p107
I1802
tp108
a(Vcytoplasmic membrane-bounded vesicle
p109
I1790
tp110
a(Vlipid binding
p111
I1764
tp112
a(Vmitochondrion
p113
I1720
tp114
a(Vpeptidase activity
p115
I1594
tp116
a(VATPase activity
p117
I1573
tp118
a(Vcell-cell signaling
p119
I1568
tp120
a(Vendoplasmic reticulum
p121
I1484
tp122
a(Vmembrane organization
p123
I1478
tp124
a(Vcell death
p125
I1463
tp126
a(Vcell proliferation
p127
I1462
tp128
a(Vendosome
p129
I1451
tp130
a(Vligase activity
p131
I1450
tp132
a(Venzyme regulator activity
p133
I1419
tp134
a(Vcell morphogenesis
p135
I1227
tp136
a(Vmicrotubule organizing center
p137
I1215
tp138
a(Vtranscription factor binding
p139
I1169
tp140
a(Vnucleoplasm
p141
I1155
tp142
a(Vprotein binding transcription factor activity
p143
I1080
tp144
a(Vsulfur compound metabolic process
p145
I998
tp146
a(Vextracellular region
p147
I978
tp148
a(Vnucleic acid binding transcription factor activity
p149
I970
tp150
a(Vstructural molecule activity
p151
I932
tp152
a(Vextracellular matrix organization
p153
I929
tp154
a(Vcilium
p155
I913
tp156
a(Vextracellular space
p157
I896
tp158
a(Vcofactor metabolic process
p159
I849
tp160
a(Vprotein targeting
p161
I838
tp162
a(Vvacuole
p163
I821
tp164
a(Vtransferase activity, transferring acyl groups
p165
I818
tp166
a(VmRNA processing
p167
I769
tp168
a(Vcell cycle
p169
I766
tp170
a(Vsymbiosis, encompassing mutualism through parasitism
p171
I765
tp172
a(Vphosphatase activity
p173
I750
tp174
a(Vgeneration of precursor metabolites and energy
p175
I724
tp176
a(Vtransferase activity, transferring glycosyl groups
p177
I666
tp178
a(Vhelicase activity
p179
I649
tp180
a(Vlyase activity
p181
I591
tp182
a(Vreproduction
p183
I577
tp184
a(Vaging
p185
I572
tp186
a(Vcell division
p187
I569
tp188
a(Vdevelopmental maturation
p189
I558
tp190
a(Vcell junction organization
p191
I544
tp192
a(Vnucleocytoplasmic transport
p193
I542
tp194
a(Vcirculatory system process
p195
I535
tp196
a(Vnuclease activity
p197
I511
tp198
a(Vmethyltransferase activity
p199
I484
tp200
a(Vcytoskeleton-dependent intracellular transport
p201
I479
tp202
a(Vplastid
p203
I474
tp204
a(Vlysosome
p205
I459
tp206
a(Vmitochondrion organization
p207
I452
tp208
a(Vproteinaceous extracellular matrix
p209
I394
tp210
a(Vprotein folding
p211
I384
tp212
a(Vribonucleoprotein complex assembly
p213
I378
tp214
a(Vchromosome
p215
I367
tp216
a(Vnuclear envelope
p217
I364
tp218
a(Vplasma membrane organization
p219
I363
tp220
a(Vhistone binding
p221
I354
tp222
a(VGTPase activity
p223
I351
tp224
a(Vhydrolase activity, acting on glycosyl bonds
p225
I345
tp226
a(Visomerase activity
p227
I337
tp228
a(Vsecondary metabolic process
p229
I331
tp230
a(Vexternal encapsulating structure
p231
I327
tp232
a(Vcell wall
p233
I316
tp234
a(Vnucleotidyltransferase activity
p235
I305
tp236
a(VmRNA binding
p237
I292
tp238
a(Vhydrolase activity, acting on carbon-nitrogen (but not peptide) bonds
p239
I292
tp240
a(VtRNA metabolic process
p241
I281
tp242
a(Vvacuolar transport
p243
I257
tp244
a(Vmitosis
p245
I252
tp246
a(Vcell wall organization or biogenesis
p247
I241
tp248
a(Vprotein binding, bridging
p249
I233
tp250
a(Vchromosome segregation
p251
I232
tp252
a(Vperoxisome
p253
I231
tp254
a(Vsmall conjugating protein binding
p255
I204
tp256
a(Vtranslation factor activity, nucleic acid binding
p257
I173
tp258
a(Vprotein transporter activity
p259
I171
tp260
a(Vunfolded protein binding
p261
I169
tp262
a(Vstructural constituent of ribosome
p263
I166
tp264
a(Vlipid particle
p265
I165
tp266
a(Vtranslation
p267
I160
tp268
a(Vribosome
p269
I149
tp270
a(Vtransferase activity, transferring alkyl or aryl (other than methyl) groups
p271
I138
tp272
a(Vintracellular
p273
I136
tp274
a(Vpigmentation
p275
I111
tp276
a(Vnuclear chromosome
p277
I106
tp278
a(Vribosome biogenesis
p279
I81
tp280
a(VrRNA binding
p281
I74
tp282
a(Vthylakoid
p283
I49
tp284
a(Vnitrogen cycle metabolic process
p285
I47
tp286
a(Vphotosynthesis
p287
I18
tp288
a(Vtransposition
p289
I10
tp290
a(Vcell
p291
I9
tp292
aa(lp293
(g3
L6372L
tp294
a(g5
L4365L
tp295
a(g7
L2787L
tp296
a(g9
L21685L
tp297
a(g11
L26888L
tp298
a(g13
L5491L
tp299
a(g15
L5801L
tp300
a(g17
L18268L
tp301
a(g19
L5613L
tp302
a(g21
L21693L
tp303
a(g23
L21630L
tp304
a(g25
L22689L
tp305
a(g27
L7192L
tp306
a(g29
L5168L
tp307
a(g31
L1781L
tp308
a(g33
L7190L
tp309
a(g35
L13924L
tp310
a(g37
L13633L
tp311
a(g39
L5326L
tp312
a(g41
L12968L
tp313
a(g43
L4599L
tp314
a(g45
L13690L
tp315
a(g47
L20507L
tp316
a(g49
L4644L
tp317
a(g51
L10381L
tp318
a(g53
L4422L
tp319
a(g55
L4507L
tp320
a(g57
L26682L
tp321
a(g59
L4995L
tp322
a(g61
L4514L
tp323
a(g63
L21086L
tp324
a(g65
L10598L
tp325
a(g67
L29927L
tp326
a(g69
L2790L
tp327
a(g71
L28228L
tp328
a(g73
L26901L
tp329
a(g75
L27837L
tp330
a(g77
L31581L
tp331
a(g79
L4725L
tp332
a(g81
L6320L
tp333
a(g83
L28535L
tp334
a(g85
L10466L
tp335
a(g87
L3827L
tp336
a(g89
L18282L
tp337
a(g91
L7881L
tp338
a(g93
L20503L
tp339
a(g95
L5165L
tp340
a(g97
L5663L
tp341
a(g99
L5218L
tp342
a(g101
L4567L
tp343
a(g103
L4621L
tp344
a(g105
L2830L
tp345
a(g107
L5791L
tp346
a(g109
L10229L
tp347
a(g111
L6500L
tp348
a(g113
L4515L
tp349
a(g115
L6448L
tp350
a(g117
L10963L
tp351
a(g119
L5896L
tp352
a(g121
L4556L
tp353
a(g123
L30984L
tp354
a(g125
L6436L
tp355
a(g127
L6494L
tp356
a(g129
L4542L
tp357
a(g131
L10950L
tp358
a(g133
L14001L
tp359
a(g135
L594L
tp360
a(g137
L4586L
tp361
a(g139
L6357L
tp362
a(g141
L4439L
tp363
a(g143
L677L
tp364
a(g145
L5471L
tp365
a(g147
L4366L
tp366
a(g149
L759L
tp367
a(g151
L4118L
tp368
a(g153
L13967L
tp369
a(g155
L4684L
tp370
a(g157
L4405L
tp371
a(g159
L28144L
tp372
a(g161
L5302L
tp373
a(g163
L4546L
tp374
a(g165
L10829L
tp375
a(g167
L5112L
tp376
a(g169
L5695L
tp377
a(g171
L22810L
tp378
a(g173
L10870L
tp379
a(g175
L4838L
tp380
a(g177
L10840L
tp381
a(g179
L3404L
tp382
a(g181
L10905L
tp383
a(g183
L3L
tp384
a(g185
L6169L
tp385
a(g187
L28251L
tp386
a(g189
L13274L
tp387
a(g191
L17965L
tp388
a(g193
L5582L
tp389
a(g195
L2364L
tp390
a(g197
L3518L
tp391
a(g199
L6389L
tp392
a(g201
L14427L
tp393
a(g203
L7644L
tp394
a(g205
L4538L
tp395
a(g207
L5658L
tp396
a(g209
L4368L
tp397
a(g211
L5161L
tp398
a(g213
L13644L
tp399
a(g215
L4475L
tp400
a(g217
L4423L
tp401
a(g219
L5662L
tp402
a(g221
L20900L
tp403
a(g223
L2991L
tp404
a(g225
L10876L
tp405
a(g227
L10929L
tp406
a(g229
L12827L
tp407
a(g231
L14078L
tp408
a(g233
L4408L
tp409
a(g235
L10860L
tp410
a(g237
L2835L
tp411
a(g239
L10886L
tp412
a(g241
L5114L
tp413
a(g243
L5682L
tp414
a(g245
L5712L
tp415
a(g247
L33137L
tp416
a(g249
L14396L
tp417
a(g251
L5705L
tp418
a(g253
L4550L
tp419
a(g255
L15840L
tp420
a(g257
L6358L
tp421
a(g259
L6747L
tp422
a(g261
L28040L
tp423
a(g263
L2841L
tp424
a(g265
L4583L
tp425
a(g267
L5126L
tp426
a(g269
L4609L
tp427
a(g271
L10848L
tp428
a(g273
L4411L
tp429
a(g275
L21900L
tp430
a(g277
L201L
tp431
a(g279
L20770L
tp432
a(g281
L12918L
tp433
a(g283
L7683L
tp434
a(g285
L33512L
tp435
a(g287
L10192L
tp436
a(g289
L15852L
tp437
a(g291
L4412L
tp438
aaI840152
a.