(lp1
(lp2
(Vbiological_process
p3
I338233
tp4
a(Vcellular_component
p5
I113155
tp6
a(Vmolecular_function
p7
I93857
tp8
a(Vorganelle
p9
I30188
tp10
a(Vanatomical structure development
p11
I25541
tp12
a(Vtransport
p13
I18505
tp14
a(Vsignal transduction
p15
I15731
tp16
a(Vcellular nitrogen compound metabolic process
p17
I14684
tp18
a(Vprotein complex
p19
I12975
tp20
a(Vresponse to stress
p21
I12403
tp22
a(Vion binding
p23
I11754
tp24
a(Vsmall molecule metabolic process
p25
I10493
tp26
a(Vbiosynthetic process
p27
I9258
tp28
a(Vcellular protein modification process
p29
I8730
tp30
a(Vcatabolic process
p31
I7435
tp32
a(Vimmune system process
p33
I6871
tp34
a(Vcell differentiation
p35
I6249
tp36
a(Vcellular component assembly
p37
I5752
tp38
a(Vcytosol
p39
I5394
tp40
a(Venzyme binding
p41
I5235
tp42
a(Vlipid metabolic process
p43
I5077
tp44
a(Vlocomotion
p45
I4497
tp46
a(Vnucleolus
p47
I4110
tp48
a(Vvesicle-mediated transport
p49
I4058
tp50
a(Vanatomical structure formation involved in morphogenesis
p51
I4048
tp52
a(Vplasma membrane
p53
I3957
tp54
a(Vnucleus
p55
I3737
tp56
a(Vtransmembrane transporter activity
p57
I3672
tp58
a(VDNA metabolic process
p59
I3579
tp60
a(Vhomeostatic process
p61
I3432
tp62
a(VDNA binding
p63
I3367
tp64
a(Vchromosome organization
p65
I3341
tp66
a(Vcell motility
p67
I3260
tp68
a(Vcytoplasm
p69
I3166
tp70
a(Vmacromolecular complex assembly
p71
I3086
tp72
a(Vneurological system process
p73
I3042
tp74
a(Voxidoreductase activity
p75
I2975
tp76
a(Vcytoskeletal protein binding
p77
I2882
tp78
a(Vtransmembrane transport
p79
I2754
tp80
a(Vsignal transducer activity
p81
I2720
tp82
a(Vcarbohydrate metabolic process
p83
I2716
tp84
a(Vnucleobase-containing compound catabolic process
p85
I2634
tp86
a(Vcytoskeleton organization
p87
I2608
tp88
a(Vgrowth
p89
I2599
tp90
a(Vprotein maturation
p91
I2596
tp92
a(Vkinase activity
p93
I2590
tp94
a(Vembryo development
p95
I2580
tp96
a(Vprotein complex assembly
p97
I2507
tp98
a(Vlipid binding
p99
I2263
tp100
a(VGolgi apparatus
p101
I2155
tp102
a(Vcytoplasmic membrane-bounded vesicle
p103
I2138
tp104
a(VRNA binding
p105
I2057
tp106
a(Vmitochondrion
p107
I2031
tp108
a(Vcell adhesion
p109
I2029
tp110
a(Vcytoskeleton
p111
I1961
tp112
a(Vcellular amino acid metabolic process
p113
I1870
tp114
a(Vcell-cell signaling
p115
I1771
tp116
a(Vmembrane organization
p117
I1768
tp118
a(Vendosome
p119
I1754
tp120
a(Vendoplasmic reticulum
p121
I1736
tp122
a(Vpeptidase activity
p123
I1706
tp124
a(Venzyme regulator activity
p125
I1684
tp126
a(Vcell death
p127
I1621
tp128
a(Vligase activity
p129
I1610
tp130
a(Vcell proliferation
p131
I1594
tp132
a(VATPase activity
p133
I1569
tp134
a(Vmicrotubule organizing center
p135
I1497
tp136
a(Vnucleoplasm
p137
I1476
tp138
a(Vtranscription factor binding
p139
I1455
tp140
a(Vcell morphogenesis
p141
I1418
tp142
a(Vprotein binding transcription factor activity
p143
I1411
tp144
a(Vnucleic acid binding transcription factor activity
p145
I1336
tp146
a(Vstructural molecule activity
p147
I1245
tp148
a(Vextracellular region
p149
I1108
tp150
a(Vprotein targeting
p151
I1073
tp152
a(Vsulfur compound metabolic process
p153
I1067
tp154
a(Vextracellular space
p155
I1011
tp156
a(Vextracellular matrix organization
p157
I974
tp158
a(Vcilium
p159
I940
tp160
a(Vcofactor metabolic process
p161
I929
tp162
a(VmRNA processing
p163
I905
tp164
a(Vtransferase activity, transferring acyl groups
p165
I900
tp166
a(Vsymbiosis, encompassing mutualism through parasitism
p167
I884
tp168
a(Vvacuole
p169
I877
tp170
a(Vgeneration of precursor metabolites and energy
p171
I826
tp172
a(Vphosphatase activity
p173
I801
tp174
a(Vcell cycle
p175
I739
tp176
a(Vaging
p177
I717
tp178
a(Vcell junction organization
p179
I710
tp180
a(Vnucleocytoplasmic transport
p181
I681
tp182
a(Vreproduction
p183
I664
tp184
a(Vtransferase activity, transferring glycosyl groups
p185
I663
tp186
a(Vcirculatory system process
p187
I636
tp188
a(Vcell division
p189
I623
tp190
a(Vhelicase activity
p191
I591
tp192
a(Vdevelopmental maturation
p193
I576
tp194
a(Vnuclease activity
p195
I547
tp196
a(Vcytoskeleton-dependent intracellular transport
p197
I537
tp198
a(Vlysosome
p199
I519
tp200
a(Vlyase activity
p201
I516
tp202
a(Vmethyltransferase activity
p203
I515
tp204
a(Vmitochondrion organization
p205
I512
tp206
a(Vplastid
p207
I511
tp208
a(Vhistone binding
p209
I456
tp210
a(Vribonucleoprotein complex assembly
p211
I449
tp212
a(Vprotein folding
p213
I440
tp214
a(Vchromosome
p215
I436
tp216
a(Vproteinaceous extracellular matrix
p217
I424
tp218
a(Vnuclear envelope
p219
I423
tp220
a(Vsecondary metabolic process
p221
I386
tp222
a(VGTPase activity
p223
I380
tp224
a(Vplasma membrane organization
p225
I360
tp226
a(Vexternal encapsulating structure
p227
I349
tp228
a(Visomerase activity
p229
I342
tp230
a(Vcell wall
p231
I340
tp232
a(VmRNA binding
p233
I336
tp234
a(Vvacuolar transport
p235
I325
tp236
a(Vmitosis
p237
I322
tp238
a(Vhydrolase activity, acting on carbon-nitrogen (but not peptide) bonds
p239
I309
tp240
a(Vnucleotidyltransferase activity
p241
I305
tp242
a(Vprotein binding, bridging
p243
I299
tp244
a(Vcell wall organization or biogenesis
p245
I285
tp246
a(Vhydrolase activity, acting on glycosyl bonds
p247
I279
tp248
a(Vchromosome segregation
p249
I266
tp250
a(Vsmall conjugating protein binding
p251
I265
tp252
a(Vperoxisome
p253
I258
tp254
a(VtRNA metabolic process
p255
I257
tp256
a(Vstructural constituent of ribosome
p257
I253
tp258
a(Vprotein transporter activity
p259
I238
tp260
a(Vtranslation factor activity, nucleic acid binding
p261
I213
tp262
a(Vlipid particle
p263
I195
tp264
a(Vunfolded protein binding
p265
I184
tp266
a(Vtranslation
p267
I167
tp268
a(Vribosome
p269
I155
tp270
a(Vtransferase activity, transferring alkyl or aryl (other than methyl) groups
p271
I138
tp272
a(Vnuclear chromosome
p273
I127
tp274
a(Vribosome biogenesis
p275
I123
tp276
a(Vpigmentation
p277
I118
tp278
a(Vintracellular
p279
I117
tp280
a(VrRNA binding
p281
I78
tp282
a(Vthylakoid
p283
I42
tp284
a(Vnitrogen cycle metabolic process
p285
I39
tp286
a(Vcell
p287
I17
tp288
a(Vtransposition
p289
I12
tp290
a(Vphotosynthesis
p291
I10
tp292
aa(lp293
(g3
L6372L
tp294
a(g5
L4365L
tp295
a(g7
L2787L
tp296
a(g9
L21685L
tp297
a(g11
L26888L
tp298
a(g13
L5491L
tp299
a(g15
L5801L
tp300
a(g17
L18268L
tp301
a(g19
L21693L
tp302
a(g21
L5613L
tp303
a(g23
L21630L
tp304
a(g25
L22689L
tp305
a(g27
L7192L
tp306
a(g29
L5168L
tp307
a(g31
L7190L
tp308
a(g33
L1781L
tp309
a(g35
L13924L
tp310
a(g37
L13633L
tp311
a(g39
L4599L
tp312
a(g41
L12968L
tp313
a(g43
L5326L
tp314
a(g45
L20507L
tp315
a(g47
L4507L
tp316
a(g49
L10381L
tp317
a(g51
L26682L
tp318
a(g53
L4644L
tp319
a(g55
L4422L
tp320
a(g57
L13690L
tp321
a(g59
L4995L
tp322
a(g61
L21086L
tp323
a(g63
L2790L
tp324
a(g65
L28228L
tp325
a(g67
L26901L
tp326
a(g69
L4514L
tp327
a(g71
L31581L
tp328
a(g73
L27837L
tp329
a(g75
L10598L
tp330
a(g77
L6320L
tp331
a(g79
L29927L
tp332
a(g81
L3827L
tp333
a(g83
L4725L
tp334
a(g85
L18282L
tp335
a(g87
L5663L
tp336
a(g89
L20503L
tp337
a(g91
L28535L
tp338
a(g93
L10466L
tp339
a(g95
L7881L
tp340
a(g97
L5165L
tp341
a(g99
L6500L
tp342
a(g101
L4567L
tp343
a(g103
L10229L
tp344
a(g105
L2830L
tp345
a(g107
L4515L
tp346
a(g109
L5791L
tp347
a(g111
L4621L
tp348
a(g113
L5218L
tp349
a(g115
L5896L
tp350
a(g117
L30984L
tp351
a(g119
L4542L
tp352
a(g121
L4556L
tp353
a(g123
L6448L
tp354
a(g125
L14001L
tp355
a(g127
L6436L
tp356
a(g129
L10950L
tp357
a(g131
L6494L
tp358
a(g133
L10963L
tp359
a(g135
L4586L
tp360
a(g137
L4439L
tp361
a(g139
L6357L
tp362
a(g141
L594L
tp363
a(g143
L677L
tp364
a(g145
L759L
tp365
a(g147
L4118L
tp366
a(g149
L4366L
tp367
a(g151
L5302L
tp368
a(g153
L5471L
tp369
a(g155
L4405L
tp370
a(g157
L13967L
tp371
a(g159
L4684L
tp372
a(g161
L28144L
tp373
a(g163
L5112L
tp374
a(g165
L10829L
tp375
a(g167
L22810L
tp376
a(g169
L4546L
tp377
a(g171
L4838L
tp378
a(g173
L10870L
tp379
a(g175
L5695L
tp380
a(g177
L6169L
tp381
a(g179
L17965L
tp382
a(g181
L5582L
tp383
a(g183
L3L
tp384
a(g185
L10840L
tp385
a(g187
L2364L
tp386
a(g189
L28251L
tp387
a(g191
L3404L
tp388
a(g193
L13274L
tp389
a(g195
L3518L
tp390
a(g197
L14427L
tp391
a(g199
L4538L
tp392
a(g201
L10905L
tp393
a(g203
L6389L
tp394
a(g205
L5658L
tp395
a(g207
L7644L
tp396
a(g209
L20900L
tp397
a(g211
L13644L
tp398
a(g213
L5161L
tp399
a(g215
L4475L
tp400
a(g217
L4368L
tp401
a(g219
L4423L
tp402
a(g221
L12827L
tp403
a(g223
L2991L
tp404
a(g225
L5662L
tp405
a(g227
L14078L
tp406
a(g229
L10929L
tp407
a(g231
L4408L
tp408
a(g233
L2835L
tp409
a(g235
L5682L
tp410
a(g237
L5712L
tp411
a(g239
L10886L
tp412
a(g241
L10860L
tp413
a(g243
L14396L
tp414
a(g245
L33137L
tp415
a(g247
L10876L
tp416
a(g249
L5705L
tp417
a(g251
L15840L
tp418
a(g253
L4550L
tp419
a(g255
L5114L
tp420
a(g257
L2841L
tp421
a(g259
L6747L
tp422
a(g261
L6358L
tp423
a(g263
L4583L
tp424
a(g265
L28040L
tp425
a(g267
L5126L
tp426
a(g269
L4609L
tp427
a(g271
L10848L
tp428
a(g273
L201L
tp429
a(g275
L20770L
tp430
a(g277
L21900L
tp431
a(g279
L4411L
tp432
a(g281
L12918L
tp433
a(g283
L7683L
tp434
a(g285
L33512L
tp435
a(g287
L4412L
tp436
a(g289
L15852L
tp437
a(g291
L10192L
tp438
aaI920257
a.