(lp1
(lp2
(Vbiological_process
p3
I315602
tp4
a(Vcellular_component
p5
I101855
tp6
a(Vmolecular_function
p7
I82532
tp8
a(Vorganelle
p9
I26923
tp10
a(Vanatomical structure development
p11
I24380
tp12
a(Vtransport
p13
I17133
tp14
a(Vsignal transduction
p15
I14626
tp16
a(Vcellular nitrogen compound metabolic process
p17
I12521
tp18
a(Vresponse to stress
p19
I11203
tp20
a(Vprotein complex
p21
I10952
tp22
a(Vion binding
p23
I9930
tp24
a(Vsmall molecule metabolic process
p25
I9223
tp26
a(Vbiosynthetic process
p27
I8408
tp28
a(Vcellular protein modification process
p29
I7469
tp30
a(Vcatabolic process
p31
I6284
tp32
a(Vimmune system process
p33
I5976
tp34
a(Vcell differentiation
p35
I5811
tp36
a(Vcellular component assembly
p37
I4882
tp38
a(Vcytosol
p39
I4443
tp40
a(Vlipid metabolic process
p41
I4407
tp42
a(Venzyme binding
p43
I4373
tp44
a(Vlocomotion
p45
I3873
tp46
a(Vplasma membrane
p47
I3699
tp48
a(Vtransmembrane transporter activity
p49
I3620
tp50
a(Vanatomical structure formation involved in morphogenesis
p51
I3566
tp52
a(Vnucleolus
p53
I3486
tp54
a(Vvesicle-mediated transport
p55
I3452
tp56
a(Vnucleus
p57
I3332
tp58
a(Vhomeostatic process
p59
I3162
tp60
a(Vsignal transducer activity
p61
I3124
tp62
a(VDNA binding
p63
I3002
tp64
a(VDNA metabolic process
p65
I2998
tp66
a(Vneurological system process
p67
I2932
tp68
a(Vcytoplasm
p69
I2817
tp70
a(Vcell motility
p71
I2812
tp72
a(Vchromosome organization
p73
I2791
tp74
a(Vmacromolecular complex assembly
p75
I2630
tp76
a(Vtransmembrane transport
p77
I2588
tp78
a(Voxidoreductase activity
p79
I2578
tp80
a(Vcytoskeletal protein binding
p81
I2458
tp82
a(Vcarbohydrate metabolic process
p83
I2386
tp84
a(Vgrowth
p85
I2350
tp86
a(Vprotein maturation
p87
I2323
tp88
a(Vembryo development
p89
I2267
tp90
a(Vprotein complex assembly
p91
I2162
tp92
a(Vkinase activity
p93
I2150
tp94
a(Vcytoskeleton organization
p95
I2144
tp96
a(Vnucleobase-containing compound catabolic process
p97
I2095
tp98
a(Vcell-cell signaling
p99
I2017
tp100
a(Vcytoplasmic membrane-bounded vesicle
p101
I1923
tp102
a(Vlipid binding
p103
I1918
tp104
a(VGolgi apparatus
p105
I1835
tp106
a(Vcytoskeleton
p107
I1724
tp108
a(Vcell adhesion
p109
I1717
tp110
a(VRNA binding
p111
I1707
tp112
a(Vmitochondrion
p113
I1674
tp114
a(Vcellular amino acid metabolic process
p115
I1622
tp116
a(Vendoplasmic reticulum
p117
I1556
tp118
a(Vpeptidase activity
p119
I1536
tp120
a(Vmembrane organization
p121
I1502
tp122
a(Vendosome
p123
I1472
tp124
a(Vcell death
p125
I1470
tp126
a(Vcell proliferation
p127
I1439
tp128
a(Venzyme regulator activity
p129
I1379
tp130
a(Vligase activity
p131
I1283
tp132
a(Vnucleic acid binding transcription factor activity
p133
I1270
tp134
a(Vmicrotubule organizing center
p135
I1265
tp136
a(Vtranscription factor binding
p137
I1264
tp138
a(Vcell morphogenesis
p139
I1242
tp140
a(Vnucleoplasm
p141
I1225
tp142
a(Vprotein binding transcription factor activity
p143
I1215
tp144
a(VATPase activity
p145
I1187
tp146
a(Vsulfur compound metabolic process
p147
I1050
tp148
a(Vextracellular region
p149
I1031
tp150
a(Vstructural molecule activity
p151
I1014
tp152
a(Vextracellular space
p153
I968
tp154
a(Vextracellular matrix organization
p155
I905
tp156
a(Vprotein targeting
p157
I865
tp158
a(Vcilium
p159
I837
tp160
a(Vtransferase activity, transferring acyl groups
p161
I831
tp162
a(Vvacuole
p163
I825
tp164
a(Vcirculatory system process
p165
I808
tp166
a(Vcofactor metabolic process
p167
I785
tp168
a(VmRNA processing
p169
I731
tp170
a(Vsymbiosis, encompassing mutualism through parasitism
p171
I714
tp172
a(Vphosphatase activity
p173
I690
tp174
a(Vcell cycle
p175
I671
tp176
a(Vgeneration of precursor metabolites and energy
p177
I669
tp178
a(Vaging
p179
I628
tp180
a(Vtransferase activity, transferring glycosyl groups
p181
I625
tp182
a(Vcell junction organization
p183
I570
tp184
a(Vcell division
p185
I565
tp186
a(Vreproduction
p187
I565
tp188
a(Vnucleocytoplasmic transport
p189
I548
tp190
a(Vdevelopmental maturation
p191
I504
tp192
a(Vlysosome
p193
I494
tp194
a(Vhelicase activity
p195
I477
tp196
a(Vmethyltransferase activity
p197
I469
tp198
a(Vnuclease activity
p199
I448
tp200
a(Vlyase activity
p201
I445
tp202
a(Vplastid
p203
I444
tp204
a(Vmitochondrion organization
p205
I433
tp206
a(Vcytoskeleton-dependent intracellular transport
p207
I425
tp208
a(Vchromosome
p209
I397
tp210
a(Vproteinaceous extracellular matrix
p211
I392
tp212
a(Vhistone binding
p213
I365
tp214
a(Vprotein folding
p215
I363
tp216
a(Vribonucleoprotein complex assembly
p217
I362
tp218
a(Vnuclear envelope
p219
I348
tp220
a(Vplasma membrane organization
p221
I342
tp222
a(VGTPase activity
p223
I338
tp224
a(Vsecondary metabolic process
p225
I335
tp226
a(Vexternal encapsulating structure
p227
I307
tp228
a(Vcell wall
p229
I297
tp230
a(Visomerase activity
p231
I295
tp232
a(VmRNA binding
p233
I284
tp234
a(Vhydrolase activity, acting on glycosyl bonds
p235
I284
tp236
a(Vhydrolase activity, acting on carbon-nitrogen (but not peptide) bonds
p237
I276
tp238
a(Vmitosis
p239
I265
tp240
a(Vvacuolar transport
p241
I257
tp242
a(Vprotein binding, bridging
p243
I252
tp244
a(Vnucleotidyltransferase activity
p245
I245
tp246
a(Vcell wall organization or biogenesis
p247
I243
tp248
a(Vchromosome segregation
p249
I239
tp250
a(Vperoxisome
p251
I238
tp252
a(VtRNA metabolic process
p253
I225
tp254
a(Vsmall conjugating protein binding
p255
I208
tp256
a(Vstructural constituent of ribosome
p257
I186
tp258
a(Vtranslation factor activity, nucleic acid binding
p259
I184
tp260
a(Vlipid particle
p261
I171
tp262
a(Vprotein transporter activity
p263
I168
tp264
a(Vunfolded protein binding
p265
I159
tp266
a(Vribosome
p267
I143
tp268
a(Vtranslation
p269
I142
tp270
a(Vtransferase activity, transferring alkyl or aryl (other than methyl) groups
p271
I135
tp272
a(Vintracellular
p273
I119
tp274
a(Vnuclear chromosome
p275
I113
tp276
a(Vpigmentation
p277
I107
tp278
a(Vribosome biogenesis
p279
I94
tp280
a(VrRNA binding
p281
I68
tp282
a(Vthylakoid
p283
I38
tp284
a(Vnitrogen cycle metabolic process
p285
I23
tp286
a(Vtransposition
p287
I12
tp288
a(Vcell
p289
I8
tp290
a(Vphotosynthesis
p291
I7
tp292
aa(lp293
(g3
L6372L
tp294
a(g5
L4365L
tp295
a(g7
L2787L
tp296
a(g9
L21685L
tp297
a(g11
L26888L
tp298
a(g13
L5491L
tp299
a(g15
L5801L
tp300
a(g17
L18268L
tp301
a(g19
L5613L
tp302
a(g21
L21693L
tp303
a(g23
L21630L
tp304
a(g25
L22689L
tp305
a(g27
L7192L
tp306
a(g29
L5168L
tp307
a(g31
L7190L
tp308
a(g33
L1781L
tp309
a(g35
L13924L
tp310
a(g37
L13633L
tp311
a(g39
L4599L
tp312
a(g41
L5326L
tp313
a(g43
L12968L
tp314
a(g45
L20507L
tp315
a(g47
L4644L
tp316
a(g49
L13690L
tp317
a(g51
L26682L
tp318
a(g53
L4507L
tp319
a(g55
L10381L
tp320
a(g57
L4422L
tp321
a(g59
L21086L
tp322
a(g61
L3827L
tp323
a(g63
L2790L
tp324
a(g65
L4995L
tp325
a(g67
L27837L
tp326
a(g69
L4514L
tp327
a(g71
L26901L
tp328
a(g73
L28228L
tp329
a(g75
L31581L
tp330
a(g77
L29927L
tp331
a(g79
L10598L
tp332
a(g81
L6320L
tp333
a(g83
L4725L
tp334
a(g85
L20503L
tp335
a(g87
L28535L
tp336
a(g89
L7881L
tp337
a(g91
L5165L
tp338
a(g93
L10466L
tp339
a(g95
L5663L
tp340
a(g97
L18282L
tp341
a(g99
L5896L
tp342
a(g101
L10229L
tp343
a(g103
L6500L
tp344
a(g105
L4567L
tp345
a(g107
L4621L
tp346
a(g109
L5791L
tp347
a(g111
L2830L
tp348
a(g113
L4515L
tp349
a(g115
L5218L
tp350
a(g117
L4556L
tp351
a(g119
L6448L
tp352
a(g121
L30984L
tp353
a(g123
L4542L
tp354
a(g125
L6436L
tp355
a(g127
L6494L
tp356
a(g129
L14001L
tp357
a(g131
L10950L
tp358
a(g133
L759L
tp359
a(g135
L4586L
tp360
a(g137
L6357L
tp361
a(g139
L594L
tp362
a(g141
L4439L
tp363
a(g143
L677L
tp364
a(g145
L10963L
tp365
a(g147
L5471L
tp366
a(g149
L4366L
tp367
a(g151
L4118L
tp368
a(g153
L4405L
tp369
a(g155
L13967L
tp370
a(g157
L5302L
tp371
a(g159
L4684L
tp372
a(g161
L10829L
tp373
a(g163
L4546L
tp374
a(g165
L2364L
tp375
a(g167
L28144L
tp376
a(g169
L5112L
tp377
a(g171
L22810L
tp378
a(g173
L10870L
tp379
a(g175
L5695L
tp380
a(g177
L4838L
tp381
a(g179
L6169L
tp382
a(g181
L10840L
tp383
a(g183
L17965L
tp384
a(g185
L28251L
tp385
a(g187
L3L
tp386
a(g189
L5582L
tp387
a(g191
L13274L
tp388
a(g193
L4538L
tp389
a(g195
L3404L
tp390
a(g197
L6389L
tp391
a(g199
L3518L
tp392
a(g201
L10905L
tp393
a(g203
L7644L
tp394
a(g205
L5658L
tp395
a(g207
L14427L
tp396
a(g209
L4475L
tp397
a(g211
L4368L
tp398
a(g213
L20900L
tp399
a(g215
L5161L
tp400
a(g217
L13644L
tp401
a(g219
L4423L
tp402
a(g221
L5662L
tp403
a(g223
L2991L
tp404
a(g225
L12827L
tp405
a(g227
L14078L
tp406
a(g229
L4408L
tp407
a(g231
L10929L
tp408
a(g233
L2835L
tp409
a(g235
L10876L
tp410
a(g237
L10886L
tp411
a(g239
L5712L
tp412
a(g241
L5682L
tp413
a(g243
L14396L
tp414
a(g245
L10860L
tp415
a(g247
L33137L
tp416
a(g249
L5705L
tp417
a(g251
L4550L
tp418
a(g253
L5114L
tp419
a(g255
L15840L
tp420
a(g257
L2841L
tp421
a(g259
L6358L
tp422
a(g261
L4583L
tp423
a(g263
L6747L
tp424
a(g265
L28040L
tp425
a(g267
L4609L
tp426
a(g269
L5126L
tp427
a(g271
L10848L
tp428
a(g273
L4411L
tp429
a(g275
L201L
tp430
a(g277
L21900L
tp431
a(g279
L20770L
tp432
a(g281
L12918L
tp433
a(g283
L7683L
tp434
a(g285
L33512L
tp435
a(g287
L15852L
tp436
a(g289
L4412L
tp437
a(g291
L10192L
tp438
aaI832240
a.