(lp1
(lp2
(Vbiological_process
p3
I328224
tp4
a(Vcellular_component
p5
I110106
tp6
a(Vmolecular_function
p7
I90803
tp8
a(Vorganelle
p9
I29197
tp10
a(Vanatomical structure development
p11
I24589
tp12
a(Vtransport
p13
I18413
tp14
a(Vcellular nitrogen compound metabolic process
p15
I14863
tp16
a(Vsignal transduction
p17
I14785
tp18
a(Vresponse to stress
p19
I12128
tp20
a(Vprotein complex
p21
I12052
tp22
a(Vion binding
p23
I11460
tp24
a(Vsmall molecule metabolic process
p25
I11073
tp26
a(Vbiosynthetic process
p27
I9841
tp28
a(Vcellular protein modification process
p29
I8071
tp30
a(Vcatabolic process
p31
I7545
tp32
a(Vimmune system process
p33
I6784
tp34
a(Vcell differentiation
p35
I5564
tp36
a(Vcellular component assembly
p37
I5405
tp38
a(Vcytosol
p39
I5044
tp40
a(Vlipid metabolic process
p41
I4964
tp42
a(Venzyme binding
p43
I4711
tp44
a(Vlocomotion
p45
I4118
tp46
a(Vtransmembrane transporter activity
p47
I3944
tp48
a(Vplasma membrane
p49
I3893
tp50
a(Vnucleolus
p51
I3785
tp52
a(Vvesicle-mediated transport
p53
I3751
tp54
a(VDNA metabolic process
p55
I3585
tp56
a(Vanatomical structure formation involved in morphogenesis
p57
I3518
tp58
a(Vnucleus
p59
I3495
tp60
a(Voxidoreductase activity
p61
I3224
tp62
a(Vhomeostatic process
p63
I3221
tp64
a(Vcytoplasm
p65
I3199
tp66
a(Vchromosome organization
p67
I3137
tp68
a(VDNA binding
p69
I3033
tp70
a(Vmacromolecular complex assembly
p71
I2946
tp72
a(Vcell motility
p73
I2905
tp74
a(Vneurological system process
p75
I2866
tp76
a(Vcarbohydrate metabolic process
p77
I2851
tp78
a(Vcytoskeletal protein binding
p79
I2805
tp80
a(Vtransmembrane transport
p81
I2785
tp82
a(Vnucleobase-containing compound catabolic process
p83
I2643
tp84
a(Vprotein maturation
p85
I2600
tp86
a(Vkinase activity
p87
I2588
tp88
a(Vsignal transducer activity
p89
I2563
tp90
a(Vembryo development
p91
I2547
tp92
a(Vgrowth
p93
I2446
tp94
a(Vcytoskeleton organization
p95
I2444
tp96
a(Vprotein complex assembly
p97
I2381
tp98
a(Vcellular amino acid metabolic process
p99
I2176
tp100
a(VGolgi apparatus
p101
I2095
tp102
a(VRNA binding
p103
I2074
tp104
a(Vlipid binding
p105
I1978
tp106
a(Vcytoplasmic membrane-bounded vesicle
p107
I1972
tp108
a(Vcytoskeleton
p109
I1959
tp110
a(Vmitochondrion
p111
I1888
tp112
a(Vcell adhesion
p113
I1858
tp114
a(Vpeptidase activity
p115
I1729
tp116
a(VATPase activity
p117
I1696
tp118
a(Vcell-cell signaling
p119
I1623
tp120
a(Vendoplasmic reticulum
p121
I1612
tp122
a(Vmembrane organization
p123
I1608
tp124
a(Vcell death
p125
I1572
tp126
a(Vendosome
p127
I1542
tp128
a(Venzyme regulator activity
p129
I1519
tp130
a(Vcell proliferation
p131
I1480
tp132
a(Vligase activity
p133
I1461
tp134
a(Vmicrotubule organizing center
p135
I1380
tp136
a(Vnucleoplasm
p137
I1324
tp138
a(Vcell morphogenesis
p139
I1261
tp140
a(Vtranscription factor binding
p141
I1252
tp142
a(Vstructural molecule activity
p143
I1185
tp144
a(Vsulfur compound metabolic process
p145
I1175
tp146
a(Vprotein binding transcription factor activity
p147
I1164
tp148
a(Vnucleic acid binding transcription factor activity
p149
I1080
tp150
a(Vextracellular region
p151
I1037
tp152
a(Vextracellular matrix organization
p153
I1033
tp154
a(Vprotein targeting
p155
I1001
tp156
a(Vcofactor metabolic process
p157
I965
tp158
a(Vcilium
p159
I965
tp160
a(Vextracellular space
p161
I960
tp162
a(Vtransferase activity, transferring acyl groups
p163
I925
tp164
a(VmRNA processing
p165
I887
tp166
a(Vvacuole
p167
I862
tp168
a(Vgeneration of precursor metabolites and energy
p169
I828
tp170
a(Vsymbiosis, encompassing mutualism through parasitism
p171
I808
tp172
a(Vcell cycle
p173
I793
tp174
a(Vphosphatase activity
p175
I749
tp176
a(Vtransferase activity, transferring glycosyl groups
p177
I684
tp178
a(Vhelicase activity
p179
I670
tp180
a(Vaging
p181
I669
tp182
a(Vlyase activity
p183
I656
tp184
a(Vreproduction
p185
I643
tp186
a(Vcell division
p187
I628
tp188
a(Vcell junction organization
p189
I601
tp190
a(Vnucleocytoplasmic transport
p191
I596
tp192
a(Vcirculatory system process
p193
I596
tp194
a(Vplastid
p195
I561
tp196
a(Vdevelopmental maturation
p197
I557
tp198
a(Vnuclease activity
p199
I553
tp200
a(Vmethyltransferase activity
p201
I526
tp202
a(Vcytoskeleton-dependent intracellular transport
p203
I523
tp204
a(Vlysosome
p205
I475
tp206
a(Vmitochondrion organization
p207
I470
tp208
a(Vribonucleoprotein complex assembly
p209
I448
tp210
a(Vprotein folding
p211
I431
tp212
a(Vchromosome
p213
I418
tp214
a(Vexternal encapsulating structure
p215
I414
tp216
a(Vproteinaceous extracellular matrix
p217
I414
tp218
a(Vnuclear envelope
p219
I412
tp220
a(Vcell wall
p221
I403
tp222
a(Visomerase activity
p223
I399
tp224
a(Vhistone binding
p225
I397
tp226
a(VGTPase activity
p227
I385
tp228
a(Vsecondary metabolic process
p229
I378
tp230
a(Vplasma membrane organization
p231
I363
tp232
a(Vnucleotidyltransferase activity
p233
I348
tp234
a(VmRNA binding
p235
I346
tp236
a(VtRNA metabolic process
p237
I341
tp238
a(Vhydrolase activity, acting on glycosyl bonds
p239
I334
tp240
a(Vhydrolase activity, acting on carbon-nitrogen (but not peptide) bonds
p241
I318
tp242
a(Vmitosis
p243
I288
tp244
a(Vvacuolar transport
p245
I286
tp246
a(Vcell wall organization or biogenesis
p247
I284
tp248
a(Vstructural constituent of ribosome
p249
I277
tp250
a(Vchromosome segregation
p251
I265
tp252
a(Vperoxisome
p253
I257
tp254
a(Vprotein binding, bridging
p255
I253
tp256
a(Vtranslation factor activity, nucleic acid binding
p257
I227
tp258
a(Vsmall conjugating protein binding
p259
I227
tp260
a(Vprotein transporter activity
p261
I200
tp262
a(Vunfolded protein binding
p263
I198
tp264
a(Vlipid particle
p265
I193
tp266
a(Vtranslation
p267
I182
tp268
a(Vribosome
p269
I167
tp270
a(Vtransferase activity, transferring alkyl or aryl (other than methyl) groups
p271
I154
tp272
a(Vnuclear chromosome
p273
I128
tp274
a(Vintracellular
p275
I119
tp276
a(Vpigmentation
p277
I112
tp278
a(Vribosome biogenesis
p279
I111
tp280
a(VrRNA binding
p281
I96
tp282
a(Vthylakoid
p283
I53
tp284
a(Vnitrogen cycle metabolic process
p285
I47
tp286
a(Vphotosynthesis
p287
I14
tp288
a(Vtransposition
p289
I13
tp290
a(Vcell
p291
I10
tp292
aa(lp293
(g3
L6372L
tp294
a(g5
L4365L
tp295
a(g7
L2787L
tp296
a(g9
L21685L
tp297
a(g11
L26888L
tp298
a(g13
L5491L
tp299
a(g15
L18268L
tp300
a(g17
L5801L
tp301
a(g19
L5613L
tp302
a(g21
L21693L
tp303
a(g23
L21630L
tp304
a(g25
L22689L
tp305
a(g27
L7192L
tp306
a(g29
L5168L
tp307
a(g31
L7190L
tp308
a(g33
L1781L
tp309
a(g35
L13924L
tp310
a(g37
L13633L
tp311
a(g39
L4599L
tp312
a(g41
L5326L
tp313
a(g43
L12968L
tp314
a(g45
L20507L
tp315
a(g47
L13690L
tp316
a(g49
L4644L
tp317
a(g51
L4507L
tp318
a(g53
L10381L
tp319
a(g55
L4995L
tp320
a(g57
L26682L
tp321
a(g59
L4422L
tp322
a(g61
L10598L
tp323
a(g63
L21086L
tp324
a(g65
L4514L
tp325
a(g67
L28228L
tp326
a(g69
L2790L
tp327
a(g71
L31581L
tp328
a(g73
L26901L
tp329
a(g75
L27837L
tp330
a(g77
L4725L
tp331
a(g79
L6320L
tp332
a(g81
L29927L
tp333
a(g83
L18282L
tp334
a(g85
L28535L
tp335
a(g87
L10466L
tp336
a(g89
L3827L
tp337
a(g91
L7881L
tp338
a(g93
L20503L
tp339
a(g95
L5663L
tp340
a(g97
L5165L
tp341
a(g99
L5218L
tp342
a(g101
L4567L
tp343
a(g103
L2830L
tp344
a(g105
L6500L
tp345
a(g107
L10229L
tp346
a(g109
L4621L
tp347
a(g111
L4515L
tp348
a(g113
L5791L
tp349
a(g115
L6448L
tp350
a(g117
L10963L
tp351
a(g119
L5896L
tp352
a(g121
L4556L
tp353
a(g123
L30984L
tp354
a(g125
L6436L
tp355
a(g127
L4542L
tp356
a(g129
L14001L
tp357
a(g131
L6494L
tp358
a(g133
L10950L
tp359
a(g135
L4586L
tp360
a(g137
L4439L
tp361
a(g139
L594L
tp362
a(g141
L6357L
tp363
a(g143
L4118L
tp364
a(g145
L5471L
tp365
a(g147
L677L
tp366
a(g149
L759L
tp367
a(g151
L4366L
tp368
a(g153
L13967L
tp369
a(g155
L5302L
tp370
a(g157
L28144L
tp371
a(g159
L4684L
tp372
a(g161
L4405L
tp373
a(g163
L10829L
tp374
a(g165
L5112L
tp375
a(g167
L4546L
tp376
a(g169
L4838L
tp377
a(g171
L22810L
tp378
a(g173
L5695L
tp379
a(g175
L10870L
tp380
a(g177
L10840L
tp381
a(g179
L3404L
tp382
a(g181
L6169L
tp383
a(g183
L10905L
tp384
a(g185
L3L
tp385
a(g187
L28251L
tp386
a(g189
L17965L
tp387
a(g191
L5582L
tp388
a(g193
L2364L
tp389
a(g195
L7644L
tp390
a(g197
L13274L
tp391
a(g199
L3518L
tp392
a(g201
L6389L
tp393
a(g203
L14427L
tp394
a(g205
L4538L
tp395
a(g207
L5658L
tp396
a(g209
L13644L
tp397
a(g211
L5161L
tp398
a(g213
L4475L
tp399
a(g215
L14078L
tp400
a(g217
L4368L
tp401
a(g219
L4423L
tp402
a(g221
L4408L
tp403
a(g223
L10929L
tp404
a(g225
L20900L
tp405
a(g227
L2991L
tp406
a(g229
L12827L
tp407
a(g231
L5662L
tp408
a(g233
L10860L
tp409
a(g235
L2835L
tp410
a(g237
L5114L
tp411
a(g239
L10876L
tp412
a(g241
L10886L
tp413
a(g243
L5712L
tp414
a(g245
L5682L
tp415
a(g247
L33137L
tp416
a(g249
L2841L
tp417
a(g251
L5705L
tp418
a(g253
L4550L
tp419
a(g255
L14396L
tp420
a(g257
L6358L
tp421
a(g259
L15840L
tp422
a(g261
L6747L
tp423
a(g263
L28040L
tp424
a(g265
L4583L
tp425
a(g267
L5126L
tp426
a(g269
L4609L
tp427
a(g271
L10848L
tp428
a(g273
L201L
tp429
a(g275
L4411L
tp430
a(g277
L21900L
tp431
a(g279
L20770L
tp432
a(g281
L12918L
tp433
a(g283
L7683L
tp434
a(g285
L33512L
tp435
a(g287
L10192L
tp436
a(g289
L15852L
tp437
a(g291
L4412L
tp438
aaI892489
a.