(lp1
(lp2
(Vbiological_process
p3
I178036
tp4
a(Vcellular_component
p5
I58517
tp6
a(Vmolecular_function
p7
I48732
tp8
a(Vorganelle
p9
I15534
tp10
a(Vanatomical structure development
p11
I13686
tp12
a(Vtransport
p13
I9696
tp14
a(Vsignal transduction
p15
I8293
tp16
a(Vcellular nitrogen compound metabolic process
p17
I7391
tp18
a(Vprotein complex
p19
I6642
tp20
a(Vresponse to stress
p21
I6422
tp22
a(Vion binding
p23
I5986
tp24
a(Vsmall molecule metabolic process
p25
I5211
tp26
a(Vcellular protein modification process
p27
I4591
tp28
a(Vbiosynthetic process
p29
I4491
tp30
a(Vcatabolic process
p31
I3718
tp32
a(Vimmune system process
p33
I3688
tp34
a(Vcell differentiation
p35
I3375
tp36
a(Vcellular component assembly
p37
I2943
tp38
a(Venzyme binding
p39
I2772
tp40
a(Vcytosol
p41
I2682
tp42
a(Vlipid metabolic process
p43
I2581
tp44
a(Vlocomotion
p45
I2428
tp46
a(Vanatomical structure formation involved in morphogenesis
p47
I2179
tp48
a(Vvesicle-mediated transport
p49
I2083
tp50
a(Vnucleolus
p51
I2050
tp52
a(Vtransmembrane transporter activity
p53
I2015
tp54
a(Vplasma membrane
p55
I1998
tp56
a(Vnucleus
p57
I1969
tp58
a(VDNA metabolic process
p59
I1875
tp60
a(Vhomeostatic process
p61
I1787
tp62
a(Vcell motility
p63
I1758
tp64
a(VDNA binding
p65
I1746
tp66
a(Vcytoplasm
p67
I1712
tp68
a(Vchromosome organization
p69
I1711
tp70
a(Vneurological system process
p71
I1574
tp72
a(Vmacromolecular complex assembly
p73
I1572
tp74
a(Vtransmembrane transport
p75
I1494
tp76
a(Voxidoreductase activity
p77
I1459
tp78
a(Vcytoskeletal protein binding
p79
I1458
tp80
a(Vsignal transducer activity
p81
I1420
tp82
a(Vkinase activity
p83
I1397
tp84
a(Vgrowth
p85
I1353
tp86
a(Vcarbohydrate metabolic process
p87
I1349
tp88
a(Vprotein maturation
p89
I1338
tp90
a(Vnucleobase-containing compound catabolic process
p91
I1327
tp92
a(Vcytoskeleton organization
p93
I1300
tp94
a(Vprotein complex assembly
p95
I1298
tp96
a(Vembryo development
p97
I1293
tp98
a(Vcell adhesion
p99
I1159
tp100
a(Vlipid binding
p101
I1144
tp102
a(VGolgi apparatus
p103
I1111
tp104
a(Vcytoplasmic membrane-bounded vesicle
p105
I1088
tp106
a(Vmitochondrion
p107
I1021
tp108
a(Vcytoskeleton
p109
I1008
tp110
a(VRNA binding
p111
I969
tp112
a(Vcell-cell signaling
p113
I940
tp114
a(Vendosome
p115
I924
tp116
a(Vmembrane organization
p117
I918
tp118
a(Vligase activity
p119
I890
tp120
a(Vcellular amino acid metabolic process
p121
I888
tp122
a(Vendoplasmic reticulum
p123
I875
tp124
a(Vpeptidase activity
p125
I874
tp126
a(Vcell proliferation
p127
I857
tp128
a(Venzyme regulator activity
p129
I849
tp130
a(VATPase activity
p131
I840
tp132
a(Vcell death
p133
I820
tp134
a(Vcell morphogenesis
p135
I797
tp136
a(Vtranscription factor binding
p137
I755
tp138
a(Vmicrotubule organizing center
p139
I752
tp140
a(Vnucleoplasm
p141
I743
tp142
a(Vprotein binding transcription factor activity
p143
I729
tp144
a(Vnucleic acid binding transcription factor activity
p145
I687
tp146
a(Vstructural molecule activity
p147
I579
tp148
a(Vextracellular region
p149
I577
tp150
a(Vextracellular space
p151
I514
tp152
a(Vcilium
p153
I503
tp154
a(Vprotein targeting
p155
I496
tp156
a(Vextracellular matrix organization
p157
I487
tp158
a(Vsulfur compound metabolic process
p159
I480
tp160
a(Vcofactor metabolic process
p161
I462
tp162
a(Vsymbiosis, encompassing mutualism through parasitism
p163
I457
tp164
a(Vvacuole
p165
I438
tp166
a(VmRNA processing
p167
I435
tp168
a(Vtransferase activity, transferring acyl groups
p169
I430
tp170
a(Vphosphatase activity
p171
I428
tp172
a(Vcell cycle
p173
I391
tp174
a(Vgeneration of precursor metabolites and energy
p175
I387
tp176
a(Vcell junction organization
p177
I380
tp178
a(Vaging
p179
I365
tp180
a(Vnucleocytoplasmic transport
p181
I350
tp182
a(Vtransferase activity, transferring glycosyl groups
p183
I348
tp184
a(Vreproduction
p185
I344
tp186
a(Vhelicase activity
p187
I327
tp188
a(Vcell division
p189
I323
tp190
a(Vcirculatory system process
p191
I313
tp192
a(Vdevelopmental maturation
p193
I306
tp194
a(Vnuclease activity
p195
I294
tp196
a(Vcytoskeleton-dependent intracellular transport
p197
I280
tp198
a(Vmitochondrion organization
p199
I265
tp200
a(Vlysosome
p201
I262
tp202
a(Vmethyltransferase activity
p203
I257
tp204
a(Vlyase activity
p205
I251
tp206
a(Vhistone binding
p207
I236
tp208
a(Vproteinaceous extracellular matrix
p209
I228
tp210
a(Vplastid
p211
I219
tp212
a(Vprotein folding
p213
I217
tp214
a(Vchromosome
p215
I217
tp216
a(Vnuclear envelope
p217
I211
tp218
a(Vribonucleoprotein complex assembly
p219
I210
tp220
a(Vplasma membrane organization
p221
I201
tp222
a(Vsecondary metabolic process
p223
I190
tp224
a(VGTPase activity
p225
I181
tp226
a(Vvacuolar transport
p227
I162
tp228
a(Vmitosis
p229
I162
tp230
a(Visomerase activity
p231
I159
tp232
a(Vnucleotidyltransferase activity
p233
I159
tp234
a(Vprotein binding, bridging
p235
I156
tp236
a(Vhydrolase activity, acting on carbon-nitrogen (but not peptide) bonds
p237
I155
tp238
a(VmRNA binding
p239
I151
tp240
a(Vexternal encapsulating structure
p241
I144
tp242
a(Vsmall conjugating protein binding
p243
I141
tp244
a(Vcell wall
p245
I139
tp246
a(Vhydrolase activity, acting on glycosyl bonds
p247
I137
tp248
a(Vprotein transporter activity
p249
I133
tp250
a(Vcell wall organization or biogenesis
p251
I132
tp252
a(Vchromosome segregation
p253
I130
tp254
a(Vperoxisome
p255
I119
tp256
a(VtRNA metabolic process
p257
I113
tp258
a(Vlipid particle
p259
I95
tp260
a(Vunfolded protein binding
p261
I86
tp262
a(Vtranslation factor activity, nucleic acid binding
p263
I86
tp264
a(Vstructural constituent of ribosome
p265
I80
tp266
a(Vtranslation
p267
I76
tp268
a(Vribosome
p269
I68
tp270
a(Vtransferase activity, transferring alkyl or aryl (other than methyl) groups
p271
I68
tp272
a(Vpigmentation
p273
I65
tp274
a(Vintracellular
p275
I62
tp276
a(Vnuclear chromosome
p277
I57
tp278
a(Vribosome biogenesis
p279
I55
tp280
a(VrRNA binding
p281
I29
tp282
a(Vnitrogen cycle metabolic process
p283
I21
tp284
a(Vthylakoid
p285
I19
tp286
a(Vcell
p287
I12
tp288
a(Vphotosynthesis
p289
I5
tp290
a(Vtransposition
p291
I4
tp292
aa(lp293
(g3
L6372L
tp294
a(g5
L4365L
tp295
a(g7
L2787L
tp296
a(g9
L21685L
tp297
a(g11
L26888L
tp298
a(g13
L5491L
tp299
a(g15
L5801L
tp300
a(g17
L18268L
tp301
a(g19
L21693L
tp302
a(g21
L5613L
tp303
a(g23
L21630L
tp304
a(g25
L22689L
tp305
a(g27
L5168L
tp306
a(g29
L7192L
tp307
a(g31
L7190L
tp308
a(g33
L1781L
tp309
a(g35
L13924L
tp310
a(g37
L13633L
tp311
a(g39
L12968L
tp312
a(g41
L4599L
tp313
a(g43
L5326L
tp314
a(g45
L20507L
tp315
a(g47
L26682L
tp316
a(g49
L10381L
tp317
a(g51
L4507L
tp318
a(g53
L13690L
tp319
a(g55
L4644L
tp320
a(g57
L4422L
tp321
a(g59
L4995L
tp322
a(g61
L21086L
tp323
a(g63
L26901L
tp324
a(g65
L2790L
tp325
a(g67
L4514L
tp326
a(g69
L28228L
tp327
a(g71
L27837L
tp328
a(g73
L31581L
tp329
a(g75
L29927L
tp330
a(g77
L10598L
tp331
a(g79
L6320L
tp332
a(g81
L3827L
tp333
a(g83
L10466L
tp334
a(g85
L20503L
tp335
a(g87
L4725L
tp336
a(g89
L28535L
tp337
a(g91
L18282L
tp338
a(g93
L5663L
tp339
a(g95
L5165L
tp340
a(g97
L7881L
tp341
a(g99
L5791L
tp342
a(g101
L6500L
tp343
a(g103
L4567L
tp344
a(g105
L10229L
tp345
a(g107
L4515L
tp346
a(g109
L4621L
tp347
a(g111
L2830L
tp348
a(g113
L5896L
tp349
a(g115
L4542L
tp350
a(g117
L30984L
tp351
a(g119
L10950L
tp352
a(g121
L5218L
tp353
a(g123
L4556L
tp354
a(g125
L6448L
tp355
a(g127
L6494L
tp356
a(g129
L14001L
tp357
a(g131
L10963L
tp358
a(g133
L6436L
tp359
a(g135
L594L
tp360
a(g137
L6357L
tp361
a(g139
L4586L
tp362
a(g141
L4439L
tp363
a(g143
L677L
tp364
a(g145
L759L
tp365
a(g147
L4118L
tp366
a(g149
L4366L
tp367
a(g151
L4405L
tp368
a(g153
L4684L
tp369
a(g155
L5302L
tp370
a(g157
L13967L
tp371
a(g159
L5471L
tp372
a(g161
L28144L
tp373
a(g163
L22810L
tp374
a(g165
L4546L
tp375
a(g167
L5112L
tp376
a(g169
L10829L
tp377
a(g171
L10870L
tp378
a(g173
L5695L
tp379
a(g175
L4838L
tp380
a(g177
L17965L
tp381
a(g179
L6169L
tp382
a(g181
L5582L
tp383
a(g183
L10840L
tp384
a(g185
L3L
tp385
a(g187
L3404L
tp386
a(g189
L28251L
tp387
a(g191
L2364L
tp388
a(g193
L13274L
tp389
a(g195
L3518L
tp390
a(g197
L14427L
tp391
a(g199
L5658L
tp392
a(g201
L4538L
tp393
a(g203
L6389L
tp394
a(g205
L10905L
tp395
a(g207
L20900L
tp396
a(g209
L4368L
tp397
a(g211
L7644L
tp398
a(g213
L5161L
tp399
a(g215
L4475L
tp400
a(g217
L4423L
tp401
a(g219
L13644L
tp402
a(g221
L5662L
tp403
a(g223
L12827L
tp404
a(g225
L2991L
tp405
a(g227
L5682L
tp406
a(g229
L5712L
tp407
a(g231
L10929L
tp408
a(g233
L10860L
tp409
a(g235
L14396L
tp410
a(g237
L10886L
tp411
a(g239
L2835L
tp412
a(g241
L14078L
tp413
a(g243
L15840L
tp414
a(g245
L4408L
tp415
a(g247
L10876L
tp416
a(g249
L6747L
tp417
a(g251
L33137L
tp418
a(g253
L5705L
tp419
a(g255
L4550L
tp420
a(g257
L5114L
tp421
a(g259
L4583L
tp422
a(g261
L28040L
tp423
a(g263
L6358L
tp424
a(g265
L2841L
tp425
a(g267
L5126L
tp426
a(g269
L4609L
tp427
a(g271
L10848L
tp428
a(g273
L21900L
tp429
a(g275
L4411L
tp430
a(g277
L201L
tp431
a(g279
L20770L
tp432
a(g281
L12918L
tp433
a(g283
L33512L
tp434
a(g285
L7683L
tp435
a(g287
L4412L
tp436
a(g289
L10192L
tp437
a(g291
L15852L
tp438
aaI478587
a.