(lp1
(lp2
(Vbiological_process
p3
I346063
tp4
a(Vcellular_component
p5
I113985
tp6
a(Vmolecular_function
p7
I94410
tp8
a(Vorganelle
p9
I30077
tp10
a(Vanatomical structure development
p11
I26420
tp12
a(Vtransport
p13
I19300
tp14
a(Vsignal transduction
p15
I15640
tp16
a(Vcellular nitrogen compound metabolic process
p17
I14961
tp18
a(Vresponse to stress
p19
I12569
tp20
a(Vprotein complex
p21
I12361
tp22
a(Vion binding
p23
I11678
tp24
a(Vsmall molecule metabolic process
p25
I11002
tp26
a(Vbiosynthetic process
p27
I9565
tp28
a(Vcellular protein modification process
p29
I8523
tp30
a(Vcatabolic process
p31
I7546
tp32
a(Vimmune system process
p33
I7289
tp34
a(Vcell differentiation
p35
I6065
tp36
a(Vcellular component assembly
p37
I5539
tp38
a(Vlipid metabolic process
p39
I5049
tp40
a(Venzyme binding
p41
I5020
tp42
a(Vcytosol
p43
I5014
tp44
a(Vlocomotion
p45
I4477
tp46
a(Vtransmembrane transporter activity
p47
I4302
tp48
a(Vplasma membrane
p49
I3932
tp50
a(Vvesicle-mediated transport
p51
I3859
tp52
a(Vanatomical structure formation involved in morphogenesis
p53
I3828
tp54
a(Vnucleolus
p55
I3775
tp56
a(VDNA metabolic process
p57
I3756
tp58
a(Vnucleus
p59
I3696
tp60
a(Vcytoplasm
p61
I3457
tp62
a(Vhomeostatic process
p63
I3363
tp64
a(Vchromosome organization
p65
I3218
tp66
a(Voxidoreductase activity
p67
I3167
tp68
a(Vcell motility
p69
I3161
tp70
a(VDNA binding
p71
I3158
tp72
a(Vtransmembrane transport
p73
I3019
tp74
a(Vmacromolecular complex assembly
p75
I3004
tp76
a(Vneurological system process
p77
I2972
tp78
a(Vcytoskeletal protein binding
p79
I2839
tp80
a(Vcarbohydrate metabolic process
p81
I2833
tp82
a(Vkinase activity
p83
I2792
tp84
a(Vsignal transducer activity
p85
I2683
tp86
a(Vprotein maturation
p87
I2680
tp88
a(Vnucleobase-containing compound catabolic process
p89
I2663
tp90
a(Vembryo development
p91
I2553
tp92
a(Vgrowth
p93
I2553
tp94
a(Vprotein complex assembly
p95
I2470
tp96
a(Vcytoskeleton organization
p97
I2436
tp98
a(VGolgi apparatus
p99
I2162
tp100
a(Vcell adhesion
p101
I2147
tp102
a(Vcellular amino acid metabolic process
p103
I2082
tp104
a(Vcytoskeleton
p105
I2014
tp106
a(Vcytoplasmic membrane-bounded vesicle
p107
I2010
tp108
a(Vlipid binding
p109
I2003
tp110
a(VRNA binding
p111
I1955
tp112
a(Vmitochondrion
p113
I1899
tp114
a(VATPase activity
p115
I1807
tp116
a(Vpeptidase activity
p117
I1771
tp118
a(Vcell-cell signaling
p119
I1732
tp120
a(Vmembrane organization
p121
I1676
tp122
a(Vendosome
p123
I1636
tp124
a(Vligase activity
p125
I1631
tp126
a(Vendoplasmic reticulum
p127
I1626
tp128
a(Vcell proliferation
p129
I1600
tp130
a(Vcell death
p131
I1591
tp132
a(Venzyme regulator activity
p133
I1533
tp134
a(Vcell morphogenesis
p135
I1437
tp136
a(Vmicrotubule organizing center
p137
I1387
tp138
a(Vnucleoplasm
p139
I1334
tp140
a(Vtranscription factor binding
p141
I1307
tp142
a(Vprotein binding transcription factor activity
p143
I1211
tp144
a(Vnucleic acid binding transcription factor activity
p145
I1118
tp146
a(Vstructural molecule activity
p147
I1098
tp148
a(Vextracellular region
p149
I1083
tp150
a(Vsulfur compound metabolic process
p151
I1068
tp152
a(Vextracellular matrix organization
p153
I1033
tp154
a(Vcilium
p155
I1031
tp156
a(Vextracellular space
p157
I977
tp158
a(Vcofactor metabolic process
p159
I960
tp160
a(Vprotein targeting
p161
I920
tp162
a(Vtransferase activity, transferring acyl groups
p163
I885
tp164
a(Vvacuole
p165
I861
tp166
a(VmRNA processing
p167
I852
tp168
a(Vsymbiosis, encompassing mutualism through parasitism
p169
I838
tp170
a(Vcell cycle
p171
I836
tp172
a(Vphosphatase activity
p173
I804
tp174
a(Vgeneration of precursor metabolites and energy
p175
I776
tp176
a(Vhelicase activity
p177
I733
tp178
a(Vtransferase activity, transferring glycosyl groups
p179
I717
tp180
a(Vaging
p181
I682
tp182
a(Vreproduction
p183
I667
tp184
a(Vcell junction organization
p185
I651
tp186
a(Vcell division
p187
I651
tp188
a(Vlyase activity
p189
I642
tp190
a(Vnucleocytoplasmic transport
p191
I615
tp192
a(Vnuclease activity
p193
I594
tp194
a(Vdevelopmental maturation
p195
I593
tp196
a(Vcirculatory system process
p197
I586
tp198
a(Vcytoskeleton-dependent intracellular transport
p199
I546
tp200
a(Vmethyltransferase activity
p201
I525
tp202
a(Vplastid
p203
I488
tp204
a(Vmitochondrion organization
p205
I488
tp206
a(Vlysosome
p207
I480
tp208
a(Vproteinaceous extracellular matrix
p209
I446
tp210
a(Vprotein folding
p211
I425
tp212
a(Vribonucleoprotein complex assembly
p213
I419
tp214
a(Vchromosome
p215
I416
tp216
a(Vhistone binding
p217
I413
tp218
a(Vnuclear envelope
p219
I411
tp220
a(Vplasma membrane organization
p221
I405
tp222
a(Visomerase activity
p223
I375
tp224
a(Vsecondary metabolic process
p225
I372
tp226
a(VGTPase activity
p227
I367
tp228
a(Vnucleotidyltransferase activity
p229
I361
tp230
a(Vexternal encapsulating structure
p231
I353
tp232
a(Vcell wall
p233
I341
tp234
a(Vhydrolase activity, acting on glycosyl bonds
p235
I329
tp236
a(Vhydrolase activity, acting on carbon-nitrogen (but not peptide) bonds
p237
I319
tp238
a(VmRNA binding
p239
I312
tp240
a(VtRNA metabolic process
p241
I310
tp242
a(Vmitosis
p243
I290
tp244
a(Vvacuolar transport
p245
I285
tp246
a(Vprotein binding, bridging
p247
I266
tp248
a(Vcell wall organization or biogenesis
p249
I263
tp250
a(Vchromosome segregation
p251
I259
tp252
a(Vsmall conjugating protein binding
p253
I244
tp254
a(Vperoxisome
p255
I237
tp256
a(Vprotein transporter activity
p257
I228
tp258
a(Vlipid particle
p259
I188
tp260
a(Vunfolded protein binding
p261
I186
tp262
a(Vtranslation factor activity, nucleic acid binding
p263
I186
tp264
a(Vstructural constituent of ribosome
p265
I184
tp266
a(Vtranslation
p267
I167
tp268
a(Vtransferase activity, transferring alkyl or aryl (other than methyl) groups
p269
I152
tp270
a(Vribosome
p271
I148
tp272
a(Vintracellular
p273
I126
tp274
a(Vpigmentation
p275
I124
tp276
a(Vnuclear chromosome
p277
I115
tp278
a(Vribosome biogenesis
p279
I98
tp280
a(VrRNA binding
p281
I76
tp282
a(Vnitrogen cycle metabolic process
p283
I50
tp284
a(Vthylakoid
p285
I49
tp286
a(Vcell
p287
I17
tp288
a(Vphotosynthesis
p289
I14
tp290
a(Vtransposition
p291
I9
tp292
aa(lp293
(g3
L6372L
tp294
a(g5
L4365L
tp295
a(g7
L2787L
tp296
a(g9
L21685L
tp297
a(g11
L26888L
tp298
a(g13
L5491L
tp299
a(g15
L5801L
tp300
a(g17
L18268L
tp301
a(g19
L5613L
tp302
a(g21
L21693L
tp303
a(g23
L21630L
tp304
a(g25
L22689L
tp305
a(g27
L7192L
tp306
a(g29
L5168L
tp307
a(g31
L7190L
tp308
a(g33
L1781L
tp309
a(g35
L13924L
tp310
a(g37
L13633L
tp311
a(g39
L5326L
tp312
a(g41
L12968L
tp313
a(g43
L4599L
tp314
a(g45
L20507L
tp315
a(g47
L13690L
tp316
a(g49
L4644L
tp317
a(g51
L10381L
tp318
a(g53
L26682L
tp319
a(g55
L4507L
tp320
a(g57
L4995L
tp321
a(g59
L4422L
tp322
a(g61
L4514L
tp323
a(g63
L21086L
tp324
a(g65
L28228L
tp325
a(g67
L10598L
tp326
a(g69
L26901L
tp327
a(g71
L2790L
tp328
a(g73
L29927L
tp329
a(g75
L31581L
tp330
a(g77
L27837L
tp331
a(g79
L6320L
tp332
a(g81
L4725L
tp333
a(g83
L10466L
tp334
a(g85
L3827L
tp335
a(g87
L28535L
tp336
a(g89
L18282L
tp337
a(g91
L7881L
tp338
a(g93
L20503L
tp339
a(g95
L5165L
tp340
a(g97
L5663L
tp341
a(g99
L4567L
tp342
a(g101
L5791L
tp343
a(g103
L5218L
tp344
a(g105
L4621L
tp345
a(g107
L10229L
tp346
a(g109
L6500L
tp347
a(g111
L2830L
tp348
a(g113
L4515L
tp349
a(g115
L10963L
tp350
a(g117
L6448L
tp351
a(g119
L5896L
tp352
a(g121
L30984L
tp353
a(g123
L4542L
tp354
a(g125
L10950L
tp355
a(g127
L4556L
tp356
a(g129
L6494L
tp357
a(g131
L6436L
tp358
a(g133
L14001L
tp359
a(g135
L594L
tp360
a(g137
L4586L
tp361
a(g139
L4439L
tp362
a(g141
L6357L
tp363
a(g143
L677L
tp364
a(g145
L759L
tp365
a(g147
L4118L
tp366
a(g149
L4366L
tp367
a(g151
L5471L
tp368
a(g153
L13967L
tp369
a(g155
L4684L
tp370
a(g157
L4405L
tp371
a(g159
L28144L
tp372
a(g161
L5302L
tp373
a(g163
L10829L
tp374
a(g165
L4546L
tp375
a(g167
L5112L
tp376
a(g169
L22810L
tp377
a(g171
L5695L
tp378
a(g173
L10870L
tp379
a(g175
L4838L
tp380
a(g177
L3404L
tp381
a(g179
L10840L
tp382
a(g181
L6169L
tp383
a(g183
L3L
tp384
a(g185
L17965L
tp385
a(g187
L28251L
tp386
a(g189
L10905L
tp387
a(g191
L5582L
tp388
a(g193
L3518L
tp389
a(g195
L13274L
tp390
a(g197
L2364L
tp391
a(g199
L14427L
tp392
a(g201
L6389L
tp393
a(g203
L7644L
tp394
a(g205
L5658L
tp395
a(g207
L4538L
tp396
a(g209
L4368L
tp397
a(g211
L5161L
tp398
a(g213
L13644L
tp399
a(g215
L4475L
tp400
a(g217
L20900L
tp401
a(g219
L4423L
tp402
a(g221
L5662L
tp403
a(g223
L10929L
tp404
a(g225
L12827L
tp405
a(g227
L2991L
tp406
a(g229
L10860L
tp407
a(g231
L14078L
tp408
a(g233
L4408L
tp409
a(g235
L10876L
tp410
a(g237
L10886L
tp411
a(g239
L2835L
tp412
a(g241
L5114L
tp413
a(g243
L5712L
tp414
a(g245
L5682L
tp415
a(g247
L14396L
tp416
a(g249
L33137L
tp417
a(g251
L5705L
tp418
a(g253
L15840L
tp419
a(g255
L4550L
tp420
a(g257
L6747L
tp421
a(g259
L4583L
tp422
a(g261
L28040L
tp423
a(g263
L6358L
tp424
a(g265
L2841L
tp425
a(g267
L5126L
tp426
a(g269
L10848L
tp427
a(g271
L4609L
tp428
a(g273
L4411L
tp429
a(g275
L21900L
tp430
a(g277
L201L
tp431
a(g279
L20770L
tp432
a(g281
L12918L
tp433
a(g283
L33512L
tp434
a(g285
L7683L
tp435
a(g287
L4412L
tp436
a(g289
L10192L
tp437
a(g291
L15852L
tp438
aaI929406
a.