(lp1
(lp2
(Vbiological_process
p3
I233577
tp4
a(Vcellular_component
p5
I80384
tp6
a(Vmolecular_function
p7
I73342
tp8
a(Vorganelle
p9
I20826
tp10
a(Vanatomical structure development
p11
I16075
tp12
a(Vtransport
p13
I14768
tp14
a(Vcellular nitrogen compound metabolic process
p15
I13042
tp16
a(Vsignal transduction
p17
I10632
tp18
a(Vsmall molecule metabolic process
p19
I10414
tp20
a(Vion binding
p21
I9650
tp22
a(Vresponse to stress
p23
I9530
tp24
a(Vprotein complex
p25
I9342
tp26
a(Vbiosynthetic process
p27
I9052
tp28
a(Vcatabolic process
p29
I6928
tp30
a(Vcellular protein modification process
p31
I6234
tp32
a(Vimmune system process
p33
I4719
tp34
a(Vcellular component assembly
p35
I4230
tp36
a(Vcytosol
p37
I4145
tp38
a(Vlipid metabolic process
p39
I4011
tp40
a(Vcell differentiation
p41
I3916
tp42
a(Vtransmembrane transporter activity
p43
I3635
tp44
a(Vplasma membrane
p45
I3430
tp46
a(Venzyme binding
p47
I3400
tp48
a(Voxidoreductase activity
p49
I3328
tp50
a(VDNA metabolic process
p51
I3219
tp52
a(Vnucleolus
p53
I2955
tp54
a(VDNA binding
p55
I2836
tp56
a(Vlocomotion
p57
I2780
tp58
a(Vcytoplasm
p59
I2742
tp60
a(Vcarbohydrate metabolic process
p61
I2707
tp62
a(Vnucleus
p63
I2665
tp64
a(Vtransmembrane transport
p65
I2649
tp66
a(Vvesicle-mediated transport
p67
I2643
tp68
a(Vanatomical structure formation involved in morphogenesis
p69
I2528
tp70
a(Vcellular amino acid metabolic process
p71
I2452
tp72
a(Vmacromolecular complex assembly
p73
I2437
tp74
a(Vchromosome organization
p75
I2425
tp76
a(Vnucleobase-containing compound catabolic process
p77
I2296
tp78
a(Vhomeostatic process
p79
I2233
tp80
a(Vkinase activity
p81
I2034
tp82
a(Vprotein complex assembly
p83
I1994
tp84
a(Vembryo development
p85
I1948
tp86
a(Vprotein maturation
p87
I1895
tp88
a(Vgrowth
p89
I1864
tp90
a(Vcell motility
p91
I1848
tp92
a(Vcytoskeleton organization
p93
I1787
tp94
a(Vcytoskeletal protein binding
p95
I1780
tp96
a(VRNA binding
p97
I1771
tp98
a(Vsignal transducer activity
p99
I1717
tp100
a(Vneurological system process
p101
I1644
tp102
a(Vmitochondrion
p103
I1593
tp104
a(VATPase activity
p105
I1577
tp106
a(Vlipid binding
p107
I1422
tp108
a(Vcytoplasmic membrane-bounded vesicle
p109
I1399
tp110
a(VGolgi apparatus
p111
I1381
tp112
a(Vligase activity
p113
I1332
tp114
a(Vcytoskeleton
p115
I1252
tp116
a(Vpeptidase activity
p117
I1242
tp118
a(Vendoplasmic reticulum
p119
I1226
tp120
a(Vmembrane organization
p121
I1197
tp122
a(Vcofactor metabolic process
p123
I1164
tp124
a(Venzyme regulator activity
p125
I1144
tp126
a(Vcell adhesion
p127
I1127
tp128
a(Vcell death
p129
I1098
tp130
a(Vtranscription factor binding
p131
I1055
tp132
a(Vnucleic acid binding transcription factor activity
p133
I1040
tp134
a(Vendosome
p135
I1039
tp136
a(Vcell proliferation
p137
I1031
tp138
a(Vmicrotubule organizing center
p139
I1029
tp140
a(Vnucleoplasm
p141
I1024
tp142
a(Vcell-cell signaling
p143
I1016
tp144
a(Vprotein binding transcription factor activity
p145
I1011
tp146
a(Vsulfur compound metabolic process
p147
I919
tp148
a(Vstructural molecule activity
p149
I898
tp150
a(Vgeneration of precursor metabolites and energy
p151
I888
tp152
a(Vcell morphogenesis
p153
I853
tp154
a(Vtransferase activity, transferring acyl groups
p155
I824
tp156
a(Vprotein targeting
p157
I762
tp158
a(Vextracellular region
p159
I724
tp160
a(Vlyase activity
p161
I703
tp162
a(Vsymbiosis, encompassing mutualism through parasitism
p163
I698
tp164
a(VmRNA processing
p165
I666
tp166
a(Vphosphatase activity
p167
I602
tp168
a(Vnuclease activity
p169
I597
tp170
a(Vextracellular space
p171
I587
tp172
a(Vvacuole
p173
I563
tp174
a(Vextracellular matrix organization
p175
I560
tp176
a(Vtransferase activity, transferring glycosyl groups
p177
I557
tp178
a(Vexternal encapsulating structure
p179
I546
tp180
a(Vhelicase activity
p181
I542
tp182
a(Vcell wall
p183
I525
tp184
a(Vcilium
p185
I522
tp186
a(Vcell cycle
p187
I518
tp188
a(Vreproduction
p189
I491
tp190
a(Vnucleocytoplasmic transport
p191
I485
tp192
a(Vmethyltransferase activity
p193
I482
tp194
a(Vprotein folding
p195
I471
tp196
a(Vplastid
p197
I462
tp198
a(Vcell division
p199
I459
tp200
a(Visomerase activity
p201
I456
tp202
a(Vsecondary metabolic process
p203
I445
tp204
a(Vaging
p205
I439
tp206
a(Vcell junction organization
p207
I438
tp208
a(Vnucleotidyltransferase activity
p209
I402
tp210
a(Vhydrolase activity, acting on carbon-nitrogen (but not peptide) bonds
p211
I390
tp212
a(Vdevelopmental maturation
p213
I380
tp214
a(Vmitochondrion organization
p215
I371
tp216
a(Vchromosome
p217
I356
tp218
a(VtRNA metabolic process
p219
I355
tp220
a(Vribonucleoprotein complex assembly
p221
I350
tp222
a(VGTPase activity
p223
I331
tp224
a(Vlysosome
p225
I323
tp226
a(Vcytoskeleton-dependent intracellular transport
p227
I320
tp228
a(Vcirculatory system process
p229
I293
tp230
a(VmRNA binding
p231
I289
tp232
a(Vhistone binding
p233
I288
tp234
a(Vnuclear envelope
p235
I272
tp236
a(Vhydrolase activity, acting on glycosyl bonds
p237
I258
tp238
a(Vcell wall organization or biogenesis
p239
I252
tp240
a(Vmitosis
p241
I237
tp242
a(Vplasma membrane organization
p243
I234
tp244
a(Vchromosome segregation
p245
I230
tp246
a(Vunfolded protein binding
p247
I227
tp248
a(Vvacuolar transport
p249
I213
tp250
a(Vperoxisome
p251
I213
tp252
a(Vprotein transporter activity
p253
I212
tp254
a(Vstructural constituent of ribosome
p255
I205
tp256
a(Vtranslation factor activity, nucleic acid binding
p257
I205
tp258
a(Vproteinaceous extracellular matrix
p259
I193
tp260
a(Vprotein binding, bridging
p261
I182
tp262
a(Vsmall conjugating protein binding
p263
I179
tp264
a(Vlipid particle
p265
I174
tp266
a(Vtranslation
p267
I173
tp268
a(Vribosome
p269
I153
tp270
a(Vtransferase activity, transferring alkyl or aryl (other than methyl) groups
p271
I136
tp272
a(Vintracellular
p273
I119
tp274
a(Vnuclear chromosome
p275
I103
tp276
a(Vribosome biogenesis
p277
I98
tp278
a(Vpigmentation
p279
I92
tp280
a(VrRNA binding
p281
I86
tp282
a(Vnitrogen cycle metabolic process
p283
I53
tp284
a(Vtransposition
p285
I43
tp286
a(Vthylakoid
p287
I35
tp288
a(Vcell
p289
I10
tp290
a(Vphotosynthesis
p291
I5
tp292
a(Vcytoplasmic chromosome
p293
I1
tp294
aa(lp295
(g3
L6372L
tp296
a(g5
L4365L
tp297
a(g7
L2787L
tp298
a(g9
L21685L
tp299
a(g11
L26888L
tp300
a(g13
L5491L
tp301
a(g15
L18268L
tp302
a(g17
L5801L
tp303
a(g19
L22689L
tp304
a(g21
L21630L
tp305
a(g23
L5613L
tp306
a(g25
L21693L
tp307
a(g27
L7192L
tp308
a(g29
L7190L
tp309
a(g31
L5168L
tp310
a(g33
L1781L
tp311
a(g35
L13633L
tp312
a(g37
L4599L
tp313
a(g39
L5326L
tp314
a(g41
L13924L
tp315
a(g43
L13690L
tp316
a(g45
L4644L
tp317
a(g47
L12968L
tp318
a(g49
L10598L
tp319
a(g51
L4995L
tp320
a(g53
L4507L
tp321
a(g55
L2790L
tp322
a(g57
L20507L
tp323
a(g59
L4514L
tp324
a(g61
L4725L
tp325
a(g63
L4422L
tp326
a(g65
L29927L
tp327
a(g67
L10381L
tp328
a(g69
L26682L
tp329
a(g71
L5218L
tp330
a(g73
L31581L
tp331
a(g75
L28228L
tp332
a(g77
L18282L
tp333
a(g79
L21086L
tp334
a(g81
L10466L
tp335
a(g83
L5165L
tp336
a(g85
L7881L
tp337
a(g87
L28535L
tp338
a(g89
L20503L
tp339
a(g91
L26901L
tp340
a(g93
L5663L
tp341
a(g95
L6320L
tp342
a(g97
L2830L
tp343
a(g99
L3827L
tp344
a(g101
L27837L
tp345
a(g103
L4515L
tp346
a(g105
L10963L
tp347
a(g107
L6500L
tp348
a(g109
L10229L
tp349
a(g111
L4567L
tp350
a(g113
L10950L
tp351
a(g115
L4621L
tp352
a(g117
L6448L
tp353
a(g119
L4556L
tp354
a(g121
L30984L
tp355
a(g123
L28144L
tp356
a(g125
L14001L
tp357
a(g127
L5791L
tp358
a(g129
L6436L
tp359
a(g131
L6357L
tp360
a(g133
L759L
tp361
a(g135
L4542L
tp362
a(g137
L6494L
tp363
a(g139
L4586L
tp364
a(g141
L4439L
tp365
a(g143
L5896L
tp366
a(g145
L677L
tp367
a(g147
L5471L
tp368
a(g149
L4118L
tp369
a(g151
L4838L
tp370
a(g153
L594L
tp371
a(g155
L10829L
tp372
a(g157
L5302L
tp373
a(g159
L4366L
tp374
a(g161
L10905L
tp375
a(g163
L22810L
tp376
a(g165
L5112L
tp377
a(g167
L10870L
tp378
a(g169
L3518L
tp379
a(g171
L4405L
tp380
a(g173
L4546L
tp381
a(g175
L13967L
tp382
a(g177
L10840L
tp383
a(g179
L14078L
tp384
a(g181
L3404L
tp385
a(g183
L4408L
tp386
a(g185
L4684L
tp387
a(g187
L5695L
tp388
a(g189
L3L
tp389
a(g191
L5582L
tp390
a(g193
L6389L
tp391
a(g195
L5161L
tp392
a(g197
L7644L
tp393
a(g199
L28251L
tp394
a(g201
L10929L
tp395
a(g203
L12827L
tp396
a(g205
L6169L
tp397
a(g207
L17965L
tp398
a(g209
L10860L
tp399
a(g211
L10886L
tp400
a(g213
L13274L
tp401
a(g215
L5658L
tp402
a(g217
L4475L
tp403
a(g219
L5114L
tp404
a(g221
L13644L
tp405
a(g223
L2991L
tp406
a(g225
L4538L
tp407
a(g227
L14427L
tp408
a(g229
L2364L
tp409
a(g231
L2835L
tp410
a(g233
L20900L
tp411
a(g235
L4423L
tp412
a(g237
L10876L
tp413
a(g239
L33137L
tp414
a(g241
L5712L
tp415
a(g243
L5662L
tp416
a(g245
L5705L
tp417
a(g247
L28040L
tp418
a(g249
L5682L
tp419
a(g251
L4550L
tp420
a(g253
L6747L
tp421
a(g255
L2841L
tp422
a(g257
L6358L
tp423
a(g259
L4368L
tp424
a(g261
L14396L
tp425
a(g263
L15840L
tp426
a(g265
L4583L
tp427
a(g267
L5126L
tp428
a(g269
L4609L
tp429
a(g271
L10848L
tp430
a(g273
L4411L
tp431
a(g275
L201L
tp432
a(g277
L20770L
tp433
a(g279
L21900L
tp434
a(g281
L12918L
tp435
a(g283
L33512L
tp436
a(g285
L15852L
tp437
a(g287
L7683L
tp438
a(g289
L4412L
tp439
a(g291
L10192L
tp440
a(g293
L202L
tp441
aaI672581
a.