(lp1
(lp2
(Vbiological_process
p3
I314257
tp4
a(Vcellular_component
p5
I106146
tp6
a(Vmolecular_function
p7
I86804
tp8
a(Vorganelle
p9
I28538
tp10
a(Vanatomical structure development
p11
I22842
tp12
a(Vtransport
p13
I17819
tp14
a(Vcellular nitrogen compound metabolic process
p15
I15425
tp16
a(Vsignal transduction
p17
I14656
tp18
a(Vresponse to stress
p19
I12413
tp20
a(Vprotein complex
p21
I11842
tp22
a(Vsmall molecule metabolic process
p23
I11020
tp24
a(Vion binding
p25
I10704
tp26
a(Vbiosynthetic process
p27
I10687
tp28
a(Vcatabolic process
p29
I8080
tp30
a(Vcellular protein modification process
p31
I7851
tp32
a(Vimmune system process
p33
I6591
tp34
a(Vcellular component assembly
p35
I5385
tp36
a(Vcell differentiation
p37
I5244
tp38
a(Vcytosol
p39
I5244
tp40
a(Vlipid metabolic process
p41
I4965
tp42
a(Venzyme binding
p43
I4487
tp44
a(Vplasma membrane
p45
I4017
tp46
a(Vnucleolus
p47
I3942
tp48
a(Vlocomotion
p49
I3804
tp50
a(Vvesicle-mediated transport
p51
I3675
tp52
a(Vtransmembrane transporter activity
p53
I3536
tp54
a(Vnucleus
p55
I3449
tp56
a(Vanatomical structure formation involved in morphogenesis
p57
I3396
tp58
a(VDNA metabolic process
p59
I3271
tp60
a(Vhomeostatic process
p61
I3172
tp62
a(Vmacromolecular complex assembly
p63
I3151
tp64
a(Voxidoreductase activity
p65
I3113
tp66
a(VDNA binding
p67
I3110
tp68
a(Vcarbohydrate metabolic process
p69
I3082
tp70
a(Vnucleobase-containing compound catabolic process
p71
I2922
tp72
a(Vchromosome organization
p73
I2907
tp74
a(Vembryo development
p75
I2735
tp76
a(Vcytoplasm
p77
I2734
tp78
a(Vsignal transducer activity
p79
I2700
tp80
a(Vtransmembrane transport
p81
I2680
tp82
a(Vcell motility
p83
I2666
tp84
a(Vneurological system process
p85
I2645
tp86
a(Vprotein maturation
p87
I2610
tp88
a(Vprotein complex assembly
p89
I2575
tp90
a(Vgrowth
p91
I2548
tp92
a(Vcytoskeletal protein binding
p93
I2468
tp94
a(VRNA binding
p95
I2288
tp96
a(Vcytoskeleton organization
p97
I2256
tp98
a(Vkinase activity
p99
I2229
tp100
a(VGolgi apparatus
p101
I2115
tp102
a(Vmitochondrion
p103
I2083
tp104
a(Vcellular amino acid metabolic process
p105
I2013
tp106
a(Vcytoplasmic membrane-bounded vesicle
p107
I2001
tp108
a(Vlipid binding
p109
I1778
tp110
a(Vcell-cell signaling
p111
I1772
tp112
a(Vendoplasmic reticulum
p113
I1711
tp114
a(Vpeptidase activity
p115
I1680
tp116
a(Vcytoskeleton
p117
I1636
tp118
a(Vcell death
p119
I1617
tp120
a(Vmembrane organization
p121
I1605
tp122
a(Vcell adhesion
p123
I1514
tp124
a(Vstructural molecule activity
p125
I1511
tp126
a(Vendosome
p127
I1483
tp128
a(VATPase activity
p129
I1476
tp130
a(Venzyme regulator activity
p131
I1460
tp132
a(Vligase activity
p133
I1435
tp134
a(Vcell proliferation
p135
I1403
tp136
a(Vprotein targeting
p137
I1399
tp138
a(Vnucleoplasm
p139
I1378
tp140
a(Vtranscription factor binding
p141
I1305
tp142
a(Vmicrotubule organizing center
p143
I1230
tp144
a(Vextracellular region
p145
I1213
tp146
a(Vsulfur compound metabolic process
p147
I1210
tp148
a(Vprotein binding transcription factor activity
p149
I1209
tp150
a(Vcell morphogenesis
p151
I1201
tp152
a(Vnucleic acid binding transcription factor activity
p153
I1173
tp154
a(Vcofactor metabolic process
p155
I1070
tp156
a(Vgeneration of precursor metabolites and energy
p157
I1022
tp158
a(Vextracellular space
p159
I1009
tp160
a(Vsymbiosis, encompassing mutualism through parasitism
p161
I942
tp162
a(Vextracellular matrix organization
p163
I890
tp164
a(Vvacuole
p165
I878
tp166
a(Vtransferase activity, transferring acyl groups
p167
I876
tp168
a(VmRNA processing
p169
I872
tp170
a(Vplastid
p171
I825
tp172
a(Vcilium
p173
I741
tp174
a(Vreproduction
p175
I690
tp176
a(Vphosphatase activity
p177
I683
tp178
a(Vcirculatory system process
p179
I656
tp180
a(Vaging
p181
I639
tp182
a(Vnucleocytoplasmic transport
p183
I636
tp184
a(Vcell cycle
p185
I608
tp186
a(Vtransferase activity, transferring glycosyl groups
p187
I605
tp188
a(Vlyase activity
p189
I587
tp190
a(Vprotein folding
p191
I583
tp192
a(Vcell junction organization
p193
I578
tp194
a(Vexternal encapsulating structure
p195
I575
tp196
a(Vstructural constituent of ribosome
p197
I571
tp198
a(Vcell wall
p199
I568
tp200
a(Vmethyltransferase activity
p201
I545
tp202
a(Vcell division
p203
I513
tp204
a(Vhelicase activity
p205
I507
tp206
a(Vsecondary metabolic process
p207
I494
tp208
a(VGTPase activity
p209
I472
tp210
a(Vdevelopmental maturation
p211
I470
tp212
a(Vnuclease activity
p213
I469
tp214
a(Vribonucleoprotein complex assembly
p215
I464
tp216
a(Vlysosome
p217
I454
tp218
a(Vmitochondrion organization
p219
I451
tp220
a(Vchromosome
p221
I427
tp222
a(Vcytoskeleton-dependent intracellular transport
p223
I418
tp224
a(Visomerase activity
p225
I400
tp226
a(Vnuclear envelope
p227
I392
tp228
a(VmRNA binding
p229
I381
tp230
a(Vhistone binding
p231
I355
tp232
a(Vcell wall organization or biogenesis
p233
I347
tp234
a(Vhydrolase activity, acting on glycosyl bonds
p235
I339
tp236
a(Vnucleotidyltransferase activity
p237
I336
tp238
a(Vproteinaceous extracellular matrix
p239
I324
tp240
a(Vplasma membrane organization
p241
I317
tp242
a(Vvacuolar transport
p243
I314
tp244
a(Vmitosis
p245
I300
tp246
a(VtRNA metabolic process
p247
I298
tp248
a(Vhydrolase activity, acting on carbon-nitrogen (but not peptide) bonds
p249
I297
tp250
a(Vtranslation factor activity, nucleic acid binding
p251
I286
tp252
a(Vprotein binding, bridging
p253
I284
tp254
a(Vperoxisome
p255
I269
tp256
a(Vchromosome segregation
p257
I261
tp258
a(Vunfolded protein binding
p259
I247
tp260
a(Vlipid particle
p261
I238
tp262
a(Vribosome
p263
I231
tp264
a(Vsmall conjugating protein binding
p265
I213
tp266
a(Vtranslation
p267
I209
tp268
a(Vprotein transporter activity
p269
I194
tp270
a(Vribosome biogenesis
p271
I182
tp272
a(Vtransferase activity, transferring alkyl or aryl (other than methyl) groups
p273
I162
tp274
a(Vnuclear chromosome
p275
I151
tp276
a(Vintracellular
p277
I115
tp278
a(Vthylakoid
p279
I113
tp280
a(VrRNA binding
p281
I112
tp282
a(Vpigmentation
p283
I110
tp284
a(Vnitrogen cycle metabolic process
p285
I47
tp286
a(Vphotosynthesis
p287
I36
tp288
a(Vtransposition
p289
I27
tp290
a(Vcell
p291
I12
tp292
a(Vcytoplasmic chromosome
p293
I1
tp294
aa(lp295
(g3
L6372L
tp296
a(g5
L4365L
tp297
a(g7
L2787L
tp298
a(g9
L21685L
tp299
a(g11
L26888L
tp300
a(g13
L5491L
tp301
a(g15
L18268L
tp302
a(g17
L5801L
tp303
a(g19
L5613L
tp304
a(g21
L21693L
tp305
a(g23
L22689L
tp306
a(g25
L21630L
tp307
a(g27
L7192L
tp308
a(g29
L7190L
tp309
a(g31
L5168L
tp310
a(g33
L1781L
tp311
a(g35
L13633L
tp312
a(g37
L13924L
tp313
a(g39
L4599L
tp314
a(g41
L5326L
tp315
a(g43
L12968L
tp316
a(g45
L4644L
tp317
a(g47
L4507L
tp318
a(g49
L20507L
tp319
a(g51
L10381L
tp320
a(g53
L13690L
tp321
a(g55
L4422L
tp322
a(g57
L26682L
tp323
a(g59
L4995L
tp324
a(g61
L21086L
tp325
a(g63
L31581L
tp326
a(g65
L10598L
tp327
a(g67
L2790L
tp328
a(g69
L4725L
tp329
a(g71
L18282L
tp330
a(g73
L28228L
tp331
a(g75
L7881L
tp332
a(g77
L4514L
tp333
a(g79
L3827L
tp334
a(g81
L29927L
tp335
a(g83
L26901L
tp336
a(g85
L27837L
tp337
a(g87
L28535L
tp338
a(g89
L5165L
tp339
a(g91
L20503L
tp340
a(g93
L6320L
tp341
a(g95
L2830L
tp342
a(g97
L5663L
tp343
a(g99
L10466L
tp344
a(g101
L4567L
tp345
a(g103
L4515L
tp346
a(g105
L5218L
tp347
a(g107
L10229L
tp348
a(g109
L6500L
tp349
a(g111
L5896L
tp350
a(g113
L4556L
tp351
a(g115
L6448L
tp352
a(g117
L4621L
tp353
a(g119
L6436L
tp354
a(g121
L30984L
tp355
a(g123
L5791L
tp356
a(g125
L4118L
tp357
a(g127
L4542L
tp358
a(g129
L10963L
tp359
a(g131
L14001L
tp360
a(g133
L10950L
tp361
a(g135
L6494L
tp362
a(g137
L5302L
tp363
a(g139
L4439L
tp364
a(g141
L6357L
tp365
a(g143
L4586L
tp366
a(g145
L4366L
tp367
a(g147
L5471L
tp368
a(g149
L677L
tp369
a(g151
L594L
tp370
a(g153
L759L
tp371
a(g155
L28144L
tp372
a(g157
L4838L
tp373
a(g159
L4405L
tp374
a(g161
L22810L
tp375
a(g163
L13967L
tp376
a(g165
L4546L
tp377
a(g167
L10829L
tp378
a(g169
L5112L
tp379
a(g171
L7644L
tp380
a(g173
L4684L
tp381
a(g175
L3L
tp382
a(g177
L10870L
tp383
a(g179
L2364L
tp384
a(g181
L6169L
tp385
a(g183
L5582L
tp386
a(g185
L5695L
tp387
a(g187
L10840L
tp388
a(g189
L10905L
tp389
a(g191
L5161L
tp390
a(g193
L17965L
tp391
a(g195
L14078L
tp392
a(g197
L2841L
tp393
a(g199
L4408L
tp394
a(g201
L6389L
tp395
a(g203
L28251L
tp396
a(g205
L3404L
tp397
a(g207
L12827L
tp398
a(g209
L2991L
tp399
a(g211
L13274L
tp400
a(g213
L3518L
tp401
a(g215
L13644L
tp402
a(g217
L4538L
tp403
a(g219
L5658L
tp404
a(g221
L4475L
tp405
a(g223
L14427L
tp406
a(g225
L10929L
tp407
a(g227
L4423L
tp408
a(g229
L2835L
tp409
a(g231
L20900L
tp410
a(g233
L33137L
tp411
a(g235
L10876L
tp412
a(g237
L10860L
tp413
a(g239
L4368L
tp414
a(g241
L5662L
tp415
a(g243
L5682L
tp416
a(g245
L5712L
tp417
a(g247
L5114L
tp418
a(g249
L10886L
tp419
a(g251
L6358L
tp420
a(g253
L14396L
tp421
a(g255
L4550L
tp422
a(g257
L5705L
tp423
a(g259
L28040L
tp424
a(g261
L4583L
tp425
a(g263
L4609L
tp426
a(g265
L15840L
tp427
a(g267
L5126L
tp428
a(g269
L6747L
tp429
a(g271
L20770L
tp430
a(g273
L10848L
tp431
a(g275
L201L
tp432
a(g277
L4411L
tp433
a(g279
L7683L
tp434
a(g281
L12918L
tp435
a(g283
L21900L
tp436
a(g285
L33512L
tp437
a(g287
L10192L
tp438
a(g289
L15852L
tp439
a(g291
L4412L
tp440
a(g293
L202L
tp441
aaI866980
a.