(lp1
(lp2
(Vbiological_process
p3
I73152
tp4
a(Vcellular_component
p5
I26112
tp6
a(Vmolecular_function
p7
I21892
tp8
a(Vorganelle
p9
I7184
tp10
a(Vanatomical structure development
p11
I5313
tp12
a(Vtransport
p13
I4072
tp14
a(Vcellular nitrogen compound metabolic process
p15
I3979
tp16
a(Vsignal transduction
p17
I3493
tp18
a(Vprotein complex
p19
I3428
tp20
a(Vresponse to stress
p21
I2964
tp22
a(Vion binding
p23
I2809
tp24
a(Vsmall molecule metabolic process
p25
I2767
tp26
a(Vbiosynthetic process
p27
I2376
tp28
a(Vcellular protein modification process
p29
I2113
tp30
a(Vcatabolic process
p31
I1985
tp32
a(Vimmune system process
p33
I1722
tp34
a(Vcytosol
p35
I1577
tp36
a(Vcellular component assembly
p37
I1492
tp38
a(Vcell differentiation
p39
I1299
tp40
a(Venzyme binding
p41
I1238
tp42
a(Vlipid metabolic process
p43
I1162
tp44
a(Vnucleolus
p45
I1151
tp46
a(Vvesicle-mediated transport
p47
I1008
tp48
a(VDNA metabolic process
p49
I924
tp50
a(Vplasma membrane
p51
I911
tp52
a(Vanatomical structure formation involved in morphogenesis
p53
I899
tp54
a(Vchromosome organization
p55
I894
tp56
a(Vlocomotion
p57
I894
tp58
a(VDNA binding
p59
I890
tp60
a(Vnucleus
p61
I886
tp62
a(Vmacromolecular complex assembly
p63
I866
tp64
a(Vcarbohydrate metabolic process
p65
I762
tp66
a(Vembryo development
p67
I737
tp68
a(Voxidoreductase activity
p69
I732
tp70
a(Vhomeostatic process
p71
I730
tp72
a(Vtransmembrane transporter activity
p73
I720
tp74
a(Vnucleobase-containing compound catabolic process
p75
I708
tp76
a(Vprotein complex assembly
p77
I682
tp78
a(Vcytoskeleton organization
p79
I663
tp80
a(Vcytoplasm
p81
I661
tp82
a(Vprotein maturation
p83
I656
tp84
a(Vcytoskeletal protein binding
p85
I647
tp86
a(VRNA binding
p87
I637
tp88
a(Vcell motility
p89
I621
tp90
a(Vkinase activity
p91
I595
tp92
a(Vtransmembrane transport
p93
I590
tp94
a(Vgrowth
p95
I587
tp96
a(Vmitochondrion
p97
I572
tp98
a(Vneurological system process
p99
I553
tp100
a(VGolgi apparatus
p101
I528
tp102
a(Vlipid binding
p103
I512
tp104
a(Vcellular amino acid metabolic process
p105
I506
tp106
a(Vcytoplasmic membrane-bounded vesicle
p107
I497
tp108
a(Vsignal transducer activity
p109
I455
tp110
a(Vmembrane organization
p111
I436
tp112
a(Venzyme regulator activity
p113
I432
tp114
a(Vcytoskeleton
p115
I430
tp116
a(Vendoplasmic reticulum
p117
I418
tp118
a(Vnucleoplasm
p119
I413
tp120
a(Vtranscription factor binding
p121
I411
tp122
a(Vprotein binding transcription factor activity
p123
I401
tp124
a(Vcell death
p125
I394
tp126
a(VATPase activity
p127
I374
tp128
a(Vligase activity
p129
I370
tp130
a(Vpeptidase activity
p131
I366
tp132
a(Vmicrotubule organizing center
p133
I359
tp134
a(Vendosome
p135
I358
tp136
a(Vstructural molecule activity
p137
I357
tp138
a(Vcell proliferation
p139
I349
tp140
a(Vcell adhesion
p141
I348
tp142
a(Vnucleic acid binding transcription factor activity
p143
I343
tp144
a(Vcell-cell signaling
p145
I329
tp146
a(Vprotein targeting
p147
I296
tp148
a(Vsymbiosis, encompassing mutualism through parasitism
p149
I284
tp150
a(Vcofactor metabolic process
p151
I284
tp152
a(Vcell morphogenesis
p153
I269
tp154
a(VmRNA processing
p155
I264
tp156
a(Vsulfur compound metabolic process
p157
I253
tp158
a(Vtransferase activity, transferring acyl groups
p159
I248
tp160
a(Vgeneration of precursor metabolites and energy
p161
I238
tp162
a(Vextracellular region
p163
I220
tp164
a(Vextracellular space
p165
I208
tp166
a(Vextracellular matrix organization
p167
I199
tp168
a(Vvacuole
p169
I192
tp170
a(Vnucleocytoplasmic transport
p171
I179
tp172
a(Vcell junction organization
p173
I178
tp174
a(Vphosphatase activity
p175
I172
tp176
a(Vprotein folding
p177
I168
tp178
a(Vreproduction
p179
I162
tp180
a(Vcilium
p181
I160
tp182
a(Vaging
p183
I155
tp184
a(Vtransferase activity, transferring glycosyl groups
p185
I154
tp186
a(Vplastid
p187
I154
tp188
a(Vribonucleoprotein complex assembly
p189
I150
tp190
a(Vlyase activity
p191
I148
tp192
a(Vhelicase activity
p193
I141
tp194
a(Vcell cycle
p195
I138
tp196
a(Vcell division
p197
I130
tp198
a(Vmethyltransferase activity
p199
I128
tp200
a(Vexternal encapsulating structure
p201
I125
tp202
a(Vcytoskeleton-dependent intracellular transport
p203
I124
tp204
a(Vmitochondrion organization
p205
I123
tp206
a(Vcell wall
p207
I123
tp208
a(VGTPase activity
p209
I122
tp210
a(Vnuclease activity
p211
I121
tp212
a(Vdevelopmental maturation
p213
I120
tp214
a(Vchromosome
p215
I120
tp216
a(Vsecondary metabolic process
p217
I117
tp218
a(VtRNA metabolic process
p219
I113
tp220
a(VmRNA binding
p221
I110
tp222
a(Vcirculatory system process
p223
I108
tp224
a(Visomerase activity
p225
I106
tp226
a(Vhydrolase activity, acting on carbon-nitrogen (but not peptide) bonds
p227
I106
tp228
a(Vlysosome
p229
I104
tp230
a(Vhistone binding
p231
I102
tp232
a(Vnuclear envelope
p233
I91
tp234
a(Vplasma membrane organization
p235
I91
tp236
a(Vnucleotidyltransferase activity
p237
I89
tp238
a(Vmitosis
p239
I87
tp240
a(Vstructural constituent of ribosome
p241
I86
tp242
a(Vunfolded protein binding
p243
I84
tp244
a(Vlipid particle
p245
I84
tp246
a(Vcell wall organization or biogenesis
p247
I79
tp248
a(Vhydrolase activity, acting on glycosyl bonds
p249
I78
tp250
a(Vtranslation factor activity, nucleic acid binding
p251
I78
tp252
a(Vvacuolar transport
p253
I76
tp254
a(Vprotein binding, bridging
p255
I75
tp256
a(Vchromosome segregation
p257
I73
tp258
a(Vsmall conjugating protein binding
p259
I68
tp260
a(Vprotein transporter activity
p261
I65
tp262
a(Vribosome
p263
I58
tp264
a(Vperoxisome
p265
I54
tp266
a(Vtranslation
p267
I52
tp268
a(Vproteinaceous extracellular matrix
p269
I44
tp270
a(Vribosome biogenesis
p271
I44
tp272
a(Vnuclear chromosome
p273
I43
tp274
a(Vtransferase activity, transferring alkyl or aryl (other than methyl) groups
p275
I43
tp276
a(Vpigmentation
p277
I28
tp278
a(VrRNA binding
p279
I20
tp280
a(Vintracellular
p281
I19
tp282
a(Vnitrogen cycle metabolic process
p283
I14
tp284
a(Vthylakoid
p285
I12
tp286
a(Vtransposition
p287
I8
tp288
a(Vphotosynthesis
p289
I3
tp290
a(Vcell
p291
I1
tp292
aa(lp293
(g3
L6372L
tp294
a(g5
L4365L
tp295
a(g7
L2787L
tp296
a(g9
L21685L
tp297
a(g11
L26888L
tp298
a(g13
L5491L
tp299
a(g15
L18268L
tp300
a(g17
L5801L
tp301
a(g19
L21693L
tp302
a(g21
L5613L
tp303
a(g23
L21630L
tp304
a(g25
L22689L
tp305
a(g27
L7192L
tp306
a(g29
L5168L
tp307
a(g31
L7190L
tp308
a(g33
L1781L
tp309
a(g35
L4599L
tp310
a(g37
L13633L
tp311
a(g39
L13924L
tp312
a(g41
L12968L
tp313
a(g43
L5326L
tp314
a(g45
L4507L
tp315
a(g47
L10381L
tp316
a(g49
L4995L
tp317
a(g51
L4644L
tp318
a(g53
L26682L
tp319
a(g55
L28228L
tp320
a(g57
L20507L
tp321
a(g59
L2790L
tp322
a(g61
L4422L
tp323
a(g63
L31581L
tp324
a(g65
L4725L
tp325
a(g67
L7881L
tp326
a(g69
L10598L
tp327
a(g71
L21086L
tp328
a(g73
L13690L
tp329
a(g75
L18282L
tp330
a(g77
L5165L
tp331
a(g79
L5663L
tp332
a(g81
L4514L
tp333
a(g83
L28535L
tp334
a(g85
L6320L
tp335
a(g87
L2830L
tp336
a(g89
L26901L
tp337
a(g91
L10466L
tp338
a(g93
L29927L
tp339
a(g95
L20503L
tp340
a(g97
L4515L
tp341
a(g99
L27837L
tp342
a(g101
L4567L
tp343
a(g103
L6500L
tp344
a(g105
L5218L
tp345
a(g107
L10229L
tp346
a(g109
L3827L
tp347
a(g111
L30984L
tp348
a(g113
L14001L
tp349
a(g115
L4621L
tp350
a(g117
L4556L
tp351
a(g119
L4439L
tp352
a(g121
L6357L
tp353
a(g123
L677L
tp354
a(g125
L6436L
tp355
a(g127
L10963L
tp356
a(g129
L10950L
tp357
a(g131
L6448L
tp358
a(g133
L4586L
tp359
a(g135
L4542L
tp360
a(g137
L4118L
tp361
a(g139
L6494L
tp362
a(g141
L5791L
tp363
a(g143
L759L
tp364
a(g145
L5896L
tp365
a(g147
L5302L
tp366
a(g149
L22810L
tp367
a(g151
L28144L
tp368
a(g153
L594L
tp369
a(g155
L5112L
tp370
a(g157
L5471L
tp371
a(g159
L10829L
tp372
a(g161
L4838L
tp373
a(g163
L4366L
tp374
a(g165
L4405L
tp375
a(g167
L13967L
tp376
a(g169
L4546L
tp377
a(g171
L5582L
tp378
a(g173
L17965L
tp379
a(g175
L10870L
tp380
a(g177
L5161L
tp381
a(g179
L3L
tp382
a(g181
L4684L
tp383
a(g183
L6169L
tp384
a(g185
L10840L
tp385
a(g187
L7644L
tp386
a(g189
L13644L
tp387
a(g191
L10905L
tp388
a(g193
L3404L
tp389
a(g195
L5695L
tp390
a(g197
L28251L
tp391
a(g199
L6389L
tp392
a(g201
L14078L
tp393
a(g203
L14427L
tp394
a(g205
L5658L
tp395
a(g207
L4408L
tp396
a(g209
L2991L
tp397
a(g211
L3518L
tp398
a(g213
L13274L
tp399
a(g215
L4475L
tp400
a(g217
L12827L
tp401
a(g219
L5114L
tp402
a(g221
L2835L
tp403
a(g223
L2364L
tp404
a(g225
L10929L
tp405
a(g227
L10886L
tp406
a(g229
L4538L
tp407
a(g231
L20900L
tp408
a(g233
L4423L
tp409
a(g235
L5662L
tp410
a(g237
L10860L
tp411
a(g239
L5712L
tp412
a(g241
L2841L
tp413
a(g243
L28040L
tp414
a(g245
L4583L
tp415
a(g247
L33137L
tp416
a(g249
L10876L
tp417
a(g251
L6358L
tp418
a(g253
L5682L
tp419
a(g255
L14396L
tp420
a(g257
L5705L
tp421
a(g259
L15840L
tp422
a(g261
L6747L
tp423
a(g263
L4609L
tp424
a(g265
L4550L
tp425
a(g267
L5126L
tp426
a(g269
L4368L
tp427
a(g271
L20770L
tp428
a(g273
L201L
tp429
a(g275
L10848L
tp430
a(g277
L21900L
tp431
a(g279
L12918L
tp432
a(g281
L4411L
tp433
a(g283
L33512L
tp434
a(g285
L7683L
tp435
a(g287
L15852L
tp436
a(g289
L10192L
tp437
a(g291
L4412L
tp438
aaI211454
a.