(lp1
(lp2
(Vbiological_process
p3
I142493
tp4
a(Vcellular_component
p5
I47573
tp6
a(Vmolecular_function
p7
I40687
tp8
a(Vorganelle
p9
I12553
tp10
a(Vanatomical structure development
p11
I10978
tp12
a(Vtransport
p13
I7449
tp14
a(Vcellular nitrogen compound metabolic process
p15
I7083
tp16
a(Vsignal transduction
p17
I6832
tp18
a(Vprotein complex
p19
I5750
tp20
a(Vresponse to stress
p21
I5393
tp22
a(Vsmall molecule metabolic process
p23
I5389
tp24
a(Vion binding
p25
I5099
tp26
a(Vbiosynthetic process
p27
I4826
tp28
a(Vcellular protein modification process
p29
I3757
tp30
a(Vcatabolic process
p31
I3487
tp32
a(Vimmune system process
p33
I3325
tp34
a(Vcell differentiation
p35
I2791
tp36
a(Vcellular component assembly
p37
I2553
tp38
a(Vcytosol
p39
I2493
tp40
a(Venzyme binding
p41
I2151
tp42
a(Vlipid metabolic process
p43
I2147
tp44
a(Vlocomotion
p45
I1832
tp46
a(Vanatomical structure formation involved in morphogenesis
p47
I1817
tp48
a(Vnucleolus
p49
I1728
tp50
a(Vvesicle-mediated transport
p51
I1720
tp52
a(Vplasma membrane
p53
I1684
tp54
a(VDNA metabolic process
p55
I1667
tp56
a(Vnucleus
p57
I1583
tp58
a(Voxidoreductase activity
p59
I1476
tp60
a(VDNA binding
p61
I1472
tp62
a(Vcarbohydrate metabolic process
p63
I1446
tp64
a(Vmacromolecular complex assembly
p65
I1416
tp66
a(Vchromosome organization
p67
I1367
tp68
a(Vcell motility
p69
I1355
tp70
a(Vcytoplasm
p71
I1351
tp72
a(Vtransmembrane transporter activity
p73
I1341
tp74
a(Vkinase activity
p75
I1313
tp76
a(Vhomeostatic process
p77
I1301
tp78
a(Vnucleobase-containing compound catabolic process
p79
I1266
tp80
a(Vembryo development
p81
I1224
tp82
a(Vgrowth
p83
I1175
tp84
a(Vcytoskeletal protein binding
p85
I1170
tp86
a(Vcytoskeleton organization
p87
I1144
tp88
a(Vprotein complex assembly
p89
I1134
tp90
a(Vneurological system process
p91
I1123
tp92
a(Vprotein maturation
p93
I1120
tp94
a(Vcellular amino acid metabolic process
p95
I1087
tp96
a(Vtransmembrane transport
p97
I1046
tp98
a(Vsignal transducer activity
p99
I979
tp100
a(VRNA binding
p101
I975
tp102
a(Vmitochondrion
p103
I955
tp104
a(VATPase activity
p105
I861
tp106
a(VGolgi apparatus
p107
I837
tp108
a(Vcell adhesion
p109
I835
tp110
a(Vcytoskeleton
p111
I818
tp112
a(Vcytoplasmic membrane-bounded vesicle
p113
I809
tp114
a(Vlipid binding
p115
I804
tp116
a(Vmembrane organization
p117
I754
tp118
a(Vcell death
p119
I734
tp120
a(Vligase activity
p121
I714
tp122
a(Vendoplasmic reticulum
p123
I711
tp124
a(Vpeptidase activity
p125
I680
tp126
a(Venzyme regulator activity
p127
I665
tp128
a(Vprotein binding transcription factor activity
p129
I664
tp130
a(Vcell proliferation
p131
I663
tp132
a(Vnucleoplasm
p133
I662
tp134
a(Vtranscription factor binding
p135
I658
tp136
a(Vendosome
p137
I651
tp138
a(Vcell-cell signaling
p139
I590
tp140
a(Vstructural molecule activity
p141
I582
tp142
a(Vcell morphogenesis
p143
I580
tp144
a(Vsulfur compound metabolic process
p145
I576
tp146
a(Vmicrotubule organizing center
p147
I574
tp148
a(Vnucleic acid binding transcription factor activity
p149
I530
tp150
a(Vcofactor metabolic process
p151
I517
tp152
a(Vextracellular region
p153
I468
tp154
a(Vprotein targeting
p155
I458
tp156
a(Vsymbiosis, encompassing mutualism through parasitism
p157
I420
tp158
a(VmRNA processing
p159
I410
tp160
a(Vtransferase activity, transferring acyl groups
p161
I405
tp162
a(Vextracellular matrix organization
p163
I395
tp164
a(Vextracellular space
p165
I392
tp166
a(Vgeneration of precursor metabolites and energy
p167
I391
tp168
a(Vcilium
p169
I372
tp170
a(Vvacuole
p171
I353
tp172
a(Vtransferase activity, transferring glycosyl groups
p173
I352
tp174
a(Vcell junction organization
p175
I328
tp176
a(Vlyase activity
p177
I312
tp178
a(Vphosphatase activity
p179
I308
tp180
a(Vhelicase activity
p181
I296
tp182
a(Vcell cycle
p183
I281
tp184
a(Vaging
p185
I274
tp186
a(Vnucleocytoplasmic transport
p187
I268
tp188
a(Vplastid
p189
I256
tp190
a(Vreproduction
p191
I249
tp192
a(Vcell division
p193
I246
tp194
a(Vprotein folding
p195
I241
tp196
a(Vnuclease activity
p197
I236
tp198
a(Vribonucleoprotein complex assembly
p199
I230
tp200
a(Vmethyltransferase activity
p201
I225
tp202
a(Vexternal encapsulating structure
p203
I220
tp204
a(Vmitochondrion organization
p205
I216
tp206
a(Vcell wall
p207
I216
tp208
a(Vchromosome
p209
I211
tp210
a(Vdevelopmental maturation
p211
I210
tp212
a(VGTPase activity
p213
I198
tp214
a(Vlysosome
p215
I196
tp216
a(VtRNA metabolic process
p217
I195
tp218
a(Visomerase activity
p219
I190
tp220
a(Vnucleotidyltransferase activity
p221
I188
tp222
a(Vhydrolase activity, acting on carbon-nitrogen (but not peptide) bonds
p223
I188
tp224
a(Vcytoskeleton-dependent intracellular transport
p225
I182
tp226
a(Vsecondary metabolic process
p227
I180
tp228
a(Vcirculatory system process
p229
I176
tp230
a(Vhistone binding
p231
I168
tp232
a(VmRNA binding
p233
I164
tp234
a(Vhydrolase activity, acting on glycosyl bonds
p235
I163
tp236
a(Vnuclear envelope
p237
I160
tp238
a(Vcell wall organization or biogenesis
p239
I149
tp240
a(Vplasma membrane organization
p241
I148
tp242
a(Vproteinaceous extracellular matrix
p243
I148
tp244
a(Vunfolded protein binding
p245
I124
tp246
a(Vstructural constituent of ribosome
p247
I124
tp248
a(Vmitosis
p249
I124
tp250
a(Vlipid particle
p251
I124
tp252
a(Vprotein binding, bridging
p253
I122
tp254
a(Vtranslation factor activity, nucleic acid binding
p255
I121
tp256
a(Vprotein transporter activity
p257
I120
tp258
a(Vchromosome segregation
p259
I119
tp260
a(Vtranslation
p261
I112
tp262
a(Vvacuolar transport
p263
I104
tp264
a(Vsmall conjugating protein binding
p265
I102
tp266
a(Vperoxisome
p267
I93
tp268
a(Vribosome
p269
I90
tp270
a(Vtransferase activity, transferring alkyl or aryl (other than methyl) groups
p271
I75
tp272
a(Vnuclear chromosome
p273
I64
tp274
a(Vintracellular
p275
I63
tp276
a(Vpigmentation
p277
I62
tp278
a(Vribosome biogenesis
p279
I51
tp280
a(VrRNA binding
p281
I41
tp282
a(Vnitrogen cycle metabolic process
p283
I20
tp284
a(Vthylakoid
p285
I18
tp286
a(Vtransposition
p287
I10
tp288
a(Vphotosynthesis
p289
I4
tp290
a(Vcell
p291
I2
tp292
a(VRNA modification guide activity
p293
I1
tp294
aa(lp295
(g3
L6372L
tp296
a(g5
L4365L
tp297
a(g7
L2787L
tp298
a(g9
L21685L
tp299
a(g11
L26888L
tp300
a(g13
L5491L
tp301
a(g15
L18268L
tp302
a(g17
L5801L
tp303
a(g19
L21693L
tp304
a(g21
L5613L
tp305
a(g23
L22689L
tp306
a(g25
L21630L
tp307
a(g27
L7192L
tp308
a(g29
L5168L
tp309
a(g31
L7190L
tp310
a(g33
L1781L
tp311
a(g35
L13924L
tp312
a(g37
L13633L
tp313
a(g39
L4599L
tp314
a(g41
L12968L
tp315
a(g43
L5326L
tp316
a(g45
L20507L
tp317
a(g47
L26682L
tp318
a(g49
L4507L
tp319
a(g51
L10381L
tp320
a(g53
L4644L
tp321
a(g55
L4995L
tp322
a(g57
L4422L
tp323
a(g59
L10598L
tp324
a(g61
L2790L
tp325
a(g63
L4725L
tp326
a(g65
L31581L
tp327
a(g67
L28228L
tp328
a(g69
L26901L
tp329
a(g71
L4514L
tp330
a(g73
L13690L
tp331
a(g75
L10466L
tp332
a(g77
L21086L
tp333
a(g79
L18282L
tp334
a(g81
L7881L
tp335
a(g83
L20503L
tp336
a(g85
L6320L
tp337
a(g87
L5663L
tp338
a(g89
L5165L
tp339
a(g91
L27837L
tp340
a(g93
L28535L
tp341
a(g95
L5218L
tp342
a(g97
L29927L
tp343
a(g99
L3827L
tp344
a(g101
L2830L
tp345
a(g103
L4515L
tp346
a(g105
L10963L
tp347
a(g107
L4567L
tp348
a(g109
L5791L
tp349
a(g111
L4621L
tp350
a(g113
L10229L
tp351
a(g115
L6500L
tp352
a(g117
L30984L
tp353
a(g119
L6436L
tp354
a(g121
L10950L
tp355
a(g123
L4556L
tp356
a(g125
L6448L
tp357
a(g127
L14001L
tp358
a(g129
L677L
tp359
a(g131
L6494L
tp360
a(g133
L4439L
tp361
a(g135
L6357L
tp362
a(g137
L4542L
tp363
a(g139
L5896L
tp364
a(g141
L4118L
tp365
a(g143
L594L
tp366
a(g145
L5471L
tp367
a(g147
L4586L
tp368
a(g149
L759L
tp369
a(g151
L28144L
tp370
a(g153
L4366L
tp371
a(g155
L5302L
tp372
a(g157
L22810L
tp373
a(g159
L5112L
tp374
a(g161
L10829L
tp375
a(g163
L13967L
tp376
a(g165
L4405L
tp377
a(g167
L4838L
tp378
a(g169
L4684L
tp379
a(g171
L4546L
tp380
a(g173
L10840L
tp381
a(g175
L17965L
tp382
a(g177
L10905L
tp383
a(g179
L10870L
tp384
a(g181
L3404L
tp385
a(g183
L5695L
tp386
a(g185
L6169L
tp387
a(g187
L5582L
tp388
a(g189
L7644L
tp389
a(g191
L3L
tp390
a(g193
L28251L
tp391
a(g195
L5161L
tp392
a(g197
L3518L
tp393
a(g199
L13644L
tp394
a(g201
L6389L
tp395
a(g203
L14078L
tp396
a(g205
L5658L
tp397
a(g207
L4408L
tp398
a(g209
L4475L
tp399
a(g211
L13274L
tp400
a(g213
L2991L
tp401
a(g215
L4538L
tp402
a(g217
L5114L
tp403
a(g219
L10929L
tp404
a(g221
L10860L
tp405
a(g223
L10886L
tp406
a(g225
L14427L
tp407
a(g227
L12827L
tp408
a(g229
L2364L
tp409
a(g231
L20900L
tp410
a(g233
L2835L
tp411
a(g235
L10876L
tp412
a(g237
L4423L
tp413
a(g239
L33137L
tp414
a(g241
L5662L
tp415
a(g243
L4368L
tp416
a(g245
L28040L
tp417
a(g247
L2841L
tp418
a(g249
L5712L
tp419
a(g251
L4583L
tp420
a(g253
L14396L
tp421
a(g255
L6358L
tp422
a(g257
L6747L
tp423
a(g259
L5705L
tp424
a(g261
L5126L
tp425
a(g263
L5682L
tp426
a(g265
L15840L
tp427
a(g267
L4550L
tp428
a(g269
L4609L
tp429
a(g271
L10848L
tp430
a(g273
L201L
tp431
a(g275
L4411L
tp432
a(g277
L21900L
tp433
a(g279
L20770L
tp434
a(g281
L12918L
tp435
a(g283
L33512L
tp436
a(g285
L7683L
tp437
a(g287
L15852L
tp438
a(g289
L10192L
tp439
a(g291
L4412L
tp440
a(g293
L14288L
tp441
aaI395467
a.