(lp1
(lp2
(Vbiological_process
p3
I324957
tp4
a(Vcellular_component
p5
I112919
tp6
a(Vmolecular_function
p7
I91752
tp8
a(Vorganelle
p9
I31256
tp10
a(Vanatomical structure development
p11
I21982
tp12
a(Vtransport
p13
I19417
tp14
a(Vcellular nitrogen compound metabolic process
p15
I16900
tp16
a(Vsignal transduction
p17
I14520
tp18
a(Vresponse to stress
p19
I13454
tp20
a(Vprotein complex
p21
I12967
tp22
a(Vbiosynthetic process
p23
I12061
tp24
a(Vsmall molecule metabolic process
p25
I11974
tp26
a(Vion binding
p27
I11338
tp28
a(Vcellular protein modification process
p29
I9406
tp30
a(Vcatabolic process
p31
I8708
tp32
a(Vimmune system process
p33
I6570
tp34
a(Vcellular component assembly
p35
I5740
tp36
a(Vcytosol
p37
I5733
tp38
a(Vlipid metabolic process
p39
I5417
tp40
a(Vcell differentiation
p41
I5128
tp42
a(Venzyme binding
p43
I4890
tp44
a(Vplasma membrane
p45
I4257
tp46
a(VDNA metabolic process
p47
I4117
tp48
a(Vtransmembrane transporter activity
p49
I4009
tp50
a(Vnucleolus
p51
I3926
tp52
a(Vnucleus
p53
I3913
tp54
a(Vvesicle-mediated transport
p55
I3884
tp56
a(Vcarbohydrate metabolic process
p57
I3871
tp58
a(Vlocomotion
p59
I3558
tp60
a(Vchromosome organization
p61
I3456
tp62
a(Vanatomical structure formation involved in morphogenesis
p63
I3311
tp64
a(Voxidoreductase activity
p65
I3301
tp66
a(Vmacromolecular complex assembly
p67
I3277
tp68
a(Vkinase activity
p69
I3115
tp70
a(Vcytoplasm
p71
I3057
tp72
a(Vhomeostatic process
p73
I3011
tp74
a(Vnucleobase-containing compound catabolic process
p75
I2978
tp76
a(VDNA binding
p77
I2934
tp78
a(Vtransmembrane transport
p79
I2923
tp80
a(Vgrowth
p81
I2761
tp82
a(Vcytoskeletal protein binding
p83
I2750
tp84
a(Vembryo development
p85
I2736
tp86
a(Vprotein complex assembly
p87
I2648
tp88
a(Vcytoskeleton organization
p89
I2601
tp90
a(Vprotein maturation
p91
I2564
tp92
a(Vcell motility
p93
I2465
tp94
a(VRNA binding
p95
I2408
tp96
a(Vmitochondrion
p97
I2272
tp98
a(Vcellular amino acid metabolic process
p99
I2190
tp100
a(Vneurological system process
p101
I2160
tp102
a(VGolgi apparatus
p103
I2103
tp104
a(VATPase activity
p105
I2001
tp106
a(Vcytoskeleton
p107
I1938
tp108
a(Vcytoplasmic membrane-bounded vesicle
p109
I1818
tp110
a(Vlipid binding
p111
I1779
tp112
a(Vendoplasmic reticulum
p113
I1718
tp114
a(Vmembrane organization
p115
I1681
tp116
a(Vsignal transducer activity
p117
I1660
tp118
a(Vpeptidase activity
p119
I1630
tp120
a(Vmicrotubule organizing center
p121
I1628
tp122
a(Vligase activity
p123
I1616
tp124
a(Vcell death
p125
I1522
tp126
a(Vendosome
p127
I1519
tp128
a(Venzyme regulator activity
p129
I1477
tp130
a(Vnucleoplasm
p131
I1469
tp132
a(Vcell-cell signaling
p133
I1467
tp134
a(Vcell adhesion
p135
I1411
tp136
a(Vcell morphogenesis
p137
I1352
tp138
a(Vcell proliferation
p139
I1304
tp140
a(Vprotein targeting
p141
I1302
tp142
a(Vtranscription factor binding
p143
I1286
tp144
a(Vcofactor metabolic process
p145
I1273
tp146
a(Vsulfur compound metabolic process
p147
I1224
tp148
a(Vprotein binding transcription factor activity
p149
I1169
tp150
a(Vstructural molecule activity
p151
I1168
tp152
a(Vextracellular region
p153
I1091
tp154
a(Vtransferase activity, transferring acyl groups
p155
I1032
tp156
a(VmRNA processing
p157
I1011
tp158
a(Vgeneration of precursor metabolites and energy
p159
I1003
tp160
a(Vplastid
p161
I990
tp162
a(Vcilium
p163
I981
tp164
a(Vvacuole
p165
I964
tp166
a(Vnucleic acid binding transcription factor activity
p167
I951
tp168
a(Vcell cycle
p169
I917
tp170
a(Vsymbiosis, encompassing mutualism through parasitism
p171
I901
tp172
a(Vphosphatase activity
p173
I834
tp174
a(Vhelicase activity
p175
I830
tp176
a(Vreproduction
p177
I783
tp178
a(Vlyase activity
p179
I737
tp180
a(Vnucleocytoplasmic transport
p181
I709
tp182
a(Vtransferase activity, transferring glycosyl groups
p183
I707
tp184
a(Vextracellular space
p185
I688
tp186
a(Vcell division
p187
I663
tp188
a(Vextracellular matrix organization
p189
I656
tp190
a(Vprotein folding
p191
I650
tp192
a(Vmethyltransferase activity
p193
I621
tp194
a(Vaging
p195
I592
tp196
a(Vcytoskeleton-dependent intracellular transport
p197
I574
tp198
a(Vexternal encapsulating structure
p199
I571
tp200
a(Vcell junction organization
p201
I564
tp202
a(Vcell wall
p203
I564
tp204
a(Vnuclease activity
p205
I549
tp206
a(Vsecondary metabolic process
p207
I535
tp208
a(Vdevelopmental maturation
p209
I531
tp210
a(Vchromosome
p211
I517
tp212
a(Visomerase activity
p213
I511
tp214
a(Vribonucleoprotein complex assembly
p215
I504
tp216
a(Vcirculatory system process
p217
I460
tp218
a(Vmitochondrion organization
p219
I452
tp220
a(Vcell wall organization or biogenesis
p221
I445
tp222
a(Vnuclear envelope
p223
I441
tp224
a(Vhydrolase activity, acting on glycosyl bonds
p225
I439
tp226
a(Vlysosome
p227
I434
tp228
a(VGTPase activity
p229
I434
tp230
a(VmRNA binding
p231
I422
tp232
a(Vnucleotidyltransferase activity
p233
I393
tp234
a(Vplasma membrane organization
p235
I354
tp236
a(Vchromosome segregation
p237
I350
tp238
a(VtRNA metabolic process
p239
I348
tp240
a(Vhydrolase activity, acting on carbon-nitrogen (but not peptide) bonds
p241
I348
tp242
a(Vhistone binding
p243
I341
tp244
a(Vmitosis
p245
I334
tp246
a(Vperoxisome
p247
I330
tp248
a(Vvacuolar transport
p249
I323
tp250
a(Vprotein binding, bridging
p251
I320
tp252
a(Vsmall conjugating protein binding
p253
I270
tp254
a(Vtranslation factor activity, nucleic acid binding
p255
I267
tp256
a(Vstructural constituent of ribosome
p257
I262
tp258
a(Vunfolded protein binding
p259
I257
tp260
a(Vtranslation
p261
I238
tp262
a(Vlipid particle
p263
I230
tp264
a(Vproteinaceous extracellular matrix
p265
I213
tp266
a(Vribosome
p267
I204
tp268
a(Vprotein transporter activity
p269
I196
tp270
a(Vtransferase activity, transferring alkyl or aryl (other than methyl) groups
p271
I167
tp272
a(Vribosome biogenesis
p273
I153
tp274
a(Vnuclear chromosome
p275
I146
tp276
a(Vintracellular
p277
I140
tp278
a(Vthylakoid
p279
I130
tp280
a(Vpigmentation
p281
I126
tp282
a(VrRNA binding
p283
I79
tp284
a(Vnitrogen cycle metabolic process
p285
I53
tp286
a(Vtransposition
p287
I46
tp288
a(Vphotosynthesis
p289
I39
tp290
a(Vcytoplasmic chromosome
p291
I6
tp292
a(Vcell
p293
I5
tp294
a(VRNA modification guide activity
p295
I2
tp296
aa(lp297
(g3
L6372L
tp298
a(g5
L4365L
tp299
a(g7
L2787L
tp300
a(g9
L21685L
tp301
a(g11
L26888L
tp302
a(g13
L5491L
tp303
a(g15
L18268L
tp304
a(g17
L5801L
tp305
a(g19
L5613L
tp306
a(g21
L21693L
tp307
a(g23
L7192L
tp308
a(g25
L22689L
tp309
a(g27
L21630L
tp310
a(g29
L5168L
tp311
a(g31
L7190L
tp312
a(g33
L1781L
tp313
a(g35
L13633L
tp314
a(g37
L4599L
tp315
a(g39
L5326L
tp316
a(g41
L13924L
tp317
a(g43
L12968L
tp318
a(g45
L4644L
tp319
a(g47
L4995L
tp320
a(g49
L13690L
tp321
a(g51
L4507L
tp322
a(g53
L4422L
tp323
a(g55
L10381L
tp324
a(g57
L4725L
tp325
a(g59
L20507L
tp326
a(g61
L28228L
tp327
a(g63
L26682L
tp328
a(g65
L10598L
tp329
a(g67
L31581L
tp330
a(g69
L10466L
tp331
a(g71
L4514L
tp332
a(g73
L21086L
tp333
a(g75
L18282L
tp334
a(g77
L2790L
tp335
a(g79
L29927L
tp336
a(g81
L20503L
tp337
a(g83
L6320L
tp338
a(g85
L7881L
tp339
a(g87
L5165L
tp340
a(g89
L5663L
tp341
a(g91
L28535L
tp342
a(g93
L26901L
tp343
a(g95
L2830L
tp344
a(g97
L4515L
tp345
a(g99
L5218L
tp346
a(g101
L27837L
tp347
a(g103
L4567L
tp348
a(g105
L10963L
tp349
a(g107
L4621L
tp350
a(g109
L10229L
tp351
a(g111
L6500L
tp352
a(g113
L4556L
tp353
a(g115
L30984L
tp354
a(g117
L3827L
tp355
a(g119
L6448L
tp356
a(g121
L4586L
tp357
a(g123
L10950L
tp358
a(g125
L6436L
tp359
a(g127
L4542L
tp360
a(g129
L14001L
tp361
a(g131
L4439L
tp362
a(g133
L5896L
tp363
a(g135
L5791L
tp364
a(g137
L594L
tp365
a(g139
L6494L
tp366
a(g141
L5302L
tp367
a(g143
L6357L
tp368
a(g145
L28144L
tp369
a(g147
L5471L
tp370
a(g149
L677L
tp371
a(g151
L4118L
tp372
a(g153
L4366L
tp373
a(g155
L10829L
tp374
a(g157
L5112L
tp375
a(g159
L4838L
tp376
a(g161
L7644L
tp377
a(g163
L4684L
tp378
a(g165
L4546L
tp379
a(g167
L759L
tp380
a(g169
L5695L
tp381
a(g171
L22810L
tp382
a(g173
L10870L
tp383
a(g175
L3404L
tp384
a(g177
L3L
tp385
a(g179
L10905L
tp386
a(g181
L5582L
tp387
a(g183
L10840L
tp388
a(g185
L4405L
tp389
a(g187
L28251L
tp390
a(g189
L13967L
tp391
a(g191
L5161L
tp392
a(g193
L6389L
tp393
a(g195
L6169L
tp394
a(g197
L14427L
tp395
a(g199
L14078L
tp396
a(g201
L17965L
tp397
a(g203
L4408L
tp398
a(g205
L3518L
tp399
a(g207
L12827L
tp400
a(g209
L13274L
tp401
a(g211
L4475L
tp402
a(g213
L10929L
tp403
a(g215
L13644L
tp404
a(g217
L2364L
tp405
a(g219
L5658L
tp406
a(g221
L33137L
tp407
a(g223
L4423L
tp408
a(g225
L10876L
tp409
a(g227
L4538L
tp410
a(g229
L2991L
tp411
a(g231
L2835L
tp412
a(g233
L10860L
tp413
a(g235
L5662L
tp414
a(g237
L5705L
tp415
a(g239
L5114L
tp416
a(g241
L10886L
tp417
a(g243
L20900L
tp418
a(g245
L5712L
tp419
a(g247
L4550L
tp420
a(g249
L5682L
tp421
a(g251
L14396L
tp422
a(g253
L15840L
tp423
a(g255
L6358L
tp424
a(g257
L2841L
tp425
a(g259
L28040L
tp426
a(g261
L5126L
tp427
a(g263
L4583L
tp428
a(g265
L4368L
tp429
a(g267
L4609L
tp430
a(g269
L6747L
tp431
a(g271
L10848L
tp432
a(g273
L20770L
tp433
a(g275
L201L
tp434
a(g277
L4411L
tp435
a(g279
L7683L
tp436
a(g281
L21900L
tp437
a(g283
L12918L
tp438
a(g285
L33512L
tp439
a(g287
L15852L
tp440
a(g289
L10192L
tp441
a(g291
L202L
tp442
a(g293
L4412L
tp443
a(g295
L14288L
tp444
aaI909985
a.