(lp1
(lp2
(Vbiological_process
p3
I209562
tp4
a(Vcellular_component
p5
I68527
tp6
a(Vmolecular_function
p7
I58002
tp8
a(Vorganelle
p9
I18532
tp10
a(Vanatomical structure development
p11
I15969
tp12
a(Vtransport
p13
I10708
tp14
a(Vsignal transduction
p15
I10491
tp16
a(Vcellular nitrogen compound metabolic process
p17
I9713
tp18
a(Vprotein complex
p19
I8263
tp20
a(Vresponse to stress
p21
I8236
tp22
a(Vion binding
p23
I7511
tp24
a(Vsmall molecule metabolic process
p25
I7378
tp26
a(Vbiosynthetic process
p27
I6377
tp28
a(Vcellular protein modification process
p29
I5579
tp30
a(Vcatabolic process
p31
I5189
tp32
a(Vimmune system process
p33
I5131
tp34
a(Vcell differentiation
p35
I3821
tp36
a(Vcellular component assembly
p37
I3704
tp38
a(Vcytosol
p39
I3701
tp40
a(Vlipid metabolic process
p41
I3385
tp42
a(Venzyme binding
p43
I3139
tp44
a(Vnucleolus
p45
I2722
tp46
a(Vlocomotion
p47
I2584
tp48
a(Vplasma membrane
p49
I2445
tp50
a(Vanatomical structure formation involved in morphogenesis
p51
I2432
tp52
a(Vnucleus
p53
I2333
tp54
a(Vvesicle-mediated transport
p55
I2315
tp56
a(VDNA binding
p57
I2250
tp58
a(Vmacromolecular complex assembly
p59
I2238
tp60
a(Vtransmembrane transporter activity
p61
I2161
tp62
a(Voxidoreductase activity
p63
I2149
tp64
a(VDNA metabolic process
p65
I2148
tp66
a(Vhomeostatic process
p67
I2088
tp68
a(Vchromosome organization
p69
I2012
tp70
a(Vcarbohydrate metabolic process
p71
I1989
tp72
a(Vprotein maturation
p73
I1987
tp74
a(Vcytoplasm
p75
I1864
tp76
a(Vcell motility
p77
I1859
tp78
a(Vembryo development
p79
I1846
tp80
a(Vprotein complex assembly
p81
I1823
tp82
a(Vnucleobase-containing compound catabolic process
p83
I1734
tp84
a(Vtransmembrane transport
p85
I1651
tp86
a(Vsignal transducer activity
p87
I1647
tp88
a(Vgrowth
p89
I1639
tp90
a(Vkinase activity
p91
I1630
tp92
a(VRNA binding
p93
I1614
tp94
a(Vneurological system process
p95
I1480
tp96
a(Vcytoskeleton organization
p97
I1474
tp98
a(Vcytoskeletal protein binding
p99
I1448
tp100
a(Vmitochondrion
p101
I1446
tp102
a(Vcellular amino acid metabolic process
p103
I1436
tp104
a(VGolgi apparatus
p105
I1309
tp106
a(Vcytoplasmic membrane-bounded vesicle
p107
I1249
tp108
a(Vlipid binding
p109
I1195
tp110
a(Vcell adhesion
p111
I1149
tp112
a(Vcell proliferation
p113
I1138
tp114
a(Vendoplasmic reticulum
p115
I1116
tp116
a(Vpeptidase activity
p117
I1109
tp118
a(Vcytoskeleton
p119
I1095
tp120
a(Vcell death
p121
I1063
tp122
a(Vligase activity
p123
I1046
tp124
a(Vmembrane organization
p125
I1014
tp126
a(Vcell-cell signaling
p127
I1010
tp128
a(Vnucleoplasm
p129
I983
tp130
a(Venzyme regulator activity
p131
I979
tp132
a(Vtranscription factor binding
p133
I962
tp134
a(Vendosome
p135
I948
tp136
a(VATPase activity
p137
I925
tp138
a(Vnucleic acid binding transcription factor activity
p139
I911
tp140
a(Vprotein binding transcription factor activity
p141
I899
tp142
a(Vmicrotubule organizing center
p143
I858
tp144
a(Vstructural molecule activity
p145
I840
tp146
a(Vcell morphogenesis
p147
I784
tp148
a(Vsulfur compound metabolic process
p149
I735
tp150
a(Vcofactor metabolic process
p151
I724
tp152
a(Vprotein targeting
p153
I712
tp154
a(Vextracellular region
p155
I702
tp156
a(Vsymbiosis, encompassing mutualism through parasitism
p157
I691
tp158
a(VmRNA processing
p159
I618
tp160
a(Vtransferase activity, transferring acyl groups
p161
I613
tp162
a(Vvacuole
p163
I598
tp164
a(Vgeneration of precursor metabolites and energy
p165
I593
tp166
a(Vextracellular space
p167
I590
tp168
a(Vextracellular matrix organization
p169
I582
tp170
a(Vphosphatase activity
p171
I441
tp172
a(Vreproduction
p173
I440
tp174
a(Vaging
p175
I440
tp176
a(Vtransferase activity, transferring glycosyl groups
p177
I438
tp178
a(Vcilium
p179
I433
tp180
a(Vnucleocytoplasmic transport
p181
I430
tp182
a(Vplastid
p183
I427
tp184
a(Vlyase activity
p185
I427
tp186
a(Vprotein folding
p187
I424
tp188
a(Vdevelopmental maturation
p189
I420
tp190
a(Vcell division
p191
I380
tp192
a(Vcell junction organization
p193
I371
tp194
a(Vcell cycle
p195
I368
tp196
a(Vcirculatory system process
p197
I357
tp198
a(Vhelicase activity
p199
I347
tp200
a(Vlysosome
p201
I346
tp202
a(VGTPase activity
p203
I343
tp204
a(Vribonucleoprotein complex assembly
p205
I340
tp206
a(Vexternal encapsulating structure
p207
I334
tp208
a(Vmethyltransferase activity
p209
I332
tp210
a(Vmitochondrion organization
p211
I328
tp212
a(Vcell wall
p213
I327
tp214
a(Vsecondary metabolic process
p215
I296
tp216
a(Vnuclease activity
p217
I291
tp218
a(Vchromosome
p219
I274
tp220
a(VmRNA binding
p221
I272
tp222
a(Vcytoskeleton-dependent intracellular transport
p223
I265
tp224
a(Visomerase activity
p225
I264
tp226
a(Vhistone binding
p227
I234
tp228
a(Vhydrolase activity, acting on carbon-nitrogen (but not peptide) bonds
p229
I232
tp230
a(VtRNA metabolic process
p231
I229
tp232
a(Vnuclear envelope
p233
I223
tp234
a(Vhydrolase activity, acting on glycosyl bonds
p235
I214
tp236
a(Vunfolded protein binding
p237
I207
tp238
a(Vstructural constituent of ribosome
p239
I207
tp240
a(Vmitosis
p241
I202
tp242
a(Vplasma membrane organization
p243
I200
tp244
a(Vlipid particle
p245
I193
tp246
a(Vcell wall organization or biogenesis
p247
I190
tp248
a(Vnucleotidyltransferase activity
p249
I185
tp250
a(Vtranslation factor activity, nucleic acid binding
p251
I185
tp252
a(Vchromosome segregation
p253
I182
tp254
a(Vperoxisome
p255
I172
tp256
a(Vvacuolar transport
p257
I171
tp258
a(Vprotein binding, bridging
p259
I166
tp260
a(Vsmall conjugating protein binding
p261
I165
tp262
a(Vproteinaceous extracellular matrix
p263
I163
tp264
a(Vtranslation
p265
I141
tp266
a(Vribosome
p267
I128
tp268
a(Vtransferase activity, transferring alkyl or aryl (other than methyl) groups
p269
I117
tp270
a(Vprotein transporter activity
p271
I113
tp272
a(Vnuclear chromosome
p273
I95
tp274
a(Vribosome biogenesis
p275
I90
tp276
a(Vpigmentation
p277
I73
tp278
a(Vintracellular
p279
I68
tp280
a(VrRNA binding
p281
I54
tp282
a(Vnitrogen cycle metabolic process
p283
I46
tp284
a(Vthylakoid
p285
I29
tp286
a(Vtransposition
p287
I16
tp288
a(Vphotosynthesis
p289
I11
tp290
a(Vcell
p291
I4
tp292
aa(lp293
(g3
L6372L
tp294
a(g5
L4365L
tp295
a(g7
L2787L
tp296
a(g9
L21685L
tp297
a(g11
L26888L
tp298
a(g13
L5491L
tp299
a(g15
L5801L
tp300
a(g17
L18268L
tp301
a(g19
L21693L
tp302
a(g21
L5613L
tp303
a(g23
L21630L
tp304
a(g25
L22689L
tp305
a(g27
L7192L
tp306
a(g29
L5168L
tp307
a(g31
L7190L
tp308
a(g33
L1781L
tp309
a(g35
L13924L
tp310
a(g37
L13633L
tp311
a(g39
L4599L
tp312
a(g41
L5326L
tp313
a(g43
L12968L
tp314
a(g45
L4507L
tp315
a(g47
L20507L
tp316
a(g49
L4644L
tp317
a(g51
L26682L
tp318
a(g53
L4422L
tp319
a(g55
L10381L
tp320
a(g57
L2790L
tp321
a(g59
L31581L
tp322
a(g61
L13690L
tp323
a(g63
L10598L
tp324
a(g65
L4995L
tp325
a(g67
L21086L
tp326
a(g69
L28228L
tp327
a(g71
L4725L
tp328
a(g73
L28535L
tp329
a(g75
L4514L
tp330
a(g77
L26901L
tp331
a(g79
L7881L
tp332
a(g81
L5165L
tp333
a(g83
L18282L
tp334
a(g85
L29927L
tp335
a(g87
L3827L
tp336
a(g89
L20503L
tp337
a(g91
L10466L
tp338
a(g93
L2830L
tp339
a(g95
L27837L
tp340
a(g97
L5663L
tp341
a(g99
L6320L
tp342
a(g101
L4515L
tp343
a(g103
L5218L
tp344
a(g105
L4567L
tp345
a(g107
L10229L
tp346
a(g109
L6500L
tp347
a(g111
L5791L
tp348
a(g113
L6494L
tp349
a(g115
L4556L
tp350
a(g117
L6448L
tp351
a(g119
L4621L
tp352
a(g121
L6436L
tp353
a(g123
L10950L
tp354
a(g125
L30984L
tp355
a(g127
L5896L
tp356
a(g129
L4439L
tp357
a(g131
L14001L
tp358
a(g133
L6357L
tp359
a(g135
L4542L
tp360
a(g137
L10963L
tp361
a(g139
L759L
tp362
a(g141
L677L
tp363
a(g143
L4586L
tp364
a(g145
L4118L
tp365
a(g147
L594L
tp366
a(g149
L5471L
tp367
a(g151
L28144L
tp368
a(g153
L5302L
tp369
a(g155
L4366L
tp370
a(g157
L22810L
tp371
a(g159
L5112L
tp372
a(g161
L10829L
tp373
a(g163
L4546L
tp374
a(g165
L4838L
tp375
a(g167
L4405L
tp376
a(g169
L13967L
tp377
a(g171
L10870L
tp378
a(g173
L3L
tp379
a(g175
L6169L
tp380
a(g177
L10840L
tp381
a(g179
L4684L
tp382
a(g181
L5582L
tp383
a(g183
L7644L
tp384
a(g185
L10905L
tp385
a(g187
L5161L
tp386
a(g189
L13274L
tp387
a(g191
L28251L
tp388
a(g193
L17965L
tp389
a(g195
L5695L
tp390
a(g197
L2364L
tp391
a(g199
L3404L
tp392
a(g201
L4538L
tp393
a(g203
L2991L
tp394
a(g205
L13644L
tp395
a(g207
L14078L
tp396
a(g209
L6389L
tp397
a(g211
L5658L
tp398
a(g213
L4408L
tp399
a(g215
L12827L
tp400
a(g217
L3518L
tp401
a(g219
L4475L
tp402
a(g221
L2835L
tp403
a(g223
L14427L
tp404
a(g225
L10929L
tp405
a(g227
L20900L
tp406
a(g229
L10886L
tp407
a(g231
L5114L
tp408
a(g233
L4423L
tp409
a(g235
L10876L
tp410
a(g237
L28040L
tp411
a(g239
L2841L
tp412
a(g241
L5712L
tp413
a(g243
L5662L
tp414
a(g245
L4583L
tp415
a(g247
L33137L
tp416
a(g249
L10860L
tp417
a(g251
L6358L
tp418
a(g253
L5705L
tp419
a(g255
L4550L
tp420
a(g257
L5682L
tp421
a(g259
L14396L
tp422
a(g261
L15840L
tp423
a(g263
L4368L
tp424
a(g265
L5126L
tp425
a(g267
L4609L
tp426
a(g269
L10848L
tp427
a(g271
L6747L
tp428
a(g273
L201L
tp429
a(g275
L20770L
tp430
a(g277
L21900L
tp431
a(g279
L4411L
tp432
a(g281
L12918L
tp433
a(g283
L33512L
tp434
a(g285
L7683L
tp435
a(g287
L15852L
tp436
a(g289
L10192L
tp437
a(g291
L4412L
tp438
aaI575962
a.