(lp1
(lp2
(Vbiological_process
p3
I219578
tp4
a(Vcellular_component
p5
I73875
tp6
a(Vmolecular_function
p7
I60799
tp8
a(Vorganelle
p9
I19887
tp10
a(Vanatomical structure development
p11
I16559
tp12
a(Vtransport
p13
I12080
tp14
a(Vsignal transduction
p15
I10453
tp16
a(Vcellular nitrogen compound metabolic process
p17
I9839
tp18
a(Vprotein complex
p19
I8710
tp20
a(Vresponse to stress
p21
I8189
tp22
a(Vion binding
p23
I7456
tp24
a(Vsmall molecule metabolic process
p25
I7025
tp26
a(Vbiosynthetic process
p27
I6236
tp28
a(Vcellular protein modification process
p29
I5844
tp30
a(Vcatabolic process
p31
I4955
tp32
a(Vimmune system process
p33
I4929
tp34
a(Vcell differentiation
p35
I4057
tp36
a(Vcellular component assembly
p37
I3756
tp38
a(Vcytosol
p39
I3651
tp40
a(Venzyme binding
p41
I3450
tp42
a(Vlipid metabolic process
p43
I3328
tp44
a(Vlocomotion
p45
I2769
tp46
a(Vnucleolus
p47
I2767
tp48
a(Vvesicle-mediated transport
p49
I2671
tp50
a(Vplasma membrane
p51
I2611
tp52
a(Vanatomical structure formation involved in morphogenesis
p53
I2543
tp54
a(Vnucleus
p55
I2511
tp56
a(Vtransmembrane transporter activity
p57
I2389
tp58
a(VDNA metabolic process
p59
I2270
tp60
a(VDNA binding
p61
I2262
tp62
a(Vhomeostatic process
p63
I2198
tp64
a(Vchromosome organization
p65
I2164
tp66
a(Vmacromolecular complex assembly
p67
I2092
tp68
a(Vcytoplasm
p69
I2019
tp70
a(Voxidoreductase activity
p71
I1970
tp72
a(Vcell motility
p73
I1944
tp74
a(Vcarbohydrate metabolic process
p75
I1899
tp76
a(Vtransmembrane transport
p77
I1870
tp78
a(Vneurological system process
p79
I1859
tp80
a(Vprotein maturation
p81
I1844
tp82
a(Vcytoskeletal protein binding
p83
I1823
tp84
a(Vembryo development
p85
I1774
tp86
a(Vnucleobase-containing compound catabolic process
p87
I1722
tp88
a(Vprotein complex assembly
p89
I1694
tp90
a(Vgrowth
p91
I1678
tp92
a(Vkinase activity
p93
I1654
tp94
a(Vcytoskeleton organization
p95
I1633
tp96
a(Vsignal transducer activity
p97
I1590
tp98
a(VRNA binding
p99
I1454
tp100
a(Vlipid binding
p101
I1417
tp102
a(Vmitochondrion
p103
I1414
tp104
a(VGolgi apparatus
p105
I1375
tp106
a(Vcytoplasmic membrane-bounded vesicle
p107
I1365
tp108
a(Vcytoskeleton
p109
I1250
tp110
a(Vcellular amino acid metabolic process
p111
I1215
tp112
a(Venzyme regulator activity
p113
I1167
tp114
a(Vcell adhesion
p115
I1162
tp116
a(Vmembrane organization
p117
I1156
tp118
a(Vendoplasmic reticulum
p119
I1151
tp120
a(Vcell-cell signaling
p121
I1105
tp122
a(Vendosome
p123
I1097
tp124
a(Vcell death
p125
I1086
tp126
a(Vligase activity
p127
I1079
tp128
a(Vcell proliferation
p129
I1068
tp130
a(Vpeptidase activity
p131
I1063
tp132
a(Vtranscription factor binding
p133
I1028
tp134
a(Vprotein binding transcription factor activity
p135
I999
tp136
a(VATPase activity
p137
I980
tp138
a(Vnucleoplasm
p139
I977
tp140
a(Vmicrotubule organizing center
p141
I939
tp142
a(Vnucleic acid binding transcription factor activity
p143
I882
tp144
a(Vcell morphogenesis
p145
I856
tp146
a(Vstructural molecule activity
p147
I770
tp148
a(Vprotein targeting
p149
I710
tp150
a(Vextracellular region
p151
I692
tp152
a(Vsymbiosis, encompassing mutualism through parasitism
p153
I668
tp154
a(Vsulfur compound metabolic process
p155
I663
tp156
a(Vextracellular space
p157
I641
tp158
a(Vcofactor metabolic process
p159
I635
tp160
a(VmRNA processing
p161
I616
tp162
a(Vtransferase activity, transferring acyl groups
p163
I611
tp164
a(Vvacuole
p165
I590
tp166
a(Vextracellular matrix organization
p167
I582
tp168
a(Vgeneration of precursor metabolites and energy
p169
I573
tp170
a(Vphosphatase activity
p171
I546
tp172
a(Vcilium
p173
I545
tp174
a(Vcell cycle
p175
I459
tp176
a(Vnucleocytoplasmic transport
p177
I456
tp178
a(Vtransferase activity, transferring glycosyl groups
p179
I451
tp180
a(Vcell junction organization
p181
I451
tp182
a(Vreproduction
p183
I416
tp184
a(Vaging
p185
I410
tp186
a(Vdevelopmental maturation
p187
I391
tp188
a(Vhelicase activity
p189
I384
tp190
a(Vcell division
p191
I371
tp192
a(Vcirculatory system process
p193
I370
tp194
a(Vplastid
p195
I359
tp196
a(Vmitochondrion organization
p197
I352
tp198
a(Vlyase activity
p199
I348
tp200
a(Vlysosome
p201
I345
tp202
a(Vmethyltransferase activity
p203
I344
tp204
a(Vprotein folding
p205
I344
tp206
a(Vcytoskeleton-dependent intracellular transport
p207
I337
tp208
a(Vnuclease activity
p209
I332
tp210
a(Vribonucleoprotein complex assembly
p211
I319
tp212
a(Vchromosome
p213
I288
tp214
a(VGTPase activity
p215
I287
tp216
a(Vhistone binding
p217
I279
tp218
a(Vsecondary metabolic process
p219
I266
tp220
a(Vnuclear envelope
p221
I255
tp222
a(Vplasma membrane organization
p223
I250
tp224
a(Vexternal encapsulating structure
p225
I243
tp226
a(VmRNA binding
p227
I241
tp228
a(Vcell wall
p229
I237
tp230
a(Vhydrolase activity, acting on carbon-nitrogen (but not peptide) bonds
p231
I234
tp232
a(Vhydrolase activity, acting on glycosyl bonds
p233
I231
tp234
a(Visomerase activity
p235
I227
tp236
a(Vproteinaceous extracellular matrix
p237
I220
tp238
a(Vmitosis
p239
I211
tp240
a(Vvacuolar transport
p241
I210
tp242
a(Vprotein binding, bridging
p243
I198
tp244
a(VtRNA metabolic process
p245
I197
tp246
a(Vnucleotidyltransferase activity
p247
I192
tp248
a(Vcell wall organization or biogenesis
p249
I189
tp250
a(Vchromosome segregation
p251
I176
tp252
a(Vsmall conjugating protein binding
p253
I169
tp254
a(Vperoxisome
p255
I167
tp256
a(Vlipid particle
p257
I156
tp258
a(Vunfolded protein binding
p259
I153
tp260
a(Vtranslation factor activity, nucleic acid binding
p261
I151
tp262
a(Vstructural constituent of ribosome
p263
I148
tp264
a(Vprotein transporter activity
p265
I141
tp266
a(Vribosome
p267
I127
tp268
a(Vtranslation
p269
I121
tp270
a(Vtransferase activity, transferring alkyl or aryl (other than methyl) groups
p271
I97
tp272
a(Vintracellular
p273
I91
tp274
a(Vnuclear chromosome
p275
I91
tp276
a(Vribosome biogenesis
p277
I82
tp278
a(Vpigmentation
p279
I80
tp280
a(VrRNA binding
p281
I47
tp282
a(Vnitrogen cycle metabolic process
p283
I32
tp284
a(Vthylakoid
p285
I31
tp286
a(Vtransposition
p287
I13
tp288
a(Vphotosynthesis
p289
I12
tp290
a(Vcell
p291
I5
tp292
aa(lp293
(g3
L6372L
tp294
a(g5
L4365L
tp295
a(g7
L2787L
tp296
a(g9
L21685L
tp297
a(g11
L26888L
tp298
a(g13
L5491L
tp299
a(g15
L5801L
tp300
a(g17
L18268L
tp301
a(g19
L21693L
tp302
a(g21
L5613L
tp303
a(g23
L21630L
tp304
a(g25
L22689L
tp305
a(g27
L7192L
tp306
a(g29
L5168L
tp307
a(g31
L7190L
tp308
a(g33
L1781L
tp309
a(g35
L13924L
tp310
a(g37
L13633L
tp311
a(g39
L4599L
tp312
a(g41
L12968L
tp313
a(g43
L5326L
tp314
a(g45
L20507L
tp315
a(g47
L4507L
tp316
a(g49
L10381L
tp317
a(g51
L4644L
tp318
a(g53
L26682L
tp319
a(g55
L4422L
tp320
a(g57
L13690L
tp321
a(g59
L4995L
tp322
a(g61
L2790L
tp323
a(g63
L21086L
tp324
a(g65
L28228L
tp325
a(g67
L31581L
tp326
a(g69
L4514L
tp327
a(g71
L10598L
tp328
a(g73
L26901L
tp329
a(g75
L4725L
tp330
a(g77
L29927L
tp331
a(g79
L27837L
tp332
a(g81
L28535L
tp333
a(g83
L6320L
tp334
a(g85
L7881L
tp335
a(g87
L18282L
tp336
a(g89
L5165L
tp337
a(g91
L20503L
tp338
a(g93
L10466L
tp339
a(g95
L5663L
tp340
a(g97
L3827L
tp341
a(g99
L2830L
tp342
a(g101
L6500L
tp343
a(g103
L4515L
tp344
a(g105
L4567L
tp345
a(g107
L10229L
tp346
a(g109
L4621L
tp347
a(g111
L5218L
tp348
a(g113
L14001L
tp349
a(g115
L5791L
tp350
a(g117
L30984L
tp351
a(g119
L4556L
tp352
a(g121
L5896L
tp353
a(g123
L4542L
tp354
a(g125
L6436L
tp355
a(g127
L10950L
tp356
a(g129
L6494L
tp357
a(g131
L6448L
tp358
a(g133
L6357L
tp359
a(g135
L677L
tp360
a(g137
L10963L
tp361
a(g139
L4439L
tp362
a(g141
L4586L
tp363
a(g143
L759L
tp364
a(g145
L594L
tp365
a(g147
L4118L
tp366
a(g149
L5302L
tp367
a(g151
L4366L
tp368
a(g153
L22810L
tp369
a(g155
L5471L
tp370
a(g157
L4405L
tp371
a(g159
L28144L
tp372
a(g161
L5112L
tp373
a(g163
L10829L
tp374
a(g165
L4546L
tp375
a(g167
L13967L
tp376
a(g169
L4838L
tp377
a(g171
L10870L
tp378
a(g173
L4684L
tp379
a(g175
L5695L
tp380
a(g177
L5582L
tp381
a(g179
L10840L
tp382
a(g181
L17965L
tp383
a(g183
L3L
tp384
a(g185
L6169L
tp385
a(g187
L13274L
tp386
a(g189
L3404L
tp387
a(g191
L28251L
tp388
a(g193
L2364L
tp389
a(g195
L7644L
tp390
a(g197
L5658L
tp391
a(g199
L10905L
tp392
a(g201
L4538L
tp393
a(g203
L6389L
tp394
a(g205
L5161L
tp395
a(g207
L14427L
tp396
a(g209
L3518L
tp397
a(g211
L13644L
tp398
a(g213
L4475L
tp399
a(g215
L2991L
tp400
a(g217
L20900L
tp401
a(g219
L12827L
tp402
a(g221
L4423L
tp403
a(g223
L5662L
tp404
a(g225
L14078L
tp405
a(g227
L2835L
tp406
a(g229
L4408L
tp407
a(g231
L10886L
tp408
a(g233
L10876L
tp409
a(g235
L10929L
tp410
a(g237
L4368L
tp411
a(g239
L5712L
tp412
a(g241
L5682L
tp413
a(g243
L14396L
tp414
a(g245
L5114L
tp415
a(g247
L10860L
tp416
a(g249
L33137L
tp417
a(g251
L5705L
tp418
a(g253
L15840L
tp419
a(g255
L4550L
tp420
a(g257
L4583L
tp421
a(g259
L28040L
tp422
a(g261
L6358L
tp423
a(g263
L2841L
tp424
a(g265
L6747L
tp425
a(g267
L4609L
tp426
a(g269
L5126L
tp427
a(g271
L10848L
tp428
a(g273
L4411L
tp429
a(g275
L201L
tp430
a(g277
L20770L
tp431
a(g279
L21900L
tp432
a(g281
L12918L
tp433
a(g283
L33512L
tp434
a(g285
L7683L
tp435
a(g287
L15852L
tp436
a(g289
L10192L
tp437
a(g291
L4412L
tp438
aaI600787
a.