(lp1
(lp2
(Vbiological_process
p3
I233349
tp4
a(Vcellular_component
p5
I80750
tp6
a(Vmolecular_function
p7
I67017
tp8
a(Vorganelle
p9
I21838
tp10
a(Vanatomical structure development
p11
I17168
tp12
a(Vtransport
p13
I12881
tp14
a(Vcellular nitrogen compound metabolic process
p15
I11272
tp16
a(Vsignal transduction
p17
I10931
tp18
a(Vprotein complex
p19
I9761
tp20
a(Vresponse to stress
p21
I8945
tp22
a(Vion binding
p23
I8577
tp24
a(Vsmall molecule metabolic process
p25
I8049
tp26
a(Vbiosynthetic process
p27
I7143
tp28
a(Vcellular protein modification process
p29
I6252
tp30
a(Vcatabolic process
p31
I5702
tp32
a(Vimmune system process
p33
I4905
tp34
a(Vcellular component assembly
p35
I4301
tp36
a(Vcytosol
p37
I4289
tp38
a(Vcell differentiation
p39
I4173
tp40
a(Venzyme binding
p41
I3701
tp42
a(Vlipid metabolic process
p43
I3658
tp44
a(Vnucleolus
p45
I3211
tp46
a(Vvesicle-mediated transport
p47
I2983
tp48
a(Vlocomotion
p49
I2963
tp50
a(Vplasma membrane
p51
I2870
tp52
a(Vanatomical structure formation involved in morphogenesis
p53
I2768
tp54
a(Vnucleus
p55
I2654
tp56
a(VDNA metabolic process
p57
I2628
tp58
a(Vchromosome organization
p59
I2524
tp60
a(VDNA binding
p61
I2511
tp62
a(Vmacromolecular complex assembly
p63
I2380
tp64
a(Vtransmembrane transporter activity
p65
I2377
tp66
a(Vhomeostatic process
p67
I2375
tp68
a(Voxidoreductase activity
p69
I2248
tp70
a(Vcarbohydrate metabolic process
p71
I2129
tp72
a(Vcell motility
p73
I2123
tp74
a(Vcytoplasm
p75
I2115
tp76
a(Vcytoskeletal protein binding
p77
I2071
tp78
a(Vembryo development
p79
I2024
tp80
a(Vneurological system process
p81
I2021
tp82
a(Vnucleobase-containing compound catabolic process
p83
I2015
tp84
a(Vcytoskeleton organization
p85
I1971
tp86
a(Vprotein maturation
p87
I1914
tp88
a(Vprotein complex assembly
p89
I1891
tp90
a(Vtransmembrane transport
p91
I1850
tp92
a(Vgrowth
p93
I1833
tp94
a(Vkinase activity
p95
I1788
tp96
a(Vsignal transducer activity
p97
I1755
tp98
a(VRNA binding
p99
I1725
tp100
a(Vlipid binding
p101
I1631
tp102
a(Vmitochondrion
p103
I1582
tp104
a(VGolgi apparatus
p105
I1572
tp106
a(Vcytoplasmic membrane-bounded vesicle
p107
I1547
tp108
a(Vcellular amino acid metabolic process
p109
I1488
tp110
a(Vcytoskeleton
p111
I1383
tp112
a(Vmembrane organization
p113
I1286
tp114
a(Vendoplasmic reticulum
p115
I1279
tp116
a(Venzyme regulator activity
p117
I1267
tp118
a(Vcell adhesion
p119
I1218
tp120
a(Vpeptidase activity
p121
I1198
tp122
a(Vcell death
p123
I1195
tp124
a(Vendosome
p125
I1188
tp126
a(Vcell-cell signaling
p127
I1160
tp128
a(Vnucleoplasm
p129
I1146
tp130
a(Vtranscription factor binding
p131
I1111
tp132
a(Vmicrotubule organizing center
p133
I1104
tp134
a(VATPase activity
p135
I1103
tp136
a(Vligase activity
p137
I1090
tp138
a(Vcell proliferation
p139
I1086
tp140
a(Vprotein binding transcription factor activity
p141
I1083
tp142
a(Vstructural molecule activity
p143
I1023
tp144
a(Vnucleic acid binding transcription factor activity
p145
I992
tp146
a(Vcell morphogenesis
p147
I890
tp148
a(Vprotein targeting
p149
I873
tp150
a(Vsulfur compound metabolic process
p151
I840
tp152
a(Vextracellular region
p153
I751
tp154
a(Vcofactor metabolic process
p155
I751
tp156
a(VmRNA processing
p157
I734
tp158
a(Vtransferase activity, transferring acyl groups
p159
I718
tp160
a(Vsymbiosis, encompassing mutualism through parasitism
p161
I711
tp162
a(Vextracellular space
p163
I705
tp164
a(Vextracellular matrix organization
p165
I686
tp166
a(Vgeneration of precursor metabolites and energy
p167
I677
tp168
a(Vvacuole
p169
I631
tp170
a(Vcilium
p171
I597
tp172
a(Vphosphatase activity
p173
I545
tp174
a(Vnucleocytoplasmic transport
p175
I510
tp176
a(Vcell junction organization
p177
I508
tp178
a(Vaging
p179
I507
tp180
a(Vcell cycle
p181
I486
tp182
a(Vreproduction
p183
I482
tp184
a(Vtransferase activity, transferring glycosyl groups
p185
I469
tp186
a(Vplastid
p187
I446
tp188
a(Vcirculatory system process
p189
I431
tp190
a(Vcell division
p191
I430
tp192
a(Vlyase activity
p193
I413
tp194
a(Vhelicase activity
p195
I405
tp196
a(Vprotein folding
p197
I391
tp198
a(Vdevelopmental maturation
p199
I390
tp200
a(Vribonucleoprotein complex assembly
p201
I389
tp202
a(Vmethyltransferase activity
p203
I386
tp204
a(Vcytoskeleton-dependent intracellular transport
p205
I381
tp206
a(Vnuclease activity
p207
I374
tp208
a(Vmitochondrion organization
p209
I370
tp210
a(Vlysosome
p211
I361
tp212
a(Vchromosome
p213
I339
tp214
a(Vexternal encapsulating structure
p215
I330
tp216
a(Vcell wall
p217
I324
tp218
a(Vhistone binding
p219
I322
tp220
a(VGTPase activity
p221
I321
tp222
a(Vsecondary metabolic process
p223
I313
tp224
a(Vnuclear envelope
p225
I303
tp226
a(VmRNA binding
p227
I295
tp228
a(Visomerase activity
p229
I289
tp230
a(Vhydrolase activity, acting on carbon-nitrogen (but not peptide) bonds
p231
I260
tp232
a(Vstructural constituent of ribosome
p233
I259
tp234
a(VtRNA metabolic process
p235
I257
tp236
a(Vplasma membrane organization
p237
I250
tp238
a(Vmitosis
p239
I247
tp240
a(Vproteinaceous extracellular matrix
p241
I240
tp242
a(Vvacuolar transport
p243
I239
tp244
a(Vnucleotidyltransferase activity
p245
I235
tp246
a(Vcell wall organization or biogenesis
p247
I232
tp248
a(Vhydrolase activity, acting on glycosyl bonds
p249
I220
tp250
a(Vprotein binding, bridging
p251
I218
tp252
a(Vchromosome segregation
p253
I209
tp254
a(Vtranslation factor activity, nucleic acid binding
p255
I205
tp256
a(Vperoxisome
p257
I193
tp258
a(Vsmall conjugating protein binding
p259
I192
tp260
a(Vlipid particle
p261
I184
tp262
a(Vunfolded protein binding
p263
I182
tp264
a(Vprotein transporter activity
p265
I170
tp266
a(Vribosome
p267
I145
tp268
a(Vtranslation
p269
I143
tp270
a(Vnuclear chromosome
p271
I113
tp272
a(Vtransferase activity, transferring alkyl or aryl (other than methyl) groups
p273
I113
tp274
a(Vribosome biogenesis
p275
I112
tp276
a(Vpigmentation
p277
I81
tp278
a(Vintracellular
p279
I74
tp280
a(VrRNA binding
p281
I69
tp282
a(Vthylakoid
p283
I35
tp284
a(Vnitrogen cycle metabolic process
p285
I32
tp286
a(Vtransposition
p287
I16
tp288
a(Vphotosynthesis
p289
I8
tp290
a(Vcell
p291
I6
tp292
aa(lp293
(g3
L6372L
tp294
a(g5
L4365L
tp295
a(g7
L2787L
tp296
a(g9
L21685L
tp297
a(g11
L26888L
tp298
a(g13
L5491L
tp299
a(g15
L18268L
tp300
a(g17
L5801L
tp301
a(g19
L21693L
tp302
a(g21
L5613L
tp303
a(g23
L21630L
tp304
a(g25
L22689L
tp305
a(g27
L7192L
tp306
a(g29
L5168L
tp307
a(g31
L7190L
tp308
a(g33
L1781L
tp309
a(g35
L13633L
tp310
a(g37
L4599L
tp311
a(g39
L13924L
tp312
a(g41
L12968L
tp313
a(g43
L5326L
tp314
a(g45
L4507L
tp315
a(g47
L10381L
tp316
a(g49
L20507L
tp317
a(g51
L4644L
tp318
a(g53
L26682L
tp319
a(g55
L4422L
tp320
a(g57
L4995L
tp321
a(g59
L28228L
tp322
a(g61
L2790L
tp323
a(g63
L31581L
tp324
a(g65
L13690L
tp325
a(g67
L21086L
tp326
a(g69
L10598L
tp327
a(g71
L4725L
tp328
a(g73
L26901L
tp329
a(g75
L4514L
tp330
a(g77
L6320L
tp331
a(g79
L7881L
tp332
a(g81
L27837L
tp333
a(g83
L18282L
tp334
a(g85
L5663L
tp335
a(g87
L28535L
tp336
a(g89
L5165L
tp337
a(g91
L29927L
tp338
a(g93
L20503L
tp339
a(g95
L10466L
tp340
a(g97
L3827L
tp341
a(g99
L2830L
tp342
a(g101
L6500L
tp343
a(g103
L4515L
tp344
a(g105
L4567L
tp345
a(g107
L10229L
tp346
a(g109
L5218L
tp347
a(g111
L4621L
tp348
a(g113
L30984L
tp349
a(g115
L4556L
tp350
a(g117
L14001L
tp351
a(g119
L5791L
tp352
a(g121
L6448L
tp353
a(g123
L6436L
tp354
a(g125
L4542L
tp355
a(g127
L5896L
tp356
a(g129
L4439L
tp357
a(g131
L6357L
tp358
a(g133
L4586L
tp359
a(g135
L10963L
tp360
a(g137
L10950L
tp361
a(g139
L6494L
tp362
a(g141
L677L
tp363
a(g143
L4118L
tp364
a(g145
L759L
tp365
a(g147
L594L
tp366
a(g149
L5302L
tp367
a(g151
L5471L
tp368
a(g153
L4366L
tp369
a(g155
L28144L
tp370
a(g157
L5112L
tp371
a(g159
L10829L
tp372
a(g161
L22810L
tp373
a(g163
L4405L
tp374
a(g165
L13967L
tp375
a(g167
L4838L
tp376
a(g169
L4546L
tp377
a(g171
L4684L
tp378
a(g173
L10870L
tp379
a(g175
L5582L
tp380
a(g177
L17965L
tp381
a(g179
L6169L
tp382
a(g181
L5695L
tp383
a(g183
L3L
tp384
a(g185
L10840L
tp385
a(g187
L7644L
tp386
a(g189
L2364L
tp387
a(g191
L28251L
tp388
a(g193
L10905L
tp389
a(g195
L3404L
tp390
a(g197
L5161L
tp391
a(g199
L13274L
tp392
a(g201
L13644L
tp393
a(g203
L6389L
tp394
a(g205
L14427L
tp395
a(g207
L3518L
tp396
a(g209
L5658L
tp397
a(g211
L4538L
tp398
a(g213
L4475L
tp399
a(g215
L14078L
tp400
a(g217
L4408L
tp401
a(g219
L20900L
tp402
a(g221
L2991L
tp403
a(g223
L12827L
tp404
a(g225
L4423L
tp405
a(g227
L2835L
tp406
a(g229
L10929L
tp407
a(g231
L10886L
tp408
a(g233
L2841L
tp409
a(g235
L5114L
tp410
a(g237
L5662L
tp411
a(g239
L5712L
tp412
a(g241
L4368L
tp413
a(g243
L5682L
tp414
a(g245
L10860L
tp415
a(g247
L33137L
tp416
a(g249
L10876L
tp417
a(g251
L14396L
tp418
a(g253
L5705L
tp419
a(g255
L6358L
tp420
a(g257
L4550L
tp421
a(g259
L15840L
tp422
a(g261
L4583L
tp423
a(g263
L28040L
tp424
a(g265
L6747L
tp425
a(g267
L4609L
tp426
a(g269
L5126L
tp427
a(g271
L201L
tp428
a(g273
L10848L
tp429
a(g275
L20770L
tp430
a(g277
L21900L
tp431
a(g279
L4411L
tp432
a(g281
L12918L
tp433
a(g283
L7683L
tp434
a(g285
L33512L
tp435
a(g287
L15852L
tp436
a(g289
L10192L
tp437
a(g291
L4412L
tp438
aaI653124
a.