(lp1
(lp2
(Vbiological_process
p3
I251188
tp4
a(Vcellular_component
p5
I84629
tp6
a(Vmolecular_function
p7
I70624
tp8
a(Vorganelle
p9
I22718
tp10
a(Vanatomical structure development
p11
I18999
tp12
a(Vtransport
p13
I13768
tp14
a(Vsignal transduction
p15
I11786
tp16
a(Vcellular nitrogen compound metabolic process
p17
I11370
tp18
a(Vprotein complex
p19
I10070
tp20
a(Vresponse to stress
p21
I9386
tp22
a(Vion binding
p23
I8795
tp24
a(Vsmall molecule metabolic process
p25
I7978
tp26
a(Vbiosynthetic process
p27
I6867
tp28
a(Vcellular protein modification process
p29
I6704
tp30
a(Vcatabolic process
p31
I5703
tp32
a(Vimmune system process
p33
I5410
tp34
a(Vcell differentiation
p35
I4674
tp36
a(Vcellular component assembly
p37
I4435
tp38
a(Vcytosol
p39
I4259
tp40
a(Venzyme binding
p41
I4010
tp42
a(Vlipid metabolic process
p43
I3743
tp44
a(Vlocomotion
p45
I3322
tp46
a(Vnucleolus
p47
I3201
tp48
a(Vvesicle-mediated transport
p49
I3091
tp50
a(Vanatomical structure formation involved in morphogenesis
p51
I3078
tp52
a(Vplasma membrane
p53
I2909
tp54
a(Vnucleus
p55
I2855
tp56
a(VDNA metabolic process
p57
I2799
tp58
a(Vtransmembrane transporter activity
p59
I2735
tp60
a(VDNA binding
p61
I2636
tp62
a(Vchromosome organization
p63
I2605
tp64
a(Vhomeostatic process
p65
I2517
tp66
a(Vmacromolecular complex assembly
p67
I2438
tp68
a(Vcell motility
p69
I2379
tp70
a(Vcytoplasm
p71
I2373
tp72
a(Voxidoreductase activity
p73
I2191
tp74
a(Vneurological system process
p75
I2127
tp76
a(Vcarbohydrate metabolic process
p77
I2111
tp78
a(Vcytoskeletal protein binding
p79
I2105
tp80
a(Vtransmembrane transport
p81
I2084
tp82
a(Vnucleobase-containing compound catabolic process
p83
I2035
tp84
a(Vembryo development
p85
I2030
tp86
a(Vprotein maturation
p87
I1994
tp88
a(Vkinase activity
p89
I1992
tp90
a(Vprotein complex assembly
p91
I1980
tp92
a(Vcytoskeleton organization
p93
I1963
tp94
a(Vgrowth
p95
I1940
tp96
a(Vsignal transducer activity
p97
I1875
tp98
a(Vlipid binding
p99
I1656
tp100
a(VGolgi apparatus
p101
I1639
tp102
a(VRNA binding
p103
I1606
tp104
a(Vmitochondrion
p105
I1593
tp106
a(Vcytoplasmic membrane-bounded vesicle
p107
I1585
tp108
a(Vcell adhesion
p109
I1507
tp110
a(Vcytoskeleton
p111
I1438
tp112
a(Vcellular amino acid metabolic process
p113
I1394
tp114
a(Vmembrane organization
p115
I1354
tp116
a(Vendoplasmic reticulum
p117
I1293
tp118
a(Vendosome
p119
I1282
tp120
a(Venzyme regulator activity
p121
I1281
tp122
a(Vcell-cell signaling
p123
I1269
tp124
a(Vligase activity
p125
I1260
tp126
a(Vpeptidase activity
p127
I1240
tp128
a(VATPase activity
p129
I1214
tp130
a(Vcell death
p131
I1214
tp132
a(Vcell proliferation
p133
I1206
tp134
a(Vtranscription factor binding
p135
I1166
tp136
a(Vnucleoplasm
p137
I1156
tp138
a(Vprotein binding transcription factor activity
p139
I1130
tp140
a(Vmicrotubule organizing center
p141
I1111
tp142
a(Vcell morphogenesis
p143
I1066
tp144
a(Vnucleic acid binding transcription factor activity
p145
I1030
tp146
a(Vstructural molecule activity
p147
I936
tp148
a(Vextracellular region
p149
I797
tp150
a(Vprotein targeting
p151
I792
tp152
a(Vcofactor metabolic process
p153
I746
tp154
a(Vsymbiosis, encompassing mutualism through parasitism
p155
I741
tp156
a(Vsulfur compound metabolic process
p157
I733
tp158
a(Vextracellular space
p159
I722
tp160
a(VmRNA processing
p161
I699
tp162
a(Vextracellular matrix organization
p163
I686
tp164
a(Vtransferase activity, transferring acyl groups
p165
I678
tp166
a(Vcilium
p167
I663
tp168
a(Vvacuole
p169
I630
tp170
a(Vgeneration of precursor metabolites and energy
p171
I625
tp172
a(Vphosphatase activity
p173
I600
tp174
a(Vcell junction organization
p175
I558
tp176
a(Vcell cycle
p177
I529
tp178
a(Vnucleocytoplasmic transport
p179
I529
tp180
a(Vaging
p181
I520
tp182
a(Vreproduction
p183
I506
tp184
a(Vtransferase activity, transferring glycosyl groups
p185
I502
tp186
a(Vhelicase activity
p187
I468
tp188
a(Vcell division
p189
I453
tp190
a(Vdevelopmental maturation
p191
I426
tp192
a(Vcirculatory system process
p193
I421
tp194
a(Vnuclease activity
p195
I415
tp196
a(Vcytoskeleton-dependent intracellular transport
p197
I404
tp198
a(Vlyase activity
p199
I399
tp200
a(Vmitochondrion organization
p201
I388
tp202
a(Vmethyltransferase activity
p203
I385
tp204
a(Vprotein folding
p205
I385
tp206
a(Vplastid
p207
I373
tp208
a(Vlysosome
p209
I366
tp210
a(Vribonucleoprotein complex assembly
p211
I360
tp212
a(Vhistone binding
p213
I338
tp214
a(Vchromosome
p215
I337
tp216
a(Vsecondary metabolic process
p217
I307
tp218
a(VGTPase activity
p219
I303
tp220
a(Vnuclear envelope
p221
I302
tp222
a(Vplasma membrane organization
p223
I292
tp224
a(Vproteinaceous extracellular matrix
p225
I272
tp226
a(Vexternal encapsulating structure
p227
I269
tp228
a(Visomerase activity
p229
I265
tp230
a(Vcell wall
p231
I262
tp232
a(Vhydrolase activity, acting on carbon-nitrogen (but not peptide) bonds
p233
I261
tp234
a(VmRNA binding
p235
I261
tp236
a(Vmitosis
p237
I249
tp238
a(Vnucleotidyltransferase activity
p239
I248
tp240
a(Vvacuolar transport
p241
I238
tp242
a(Vprotein binding, bridging
p243
I231
tp244
a(VtRNA metabolic process
p245
I226
tp246
a(Vhydrolase activity, acting on glycosyl bonds
p247
I215
tp248
a(Vcell wall organization or biogenesis
p249
I211
tp250
a(Vsmall conjugating protein binding
p251
I209
tp252
a(Vchromosome segregation
p253
I203
tp254
a(Vprotein transporter activity
p255
I198
tp256
a(Vlipid particle
p257
I179
tp258
a(Vperoxisome
p259
I173
tp260
a(Vunfolded protein binding
p261
I170
tp262
a(Vstructural constituent of ribosome
p263
I166
tp264
a(Vtranslation factor activity, nucleic acid binding
p265
I164
tp266
a(Vtranslation
p267
I128
tp268
a(Vribosome
p269
I126
tp270
a(Vtransferase activity, transferring alkyl or aryl (other than methyl) groups
p271
I111
tp272
a(Vnuclear chromosome
p273
I100
tp274
a(Vribosome biogenesis
p275
I99
tp276
a(Vpigmentation
p277
I93
tp278
a(Vintracellular
p279
I81
tp280
a(VrRNA binding
p281
I49
tp282
a(Vnitrogen cycle metabolic process
p283
I35
tp284
a(Vthylakoid
p285
I31
tp286
a(Vcell
p287
I13
tp288
a(Vtransposition
p289
I12
tp290
a(Vphotosynthesis
p291
I8
tp292
aa(lp293
(g3
L6372L
tp294
a(g5
L4365L
tp295
a(g7
L2787L
tp296
a(g9
L21685L
tp297
a(g11
L26888L
tp298
a(g13
L5491L
tp299
a(g15
L5801L
tp300
a(g17
L18268L
tp301
a(g19
L21693L
tp302
a(g21
L5613L
tp303
a(g23
L21630L
tp304
a(g25
L22689L
tp305
a(g27
L7192L
tp306
a(g29
L5168L
tp307
a(g31
L7190L
tp308
a(g33
L1781L
tp309
a(g35
L13924L
tp310
a(g37
L13633L
tp311
a(g39
L4599L
tp312
a(g41
L12968L
tp313
a(g43
L5326L
tp314
a(g45
L20507L
tp315
a(g47
L4507L
tp316
a(g49
L10381L
tp317
a(g51
L26682L
tp318
a(g53
L4644L
tp319
a(g55
L4422L
tp320
a(g57
L4995L
tp321
a(g59
L13690L
tp322
a(g61
L2790L
tp323
a(g63
L28228L
tp324
a(g65
L21086L
tp325
a(g67
L31581L
tp326
a(g69
L26901L
tp327
a(g71
L4514L
tp328
a(g73
L10598L
tp329
a(g75
L27837L
tp330
a(g77
L4725L
tp331
a(g79
L6320L
tp332
a(g81
L29927L
tp333
a(g83
L18282L
tp334
a(g85
L7881L
tp335
a(g87
L28535L
tp336
a(g89
L10466L
tp337
a(g91
L5165L
tp338
a(g93
L5663L
tp339
a(g95
L20503L
tp340
a(g97
L3827L
tp341
a(g99
L6500L
tp342
a(g101
L4567L
tp343
a(g103
L2830L
tp344
a(g105
L4515L
tp345
a(g107
L10229L
tp346
a(g109
L5791L
tp347
a(g111
L4621L
tp348
a(g113
L5218L
tp349
a(g115
L30984L
tp350
a(g117
L4556L
tp351
a(g119
L4542L
tp352
a(g121
L14001L
tp353
a(g123
L5896L
tp354
a(g125
L10950L
tp355
a(g127
L6448L
tp356
a(g129
L10963L
tp357
a(g131
L6436L
tp358
a(g133
L6494L
tp359
a(g135
L6357L
tp360
a(g137
L4439L
tp361
a(g139
L677L
tp362
a(g141
L4586L
tp363
a(g143
L594L
tp364
a(g145
L759L
tp365
a(g147
L4118L
tp366
a(g149
L4366L
tp367
a(g151
L5302L
tp368
a(g153
L28144L
tp369
a(g155
L22810L
tp370
a(g157
L5471L
tp371
a(g159
L4405L
tp372
a(g161
L5112L
tp373
a(g163
L13967L
tp374
a(g165
L10829L
tp375
a(g167
L4684L
tp376
a(g169
L4546L
tp377
a(g171
L4838L
tp378
a(g173
L10870L
tp379
a(g175
L17965L
tp380
a(g177
L5695L
tp381
a(g179
L5582L
tp382
a(g181
L6169L
tp383
a(g183
L3L
tp384
a(g185
L10840L
tp385
a(g187
L3404L
tp386
a(g189
L28251L
tp387
a(g191
L13274L
tp388
a(g193
L2364L
tp389
a(g195
L3518L
tp390
a(g197
L14427L
tp391
a(g199
L10905L
tp392
a(g201
L5658L
tp393
a(g203
L6389L
tp394
a(g205
L5161L
tp395
a(g207
L7644L
tp396
a(g209
L4538L
tp397
a(g211
L13644L
tp398
a(g213
L20900L
tp399
a(g215
L4475L
tp400
a(g217
L12827L
tp401
a(g219
L2991L
tp402
a(g221
L4423L
tp403
a(g223
L5662L
tp404
a(g225
L4368L
tp405
a(g227
L14078L
tp406
a(g229
L10929L
tp407
a(g231
L4408L
tp408
a(g233
L10886L
tp409
a(g235
L2835L
tp410
a(g237
L5712L
tp411
a(g239
L10860L
tp412
a(g241
L5682L
tp413
a(g243
L14396L
tp414
a(g245
L5114L
tp415
a(g247
L10876L
tp416
a(g249
L33137L
tp417
a(g251
L15840L
tp418
a(g253
L5705L
tp419
a(g255
L6747L
tp420
a(g257
L4583L
tp421
a(g259
L4550L
tp422
a(g261
L28040L
tp423
a(g263
L2841L
tp424
a(g265
L6358L
tp425
a(g267
L5126L
tp426
a(g269
L4609L
tp427
a(g271
L10848L
tp428
a(g273
L201L
tp429
a(g275
L20770L
tp430
a(g277
L21900L
tp431
a(g279
L4411L
tp432
a(g281
L12918L
tp433
a(g283
L33512L
tp434
a(g285
L7683L
tp435
a(g287
L4412L
tp436
a(g289
L15852L
tp437
a(g291
L10192L
tp438
aaI690041
a.