(lp1
(lp2
(Vbiological_process
p3
I228557
tp4
a(Vcellular_component
p5
I73329
tp6
a(Vmolecular_function
p7
I59299
tp8
a(Vorganelle
p9
I19453
tp10
a(Vanatomical structure development
p11
I17838
tp12
a(Vtransport
p13
I12396
tp14
a(Vsignal transduction
p15
I10681
tp16
a(Vcellular nitrogen compound metabolic process
p17
I9207
tp18
a(Vresponse to stress
p19
I8186
tp20
a(Vprotein complex
p21
I8047
tp22
a(Vion binding
p23
I6971
tp24
a(Vsmall molecule metabolic process
p25
I6708
tp26
a(Vbiosynthetic process
p27
I6017
tp28
a(Vcellular protein modification process
p29
I5443
tp30
a(Vcatabolic process
p31
I4552
tp32
a(Vimmune system process
p33
I4515
tp34
a(Vcell differentiation
p35
I4236
tp36
a(Vcellular component assembly
p37
I3565
tp38
a(Vcytosol
p39
I3308
tp40
a(Venzyme binding
p41
I3148
tp42
a(Vlipid metabolic process
p43
I3073
tp44
a(Vlocomotion
p45
I2698
tp46
a(Vtransmembrane transporter activity
p47
I2683
tp48
a(Vplasma membrane
p49
I2651
tp50
a(Vanatomical structure formation involved in morphogenesis
p51
I2596
tp52
a(Vnucleolus
p53
I2577
tp54
a(Vvesicle-mediated transport
p55
I2485
tp56
a(Vnucleus
p57
I2450
tp58
a(Vsignal transducer activity
p59
I2279
tp60
a(VDNA binding
p61
I2271
tp62
a(Vhomeostatic process
p63
I2247
tp64
a(VDNA metabolic process
p65
I2218
tp66
a(Vchromosome organization
p67
I2055
tp68
a(Vcytoplasm
p69
I2024
tp70
a(Vneurological system process
p71
I2017
tp72
a(Vmacromolecular complex assembly
p73
I1982
tp74
a(Vcell motility
p75
I1931
tp76
a(Vtransmembrane transport
p77
I1918
tp78
a(Voxidoreductase activity
p79
I1794
tp80
a(Vcarbohydrate metabolic process
p81
I1781
tp82
a(Vprotein maturation
p83
I1721
tp84
a(Vembryo development
p85
I1717
tp86
a(Vgrowth
p87
I1691
tp88
a(Vcytoskeletal protein binding
p89
I1681
tp90
a(Vprotein complex assembly
p91
I1635
tp92
a(Vkinase activity
p93
I1552
tp94
a(Vcell-cell signaling
p95
I1515
tp96
a(Vcytoskeleton organization
p97
I1499
tp98
a(Vnucleobase-containing compound catabolic process
p99
I1496
tp100
a(Vcytoplasmic membrane-bounded vesicle
p101
I1370
tp102
a(VGolgi apparatus
p103
I1319
tp104
a(Vlipid binding
p105
I1311
tp106
a(VRNA binding
p107
I1256
tp108
a(Vmitochondrion
p109
I1236
tp110
a(Vcytoskeleton
p111
I1201
tp112
a(Vcell adhesion
p113
I1195
tp114
a(Vcellular amino acid metabolic process
p115
I1146
tp116
a(Vendoplasmic reticulum
p117
I1113
tp118
a(Vmembrane organization
p119
I1088
tp120
a(Vpeptidase activity
p121
I1070
tp122
a(Vcell death
p123
I1063
tp124
a(Vcell proliferation
p125
I1051
tp126
a(Vendosome
p127
I1000
tp128
a(Venzyme regulator activity
p129
I976
tp130
a(Vtranscription factor binding
p131
I975
tp132
a(Vnucleic acid binding transcription factor activity
p133
I964
tp134
a(Vprotein binding transcription factor activity
p135
I934
tp136
a(Vligase activity
p137
I933
tp138
a(Vnucleoplasm
p139
I905
tp140
a(Vcell morphogenesis
p141
I890
tp142
a(Vmicrotubule organizing center
p143
I879
tp144
a(VATPase activity
p145
I832
tp146
a(Vextracellular region
p147
I720
tp148
a(Vsulfur compound metabolic process
p149
I716
tp150
a(Vstructural molecule activity
p151
I705
tp152
a(Vextracellular space
p153
I679
tp154
a(Vextracellular matrix organization
p155
I617
tp156
a(Vtransferase activity, transferring acyl groups
p157
I609
tp158
a(Vcofactor metabolic process
p159
I602
tp160
a(Vcirculatory system process
p161
I593
tp162
a(Vprotein targeting
p163
I584
tp164
a(Vvacuole
p165
I578
tp166
a(Vsymbiosis, encompassing mutualism through parasitism
p167
I571
tp168
a(Vcilium
p169
I560
tp170
a(VmRNA processing
p171
I525
tp172
a(Vphosphatase activity
p173
I489
tp174
a(Vgeneration of precursor metabolites and energy
p175
I468
tp176
a(Vtransferase activity, transferring glycosyl groups
p177
I464
tp178
a(Vcell cycle
p179
I461
tp180
a(Vaging
p181
I431
tp182
a(Vcell junction organization
p183
I418
tp184
a(Vreproduction
p185
I407
tp186
a(Vnucleocytoplasmic transport
p187
I396
tp188
a(Vcell division
p189
I395
tp190
a(Vdevelopmental maturation
p191
I354
tp192
a(Vhelicase activity
p193
I354
tp194
a(Vlysosome
p195
I341
tp196
a(Vmethyltransferase activity
p197
I339
tp198
a(Vlyase activity
p199
I328
tp200
a(Vnuclease activity
p201
I316
tp202
a(Vmitochondrion organization
p203
I309
tp204
a(Vprotein folding
p205
I308
tp206
a(Vplastid
p207
I306
tp208
a(Vchromosome
p209
I298
tp210
a(Vcytoskeleton-dependent intracellular transport
p211
I292
tp212
a(Vplasma membrane organization
p213
I274
tp214
a(Vribonucleoprotein complex assembly
p215
I273
tp216
a(VGTPase activity
p217
I261
tp218
a(Vsecondary metabolic process
p219
I256
tp220
a(Vhistone binding
p221
I247
tp222
a(Vproteinaceous extracellular matrix
p223
I240
tp224
a(Vhydrolase activity, acting on carbon-nitrogen (but not peptide) bonds
p225
I228
tp226
a(Vnuclear envelope
p227
I227
tp228
a(Vexternal encapsulating structure
p229
I227
tp230
a(Vhydrolase activity, acting on glycosyl bonds
p231
I220
tp232
a(Vcell wall
p233
I219
tp234
a(Visomerase activity
p235
I218
tp236
a(VmRNA binding
p237
I209
tp238
a(VtRNA metabolic process
p239
I194
tp240
a(Vmitosis
p241
I192
tp242
a(Vnucleotidyltransferase activity
p243
I188
tp244
a(Vprotein binding, bridging
p245
I184
tp246
a(Vchromosome segregation
p247
I176
tp248
a(Vvacuolar transport
p249
I170
tp250
a(Vcell wall organization or biogenesis
p251
I169
tp252
a(Vlipid particle
p253
I155
tp254
a(Vperoxisome
p255
I153
tp256
a(Vsmall conjugating protein binding
p257
I152
tp258
a(Vunfolded protein binding
p259
I145
tp260
a(Vtranslation factor activity, nucleic acid binding
p261
I135
tp262
a(Vprotein transporter activity
p263
I128
tp264
a(Vribosome
p265
I114
tp266
a(Vtransferase activity, transferring alkyl or aryl (other than methyl) groups
p267
I108
tp268
a(Vtranslation
p269
I103
tp270
a(Vstructural constituent of ribosome
p271
I99
tp272
a(Vnuclear chromosome
p273
I86
tp274
a(Vintracellular
p275
I83
tp276
a(Vpigmentation
p277
I82
tp278
a(Vribosome biogenesis
p279
I70
tp280
a(VrRNA binding
p281
I39
tp282
a(Vthylakoid
p283
I27
tp284
a(Vnitrogen cycle metabolic process
p285
I19
tp286
a(Vtransposition
p287
I12
tp288
a(Vphotosynthesis
p289
I5
tp290
a(Vcell
p291
I4
tp292
aa(lp293
(g3
L6372L
tp294
a(g5
L4365L
tp295
a(g7
L2787L
tp296
a(g9
L21685L
tp297
a(g11
L26888L
tp298
a(g13
L5491L
tp299
a(g15
L5801L
tp300
a(g17
L18268L
tp301
a(g19
L5613L
tp302
a(g21
L21693L
tp303
a(g23
L21630L
tp304
a(g25
L22689L
tp305
a(g27
L7192L
tp306
a(g29
L5168L
tp307
a(g31
L7190L
tp308
a(g33
L1781L
tp309
a(g35
L13924L
tp310
a(g37
L13633L
tp311
a(g39
L4599L
tp312
a(g41
L12968L
tp313
a(g43
L5326L
tp314
a(g45
L20507L
tp315
a(g47
L13690L
tp316
a(g49
L4644L
tp317
a(g51
L26682L
tp318
a(g53
L4507L
tp319
a(g55
L10381L
tp320
a(g57
L4422L
tp321
a(g59
L3827L
tp322
a(g61
L2790L
tp323
a(g63
L21086L
tp324
a(g65
L4995L
tp325
a(g67
L28228L
tp326
a(g69
L4514L
tp327
a(g71
L27837L
tp328
a(g73
L31581L
tp329
a(g75
L26901L
tp330
a(g77
L29927L
tp331
a(g79
L10598L
tp332
a(g81
L4725L
tp333
a(g83
L28535L
tp334
a(g85
L7881L
tp335
a(g87
L20503L
tp336
a(g89
L6320L
tp337
a(g91
L5165L
tp338
a(g93
L10466L
tp339
a(g95
L5896L
tp340
a(g97
L5663L
tp341
a(g99
L18282L
tp342
a(g101
L10229L
tp343
a(g103
L4567L
tp344
a(g105
L6500L
tp345
a(g107
L2830L
tp346
a(g109
L4515L
tp347
a(g111
L4621L
tp348
a(g113
L5791L
tp349
a(g115
L5218L
tp350
a(g117
L4556L
tp351
a(g119
L30984L
tp352
a(g121
L6448L
tp353
a(g123
L6436L
tp354
a(g125
L6494L
tp355
a(g127
L4542L
tp356
a(g129
L14001L
tp357
a(g131
L6357L
tp358
a(g133
L759L
tp359
a(g135
L677L
tp360
a(g137
L10950L
tp361
a(g139
L4439L
tp362
a(g141
L594L
tp363
a(g143
L4586L
tp364
a(g145
L10963L
tp365
a(g147
L4366L
tp366
a(g149
L5471L
tp367
a(g151
L4118L
tp368
a(g153
L4405L
tp369
a(g155
L13967L
tp370
a(g157
L10829L
tp371
a(g159
L28144L
tp372
a(g161
L2364L
tp373
a(g163
L5302L
tp374
a(g165
L4546L
tp375
a(g167
L22810L
tp376
a(g169
L4684L
tp377
a(g171
L5112L
tp378
a(g173
L10870L
tp379
a(g175
L4838L
tp380
a(g177
L10840L
tp381
a(g179
L5695L
tp382
a(g181
L6169L
tp383
a(g183
L17965L
tp384
a(g185
L3L
tp385
a(g187
L5582L
tp386
a(g189
L28251L
tp387
a(g191
L13274L
tp388
a(g193
L3404L
tp389
a(g195
L4538L
tp390
a(g197
L6389L
tp391
a(g199
L10905L
tp392
a(g201
L3518L
tp393
a(g203
L5658L
tp394
a(g205
L5161L
tp395
a(g207
L7644L
tp396
a(g209
L4475L
tp397
a(g211
L14427L
tp398
a(g213
L5662L
tp399
a(g215
L13644L
tp400
a(g217
L2991L
tp401
a(g219
L12827L
tp402
a(g221
L20900L
tp403
a(g223
L4368L
tp404
a(g225
L10886L
tp405
a(g227
L4423L
tp406
a(g229
L14078L
tp407
a(g231
L10876L
tp408
a(g233
L4408L
tp409
a(g235
L10929L
tp410
a(g237
L2835L
tp411
a(g239
L5114L
tp412
a(g241
L5712L
tp413
a(g243
L10860L
tp414
a(g245
L14396L
tp415
a(g247
L5705L
tp416
a(g249
L5682L
tp417
a(g251
L33137L
tp418
a(g253
L4583L
tp419
a(g255
L4550L
tp420
a(g257
L15840L
tp421
a(g259
L28040L
tp422
a(g261
L6358L
tp423
a(g263
L6747L
tp424
a(g265
L4609L
tp425
a(g267
L10848L
tp426
a(g269
L5126L
tp427
a(g271
L2841L
tp428
a(g273
L201L
tp429
a(g275
L4411L
tp430
a(g277
L21900L
tp431
a(g279
L20770L
tp432
a(g281
L12918L
tp433
a(g283
L7683L
tp434
a(g285
L33512L
tp435
a(g287
L15852L
tp436
a(g289
L10192L
tp437
a(g291
L4412L
tp438
aaI602024
a.