(lp1
(lp2
(Vbiological_process
p3
I163088
tp4
a(Vcellular_component
p5
I55908
tp6
a(Vmolecular_function
p7
I45694
tp8
a(Vorganelle
p9
I15171
tp10
a(Vanatomical structure development
p11
I11815
tp12
a(Vtransport
p13
I9245
tp14
a(Vcellular nitrogen compound metabolic process
p15
I8434
tp16
a(Vsignal transduction
p17
I7399
tp18
a(Vprotein complex
p19
I6791
tp20
a(Vresponse to stress
p21
I6231
tp22
a(Vsmall molecule metabolic process
p23
I6186
tp24
a(Vbiosynthetic process
p25
I5699
tp26
a(Vion binding
p27
I5424
tp28
a(Vcellular protein modification process
p29
I4423
tp30
a(Vcatabolic process
p31
I4226
tp32
a(Vimmune system process
p33
I3279
tp34
a(Vcytosol
p35
I2960
tp36
a(Vcellular component assembly
p37
I2865
tp38
a(Vlipid metabolic process
p39
I2859
tp40
a(Vcell differentiation
p41
I2812
tp42
a(Venzyme binding
p43
I2391
tp44
a(Vnucleolus
p45
I2144
tp46
a(Vvesicle-mediated transport
p47
I1985
tp48
a(Vplasma membrane
p49
I1935
tp50
a(VDNA metabolic process
p51
I1922
tp52
a(Vchromosome organization
p53
I1908
tp54
a(Vnucleus
p55
I1875
tp56
a(Voxidoreductase activity
p57
I1872
tp58
a(Vlocomotion
p59
I1793
tp60
a(Vtransmembrane transporter activity
p61
I1771
tp62
a(Vanatomical structure formation involved in morphogenesis
p63
I1755
tp64
a(VDNA binding
p65
I1688
tp66
a(Vcarbohydrate metabolic process
p67
I1637
tp68
a(Vmacromolecular complex assembly
p69
I1631
tp70
a(Vhomeostatic process
p71
I1585
tp72
a(Vcytoplasm
p73
I1490
tp74
a(Vembryo development
p75
I1465
tp76
a(Vnucleobase-containing compound catabolic process
p77
I1430
tp78
a(Vsignal transducer activity
p79
I1382
tp80
a(Vtransmembrane transport
p81
I1357
tp82
a(Vgrowth
p83
I1307
tp84
a(Vcytoskeleton organization
p85
I1302
tp86
a(Vprotein complex assembly
p87
I1290
tp88
a(Vprotein maturation
p89
I1284
tp90
a(Vcytoskeletal protein binding
p91
I1271
tp92
a(VRNA binding
p93
I1231
tp94
a(Vneurological system process
p95
I1226
tp96
a(Vmitochondrion
p97
I1198
tp98
a(Vkinase activity
p99
I1197
tp100
a(Vcell motility
p101
I1185
tp102
a(Vcellular amino acid metabolic process
p103
I1119
tp104
a(Vcytoplasmic membrane-bounded vesicle
p105
I1018
tp106
a(VGolgi apparatus
p107
I981
tp108
a(Vlipid binding
p109
I967
tp110
a(Vendoplasmic reticulum
p111
I919
tp112
a(Vcell-cell signaling
p113
I887
tp114
a(Vcytoskeleton
p115
I865
tp116
a(Vcell death
p117
I842
tp118
a(Vmembrane organization
p119
I830
tp120
a(Venzyme regulator activity
p121
I823
tp122
a(Vnucleoplasm
p123
I803
tp124
a(Vtranscription factor binding
p125
I793
tp126
a(Vpeptidase activity
p127
I788
tp128
a(Vendosome
p129
I754
tp130
a(Vmicrotubule organizing center
p131
I752
tp132
a(Vligase activity
p133
I731
tp134
a(Vprotein binding transcription factor activity
p135
I728
tp136
a(VATPase activity
p137
I721
tp138
a(Vcell proliferation
p139
I684
tp140
a(Vcell adhesion
p141
I673
tp142
a(Vnucleic acid binding transcription factor activity
p143
I646
tp144
a(Vstructural molecule activity
p145
I601
tp146
a(Vcofactor metabolic process
p147
I587
tp148
a(Vcell morphogenesis
p149
I584
tp150
a(Vtransferase activity, transferring acyl groups
p151
I568
tp152
a(Vprotein targeting
p153
I553
tp154
a(Vsulfur compound metabolic process
p155
I529
tp156
a(Vsymbiosis, encompassing mutualism through parasitism
p157
I515
tp158
a(VmRNA processing
p159
I500
tp160
a(Vgeneration of precursor metabolites and energy
p161
I499
tp162
a(Vextracellular region
p163
I498
tp164
a(Vcilium
p165
I465
tp166
a(Vcell cycle
p167
I455
tp168
a(Vtransferase activity, transferring glycosyl groups
p169
I454
tp170
a(Vphosphatase activity
p171
I427
tp172
a(Vvacuole
p173
I404
tp174
a(Vreproduction
p175
I371
tp176
a(Vextracellular space
p177
I352
tp178
a(Vlyase activity
p179
I346
tp180
a(Vextracellular matrix organization
p181
I332
tp182
a(Vcell junction organization
p183
I330
tp184
a(Vcell division
p185
I329
tp186
a(Vnucleocytoplasmic transport
p187
I324
tp188
a(Vplastid
p189
I307
tp190
a(Vaging
p191
I306
tp192
a(Vprotein folding
p193
I303
tp194
a(Vcirculatory system process
p195
I303
tp196
a(Vmethyltransferase activity
p197
I291
tp198
a(Vcytoskeleton-dependent intracellular transport
p199
I280
tp200
a(Vnuclease activity
p201
I275
tp202
a(Vhelicase activity
p203
I273
tp204
a(Vmitochondrion organization
p205
I272
tp206
a(Vribonucleoprotein complex assembly
p207
I264
tp208
a(Vchromosome
p209
I263
tp210
a(VGTPase activity
p211
I252
tp212
a(Vsecondary metabolic process
p213
I250
tp214
a(Vnuclear envelope
p215
I229
tp216
a(VtRNA metabolic process
p217
I228
tp218
a(Vexternal encapsulating structure
p219
I227
tp220
a(Vcell wall
p221
I225
tp222
a(Vdevelopmental maturation
p223
I215
tp224
a(Visomerase activity
p225
I213
tp226
a(Vlysosome
p227
I212
tp228
a(Vhistone binding
p229
I209
tp230
a(VmRNA binding
p231
I207
tp232
a(Vhydrolase activity, acting on carbon-nitrogen (but not peptide) bonds
p233
I192
tp234
a(Vnucleotidyltransferase activity
p235
I182
tp236
a(Vplasma membrane organization
p237
I180
tp238
a(Vstructural constituent of ribosome
p239
I173
tp240
a(Vcell wall organization or biogenesis
p241
I170
tp242
a(Vmitosis
p243
I168
tp244
a(Vhydrolase activity, acting on glycosyl bonds
p245
I163
tp246
a(Vvacuolar transport
p247
I161
tp248
a(Vchromosome segregation
p249
I161
tp250
a(Vtranslation factor activity, nucleic acid binding
p251
I146
tp252
a(Vlipid particle
p253
I146
tp254
a(Vunfolded protein binding
p255
I139
tp256
a(Vperoxisome
p257
I134
tp258
a(Vsmall conjugating protein binding
p259
I131
tp260
a(Vtranslation
p261
I120
tp262
a(Vprotein binding, bridging
p263
I118
tp264
a(Vprotein transporter activity
p265
I109
tp266
a(Vribosome
p267
I107
tp268
a(Vtransferase activity, transferring alkyl or aryl (other than methyl) groups
p269
I106
tp270
a(Vproteinaceous extracellular matrix
p271
I84
tp272
a(Vribosome biogenesis
p273
I81
tp274
a(Vnuclear chromosome
p275
I79
tp276
a(Vintracellular
p277
I60
tp278
a(Vpigmentation
p279
I56
tp280
a(VrRNA binding
p281
I47
tp282
a(Vthylakoid
p283
I28
tp284
a(Vnitrogen cycle metabolic process
p285
I21
tp286
a(Vtransposition
p287
I8
tp288
a(Vphotosynthesis
p289
I7
tp290
a(Vcell
p291
I3
tp292
a(VRNA modification guide activity
p293
I2
tp294
aa(lp295
(g3
L6372L
tp296
a(g5
L4365L
tp297
a(g7
L2787L
tp298
a(g9
L21685L
tp299
a(g11
L26888L
tp300
a(g13
L5491L
tp301
a(g15
L18268L
tp302
a(g17
L5801L
tp303
a(g19
L21693L
tp304
a(g21
L5613L
tp305
a(g23
L22689L
tp306
a(g25
L7192L
tp307
a(g27
L21630L
tp308
a(g29
L5168L
tp309
a(g31
L7190L
tp310
a(g33
L1781L
tp311
a(g35
L4599L
tp312
a(g37
L13633L
tp313
a(g39
L5326L
tp314
a(g41
L13924L
tp315
a(g43
L12968L
tp316
a(g45
L4507L
tp317
a(g47
L10381L
tp318
a(g49
L4644L
tp319
a(g51
L4995L
tp320
a(g53
L28228L
tp321
a(g55
L4422L
tp322
a(g57
L10598L
tp323
a(g59
L20507L
tp324
a(g61
L13690L
tp325
a(g63
L26682L
tp326
a(g65
L2790L
tp327
a(g67
L4725L
tp328
a(g69
L31581L
tp329
a(g71
L21086L
tp330
a(g73
L4514L
tp331
a(g75
L7881L
tp332
a(g77
L18282L
tp333
a(g79
L3827L
tp334
a(g81
L29927L
tp335
a(g83
L20503L
tp336
a(g85
L5663L
tp337
a(g87
L5165L
tp338
a(g89
L28535L
tp339
a(g91
L6320L
tp340
a(g93
L2830L
tp341
a(g95
L27837L
tp342
a(g97
L4515L
tp343
a(g99
L10466L
tp344
a(g101
L26901L
tp345
a(g103
L5218L
tp346
a(g105
L10229L
tp347
a(g107
L4567L
tp348
a(g109
L6500L
tp349
a(g111
L4556L
tp350
a(g113
L5896L
tp351
a(g115
L4621L
tp352
a(g117
L6436L
tp353
a(g119
L30984L
tp354
a(g121
L14001L
tp355
a(g123
L4439L
tp356
a(g125
L6357L
tp357
a(g127
L6448L
tp358
a(g129
L4542L
tp359
a(g131
L4586L
tp360
a(g133
L10950L
tp361
a(g135
L677L
tp362
a(g137
L10963L
tp363
a(g139
L6494L
tp364
a(g141
L5791L
tp365
a(g143
L759L
tp366
a(g145
L4118L
tp367
a(g147
L28144L
tp368
a(g149
L594L
tp369
a(g151
L10829L
tp370
a(g153
L5302L
tp371
a(g155
L5471L
tp372
a(g157
L22810L
tp373
a(g159
L5112L
tp374
a(g161
L4838L
tp375
a(g163
L4366L
tp376
a(g165
L4684L
tp377
a(g167
L5695L
tp378
a(g169
L10840L
tp379
a(g171
L10870L
tp380
a(g173
L4546L
tp381
a(g175
L3L
tp382
a(g177
L4405L
tp383
a(g179
L10905L
tp384
a(g181
L13967L
tp385
a(g183
L17965L
tp386
a(g185
L28251L
tp387
a(g187
L5582L
tp388
a(g189
L7644L
tp389
a(g191
L6169L
tp390
a(g193
L5161L
tp391
a(g195
L2364L
tp392
a(g197
L6389L
tp393
a(g199
L14427L
tp394
a(g201
L3518L
tp395
a(g203
L3404L
tp396
a(g205
L5658L
tp397
a(g207
L13644L
tp398
a(g209
L4475L
tp399
a(g211
L2991L
tp400
a(g213
L12827L
tp401
a(g215
L4423L
tp402
a(g217
L5114L
tp403
a(g219
L14078L
tp404
a(g221
L4408L
tp405
a(g223
L13274L
tp406
a(g225
L10929L
tp407
a(g227
L4538L
tp408
a(g229
L20900L
tp409
a(g231
L2835L
tp410
a(g233
L10886L
tp411
a(g235
L10860L
tp412
a(g237
L5662L
tp413
a(g239
L2841L
tp414
a(g241
L33137L
tp415
a(g243
L5712L
tp416
a(g245
L10876L
tp417
a(g247
L5682L
tp418
a(g249
L5705L
tp419
a(g251
L6358L
tp420
a(g253
L4583L
tp421
a(g255
L28040L
tp422
a(g257
L4550L
tp423
a(g259
L15840L
tp424
a(g261
L5126L
tp425
a(g263
L14396L
tp426
a(g265
L6747L
tp427
a(g267
L4609L
tp428
a(g269
L10848L
tp429
a(g271
L4368L
tp430
a(g273
L20770L
tp431
a(g275
L201L
tp432
a(g277
L4411L
tp433
a(g279
L21900L
tp434
a(g281
L12918L
tp435
a(g283
L7683L
tp436
a(g285
L33512L
tp437
a(g287
L15852L
tp438
a(g289
L10192L
tp439
a(g291
L4412L
tp440
a(g293
L14288L
tp441
aaI454249
a.