(lp1
(lp2
(Vbiological_process
p3
I271320
tp4
a(Vcellular_component
p5
I91957
tp6
a(Vmolecular_function
p7
I74814
tp8
a(Vorganelle
p9
I24268
tp10
a(Vanatomical structure development
p11
I20835
tp12
a(Vtransport
p13
I15471
tp14
a(Vsignal transduction
p15
I12516
tp16
a(Vcellular nitrogen compound metabolic process
p17
I12265
tp18
a(Vprotein complex
p19
I10334
tp20
a(Vresponse to stress
p21
I10111
tp22
a(Vion binding
p23
I9304
tp24
a(Vsmall molecule metabolic process
p25
I8392
tp26
a(Vbiosynthetic process
p27
I7521
tp28
a(Vcellular protein modification process
p29
I6815
tp30
a(Vcatabolic process
p31
I6047
tp32
a(Vimmune system process
p33
I5670
tp34
a(Vcell differentiation
p35
I5060
tp36
a(Vcellular component assembly
p37
I4646
tp38
a(Vcytosol
p39
I4239
tp40
a(Venzyme binding
p41
I3983
tp42
a(Vlipid metabolic process
p43
I3892
tp44
a(Vlocomotion
p45
I3452
tp46
a(Vplasma membrane
p47
I3368
tp48
a(Vvesicle-mediated transport
p49
I3363
tp50
a(Vanatomical structure formation involved in morphogenesis
p51
I3319
tp52
a(Vnucleolus
p53
I3312
tp54
a(Vtransmembrane transporter activity
p55
I3208
tp56
a(Vnucleus
p57
I3028
tp58
a(VDNA metabolic process
p59
I2865
tp60
a(VDNA binding
p61
I2688
tp62
a(Vhomeostatic process
p63
I2661
tp64
a(Vchromosome organization
p65
I2640
tp66
a(Vmacromolecular complex assembly
p67
I2576
tp68
a(Vcell motility
p69
I2455
tp70
a(Vcytoplasm
p71
I2448
tp72
a(Vtransmembrane transport
p73
I2426
tp74
a(Vsignal transducer activity
p75
I2354
tp76
a(Vneurological system process
p77
I2302
tp78
a(Voxidoreductase activity
p79
I2247
tp80
a(Vembryo development
p81
I2205
tp82
a(Vcarbohydrate metabolic process
p83
I2184
tp84
a(Vprotein maturation
p85
I2176
tp86
a(Vnucleobase-containing compound catabolic process
p87
I2150
tp88
a(Vgrowth
p89
I2149
tp90
a(Vcytoskeletal protein binding
p91
I2145
tp92
a(Vprotein complex assembly
p93
I2085
tp94
a(Vkinase activity
p95
I2050
tp96
a(Vcytoskeleton organization
p97
I2017
tp98
a(Vlipid binding
p99
I1795
tp100
a(VRNA binding
p101
I1776
tp102
a(Vcytoplasmic membrane-bounded vesicle
p103
I1708
tp104
a(VGolgi apparatus
p105
I1707
tp106
a(Vcell adhesion
p107
I1603
tp108
a(Vmitochondrion
p109
I1577
tp110
a(Vcytoskeleton
p111
I1518
tp112
a(Vpeptidase activity
p113
I1513
tp114
a(Vcellular amino acid metabolic process
p115
I1505
tp116
a(Vcell-cell signaling
p117
I1493
tp118
a(Vendoplasmic reticulum
p119
I1387
tp120
a(Vmembrane organization
p121
I1356
tp122
a(Vcell death
p123
I1344
tp124
a(Venzyme regulator activity
p125
I1333
tp126
a(Vendosome
p127
I1292
tp128
a(Vcell proliferation
p129
I1279
tp130
a(Vligase activity
p131
I1166
tp132
a(Vprotein binding transcription factor activity
p133
I1166
tp134
a(VATPase activity
p135
I1163
tp136
a(Vmicrotubule organizing center
p137
I1161
tp138
a(Vtranscription factor binding
p139
I1149
tp140
a(Vnucleoplasm
p141
I1146
tp142
a(Vcell morphogenesis
p143
I1062
tp144
a(Vstructural molecule activity
p145
I1051
tp146
a(Vnucleic acid binding transcription factor activity
p147
I1023
tp148
a(Vextracellular region
p149
I993
tp150
a(Vprotein targeting
p151
I906
tp152
a(Vextracellular space
p153
I872
tp154
a(Vsulfur compound metabolic process
p155
I799
tp156
a(Vextracellular matrix organization
p157
I777
tp158
a(VmRNA processing
p159
I753
tp160
a(Vcofactor metabolic process
p161
I744
tp162
a(Vtransferase activity, transferring acyl groups
p163
I730
tp164
a(Vcilium
p165
I725
tp166
a(Vsymbiosis, encompassing mutualism through parasitism
p167
I719
tp168
a(Vphosphatase activity
p169
I695
tp170
a(Vvacuole
p171
I663
tp172
a(Vgeneration of precursor metabolites and energy
p173
I656
tp174
a(Vcirculatory system process
p175
I562
tp176
a(Vcell cycle
p177
I544
tp178
a(Vnucleocytoplasmic transport
p179
I542
tp180
a(Vcell junction organization
p181
I537
tp182
a(Vaging
p183
I536
tp184
a(Vreproduction
p185
I531
tp186
a(Vtransferase activity, transferring glycosyl groups
p187
I503
tp188
a(Vplastid
p189
I454
tp190
a(Vcell division
p191
I454
tp192
a(Vlyase activity
p193
I448
tp194
a(Vnuclease activity
p195
I447
tp196
a(Vhelicase activity
p197
I430
tp198
a(Vdevelopmental maturation
p199
I422
tp200
a(Vcytoskeleton-dependent intracellular transport
p201
I393
tp202
a(Vprotein folding
p203
I390
tp204
a(Vribonucleoprotein complex assembly
p205
I389
tp206
a(Vlysosome
p207
I383
tp208
a(Vproteinaceous extracellular matrix
p209
I379
tp210
a(Vmethyltransferase activity
p211
I378
tp212
a(Vmitochondrion organization
p213
I369
tp214
a(Vchromosome
p215
I362
tp216
a(VGTPase activity
p217
I336
tp218
a(Vhistone binding
p219
I325
tp220
a(Vnuclear envelope
p221
I305
tp222
a(Vsecondary metabolic process
p223
I303
tp224
a(VmRNA binding
p225
I303
tp226
a(Vexternal encapsulating structure
p227
I295
tp228
a(Vcell wall
p229
I291
tp230
a(Vplasma membrane organization
p231
I284
tp232
a(Vnucleotidyltransferase activity
p233
I281
tp234
a(Visomerase activity
p235
I273
tp236
a(Vhydrolase activity, acting on carbon-nitrogen (but not peptide) bonds
p237
I267
tp238
a(Vstructural constituent of ribosome
p239
I262
tp240
a(Vhydrolase activity, acting on glycosyl bonds
p241
I253
tp242
a(Vmitosis
p243
I243
tp244
a(VtRNA metabolic process
p245
I234
tp246
a(Vprotein binding, bridging
p247
I234
tp248
a(Vvacuolar transport
p249
I226
tp250
a(Vcell wall organization or biogenesis
p251
I224
tp252
a(Vchromosome segregation
p253
I219
tp254
a(Vsmall conjugating protein binding
p255
I212
tp256
a(Vlipid particle
p257
I189
tp258
a(Vperoxisome
p259
I186
tp260
a(Vprotein transporter activity
p261
I181
tp262
a(Vtranslation factor activity, nucleic acid binding
p263
I178
tp264
a(Vunfolded protein binding
p265
I175
tp266
a(Vtranslation
p267
I138
tp268
a(Vribosome
p269
I133
tp270
a(Vribosome biogenesis
p271
I129
tp272
a(Vtransferase activity, transferring alkyl or aryl (other than methyl) groups
p273
I127
tp274
a(Vnuclear chromosome
p275
I118
tp276
a(Vintracellular
p277
I90
tp278
a(Vpigmentation
p279
I89
tp280
a(VrRNA binding
p281
I69
tp282
a(Vthylakoid
p283
I30
tp284
a(Vnitrogen cycle metabolic process
p285
I27
tp286
a(Vtransposition
p287
I12
tp288
a(Vphotosynthesis
p289
I7
tp290
a(Vcell
p291
I6
tp292
a(VRNA modification guide activity
p293
I1
tp294
aa(lp295
(g3
L6372L
tp296
a(g5
L4365L
tp297
a(g7
L2787L
tp298
a(g9
L21685L
tp299
a(g11
L26888L
tp300
a(g13
L5491L
tp301
a(g15
L5801L
tp302
a(g17
L18268L
tp303
a(g19
L21693L
tp304
a(g21
L5613L
tp305
a(g23
L21630L
tp306
a(g25
L22689L
tp307
a(g27
L7192L
tp308
a(g29
L5168L
tp309
a(g31
L7190L
tp310
a(g33
L1781L
tp311
a(g35
L13924L
tp312
a(g37
L13633L
tp313
a(g39
L4599L
tp314
a(g41
L12968L
tp315
a(g43
L5326L
tp316
a(g45
L20507L
tp317
a(g47
L4644L
tp318
a(g49
L10381L
tp319
a(g51
L26682L
tp320
a(g53
L4507L
tp321
a(g55
L13690L
tp322
a(g57
L4422L
tp323
a(g59
L4995L
tp324
a(g61
L2790L
tp325
a(g63
L21086L
tp326
a(g65
L28228L
tp327
a(g67
L31581L
tp328
a(g69
L26901L
tp329
a(g71
L4514L
tp330
a(g73
L29927L
tp331
a(g75
L3827L
tp332
a(g77
L27837L
tp333
a(g79
L10598L
tp334
a(g81
L7881L
tp335
a(g83
L4725L
tp336
a(g85
L28535L
tp337
a(g87
L18282L
tp338
a(g89
L20503L
tp339
a(g91
L6320L
tp340
a(g93
L5165L
tp341
a(g95
L10466L
tp342
a(g97
L5663L
tp343
a(g99
L6500L
tp344
a(g101
L2830L
tp345
a(g103
L10229L
tp346
a(g105
L4567L
tp347
a(g107
L5791L
tp348
a(g109
L4515L
tp349
a(g111
L4621L
tp350
a(g113
L6448L
tp351
a(g115
L5218L
tp352
a(g117
L5896L
tp353
a(g119
L4556L
tp354
a(g121
L30984L
tp355
a(g123
L6436L
tp356
a(g125
L14001L
tp357
a(g127
L4542L
tp358
a(g129
L6494L
tp359
a(g131
L10950L
tp360
a(g133
L677L
tp361
a(g135
L10963L
tp362
a(g137
L4586L
tp363
a(g139
L6357L
tp364
a(g141
L4439L
tp365
a(g143
L594L
tp366
a(g145
L4118L
tp367
a(g147
L759L
tp368
a(g149
L4366L
tp369
a(g151
L5302L
tp370
a(g153
L4405L
tp371
a(g155
L5471L
tp372
a(g157
L13967L
tp373
a(g159
L5112L
tp374
a(g161
L28144L
tp375
a(g163
L10829L
tp376
a(g165
L4684L
tp377
a(g167
L22810L
tp378
a(g169
L10870L
tp379
a(g171
L4546L
tp380
a(g173
L4838L
tp381
a(g175
L2364L
tp382
a(g177
L5695L
tp383
a(g179
L5582L
tp384
a(g181
L17965L
tp385
a(g183
L6169L
tp386
a(g185
L3L
tp387
a(g187
L10840L
tp388
a(g189
L7644L
tp389
a(g191
L28251L
tp390
a(g193
L10905L
tp391
a(g195
L3518L
tp392
a(g197
L3404L
tp393
a(g199
L13274L
tp394
a(g201
L14427L
tp395
a(g203
L5161L
tp396
a(g205
L13644L
tp397
a(g207
L4538L
tp398
a(g209
L4368L
tp399
a(g211
L6389L
tp400
a(g213
L5658L
tp401
a(g215
L4475L
tp402
a(g217
L2991L
tp403
a(g219
L20900L
tp404
a(g221
L4423L
tp405
a(g223
L12827L
tp406
a(g225
L2835L
tp407
a(g227
L14078L
tp408
a(g229
L4408L
tp409
a(g231
L5662L
tp410
a(g233
L10860L
tp411
a(g235
L10929L
tp412
a(g237
L10886L
tp413
a(g239
L2841L
tp414
a(g241
L10876L
tp415
a(g243
L5712L
tp416
a(g245
L5114L
tp417
a(g247
L14396L
tp418
a(g249
L5682L
tp419
a(g251
L33137L
tp420
a(g253
L5705L
tp421
a(g255
L15840L
tp422
a(g257
L4583L
tp423
a(g259
L4550L
tp424
a(g261
L6747L
tp425
a(g263
L6358L
tp426
a(g265
L28040L
tp427
a(g267
L5126L
tp428
a(g269
L4609L
tp429
a(g271
L20770L
tp430
a(g273
L10848L
tp431
a(g275
L201L
tp432
a(g277
L4411L
tp433
a(g279
L21900L
tp434
a(g281
L12918L
tp435
a(g283
L7683L
tp436
a(g285
L33512L
tp437
a(g287
L15852L
tp438
a(g289
L10192L
tp439
a(g291
L4412L
tp440
a(g293
L14288L
tp441
aaI740346
a.