(lp1
(lp2
(Vbiological_process
p3
I239340
tp4
a(Vcellular_component
p5
I81642
tp6
a(Vmolecular_function
p7
I68592
tp8
a(Vorganelle
p9
I21837
tp10
a(Vanatomical structure development
p11
I17767
tp12
a(Vtransport
p13
I13429
tp14
a(Vcellular nitrogen compound metabolic process
p15
I11364
tp16
a(Vsignal transduction
p17
I11079
tp18
a(Vprotein complex
p19
I9805
tp20
a(Vresponse to stress
p21
I9176
tp22
a(Vion binding
p23
I8518
tp24
a(Vsmall molecule metabolic process
p25
I8342
tp26
a(Vbiosynthetic process
p27
I7315
tp28
a(Vcellular protein modification process
p29
I6491
tp30
a(Vcatabolic process
p31
I5874
tp32
a(Vimmune system process
p33
I5119
tp34
a(Vcellular component assembly
p35
I4319
tp36
a(Vcytosol
p37
I4240
tp38
a(Vcell differentiation
p39
I4147
tp40
a(Venzyme binding
p41
I3775
tp42
a(Vlipid metabolic process
p43
I3644
tp44
a(Vnucleolus
p45
I3067
tp46
a(Vplasma membrane
p47
I3042
tp48
a(Vlocomotion
p49
I2908
tp50
a(Vvesicle-mediated transport
p51
I2879
tp52
a(Vtransmembrane transporter activity
p53
I2822
tp54
a(Vanatomical structure formation involved in morphogenesis
p55
I2725
tp56
a(Vnucleus
p57
I2701
tp58
a(VDNA binding
p59
I2651
tp60
a(VDNA metabolic process
p61
I2590
tp62
a(Vmacromolecular complex assembly
p63
I2467
tp64
a(Vchromosome organization
p65
I2462
tp66
a(Vcarbohydrate metabolic process
p67
I2332
tp68
a(Voxidoreductase activity
p69
I2297
tp70
a(Vhomeostatic process
p71
I2274
tp72
a(Vcytoplasm
p73
I2243
tp74
a(Vembryo development
p75
I2104
tp76
a(Vtransmembrane transport
p77
I2097
tp78
a(Vprotein maturation
p79
I2052
tp80
a(Vcell motility
p81
I2034
tp82
a(Vcytoskeletal protein binding
p83
I1989
tp84
a(Vprotein complex assembly
p85
I1982
tp86
a(Vnucleobase-containing compound catabolic process
p87
I1949
tp88
a(Vcytoskeleton organization
p89
I1926
tp90
a(Vneurological system process
p91
I1925
tp92
a(Vgrowth
p93
I1835
tp94
a(VRNA binding
p95
I1806
tp96
a(Vkinase activity
p97
I1791
tp98
a(Vsignal transducer activity
p99
I1617
tp100
a(Vmitochondrion
p101
I1615
tp102
a(Vcellular amino acid metabolic process
p103
I1576
tp104
a(VGolgi apparatus
p105
I1520
tp106
a(Vcytoplasmic membrane-bounded vesicle
p107
I1503
tp108
a(Vlipid binding
p109
I1466
tp110
a(Vcytoskeleton
p111
I1351
tp112
a(Venzyme regulator activity
p113
I1310
tp114
a(Vmembrane organization
p115
I1300
tp116
a(Vcell adhesion
p117
I1286
tp118
a(Vendoplasmic reticulum
p119
I1280
tp120
a(Vpeptidase activity
p121
I1259
tp122
a(Vcell death
p123
I1207
tp124
a(Vtranscription factor binding
p125
I1178
tp126
a(Vligase activity
p127
I1171
tp128
a(Vendosome
p129
I1151
tp130
a(Vcell-cell signaling
p131
I1142
tp132
a(Vcell proliferation
p133
I1131
tp134
a(Vnucleoplasm
p135
I1115
tp136
a(Vprotein binding transcription factor activity
p137
I1110
tp138
a(VATPase activity
p139
I1076
tp140
a(Vmicrotubule organizing center
p141
I1073
tp142
a(Vnucleic acid binding transcription factor activity
p143
I1052
tp144
a(Vstructural molecule activity
p145
I927
tp146
a(Vcell morphogenesis
p147
I920
tp148
a(Vsulfur compound metabolic process
p149
I846
tp150
a(Vcofactor metabolic process
p151
I805
tp152
a(Vsymbiosis, encompassing mutualism through parasitism
p153
I796
tp154
a(Vextracellular region
p155
I776
tp156
a(VmRNA processing
p157
I763
tp158
a(Vprotein targeting
p159
I755
tp160
a(Vtransferase activity, transferring acyl groups
p161
I736
tp162
a(Vgeneration of precursor metabolites and energy
p163
I711
tp164
a(Vextracellular space
p165
I685
tp166
a(Vextracellular matrix organization
p167
I655
tp168
a(Vvacuole
p169
I645
tp170
a(Vphosphatase activity
p171
I617
tp172
a(Vcell junction organization
p173
I541
tp174
a(Vcilium
p175
I537
tp176
a(Vreproduction
p177
I521
tp178
a(Vnucleocytoplasmic transport
p179
I518
tp180
a(Vcell cycle
p181
I505
tp182
a(Vtransferase activity, transferring glycosyl groups
p183
I487
tp184
a(Vaging
p185
I472
tp186
a(Vlyase activity
p187
I464
tp188
a(Vcell division
p189
I448
tp190
a(Vprotein folding
p191
I439
tp192
a(Vmethyltransferase activity
p193
I432
tp194
a(Vplastid
p195
I418
tp196
a(Vhelicase activity
p197
I412
tp198
a(Vmitochondrion organization
p199
I407
tp200
a(Vnuclease activity
p201
I393
tp202
a(Vribonucleoprotein complex assembly
p203
I389
tp204
a(Vdevelopmental maturation
p205
I386
tp206
a(Vlysosome
p207
I382
tp208
a(Vcirculatory system process
p209
I374
tp210
a(VGTPase activity
p211
I354
tp212
a(Vcytoskeleton-dependent intracellular transport
p213
I350
tp214
a(Vchromosome
p215
I349
tp216
a(VmRNA binding
p217
I336
tp218
a(Vsecondary metabolic process
p219
I321
tp220
a(Vhistone binding
p221
I320
tp222
a(Visomerase activity
p223
I303
tp224
a(Vhydrolase activity, acting on carbon-nitrogen (but not peptide) bonds
p225
I290
tp226
a(Vexternal encapsulating structure
p227
I284
tp228
a(Vplasma membrane organization
p229
I276
tp230
a(Vcell wall
p231
I276
tp232
a(Vnuclear envelope
p233
I268
tp234
a(Vhydrolase activity, acting on glycosyl bonds
p235
I267
tp236
a(VtRNA metabolic process
p237
I267
tp238
a(Vnucleotidyltransferase activity
p239
I241
tp240
a(Vmitosis
p241
I233
tp242
a(Vprotein binding, bridging
p243
I227
tp244
a(Vvacuolar transport
p245
I225
tp246
a(Vchromosome segregation
p247
I222
tp248
a(Vproteinaceous extracellular matrix
p249
I204
tp250
a(Vtranslation factor activity, nucleic acid binding
p251
I200
tp252
a(Vsmall conjugating protein binding
p253
I200
tp254
a(Vunfolded protein binding
p255
I194
tp256
a(Vperoxisome
p257
I185
tp258
a(Vcell wall organization or biogenesis
p259
I183
tp260
a(Vlipid particle
p261
I181
tp262
a(Vprotein transporter activity
p263
I178
tp264
a(Vstructural constituent of ribosome
p265
I163
tp266
a(Vtranslation
p267
I152
tp268
a(Vribosome
p269
I143
tp270
a(Vtransferase activity, transferring alkyl or aryl (other than methyl) groups
p271
I131
tp272
a(Vintracellular
p273
I109
tp274
a(Vnuclear chromosome
p275
I104
tp276
a(Vpigmentation
p277
I80
tp278
a(Vribosome biogenesis
p279
I80
tp280
a(VrRNA binding
p281
I59
tp282
a(Vthylakoid
p283
I37
tp284
a(Vnitrogen cycle metabolic process
p285
I37
tp286
a(Vtransposition
p287
I19
tp288
a(Vphotosynthesis
p289
I9
tp290
a(Vcell
p291
I7
tp292
a(VRNA modification guide activity
p293
I2
tp294
aa(lp295
(g3
L6372L
tp296
a(g5
L4365L
tp297
a(g7
L2787L
tp298
a(g9
L21685L
tp299
a(g11
L26888L
tp300
a(g13
L5491L
tp301
a(g15
L18268L
tp302
a(g17
L5801L
tp303
a(g19
L21693L
tp304
a(g21
L5613L
tp305
a(g23
L21630L
tp306
a(g25
L22689L
tp307
a(g27
L7192L
tp308
a(g29
L5168L
tp309
a(g31
L7190L
tp310
a(g33
L1781L
tp311
a(g35
L13633L
tp312
a(g37
L4599L
tp313
a(g39
L13924L
tp314
a(g41
L12968L
tp315
a(g43
L5326L
tp316
a(g45
L4507L
tp317
a(g47
L4644L
tp318
a(g49
L20507L
tp319
a(g51
L10381L
tp320
a(g53
L13690L
tp321
a(g55
L26682L
tp322
a(g57
L4422L
tp323
a(g59
L2790L
tp324
a(g61
L4995L
tp325
a(g63
L31581L
tp326
a(g65
L28228L
tp327
a(g67
L4725L
tp328
a(g69
L10598L
tp329
a(g71
L21086L
tp330
a(g73
L4514L
tp331
a(g75
L7881L
tp332
a(g77
L29927L
tp333
a(g79
L28535L
tp334
a(g81
L26901L
tp335
a(g83
L6320L
tp336
a(g85
L5165L
tp337
a(g87
L18282L
tp338
a(g89
L5663L
tp339
a(g91
L27837L
tp340
a(g93
L20503L
tp341
a(g95
L2830L
tp342
a(g97
L10466L
tp343
a(g99
L3827L
tp344
a(g101
L4515L
tp345
a(g103
L5218L
tp346
a(g105
L4567L
tp347
a(g107
L10229L
tp348
a(g109
L6500L
tp349
a(g111
L4621L
tp350
a(g113
L14001L
tp351
a(g115
L30984L
tp352
a(g117
L5791L
tp353
a(g119
L4556L
tp354
a(g121
L6448L
tp355
a(g123
L6436L
tp356
a(g125
L6357L
tp357
a(g127
L10950L
tp358
a(g129
L4542L
tp359
a(g131
L5896L
tp360
a(g133
L6494L
tp361
a(g135
L4439L
tp362
a(g137
L677L
tp363
a(g139
L10963L
tp364
a(g141
L4586L
tp365
a(g143
L759L
tp366
a(g145
L4118L
tp367
a(g147
L594L
tp368
a(g149
L5471L
tp369
a(g151
L28144L
tp370
a(g153
L22810L
tp371
a(g155
L4366L
tp372
a(g157
L5112L
tp373
a(g159
L5302L
tp374
a(g161
L10829L
tp375
a(g163
L4838L
tp376
a(g165
L4405L
tp377
a(g167
L13967L
tp378
a(g169
L4546L
tp379
a(g171
L10870L
tp380
a(g173
L17965L
tp381
a(g175
L4684L
tp382
a(g177
L3L
tp383
a(g179
L5582L
tp384
a(g181
L5695L
tp385
a(g183
L10840L
tp386
a(g185
L6169L
tp387
a(g187
L10905L
tp388
a(g189
L28251L
tp389
a(g191
L5161L
tp390
a(g193
L6389L
tp391
a(g195
L7644L
tp392
a(g197
L3404L
tp393
a(g199
L5658L
tp394
a(g201
L3518L
tp395
a(g203
L13644L
tp396
a(g205
L13274L
tp397
a(g207
L4538L
tp398
a(g209
L2364L
tp399
a(g211
L2991L
tp400
a(g213
L14427L
tp401
a(g215
L4475L
tp402
a(g217
L2835L
tp403
a(g219
L12827L
tp404
a(g221
L20900L
tp405
a(g223
L10929L
tp406
a(g225
L10886L
tp407
a(g227
L14078L
tp408
a(g229
L5662L
tp409
a(g231
L4408L
tp410
a(g233
L4423L
tp411
a(g235
L10876L
tp412
a(g237
L5114L
tp413
a(g239
L10860L
tp414
a(g241
L5712L
tp415
a(g243
L14396L
tp416
a(g245
L5682L
tp417
a(g247
L5705L
tp418
a(g249
L4368L
tp419
a(g251
L6358L
tp420
a(g253
L15840L
tp421
a(g255
L28040L
tp422
a(g257
L4550L
tp423
a(g259
L33137L
tp424
a(g261
L4583L
tp425
a(g263
L6747L
tp426
a(g265
L2841L
tp427
a(g267
L5126L
tp428
a(g269
L4609L
tp429
a(g271
L10848L
tp430
a(g273
L4411L
tp431
a(g275
L201L
tp432
a(g277
L21900L
tp433
a(g279
L20770L
tp434
a(g281
L12918L
tp435
a(g283
L7683L
tp436
a(g285
L33512L
tp437
a(g287
L15852L
tp438
a(g289
L10192L
tp439
a(g291
L4412L
tp440
a(g293
L14288L
tp441
aaI665482
a.