(lp1
(lp2
(Vbiological_process
p3
I181939
tp4
a(Vcellular_component
p5
I61506
tp6
a(Vmolecular_function
p7
I48632
tp8
a(Vorganelle
p9
I17184
tp10
a(Vanatomical structure development
p11
I12579
tp12
a(Vtransport
p13
I10391
tp14
a(Vcellular nitrogen compound metabolic process
p15
I8888
tp16
a(Vsignal transduction
p17
I8865
tp18
a(Vresponse to stress
p19
I7038
tp20
a(Vprotein complex
p21
I6689
tp22
a(Vsmall molecule metabolic process
p23
I5983
tp24
a(Vbiosynthetic process
p25
I5860
tp26
a(Vion binding
p27
I5658
tp28
a(Vcellular protein modification process
p29
I5250
tp30
a(Vcatabolic process
p31
I4439
tp32
a(Vimmune system process
p33
I4163
tp34
a(Vcellular component assembly
p35
I3215
tp36
a(Vcell differentiation
p37
I3045
tp38
a(Vlipid metabolic process
p39
I2943
tp40
a(Vcytosol
p41
I2892
tp42
a(Venzyme binding
p43
I2769
tp44
a(Vvesicle-mediated transport
p45
I2322
tp46
a(Vlocomotion
p47
I2257
tp48
a(VDNA metabolic process
p49
I2180
tp50
a(Vnucleus
p51
I2179
tp52
a(Vnucleolus
p53
I2100
tp54
a(Vplasma membrane
p55
I2100
tp56
a(Vchromosome organization
p57
I1957
tp58
a(Vanatomical structure formation involved in morphogenesis
p59
I1888
tp60
a(Vtransmembrane transporter activity
p61
I1747
tp62
a(Vmacromolecular complex assembly
p63
I1705
tp64
a(Vhomeostatic process
p65
I1704
tp66
a(VDNA binding
p67
I1695
tp68
a(Vnucleobase-containing compound catabolic process
p69
I1695
tp70
a(Vcytoplasm
p71
I1676
tp72
a(Vkinase activity
p73
I1668
tp74
a(Vcarbohydrate metabolic process
p75
I1652
tp76
a(Voxidoreductase activity
p77
I1594
tp78
a(Vembryo development
p79
I1538
tp80
a(Vcell motility
p81
I1527
tp82
a(Vtransmembrane transport
p83
I1410
tp84
a(Vprotein complex assembly
p85
I1394
tp86
a(Vcytoskeletal protein binding
p87
I1361
tp88
a(Vcytoskeleton organization
p89
I1341
tp90
a(Vprotein maturation
p91
I1341
tp92
a(Vgrowth
p93
I1329
tp94
a(Vsignal transducer activity
p95
I1231
tp96
a(Vmitochondrion
p97
I1226
tp98
a(VRNA binding
p99
I1223
tp100
a(Vcytoplasmic membrane-bounded vesicle
p101
I1180
tp102
a(Vcytoskeleton
p103
I1088
tp104
a(Vendosome
p105
I1075
tp106
a(VGolgi apparatus
p107
I1056
tp108
a(Vneurological system process
p109
I1019
tp110
a(Vcellular amino acid metabolic process
p111
I969
tp112
a(Vlipid binding
p113
I962
tp114
a(Vcell death
p115
I937
tp116
a(Vmembrane organization
p117
I916
tp118
a(Vendoplasmic reticulum
p119
I905
tp120
a(VATPase activity
p121
I900
tp122
a(Vcell adhesion
p123
I886
tp124
a(Vpeptidase activity
p125
I856
tp126
a(Venzyme regulator activity
p127
I846
tp128
a(Vmicrotubule organizing center
p129
I827
tp130
a(Vcell proliferation
p131
I817
tp132
a(Vcell-cell signaling
p133
I815
tp134
a(Vcell morphogenesis
p135
I784
tp136
a(Vligase activity
p137
I772
tp138
a(Vnucleoplasm
p139
I760
tp140
a(Vtranscription factor binding
p141
I736
tp142
a(Vprotein targeting
p143
I726
tp144
a(Vprotein binding transcription factor activity
p145
I703
tp146
a(Vstructural molecule activity
p147
I639
tp148
a(Vnucleic acid binding transcription factor activity
p149
I583
tp150
a(Vphosphatase activity
p151
I571
tp152
a(Vsymbiosis, encompassing mutualism through parasitism
p153
I561
tp154
a(VmRNA processing
p155
I546
tp156
a(Vsulfur compound metabolic process
p157
I545
tp158
a(Vvacuole
p159
I541
tp160
a(Vcofactor metabolic process
p161
I514
tp162
a(Vextracellular region
p163
I487
tp164
a(Vcell cycle
p165
I485
tp166
a(Vtransferase activity, transferring acyl groups
p167
I475
tp168
a(Vgeneration of precursor metabolites and energy
p169
I456
tp170
a(Vtransferase activity, transferring glycosyl groups
p171
I421
tp172
a(Vcilium
p173
I416
tp174
a(Vreproduction
p175
I415
tp176
a(Vcell junction organization
p177
I386
tp178
a(Vextracellular space
p179
I376
tp180
a(VGTPase activity
p181
I357
tp182
a(Vextracellular matrix organization
p183
I353
tp184
a(Vcell division
p185
I351
tp186
a(Vhelicase activity
p187
I343
tp188
a(Vplastid
p189
I332
tp190
a(Vprotein folding
p191
I323
tp192
a(Vnuclease activity
p193
I322
tp194
a(Vmethyltransferase activity
p195
I320
tp196
a(Vnucleocytoplasmic transport
p197
I312
tp198
a(Vaging
p199
I307
tp200
a(Vlyase activity
p201
I301
tp202
a(Vdevelopmental maturation
p203
I299
tp204
a(Vlysosome
p205
I286
tp206
a(Vsecondary metabolic process
p207
I284
tp208
a(Vchromosome
p209
I271
tp210
a(Vhistone binding
p211
I267
tp212
a(Vcytoskeleton-dependent intracellular transport
p213
I263
tp214
a(Vribonucleoprotein complex assembly
p215
I254
tp216
a(Vmitochondrion organization
p217
I240
tp218
a(Vplasma membrane organization
p219
I226
tp220
a(Visomerase activity
p221
I219
tp222
a(Vexternal encapsulating structure
p223
I218
tp224
a(Vvacuolar transport
p225
I216
tp226
a(Vcell wall
p227
I215
tp228
a(VmRNA binding
p229
I207
tp230
a(Vmitosis
p231
I189
tp232
a(Vcirculatory system process
p233
I185
tp234
a(Vhydrolase activity, acting on carbon-nitrogen (but not peptide) bonds
p235
I184
tp236
a(Vnucleotidyltransferase activity
p237
I182
tp238
a(Vcell wall organization or biogenesis
p239
I178
tp240
a(Vprotein binding, bridging
p241
I176
tp242
a(VtRNA metabolic process
p243
I174
tp244
a(Vhydrolase activity, acting on glycosyl bonds
p245
I173
tp246
a(Vnuclear envelope
p247
I165
tp248
a(Vstructural constituent of ribosome
p249
I165
tp250
a(Vperoxisome
p251
I163
tp252
a(Vchromosome segregation
p253
I161
tp254
a(Vsmall conjugating protein binding
p255
I152
tp256
a(Vtranslation factor activity, nucleic acid binding
p257
I143
tp258
a(Vlipid particle
p259
I132
tp260
a(Vunfolded protein binding
p261
I126
tp262
a(Vtranslation
p263
I114
tp264
a(Vproteinaceous extracellular matrix
p265
I111
tp266
a(Vribosome
p267
I99
tp268
a(Vintracellular
p269
I97
tp270
a(Vtransferase activity, transferring alkyl or aryl (other than methyl) groups
p271
I94
tp272
a(Vprotein transporter activity
p273
I88
tp274
a(Vnuclear chromosome
p275
I85
tp276
a(Vribosome biogenesis
p277
I82
tp278
a(Vpigmentation
p279
I54
tp280
a(VrRNA binding
p281
I47
tp282
a(Vthylakoid
p283
I26
tp284
a(Vcell
p285
I16
tp286
a(Vnitrogen cycle metabolic process
p287
I14
tp288
a(Vtransposition
p289
I5
tp290
a(Vphotosynthesis
p291
I3
tp292
aa(lp293
(g3
L6372L
tp294
a(g5
L4365L
tp295
a(g7
L2787L
tp296
a(g9
L21685L
tp297
a(g11
L26888L
tp298
a(g13
L5491L
tp299
a(g15
L18268L
tp300
a(g17
L5801L
tp301
a(g19
L5613L
tp302
a(g21
L21693L
tp303
a(g23
L22689L
tp304
a(g25
L7192L
tp305
a(g27
L21630L
tp306
a(g29
L5168L
tp307
a(g31
L7190L
tp308
a(g33
L1781L
tp309
a(g35
L13633L
tp310
a(g37
L13924L
tp311
a(g39
L5326L
tp312
a(g41
L4599L
tp313
a(g43
L12968L
tp314
a(g45
L10381L
tp315
a(g47
L20507L
tp316
a(g49
L4995L
tp317
a(g51
L4422L
tp318
a(g53
L4507L
tp319
a(g55
L4644L
tp320
a(g57
L28228L
tp321
a(g59
L26682L
tp322
a(g61
L13690L
tp323
a(g63
L31581L
tp324
a(g65
L21086L
tp325
a(g67
L2790L
tp326
a(g69
L18282L
tp327
a(g71
L4514L
tp328
a(g73
L10466L
tp329
a(g75
L4725L
tp330
a(g77
L10598L
tp331
a(g79
L7881L
tp332
a(g81
L26901L
tp333
a(g83
L29927L
tp334
a(g85
L5165L
tp335
a(g87
L6320L
tp336
a(g89
L5663L
tp337
a(g91
L28535L
tp338
a(g93
L20503L
tp339
a(g95
L3827L
tp340
a(g97
L4515L
tp341
a(g99
L2830L
tp342
a(g101
L10229L
tp343
a(g103
L4621L
tp344
a(g105
L4542L
tp345
a(g107
L4567L
tp346
a(g109
L27837L
tp347
a(g111
L5218L
tp348
a(g113
L6500L
tp349
a(g115
L6436L
tp350
a(g117
L30984L
tp351
a(g119
L4556L
tp352
a(g121
L10963L
tp353
a(g123
L5791L
tp354
a(g125
L6448L
tp355
a(g127
L14001L
tp356
a(g129
L4586L
tp357
a(g131
L6494L
tp358
a(g133
L5896L
tp359
a(g135
L594L
tp360
a(g137
L10950L
tp361
a(g139
L4439L
tp362
a(g141
L6357L
tp363
a(g143
L5302L
tp364
a(g145
L677L
tp365
a(g147
L4118L
tp366
a(g149
L759L
tp367
a(g151
L10870L
tp368
a(g153
L22810L
tp369
a(g155
L5112L
tp370
a(g157
L5471L
tp371
a(g159
L4546L
tp372
a(g161
L28144L
tp373
a(g163
L4366L
tp374
a(g165
L5695L
tp375
a(g167
L10829L
tp376
a(g169
L4838L
tp377
a(g171
L10840L
tp378
a(g173
L4684L
tp379
a(g175
L3L
tp380
a(g177
L17965L
tp381
a(g179
L4405L
tp382
a(g181
L2991L
tp383
a(g183
L13967L
tp384
a(g185
L28251L
tp385
a(g187
L3404L
tp386
a(g189
L7644L
tp387
a(g191
L5161L
tp388
a(g193
L3518L
tp389
a(g195
L6389L
tp390
a(g197
L5582L
tp391
a(g199
L6169L
tp392
a(g201
L10905L
tp393
a(g203
L13274L
tp394
a(g205
L4538L
tp395
a(g207
L12827L
tp396
a(g209
L4475L
tp397
a(g211
L20900L
tp398
a(g213
L14427L
tp399
a(g215
L13644L
tp400
a(g217
L5658L
tp401
a(g219
L5662L
tp402
a(g221
L10929L
tp403
a(g223
L14078L
tp404
a(g225
L5682L
tp405
a(g227
L4408L
tp406
a(g229
L2835L
tp407
a(g231
L5712L
tp408
a(g233
L2364L
tp409
a(g235
L10886L
tp410
a(g237
L10860L
tp411
a(g239
L33137L
tp412
a(g241
L14396L
tp413
a(g243
L5114L
tp414
a(g245
L10876L
tp415
a(g247
L4423L
tp416
a(g249
L2841L
tp417
a(g251
L4550L
tp418
a(g253
L5705L
tp419
a(g255
L15840L
tp420
a(g257
L6358L
tp421
a(g259
L4583L
tp422
a(g261
L28040L
tp423
a(g263
L5126L
tp424
a(g265
L4368L
tp425
a(g267
L4609L
tp426
a(g269
L4411L
tp427
a(g271
L10848L
tp428
a(g273
L6747L
tp429
a(g275
L201L
tp430
a(g277
L20770L
tp431
a(g279
L21900L
tp432
a(g281
L12918L
tp433
a(g283
L7683L
tp434
a(g285
L4412L
tp435
a(g287
L33512L
tp436
a(g289
L15852L
tp437
a(g291
L10192L
tp438
aaI496589
a.