(lp1
(lp2
(Vbiological_process
p3
I235123
tp4
a(Vcellular_component
p5
I78969
tp6
a(Vmolecular_function
p7
I64641
tp8
a(Vorganelle
p9
I21144
tp10
a(Vanatomical structure development
p11
I17536
tp12
a(Vtransport
p13
I13394
tp14
a(Vcellular nitrogen compound metabolic process
p15
I11318
tp16
a(Vsignal transduction
p17
I10919
tp18
a(Vprotein complex
p19
I9484
tp20
a(Vresponse to stress
p21
I8983
tp22
a(Vion binding
p23
I7853
tp24
a(Vsmall molecule metabolic process
p25
I7509
tp26
a(Vbiosynthetic process
p27
I7196
tp28
a(Vcellular protein modification process
p29
I6263
tp30
a(Vcatabolic process
p31
I5637
tp32
a(Vimmune system process
p33
I5034
tp34
a(Vcell differentiation
p35
I4211
tp36
a(Vcellular component assembly
p37
I4100
tp38
a(Vcytosol
p39
I3905
tp40
a(Venzyme binding
p41
I3500
tp42
a(Vlipid metabolic process
p43
I3439
tp44
a(Vlocomotion
p45
I3065
tp46
a(Vnucleolus
p47
I3013
tp48
a(Vvesicle-mediated transport
p49
I2919
tp50
a(Vplasma membrane
p51
I2836
tp52
a(Vanatomical structure formation involved in morphogenesis
p53
I2815
tp54
a(VDNA metabolic process
p55
I2704
tp56
a(Vnucleus
p57
I2603
tp58
a(Vtransmembrane transporter activity
p59
I2577
tp60
a(Vchromosome organization
p61
I2410
tp62
a(Vhomeostatic process
p63
I2361
tp64
a(Vmacromolecular complex assembly
p65
I2349
tp66
a(VDNA binding
p67
I2324
tp68
a(Vcell motility
p69
I2133
tp70
a(Vnucleobase-containing compound catabolic process
p71
I2131
tp72
a(Vcarbohydrate metabolic process
p73
I2120
tp74
a(Vembryo development
p75
I2092
tp76
a(Vcytoplasm
p77
I2089
tp78
a(Vtransmembrane transport
p79
I2003
tp80
a(Vcytoskeletal protein binding
p81
I1997
tp82
a(Voxidoreductase activity
p83
I1927
tp84
a(Vcytoskeleton organization
p85
I1922
tp86
a(Vgrowth
p87
I1918
tp88
a(Vprotein maturation
p89
I1912
tp90
a(Vsignal transducer activity
p91
I1880
tp92
a(Vprotein complex assembly
p93
I1871
tp94
a(Vneurological system process
p95
I1805
tp96
a(Vkinase activity
p97
I1787
tp98
a(VRNA binding
p99
I1749
tp100
a(VGolgi apparatus
p101
I1505
tp102
a(Vmitochondrion
p103
I1484
tp104
a(Vlipid binding
p105
I1439
tp106
a(Vcytoplasmic membrane-bounded vesicle
p107
I1430
tp108
a(Vcytoskeleton
p109
I1336
tp110
a(Vcellular amino acid metabolic process
p111
I1325
tp112
a(Vendoplasmic reticulum
p113
I1267
tp114
a(Vcell adhesion
p115
I1230
tp116
a(VATPase activity
p117
I1213
tp118
a(Vcell death
p119
I1192
tp120
a(Vcell-cell signaling
p121
I1183
tp122
a(Vmembrane organization
p123
I1173
tp124
a(Vligase activity
p125
I1168
tp126
a(Vcell proliferation
p127
I1160
tp128
a(Vpeptidase activity
p129
I1159
tp130
a(Vendosome
p131
I1156
tp132
a(Venzyme regulator activity
p133
I1121
tp134
a(Vnucleoplasm
p135
I1077
tp136
a(Vstructural molecule activity
p137
I1040
tp138
a(Vmicrotubule organizing center
p139
I999
tp140
a(Vtranscription factor binding
p141
I997
tp142
a(Vprotein binding transcription factor activity
p143
I986
tp144
a(Vprotein targeting
p145
I962
tp146
a(Vcell morphogenesis
p147
I942
tp148
a(Vnucleic acid binding transcription factor activity
p149
I861
tp150
a(Vsulfur compound metabolic process
p151
I752
tp152
a(Vextracellular region
p153
I746
tp154
a(Vsymbiosis, encompassing mutualism through parasitism
p155
I729
tp156
a(VmRNA processing
p157
I717
tp158
a(Vcofactor metabolic process
p159
I646
tp160
a(Vgeneration of precursor metabolites and energy
p161
I645
tp162
a(Vextracellular space
p163
I638
tp164
a(Vvacuole
p165
I637
tp166
a(Vtransferase activity, transferring acyl groups
p167
I622
tp168
a(Vextracellular matrix organization
p169
I577
tp170
a(Vphosphatase activity
p171
I576
tp172
a(Vcilium
p173
I566
tp174
a(Vreproduction
p175
I548
tp176
a(Vnucleocytoplasmic transport
p177
I518
tp178
a(Vtransferase activity, transferring glycosyl groups
p179
I508
tp180
a(Vcell cycle
p181
I504
tp182
a(Vhelicase activity
p183
I483
tp184
a(Vcell junction organization
p185
I463
tp186
a(Vcell division
p187
I462
tp188
a(Vplastid
p189
I448
tp190
a(Vaging
p191
I411
tp192
a(Vdevelopmental maturation
p193
I410
tp194
a(Vnuclease activity
p195
I396
tp196
a(Vmitochondrion organization
p197
I395
tp198
a(Vprotein folding
p199
I389
tp200
a(Vribonucleoprotein complex assembly
p201
I383
tp202
a(Vmethyltransferase activity
p203
I378
tp204
a(Vcirculatory system process
p205
I374
tp206
a(Vchromosome
p207
I372
tp208
a(Vcytoskeleton-dependent intracellular transport
p209
I365
tp210
a(Vlyase activity
p211
I362
tp212
a(Vlysosome
p213
I355
tp214
a(Vhistone binding
p215
I327
tp216
a(Vsecondary metabolic process
p217
I317
tp218
a(Vstructural constituent of ribosome
p219
I304
tp220
a(VmRNA binding
p221
I301
tp222
a(VGTPase activity
p223
I300
tp224
a(Vexternal encapsulating structure
p225
I297
tp226
a(Vcell wall
p227
I292
tp228
a(Vnuclear envelope
p229
I279
tp230
a(Visomerase activity
p231
I270
tp232
a(Vnucleotidyltransferase activity
p233
I268
tp234
a(Vvacuolar transport
p235
I258
tp236
a(Vmitosis
p237
I248
tp238
a(Vplasma membrane organization
p239
I247
tp240
a(Vchromosome segregation
p241
I235
tp242
a(Vcell wall organization or biogenesis
p243
I226
tp244
a(Vhydrolase activity, acting on carbon-nitrogen (but not peptide) bonds
p245
I220
tp246
a(Vproteinaceous extracellular matrix
p247
I210
tp248
a(Vhydrolase activity, acting on glycosyl bonds
p249
I187
tp250
a(Vtranslation factor activity, nucleic acid binding
p251
I186
tp252
a(Vunfolded protein binding
p253
I184
tp254
a(VtRNA metabolic process
p255
I183
tp256
a(Vsmall conjugating protein binding
p257
I183
tp258
a(Vperoxisome
p259
I181
tp260
a(Vprotein binding, bridging
p261
I178
tp262
a(Vprotein transporter activity
p263
I169
tp264
a(Vtranslation
p265
I151
tp266
a(Vlipid particle
p267
I146
tp268
a(Vribosome
p269
I140
tp270
a(Vnuclear chromosome
p271
I118
tp272
a(Vtransferase activity, transferring alkyl or aryl (other than methyl) groups
p273
I103
tp274
a(Vribosome biogenesis
p275
I103
tp276
a(Vintracellular
p277
I89
tp278
a(Vpigmentation
p279
I76
tp280
a(VrRNA binding
p281
I74
tp282
a(Vthylakoid
p283
I40
tp284
a(Vtransposition
p285
I36
tp286
a(Vnitrogen cycle metabolic process
p287
I21
tp288
a(Vphotosynthesis
p289
I7
tp290
a(Vcell
p291
I5
tp292
a(VRNA modification guide activity
p293
I1
tp294
aa(lp295
(g3
L6372L
tp296
a(g5
L4365L
tp297
a(g7
L2787L
tp298
a(g9
L21685L
tp299
a(g11
L26888L
tp300
a(g13
L5491L
tp301
a(g15
L18268L
tp302
a(g17
L5801L
tp303
a(g19
L21693L
tp304
a(g21
L5613L
tp305
a(g23
L21630L
tp306
a(g25
L22689L
tp307
a(g27
L7192L
tp308
a(g29
L5168L
tp309
a(g31
L7190L
tp310
a(g33
L1781L
tp311
a(g35
L13924L
tp312
a(g37
L13633L
tp313
a(g39
L4599L
tp314
a(g41
L12968L
tp315
a(g43
L5326L
tp316
a(g45
L20507L
tp317
a(g47
L4507L
tp318
a(g49
L10381L
tp319
a(g51
L4644L
tp320
a(g53
L26682L
tp321
a(g55
L4995L
tp322
a(g57
L4422L
tp323
a(g59
L13690L
tp324
a(g61
L28228L
tp325
a(g63
L21086L
tp326
a(g65
L31581L
tp327
a(g67
L2790L
tp328
a(g69
L26901L
tp329
a(g71
L18282L
tp330
a(g73
L4725L
tp331
a(g75
L7881L
tp332
a(g77
L4514L
tp333
a(g79
L29927L
tp334
a(g81
L6320L
tp335
a(g83
L10598L
tp336
a(g85
L5663L
tp337
a(g87
L20503L
tp338
a(g89
L28535L
tp339
a(g91
L3827L
tp340
a(g93
L5165L
tp341
a(g95
L27837L
tp342
a(g97
L10466L
tp343
a(g99
L2830L
tp344
a(g101
L4567L
tp345
a(g103
L4515L
tp346
a(g105
L6500L
tp347
a(g107
L10229L
tp348
a(g109
L4621L
tp349
a(g111
L5218L
tp350
a(g113
L4556L
tp351
a(g115
L5791L
tp352
a(g117
L10963L
tp353
a(g119
L6436L
tp354
a(g121
L5896L
tp355
a(g123
L30984L
tp356
a(g125
L10950L
tp357
a(g127
L6494L
tp358
a(g129
L6448L
tp359
a(g131
L4542L
tp360
a(g133
L14001L
tp361
a(g135
L4439L
tp362
a(g137
L4118L
tp363
a(g139
L4586L
tp364
a(g141
L6357L
tp365
a(g143
L677L
tp366
a(g145
L5302L
tp367
a(g147
L594L
tp368
a(g149
L759L
tp369
a(g151
L5471L
tp370
a(g153
L4366L
tp371
a(g155
L22810L
tp372
a(g157
L5112L
tp373
a(g159
L28144L
tp374
a(g161
L4838L
tp375
a(g163
L4405L
tp376
a(g165
L4546L
tp377
a(g167
L10829L
tp378
a(g169
L13967L
tp379
a(g171
L10870L
tp380
a(g173
L4684L
tp381
a(g175
L3L
tp382
a(g177
L5582L
tp383
a(g179
L10840L
tp384
a(g181
L5695L
tp385
a(g183
L3404L
tp386
a(g185
L17965L
tp387
a(g187
L28251L
tp388
a(g189
L7644L
tp389
a(g191
L6169L
tp390
a(g193
L13274L
tp391
a(g195
L3518L
tp392
a(g197
L5658L
tp393
a(g199
L5161L
tp394
a(g201
L13644L
tp395
a(g203
L6389L
tp396
a(g205
L2364L
tp397
a(g207
L4475L
tp398
a(g209
L14427L
tp399
a(g211
L10905L
tp400
a(g213
L4538L
tp401
a(g215
L20900L
tp402
a(g217
L12827L
tp403
a(g219
L2841L
tp404
a(g221
L2835L
tp405
a(g223
L2991L
tp406
a(g225
L14078L
tp407
a(g227
L4408L
tp408
a(g229
L4423L
tp409
a(g231
L10929L
tp410
a(g233
L10860L
tp411
a(g235
L5682L
tp412
a(g237
L5712L
tp413
a(g239
L5662L
tp414
a(g241
L5705L
tp415
a(g243
L33137L
tp416
a(g245
L10886L
tp417
a(g247
L4368L
tp418
a(g249
L10876L
tp419
a(g251
L6358L
tp420
a(g253
L28040L
tp421
a(g255
L5114L
tp422
a(g257
L15840L
tp423
a(g259
L4550L
tp424
a(g261
L14396L
tp425
a(g263
L6747L
tp426
a(g265
L5126L
tp427
a(g267
L4583L
tp428
a(g269
L4609L
tp429
a(g271
L201L
tp430
a(g273
L10848L
tp431
a(g275
L20770L
tp432
a(g277
L4411L
tp433
a(g279
L21900L
tp434
a(g281
L12918L
tp435
a(g283
L7683L
tp436
a(g285
L15852L
tp437
a(g287
L33512L
tp438
a(g289
L10192L
tp439
a(g291
L4412L
tp440
a(g293
L14288L
tp441
aaI646410
a.