(lp1
(lp2
(Vbiological_process
p3
I292525
tp4
a(Vcellular_component
p5
I97722
tp6
a(Vmolecular_function
p7
I79156
tp8
a(Vorganelle
p9
I26218
tp10
a(Vanatomical structure development
p11
I21317
tp12
a(Vtransport
p13
I16540
tp14
a(Vcellular nitrogen compound metabolic process
p15
I14081
tp16
a(Vsignal transduction
p17
I13678
tp18
a(Vresponse to stress
p19
I11518
tp20
a(Vprotein complex
p21
I10687
tp22
a(Vbiosynthetic process
p23
I10129
tp24
a(Vsmall molecule metabolic process
p25
I10118
tp26
a(Vion binding
p27
I9694
tp28
a(Vcatabolic process
p29
I7474
tp30
a(Vcellular protein modification process
p31
I7122
tp32
a(Vimmune system process
p33
I6113
tp34
a(Vcell differentiation
p35
I4857
tp36
a(Vcellular component assembly
p37
I4853
tp38
a(Vcytosol
p39
I4689
tp40
a(Vlipid metabolic process
p41
I4620
tp42
a(Venzyme binding
p43
I4033
tp44
a(Vplasma membrane
p45
I3735
tp46
a(Vlocomotion
p47
I3560
tp48
a(Vnucleolus
p49
I3478
tp50
a(Vvesicle-mediated transport
p51
I3320
tp52
a(Vtransmembrane transporter activity
p53
I3264
tp54
a(Vnucleus
p55
I3201
tp56
a(Vanatomical structure formation involved in morphogenesis
p57
I3101
tp58
a(Vhomeostatic process
p59
I2940
tp60
a(Voxidoreductase activity
p61
I2906
tp62
a(Vmacromolecular complex assembly
p63
I2877
tp64
a(VDNA metabolic process
p65
I2846
tp66
a(Vcarbohydrate metabolic process
p67
I2836
tp68
a(VDNA binding
p69
I2770
tp70
a(Vnucleobase-containing compound catabolic process
p71
I2703
tp72
a(Vsignal transducer activity
p73
I2598
tp74
a(Vembryo development
p75
I2551
tp76
a(Vchromosome organization
p77
I2541
tp78
a(Vcytoplasm
p79
I2522
tp80
a(Vcell motility
p81
I2490
tp82
a(Vtransmembrane transport
p83
I2487
tp84
a(Vneurological system process
p85
I2419
tp86
a(Vgrowth
p87
I2409
tp88
a(Vprotein maturation
p89
I2404
tp90
a(Vprotein complex assembly
p91
I2374
tp92
a(Vcytoskeletal protein binding
p93
I2223
tp94
a(VRNA binding
p95
I2113
tp96
a(Vcytoskeleton organization
p97
I1989
tp98
a(Vkinase activity
p99
I1965
tp100
a(Vmitochondrion
p101
I1917
tp102
a(VGolgi apparatus
p103
I1909
tp104
a(Vcellular amino acid metabolic process
p105
I1858
tp106
a(Vcytoplasmic membrane-bounded vesicle
p107
I1848
tp108
a(Vcell-cell signaling
p109
I1714
tp110
a(Vendoplasmic reticulum
p111
I1597
tp112
a(Vpeptidase activity
p113
I1590
tp114
a(Vlipid binding
p115
I1550
tp116
a(Vcell death
p117
I1501
tp118
a(Vcytoskeleton
p119
I1464
tp120
a(Vstructural molecule activity
p121
I1422
tp122
a(Vmembrane organization
p123
I1413
tp124
a(Vendosome
p125
I1382
tp126
a(Vcell adhesion
p127
I1374
tp128
a(Vprotein targeting
p129
I1355
tp130
a(Venzyme regulator activity
p131
I1319
tp132
a(Vcell proliferation
p133
I1314
tp134
a(VATPase activity
p135
I1302
tp136
a(Vligase activity
p137
I1299
tp138
a(Vnucleoplasm
p139
I1225
tp140
a(Vextracellular region
p141
I1178
tp142
a(Vcell morphogenesis
p143
I1139
tp144
a(Vsulfur compound metabolic process
p145
I1138
tp146
a(Vtranscription factor binding
p147
I1133
tp148
a(Vmicrotubule organizing center
p149
I1114
tp150
a(Vprotein binding transcription factor activity
p151
I1059
tp152
a(Vnucleic acid binding transcription factor activity
p153
I1053
tp154
a(Vgeneration of precursor metabolites and energy
p155
I981
tp156
a(Vcofactor metabolic process
p157
I969
tp158
a(Vextracellular space
p159
I955
tp160
a(Vvacuole
p161
I846
tp162
a(Vsymbiosis, encompassing mutualism through parasitism
p163
I844
tp164
a(Vextracellular matrix organization
p165
I833
tp166
a(VmRNA processing
p167
I805
tp168
a(Vplastid
p169
I796
tp170
a(Vtransferase activity, transferring acyl groups
p171
I771
tp172
a(Vcilium
p173
I702
tp174
a(Vreproduction
p175
I671
tp176
a(Vphosphatase activity
p177
I640
tp178
a(Vcirculatory system process
p179
I619
tp180
a(Vstructural constituent of ribosome
p181
I585
tp182
a(Vcell cycle
p183
I584
tp184
a(Vnucleocytoplasmic transport
p185
I578
tp186
a(Vaging
p187
I572
tp188
a(Vprotein folding
p189
I556
tp190
a(Vlyase activity
p191
I553
tp192
a(Vtransferase activity, transferring glycosyl groups
p193
I553
tp194
a(Vexternal encapsulating structure
p195
I544
tp196
a(Vcell wall
p197
I537
tp198
a(Vmethyltransferase activity
p199
I512
tp200
a(Vcell junction organization
p201
I500
tp202
a(Vcell division
p203
I486
tp204
a(Vsecondary metabolic process
p205
I473
tp206
a(VGTPase activity
p207
I452
tp208
a(Vdevelopmental maturation
p209
I451
tp210
a(Vlysosome
p211
I436
tp212
a(Vhelicase activity
p213
I426
tp214
a(Vmitochondrion organization
p215
I419
tp216
a(Vnuclease activity
p217
I418
tp218
a(Vribonucleoprotein complex assembly
p219
I415
tp220
a(Vcytoskeleton-dependent intracellular transport
p221
I394
tp222
a(Vchromosome
p223
I387
tp224
a(Visomerase activity
p225
I374
tp226
a(VmRNA binding
p227
I358
tp228
a(Vnuclear envelope
p229
I347
tp230
a(Vcell wall organization or biogenesis
p231
I332
tp232
a(Vhistone binding
p233
I327
tp234
a(Vproteinaceous extracellular matrix
p235
I310
tp236
a(Vvacuolar transport
p237
I300
tp238
a(Vnucleotidyltransferase activity
p239
I298
tp240
a(Vhydrolase activity, acting on glycosyl bonds
p241
I295
tp242
a(Vmitosis
p243
I274
tp244
a(Vplasma membrane organization
p245
I266
tp246
a(Vtranslation factor activity, nucleic acid binding
p247
I262
tp248
a(Vperoxisome
p249
I254
tp250
a(Vhydrolase activity, acting on carbon-nitrogen (but not peptide) bonds
p251
I252
tp252
a(Vprotein binding, bridging
p253
I249
tp254
a(Vchromosome segregation
p255
I235
tp256
a(Vunfolded protein binding
p257
I234
tp258
a(VtRNA metabolic process
p259
I230
tp260
a(Vribosome
p261
I220
tp262
a(Vtranslation
p263
I208
tp264
a(Vlipid particle
p265
I202
tp266
a(Vsmall conjugating protein binding
p267
I184
tp268
a(Vribosome biogenesis
p269
I172
tp270
a(Vprotein transporter activity
p271
I154
tp272
a(Vtransferase activity, transferring alkyl or aryl (other than methyl) groups
p273
I147
tp274
a(Vnuclear chromosome
p275
I142
tp276
a(VrRNA binding
p277
I114
tp278
a(Vintracellular
p279
I113
tp280
a(Vthylakoid
p281
I113
tp282
a(Vpigmentation
p283
I98
tp284
a(Vnitrogen cycle metabolic process
p285
I41
tp286
a(Vphotosynthesis
p287
I35
tp288
a(Vtransposition
p289
I22
tp290
a(Vcell
p291
I12
tp292
a(Vcytoplasmic chromosome
p293
I1
tp294
aa(lp295
(g3
L6372L
tp296
a(g5
L4365L
tp297
a(g7
L2787L
tp298
a(g9
L21685L
tp299
a(g11
L26888L
tp300
a(g13
L5491L
tp301
a(g15
L18268L
tp302
a(g17
L5801L
tp303
a(g19
L5613L
tp304
a(g21
L21693L
tp305
a(g23
L7192L
tp306
a(g25
L22689L
tp307
a(g27
L21630L
tp308
a(g29
L7190L
tp309
a(g31
L5168L
tp310
a(g33
L1781L
tp311
a(g35
L13924L
tp312
a(g37
L13633L
tp313
a(g39
L4599L
tp314
a(g41
L5326L
tp315
a(g43
L12968L
tp316
a(g45
L4644L
tp317
a(g47
L20507L
tp318
a(g49
L4507L
tp319
a(g51
L10381L
tp320
a(g53
L13690L
tp321
a(g55
L4422L
tp322
a(g57
L26682L
tp323
a(g59
L21086L
tp324
a(g61
L10598L
tp325
a(g63
L31581L
tp326
a(g65
L4995L
tp327
a(g67
L4725L
tp328
a(g69
L2790L
tp329
a(g71
L18282L
tp330
a(g73
L3827L
tp331
a(g75
L7881L
tp332
a(g77
L28228L
tp333
a(g79
L4514L
tp334
a(g81
L26901L
tp335
a(g83
L29927L
tp336
a(g85
L27837L
tp337
a(g87
L20503L
tp338
a(g89
L28535L
tp339
a(g91
L5165L
tp340
a(g93
L6320L
tp341
a(g95
L2830L
tp342
a(g97
L5663L
tp343
a(g99
L10466L
tp344
a(g101
L4515L
tp345
a(g103
L4567L
tp346
a(g105
L5218L
tp347
a(g107
L10229L
tp348
a(g109
L5896L
tp349
a(g111
L4556L
tp350
a(g113
L6448L
tp351
a(g115
L6500L
tp352
a(g117
L6436L
tp353
a(g119
L4621L
tp354
a(g121
L4118L
tp355
a(g123
L30984L
tp356
a(g125
L4542L
tp357
a(g127
L5791L
tp358
a(g129
L5302L
tp359
a(g131
L14001L
tp360
a(g133
L6494L
tp361
a(g135
L10963L
tp362
a(g137
L10950L
tp363
a(g139
L4439L
tp364
a(g141
L4366L
tp365
a(g143
L594L
tp366
a(g145
L5471L
tp367
a(g147
L6357L
tp368
a(g149
L4586L
tp369
a(g151
L677L
tp370
a(g153
L759L
tp371
a(g155
L4838L
tp372
a(g157
L28144L
tp373
a(g159
L4405L
tp374
a(g161
L4546L
tp375
a(g163
L22810L
tp376
a(g165
L13967L
tp377
a(g167
L5112L
tp378
a(g169
L7644L
tp379
a(g171
L10829L
tp380
a(g173
L4684L
tp381
a(g175
L3L
tp382
a(g177
L10870L
tp383
a(g179
L2364L
tp384
a(g181
L2841L
tp385
a(g183
L5695L
tp386
a(g185
L5582L
tp387
a(g187
L6169L
tp388
a(g189
L5161L
tp389
a(g191
L10905L
tp390
a(g193
L10840L
tp391
a(g195
L14078L
tp392
a(g197
L4408L
tp393
a(g199
L6389L
tp394
a(g201
L17965L
tp395
a(g203
L28251L
tp396
a(g205
L12827L
tp397
a(g207
L2991L
tp398
a(g209
L13274L
tp399
a(g211
L4538L
tp400
a(g213
L3404L
tp401
a(g215
L5658L
tp402
a(g217
L3518L
tp403
a(g219
L13644L
tp404
a(g221
L14427L
tp405
a(g223
L4475L
tp406
a(g225
L10929L
tp407
a(g227
L2835L
tp408
a(g229
L4423L
tp409
a(g231
L33137L
tp410
a(g233
L20900L
tp411
a(g235
L4368L
tp412
a(g237
L5682L
tp413
a(g239
L10860L
tp414
a(g241
L10876L
tp415
a(g243
L5712L
tp416
a(g245
L5662L
tp417
a(g247
L6358L
tp418
a(g249
L4550L
tp419
a(g251
L10886L
tp420
a(g253
L14396L
tp421
a(g255
L5705L
tp422
a(g257
L28040L
tp423
a(g259
L5114L
tp424
a(g261
L4609L
tp425
a(g263
L5126L
tp426
a(g265
L4583L
tp427
a(g267
L15840L
tp428
a(g269
L20770L
tp429
a(g271
L6747L
tp430
a(g273
L10848L
tp431
a(g275
L201L
tp432
a(g277
L12918L
tp433
a(g279
L4411L
tp434
a(g281
L7683L
tp435
a(g283
L21900L
tp436
a(g285
L33512L
tp437
a(g287
L10192L
tp438
a(g289
L15852L
tp439
a(g291
L4412L
tp440
a(g293
L202L
tp441
aaI800371
a.