(lp1
(lp2
(Vbiological_process
p3
I65432
tp4
a(Vcellular_component
p5
I22919
tp6
a(Vmolecular_function
p7
I18144
tp8
a(Vorganelle
p9
I6441
tp10
a(Vanatomical structure development
p11
I4653
tp12
a(Vcellular nitrogen compound metabolic process
p13
I3893
tp14
a(Vtransport
p15
I3638
tp16
a(Vsignal transduction
p17
I3213
tp18
a(Vprotein complex
p19
I3058
tp20
a(Vresponse to stress
p21
I2767
tp22
a(Vbiosynthetic process
p23
I2621
tp24
a(Vsmall molecule metabolic process
p25
I2512
tp26
a(Vion binding
p27
I2270
tp28
a(Vcatabolic process
p29
I1964
tp30
a(Vcellular protein modification process
p31
I1839
tp32
a(Vimmune system process
p33
I1679
tp34
a(Vcytosol
p35
I1378
tp36
a(Vcellular component assembly
p37
I1232
tp38
a(Vcell differentiation
p39
I1088
tp40
a(Vlipid metabolic process
p41
I1034
tp42
a(Venzyme binding
p43
I966
tp44
a(Vnucleolus
p45
I926
tp46
a(Vnucleus
p47
I879
tp48
a(Vvesicle-mediated transport
p49
I840
tp50
a(Vlocomotion
p51
I830
tp52
a(Vplasma membrane
p53
I820
tp54
a(Vembryo development
p55
I796
tp56
a(Vmacromolecular complex assembly
p57
I788
tp58
a(Vnucleobase-containing compound catabolic process
p59
I738
tp60
a(VDNA metabolic process
p61
I736
tp62
a(Vanatomical structure formation involved in morphogenesis
p63
I718
tp64
a(Vcarbohydrate metabolic process
p65
I709
tp66
a(Vchromosome organization
p67
I705
tp68
a(VRNA binding
p69
I682
tp70
a(VDNA binding
p71
I676
tp72
a(Voxidoreductase activity
p73
I657
tp74
a(Vhomeostatic process
p75
I624
tp76
a(Vprotein complex assembly
p77
I624
tp78
a(Vprotein maturation
p79
I598
tp80
a(Vcytoplasm
p81
I597
tp82
a(Vgrowth
p83
I587
tp84
a(Vtransmembrane transporter activity
p85
I553
tp86
a(Vcell motility
p87
I542
tp88
a(Vmitochondrion
p89
I540
tp90
a(Vtransmembrane transport
p91
I513
tp92
a(Vcellular amino acid metabolic process
p93
I489
tp94
a(Vcytoskeleton organization
p95
I489
tp96
a(Vcytoskeletal protein binding
p97
I487
tp98
a(Vkinase activity
p99
I452
tp100
a(VGolgi apparatus
p101
I445
tp102
a(Vcytoplasmic membrane-bounded vesicle
p103
I434
tp104
a(Vendoplasmic reticulum
p105
I387
tp106
a(Vprotein targeting
p107
I386
tp108
a(Vneurological system process
p109
I386
tp110
a(Vsignal transducer activity
p111
I382
tp112
a(Vcell death
p113
I376
tp114
a(Vnucleoplasm
p115
I372
tp116
a(Vstructural molecule activity
p117
I368
tp118
a(Venzyme regulator activity
p119
I354
tp120
a(Vlipid binding
p121
I344
tp122
a(Vpeptidase activity
p123
I341
tp124
a(Vcytoskeleton
p125
I334
tp126
a(Vcell proliferation
p127
I322
tp128
a(Vendosome
p129
I320
tp130
a(Vmicrotubule organizing center
p131
I315
tp132
a(Vprotein binding transcription factor activity
p133
I308
tp134
a(Vligase activity
p135
I306
tp136
a(Vcell-cell signaling
p137
I304
tp138
a(Vtranscription factor binding
p139
I302
tp140
a(Vmembrane organization
p141
I299
tp142
a(Vgeneration of precursor metabolites and energy
p143
I295
tp144
a(VATPase activity
p145
I293
tp146
a(VmRNA processing
p147
I285
tp148
a(Vsymbiosis, encompassing mutualism through parasitism
p149
I274
tp150
a(Vnucleic acid binding transcription factor activity
p151
I255
tp152
a(Vcofactor metabolic process
p153
I249
tp154
a(Vcell morphogenesis
p155
I248
tp156
a(Vcell adhesion
p157
I238
tp158
a(Vsulfur compound metabolic process
p159
I237
tp160
a(Vextracellular region
p161
I218
tp162
a(Vreproduction
p163
I217
tp164
a(Vprotein folding
p165
I209
tp166
a(Vplastid
p167
I203
tp168
a(Vvacuole
p169
I202
tp170
a(Vtransferase activity, transferring acyl groups
p171
I173
tp172
a(Vstructural constituent of ribosome
p173
I171
tp174
a(Vphosphatase activity
p175
I170
tp176
a(Vextracellular space
p177
I169
tp178
a(Vnucleocytoplasmic transport
p179
I166
tp180
a(Vcell cycle
p181
I155
tp182
a(Vextracellular matrix organization
p183
I152
tp184
a(Vribonucleoprotein complex assembly
p185
I148
tp186
a(Vlyase activity
p187
I147
tp188
a(Vcilium
p189
I144
tp190
a(VGTPase activity
p191
I141
tp192
a(Vexternal encapsulating structure
p193
I141
tp194
a(Vcell wall
p195
I139
tp196
a(Vmitochondrion organization
p197
I131
tp198
a(Vmethyltransferase activity
p199
I130
tp200
a(Vtransferase activity, transferring glycosyl groups
p201
I126
tp202
a(Vcell division
p203
I125
tp204
a(Vcytoskeleton-dependent intracellular transport
p205
I123
tp206
a(VmRNA binding
p207
I121
tp208
a(Vsecondary metabolic process
p209
I120
tp210
a(Vaging
p211
I117
tp212
a(Visomerase activity
p213
I112
tp214
a(Vcell junction organization
p215
I112
tp216
a(Vdevelopmental maturation
p217
I112
tp218
a(Vchromosome
p219
I112
tp220
a(Vlysosome
p221
I104
tp222
a(Vnuclease activity
p223
I104
tp224
a(Vunfolded protein binding
p225
I99
tp226
a(Vhelicase activity
p227
I96
tp228
a(Vmitosis
p229
I92
tp230
a(Vtranslation factor activity, nucleic acid binding
p231
I90
tp232
a(Vvacuolar transport
p233
I87
tp234
a(Vhistone binding
p235
I87
tp236
a(Vcell wall organization or biogenesis
p237
I86
tp238
a(Vcirculatory system process
p239
I80
tp240
a(Vhydrolase activity, acting on carbon-nitrogen (but not peptide) bonds
p241
I74
tp242
a(VtRNA metabolic process
p243
I72
tp244
a(Vchromosome segregation
p245
I71
tp246
a(Vribosome
p247
I68
tp248
a(Vnucleotidyltransferase activity
p249
I67
tp250
a(Vtranslation
p251
I67
tp252
a(Vnuclear envelope
p253
I60
tp254
a(Vlipid particle
p255
I60
tp256
a(Vribosome biogenesis
p257
I58
tp258
a(Vperoxisome
p259
I52
tp260
a(Vplasma membrane organization
p261
I51
tp262
a(Vtransferase activity, transferring alkyl or aryl (other than methyl) groups
p263
I49
tp264
a(Vprotein binding, bridging
p265
I48
tp266
a(Vnuclear chromosome
p267
I47
tp268
a(Vsmall conjugating protein binding
p269
I46
tp270
a(Vhydrolase activity, acting on glycosyl bonds
p271
I40
tp272
a(Vprotein transporter activity
p273
I37
tp274
a(VrRNA binding
p275
I32
tp276
a(Vproteinaceous extracellular matrix
p277
I30
tp278
a(Vpigmentation
p279
I23
tp280
a(Vintracellular
p281
I19
tp282
a(Vthylakoid
p283
I14
tp284
a(Vnitrogen cycle metabolic process
p285
I9
tp286
a(Vphotosynthesis
p287
I3
tp288
a(Vtransposition
p289
I3
tp290
a(Vcell
p291
I1
tp292
a(VRNA modification guide activity
p293
I1
tp294
aa(lp295
(g3
L6372L
tp296
a(g5
L4365L
tp297
a(g7
L2787L
tp298
a(g9
L21685L
tp299
a(g11
L26888L
tp300
a(g13
L18268L
tp301
a(g15
L5491L
tp302
a(g17
L5801L
tp303
a(g19
L21693L
tp304
a(g21
L5613L
tp305
a(g23
L7192L
tp306
a(g25
L22689L
tp307
a(g27
L21630L
tp308
a(g29
L7190L
tp309
a(g31
L5168L
tp310
a(g33
L1781L
tp311
a(g35
L4599L
tp312
a(g37
L13633L
tp313
a(g39
L13924L
tp314
a(g41
L5326L
tp315
a(g43
L12968L
tp316
a(g45
L4507L
tp317
a(g47
L4422L
tp318
a(g49
L10381L
tp319
a(g51
L20507L
tp320
a(g53
L4644L
tp321
a(g55
L7881L
tp322
a(g57
L31581L
tp323
a(g59
L18282L
tp324
a(g61
L4995L
tp325
a(g63
L26682L
tp326
a(g65
L4725L
tp327
a(g67
L28228L
tp328
a(g69
L2830L
tp329
a(g71
L2790L
tp330
a(g73
L10598L
tp331
a(g75
L21086L
tp332
a(g77
L5165L
tp333
a(g79
L28535L
tp334
a(g81
L4514L
tp335
a(g83
L20503L
tp336
a(g85
L13690L
tp337
a(g87
L26901L
tp338
a(g89
L4515L
tp339
a(g91
L29927L
tp340
a(g93
L5218L
tp341
a(g95
L5663L
tp342
a(g97
L6320L
tp343
a(g99
L10466L
tp344
a(g101
L4567L
tp345
a(g103
L10229L
tp346
a(g105
L4556L
tp347
a(g107
L5302L
tp348
a(g109
L27837L
tp349
a(g111
L3827L
tp350
a(g113
L6436L
tp351
a(g115
L4439L
tp352
a(g117
L4118L
tp353
a(g119
L14001L
tp354
a(g121
L6500L
tp355
a(g123
L6448L
tp356
a(g125
L4621L
tp357
a(g127
L6494L
tp358
a(g129
L4542L
tp359
a(g131
L4586L
tp360
a(g133
L677L
tp361
a(g135
L10950L
tp362
a(g137
L5896L
tp363
a(g139
L6357L
tp364
a(g141
L30984L
tp365
a(g143
L4838L
tp366
a(g145
L10963L
tp367
a(g147
L5112L
tp368
a(g149
L22810L
tp369
a(g151
L759L
tp370
a(g153
L28144L
tp371
a(g155
L594L
tp372
a(g157
L5791L
tp373
a(g159
L5471L
tp374
a(g161
L4366L
tp375
a(g163
L3L
tp376
a(g165
L5161L
tp377
a(g167
L7644L
tp378
a(g169
L4546L
tp379
a(g171
L10829L
tp380
a(g173
L2841L
tp381
a(g175
L10870L
tp382
a(g177
L4405L
tp383
a(g179
L5582L
tp384
a(g181
L5695L
tp385
a(g183
L13967L
tp386
a(g185
L13644L
tp387
a(g187
L10905L
tp388
a(g189
L4684L
tp389
a(g191
L2991L
tp390
a(g193
L14078L
tp391
a(g195
L4408L
tp392
a(g197
L5658L
tp393
a(g199
L6389L
tp394
a(g201
L10840L
tp395
a(g203
L28251L
tp396
a(g205
L14427L
tp397
a(g207
L2835L
tp398
a(g209
L12827L
tp399
a(g211
L6169L
tp400
a(g213
L10929L
tp401
a(g215
L17965L
tp402
a(g217
L13274L
tp403
a(g219
L4475L
tp404
a(g221
L4538L
tp405
a(g223
L3518L
tp406
a(g225
L28040L
tp407
a(g227
L3404L
tp408
a(g229
L5712L
tp409
a(g231
L6358L
tp410
a(g233
L5682L
tp411
a(g235
L20900L
tp412
a(g237
L33137L
tp413
a(g239
L2364L
tp414
a(g241
L10886L
tp415
a(g243
L5114L
tp416
a(g245
L5705L
tp417
a(g247
L4609L
tp418
a(g249
L10860L
tp419
a(g251
L5126L
tp420
a(g253
L4423L
tp421
a(g255
L4583L
tp422
a(g257
L20770L
tp423
a(g259
L4550L
tp424
a(g261
L5662L
tp425
a(g263
L10848L
tp426
a(g265
L14396L
tp427
a(g267
L201L
tp428
a(g269
L15840L
tp429
a(g271
L10876L
tp430
a(g273
L6747L
tp431
a(g275
L12918L
tp432
a(g277
L4368L
tp433
a(g279
L21900L
tp434
a(g281
L4411L
tp435
a(g283
L7683L
tp436
a(g285
L33512L
tp437
a(g287
L10192L
tp438
a(g289
L15852L
tp439
a(g291
L4412L
tp440
a(g293
L14288L
tp441
aaI187628
a.