(lp1
(lp2
(Vbiological_process
p3
I281595
tp4
a(Vcellular_component
p5
I92446
tp6
a(Vmolecular_function
p7
I75451
tp8
a(Vorganelle
p9
I24682
tp10
a(Vanatomical structure development
p11
I21726
tp12
a(Vtransport
p13
I15265
tp14
a(Vcellular nitrogen compound metabolic process
p15
I13036
tp16
a(Vsignal transduction
p17
I12762
tp18
a(Vresponse to stress
p19
I10734
tp20
a(Vprotein complex
p21
I10166
tp22
a(Vion binding
p23
I9299
tp24
a(Vsmall molecule metabolic process
p25
I8983
tp26
a(Vbiosynthetic process
p27
I8840
tp28
a(Vcellular protein modification process
p29
I7108
tp30
a(Vcatabolic process
p31
I6626
tp32
a(Vimmune system process
p33
I5752
tp34
a(Vcell differentiation
p35
I5133
tp36
a(Vcellular component assembly
p37
I4342
tp38
a(Vcytosol
p39
I4338
tp40
a(Vlipid metabolic process
p41
I4145
tp42
a(Venzyme binding
p43
I3952
tp44
a(Vlocomotion
p45
I3401
tp46
a(Vanatomical structure formation involved in morphogenesis
p47
I3386
tp48
a(Vplasma membrane
p49
I3359
tp50
a(VDNA metabolic process
p51
I3213
tp52
a(Vtransmembrane transporter activity
p53
I3164
tp54
a(Vnucleolus
p55
I3138
tp56
a(Vvesicle-mediated transport
p57
I3085
tp58
a(Vnucleus
p59
I3050
tp60
a(Vhomeostatic process
p61
I2631
tp62
a(Vcarbohydrate metabolic process
p63
I2625
tp64
a(Voxidoreductase activity
p65
I2610
tp66
a(VDNA binding
p67
I2591
tp68
a(Vchromosome organization
p69
I2546
tp70
a(Vmacromolecular complex assembly
p71
I2503
tp72
a(Vcytoplasm
p73
I2418
tp74
a(Vtransmembrane transport
p75
I2373
tp76
a(Vcell motility
p77
I2362
tp78
a(Vembryo development
p79
I2359
tp80
a(Vgrowth
p81
I2329
tp82
a(Vnucleobase-containing compound catabolic process
p83
I2316
tp84
a(Vprotein maturation
p85
I2222
tp86
a(Vsignal transducer activity
p87
I2208
tp88
a(Vneurological system process
p89
I2116
tp90
a(Vprotein complex assembly
p91
I2045
tp92
a(Vcytoskeletal protein binding
p93
I1998
tp94
a(Vkinase activity
p95
I1978
tp96
a(VRNA binding
p97
I1924
tp98
a(Vcytoskeleton organization
p99
I1897
tp100
a(Vmitochondrion
p101
I1711
tp102
a(VGolgi apparatus
p103
I1707
tp104
a(Vcytoplasmic membrane-bounded vesicle
p105
I1661
tp106
a(Vlipid binding
p107
I1621
tp108
a(Vcellular amino acid metabolic process
p109
I1618
tp110
a(Vcell adhesion
p111
I1469
tp112
a(Vpeptidase activity
p113
I1462
tp114
a(Vendoplasmic reticulum
p115
I1442
tp116
a(Vcytoskeleton
p117
I1432
tp118
a(Vcell-cell signaling
p119
I1392
tp120
a(Vcell death
p121
I1353
tp122
a(Vcell proliferation
p123
I1342
tp124
a(Vendosome
p125
I1270
tp126
a(Vmembrane organization
p127
I1268
tp128
a(Venzyme regulator activity
p129
I1266
tp130
a(Vligase activity
p131
I1258
tp132
a(Vnucleoplasm
p133
I1207
tp134
a(VATPase activity
p135
I1201
tp136
a(Vmicrotubule organizing center
p137
I1193
tp138
a(Vcell morphogenesis
p139
I1174
tp140
a(Vtranscription factor binding
p141
I1101
tp142
a(Vextracellular region
p143
I1045
tp144
a(Vstructural molecule activity
p145
I1038
tp146
a(Vprotein binding transcription factor activity
p147
I1010
tp148
a(Vprotein targeting
p149
I996
tp150
a(Vsulfur compound metabolic process
p151
I982
tp152
a(Vnucleic acid binding transcription factor activity
p153
I944
tp154
a(Vcofactor metabolic process
p155
I838
tp156
a(Vextracellular space
p157
I832
tp158
a(Vextracellular matrix organization
p159
I789
tp160
a(Vgeneration of precursor metabolites and energy
p161
I770
tp162
a(Vcilium
p163
I769
tp164
a(VmRNA processing
p165
I760
tp166
a(Vvacuole
p167
I746
tp168
a(Vtransferase activity, transferring acyl groups
p169
I734
tp170
a(Vsymbiosis, encompassing mutualism through parasitism
p171
I703
tp172
a(Vphosphatase activity
p173
I623
tp174
a(Vplastid
p175
I613
tp176
a(Vcell cycle
p177
I608
tp178
a(Vreproduction
p179
I594
tp180
a(Vtransferase activity, transferring glycosyl groups
p181
I552
tp182
a(Vaging
p183
I547
tp184
a(Vlyase activity
p185
I528
tp186
a(Vcell division
p187
I521
tp188
a(Vhelicase activity
p189
I518
tp190
a(Vnucleocytoplasmic transport
p191
I495
tp192
a(Vnuclease activity
p193
I472
tp194
a(Vcirculatory system process
p195
I461
tp196
a(Vprotein folding
p197
I444
tp198
a(Vdevelopmental maturation
p199
I443
tp200
a(Vcell junction organization
p201
I433
tp202
a(Vexternal encapsulating structure
p203
I430
tp204
a(Vmethyltransferase activity
p205
I424
tp206
a(Vcell wall
p207
I421
tp208
a(Vlysosome
p209
I402
tp210
a(Vsecondary metabolic process
p211
I398
tp212
a(Vcytoskeleton-dependent intracellular transport
p213
I395
tp214
a(Vchromosome
p215
I387
tp216
a(Vribonucleoprotein complex assembly
p217
I377
tp218
a(VGTPase activity
p219
I366
tp220
a(Vmitochondrion organization
p221
I359
tp222
a(Vproteinaceous extracellular matrix
p223
I340
tp224
a(Vstructural constituent of ribosome
p225
I322
tp226
a(Visomerase activity
p227
I318
tp228
a(Vnuclear envelope
p229
I314
tp230
a(VmRNA binding
p231
I303
tp232
a(Vhistone binding
p233
I299
tp234
a(Vcell wall organization or biogenesis
p235
I291
tp236
a(Vhydrolase activity, acting on glycosyl bonds
p237
I290
tp238
a(Vnucleotidyltransferase activity
p239
I275
tp240
a(Vmitosis
p241
I265
tp242
a(Vplasma membrane organization
p243
I264
tp244
a(Vhydrolase activity, acting on carbon-nitrogen (but not peptide) bonds
p245
I260
tp246
a(Vchromosome segregation
p247
I244
tp248
a(Vvacuolar transport
p249
I235
tp250
a(VtRNA metabolic process
p251
I232
tp252
a(Vperoxisome
p253
I224
tp254
a(Vprotein binding, bridging
p255
I218
tp256
a(Vtranslation factor activity, nucleic acid binding
p257
I217
tp258
a(Vsmall conjugating protein binding
p259
I210
tp260
a(Vunfolded protein binding
p261
I202
tp262
a(Vlipid particle
p263
I184
tp264
a(Vribosome
p265
I179
tp266
a(Vtranslation
p267
I164
tp268
a(Vprotein transporter activity
p269
I158
tp270
a(Vnuclear chromosome
p271
I137
tp272
a(Vribosome biogenesis
p273
I126
tp274
a(Vtransferase activity, transferring alkyl or aryl (other than methyl) groups
p275
I124
tp276
a(Vintracellular
p277
I102
tp278
a(Vpigmentation
p279
I95
tp280
a(Vthylakoid
p281
I84
tp282
a(VrRNA binding
p283
I83
tp284
a(Vnitrogen cycle metabolic process
p285
I34
tp286
a(Vtransposition
p287
I32
tp288
a(Vphotosynthesis
p289
I26
tp290
a(Vcell
p291
I11
tp292
a(VRNA modification guide activity
p293
I2
tp294
aa(lp295
(g3
L6372L
tp296
a(g5
L4365L
tp297
a(g7
L2787L
tp298
a(g9
L21685L
tp299
a(g11
L26888L
tp300
a(g13
L5491L
tp301
a(g15
L18268L
tp302
a(g17
L5801L
tp303
a(g19
L5613L
tp304
a(g21
L21693L
tp305
a(g23
L21630L
tp306
a(g25
L22689L
tp307
a(g27
L7192L
tp308
a(g29
L5168L
tp309
a(g31
L7190L
tp310
a(g33
L1781L
tp311
a(g35
L13924L
tp312
a(g37
L13633L
tp313
a(g39
L4599L
tp314
a(g41
L5326L
tp315
a(g43
L12968L
tp316
a(g45
L20507L
tp317
a(g47
L26682L
tp318
a(g49
L4644L
tp319
a(g51
L4995L
tp320
a(g53
L13690L
tp321
a(g55
L4507L
tp322
a(g57
L10381L
tp323
a(g59
L4422L
tp324
a(g61
L21086L
tp325
a(g63
L4725L
tp326
a(g65
L10598L
tp327
a(g67
L2790L
tp328
a(g69
L28228L
tp329
a(g71
L31581L
tp330
a(g73
L4514L
tp331
a(g75
L29927L
tp332
a(g77
L26901L
tp333
a(g79
L7881L
tp334
a(g81
L20503L
tp335
a(g83
L18282L
tp336
a(g85
L28535L
tp337
a(g87
L3827L
tp338
a(g89
L27837L
tp339
a(g91
L5165L
tp340
a(g93
L6320L
tp341
a(g95
L10466L
tp342
a(g97
L2830L
tp343
a(g99
L5663L
tp344
a(g101
L4515L
tp345
a(g103
L4567L
tp346
a(g105
L10229L
tp347
a(g107
L6500L
tp348
a(g109
L5218L
tp349
a(g111
L5791L
tp350
a(g113
L6448L
tp351
a(g115
L4556L
tp352
a(g117
L4621L
tp353
a(g119
L5896L
tp354
a(g121
L6436L
tp355
a(g123
L6494L
tp356
a(g125
L4542L
tp357
a(g127
L30984L
tp358
a(g129
L14001L
tp359
a(g131
L10950L
tp360
a(g133
L4439L
tp361
a(g135
L10963L
tp362
a(g137
L4586L
tp363
a(g139
L594L
tp364
a(g141
L6357L
tp365
a(g143
L4366L
tp366
a(g145
L4118L
tp367
a(g147
L677L
tp368
a(g149
L5302L
tp369
a(g151
L5471L
tp370
a(g153
L759L
tp371
a(g155
L28144L
tp372
a(g157
L4405L
tp373
a(g159
L13967L
tp374
a(g161
L4838L
tp375
a(g163
L4684L
tp376
a(g165
L5112L
tp377
a(g167
L4546L
tp378
a(g169
L10829L
tp379
a(g171
L22810L
tp380
a(g173
L10870L
tp381
a(g175
L7644L
tp382
a(g177
L5695L
tp383
a(g179
L3L
tp384
a(g181
L10840L
tp385
a(g183
L6169L
tp386
a(g185
L10905L
tp387
a(g187
L28251L
tp388
a(g189
L3404L
tp389
a(g191
L5582L
tp390
a(g193
L3518L
tp391
a(g195
L2364L
tp392
a(g197
L5161L
tp393
a(g199
L13274L
tp394
a(g201
L17965L
tp395
a(g203
L14078L
tp396
a(g205
L6389L
tp397
a(g207
L4408L
tp398
a(g209
L4538L
tp399
a(g211
L12827L
tp400
a(g213
L14427L
tp401
a(g215
L4475L
tp402
a(g217
L13644L
tp403
a(g219
L2991L
tp404
a(g221
L5658L
tp405
a(g223
L4368L
tp406
a(g225
L2841L
tp407
a(g227
L10929L
tp408
a(g229
L4423L
tp409
a(g231
L2835L
tp410
a(g233
L20900L
tp411
a(g235
L33137L
tp412
a(g237
L10876L
tp413
a(g239
L10860L
tp414
a(g241
L5712L
tp415
a(g243
L5662L
tp416
a(g245
L10886L
tp417
a(g247
L5705L
tp418
a(g249
L5682L
tp419
a(g251
L5114L
tp420
a(g253
L4550L
tp421
a(g255
L14396L
tp422
a(g257
L6358L
tp423
a(g259
L15840L
tp424
a(g261
L28040L
tp425
a(g263
L4583L
tp426
a(g265
L4609L
tp427
a(g267
L5126L
tp428
a(g269
L6747L
tp429
a(g271
L201L
tp430
a(g273
L20770L
tp431
a(g275
L10848L
tp432
a(g277
L4411L
tp433
a(g279
L21900L
tp434
a(g281
L7683L
tp435
a(g283
L12918L
tp436
a(g285
L33512L
tp437
a(g287
L15852L
tp438
a(g289
L10192L
tp439
a(g291
L4412L
tp440
a(g293
L14288L
tp441
aaI759007
a.