(lp1
(lp2
(Vbiological_process
p3
I88897
tp4
a(Vcellular_component
p5
I30458
tp6
a(Vmolecular_function
p7
I24624
tp8
a(Vorganelle
p9
I8360
tp10
a(Vanatomical structure development
p11
I6509
tp12
a(Vtransport
p13
I4820
tp14
a(Vcellular nitrogen compound metabolic process
p15
I4585
tp16
a(Vsignal transduction
p17
I4309
tp18
a(Vprotein complex
p19
I3877
tp20
a(Vresponse to stress
p21
I3644
tp22
a(Vsmall molecule metabolic process
p23
I3367
tp24
a(Vbiosynthetic process
p25
I3233
tp26
a(Vion binding
p27
I3088
tp28
a(Vcatabolic process
p29
I2474
tp30
a(Vcellular protein modification process
p31
I2319
tp32
a(Vimmune system process
p33
I2143
tp34
a(Vcytosol
p35
I1775
tp36
a(Vcellular component assembly
p37
I1659
tp38
a(Vcell differentiation
p39
I1551
tp40
a(Vlipid metabolic process
p41
I1438
tp42
a(Venzyme binding
p43
I1327
tp44
a(Vnucleolus
p45
I1211
tp46
a(Vvesicle-mediated transport
p47
I1142
tp48
a(Vplasma membrane
p49
I1124
tp50
a(Vnucleus
p51
I1069
tp52
a(Vlocomotion
p53
I1057
tp54
a(Vmacromolecular complex assembly
p55
I1038
tp56
a(Vanatomical structure formation involved in morphogenesis
p57
I972
tp58
a(Vembryo development
p59
I966
tp60
a(VDNA binding
p61
I963
tp62
a(Voxidoreductase activity
p63
I941
tp64
a(Vcarbohydrate metabolic process
p65
I930
tp66
a(Vnucleobase-containing compound catabolic process
p67
I883
tp68
a(Vhomeostatic process
p69
I853
tp70
a(Vchromosome organization
p71
I841
tp72
a(VRNA binding
p73
I835
tp74
a(Vprotein complex assembly
p75
I830
tp76
a(VDNA metabolic process
p77
I805
tp78
a(Vgrowth
p79
I789
tp80
a(Vprotein maturation
p81
I786
tp82
a(Vcytoplasm
p83
I749
tp84
a(Vtransmembrane transporter activity
p85
I739
tp86
a(Vcell motility
p87
I717
tp88
a(Vmitochondrion
p89
I699
tp90
a(Vcellular amino acid metabolic process
p91
I673
tp92
a(Vcytoskeletal protein binding
p93
I652
tp94
a(Vcytoskeleton organization
p95
I644
tp96
a(Vtransmembrane transport
p97
I636
tp98
a(Vsignal transducer activity
p99
I617
tp100
a(Vcytoplasmic membrane-bounded vesicle
p101
I584
tp102
a(VGolgi apparatus
p103
I564
tp104
a(Vkinase activity
p105
I540
tp106
a(Vneurological system process
p107
I530
tp108
a(Vpeptidase activity
p109
I529
tp110
a(Vcell death
p111
I507
tp112
a(Vlipid binding
p113
I497
tp114
a(Vendoplasmic reticulum
p115
I496
tp116
a(Venzyme regulator activity
p117
I491
tp118
a(Vstructural molecule activity
p119
I491
tp120
a(Vprotein targeting
p121
I470
tp122
a(Vnucleoplasm
p123
I466
tp124
a(Vcell-cell signaling
p125
I452
tp126
a(Vcytoskeleton
p127
I436
tp128
a(Vcell proliferation
p129
I431
tp130
a(Vmembrane organization
p131
I421
tp132
a(Vendosome
p133
I415
tp134
a(Vtranscription factor binding
p135
I410
tp136
a(Vprotein binding transcription factor activity
p137
I408
tp138
a(Vnucleic acid binding transcription factor activity
p139
I398
tp140
a(Vmicrotubule organizing center
p141
I389
tp142
a(Vligase activity
p143
I385
tp144
a(Vgeneration of precursor metabolites and energy
p145
I384
tp146
a(Vextracellular region
p147
I358
tp148
a(VATPase activity
p149
I349
tp150
a(Vcell morphogenesis
p151
I349
tp152
a(Vsulfur compound metabolic process
p153
I349
tp154
a(Vsymbiosis, encompassing mutualism through parasitism
p155
I345
tp156
a(Vcell adhesion
p157
I342
tp158
a(VmRNA processing
p159
I330
tp160
a(Vcofactor metabolic process
p161
I310
tp162
a(Vvacuole
p163
I300
tp164
a(Vextracellular space
p165
I287
tp166
a(Vreproduction
p167
I271
tp168
a(Vprotein folding
p169
I254
tp170
a(Vextracellular matrix organization
p171
I251
tp172
a(Vtransferase activity, transferring acyl groups
p173
I251
tp174
a(Vplastid
p175
I244
tp176
a(Vnucleocytoplasmic transport
p177
I209
tp178
a(Vstructural constituent of ribosome
p179
I209
tp180
a(Vlyase activity
p181
I202
tp182
a(Vcell cycle
p183
I200
tp184
a(Vcilium
p185
I197
tp186
a(Vphosphatase activity
p187
I196
tp188
a(Vribonucleoprotein complex assembly
p189
I188
tp190
a(Vexternal encapsulating structure
p191
I183
tp192
a(VGTPase activity
p193
I181
tp194
a(Vcell wall
p195
I181
tp196
a(Vcell division
p197
I170
tp198
a(Vdevelopmental maturation
p199
I168
tp200
a(Vsecondary metabolic process
p201
I161
tp202
a(Vmitochondrion organization
p203
I160
tp204
a(Vtransferase activity, transferring glycosyl groups
p205
I156
tp206
a(Vlysosome
p207
I156
tp208
a(Vcell junction organization
p209
I155
tp210
a(VmRNA binding
p211
I153
tp212
a(Vmethyltransferase activity
p213
I150
tp214
a(Visomerase activity
p215
I150
tp216
a(Vcytoskeleton-dependent intracellular transport
p217
I149
tp218
a(Vaging
p219
I148
tp220
a(Vchromosome
p221
I134
tp222
a(Vcirculatory system process
p223
I134
tp224
a(Vcell wall organization or biogenesis
p225
I119
tp226
a(Vunfolded protein binding
p227
I118
tp228
a(Vhistone binding
p229
I116
tp230
a(Vtranslation factor activity, nucleic acid binding
p231
I112
tp232
a(Vnuclease activity
p233
I109
tp234
a(Vvacuolar transport
p235
I105
tp236
a(Vmitosis
p237
I101
tp238
a(Vhelicase activity
p239
I99
tp240
a(Vnuclear envelope
p241
I91
tp242
a(Vhydrolase activity, acting on carbon-nitrogen (but not peptide) bonds
p243
I91
tp244
a(Vnucleotidyltransferase activity
p245
I90
tp246
a(Vtranslation
p247
I89
tp248
a(Vlipid particle
p249
I87
tp250
a(Vribosome
p251
I87
tp252
a(Vperoxisome
p253
I82
tp254
a(VtRNA metabolic process
p255
I81
tp256
a(Vhydrolase activity, acting on glycosyl bonds
p257
I78
tp258
a(Vprotein binding, bridging
p259
I77
tp260
a(Vchromosome segregation
p261
I72
tp262
a(Vsmall conjugating protein binding
p263
I71
tp264
a(Vplasma membrane organization
p265
I66
tp266
a(Vproteinaceous extracellular matrix
p267
I64
tp268
a(Vribosome biogenesis
p269
I63
tp270
a(Vtransferase activity, transferring alkyl or aryl (other than methyl) groups
p271
I56
tp272
a(Vnuclear chromosome
p273
I54
tp274
a(Vprotein transporter activity
p275
I53
tp276
a(VrRNA binding
p277
I43
tp278
a(Vpigmentation
p279
I34
tp280
a(Vintracellular
p281
I30
tp282
a(Vthylakoid
p283
I20
tp284
a(Vnitrogen cycle metabolic process
p285
I18
tp286
a(Vphotosynthesis
p287
I9
tp288
a(Vtransposition
p289
I3
tp290
a(Vcell
p291
I1
tp292
a(Vcytoplasmic chromosome
p293
I1
tp294
aa(lp295
(g3
L6372L
tp296
a(g5
L4365L
tp297
a(g7
L2787L
tp298
a(g9
L21685L
tp299
a(g11
L26888L
tp300
a(g13
L5491L
tp301
a(g15
L18268L
tp302
a(g17
L5801L
tp303
a(g19
L21693L
tp304
a(g21
L5613L
tp305
a(g23
L22689L
tp306
a(g25
L7192L
tp307
a(g27
L21630L
tp308
a(g29
L7190L
tp309
a(g31
L5168L
tp310
a(g33
L1781L
tp311
a(g35
L4599L
tp312
a(g37
L13633L
tp313
a(g39
L13924L
tp314
a(g41
L5326L
tp315
a(g43
L12968L
tp316
a(g45
L4507L
tp317
a(g47
L10381L
tp318
a(g49
L4644L
tp319
a(g51
L4422L
tp320
a(g53
L20507L
tp321
a(g55
L31581L
tp322
a(g57
L26682L
tp323
a(g59
L7881L
tp324
a(g61
L2790L
tp325
a(g63
L10598L
tp326
a(g65
L4725L
tp327
a(g67
L18282L
tp328
a(g69
L21086L
tp329
a(g71
L28228L
tp330
a(g73
L2830L
tp331
a(g75
L5165L
tp332
a(g77
L4995L
tp333
a(g79
L20503L
tp334
a(g81
L28535L
tp335
a(g83
L4514L
tp336
a(g85
L13690L
tp337
a(g87
L26901L
tp338
a(g89
L4515L
tp339
a(g91
L5218L
tp340
a(g93
L6320L
tp341
a(g95
L5663L
tp342
a(g97
L29927L
tp343
a(g99
L3827L
tp344
a(g101
L10229L
tp345
a(g103
L4567L
tp346
a(g105
L10466L
tp347
a(g107
L27837L
tp348
a(g109
L6448L
tp349
a(g111
L6436L
tp350
a(g113
L6500L
tp351
a(g115
L4556L
tp352
a(g117
L14001L
tp353
a(g119
L4118L
tp354
a(g121
L5302L
tp355
a(g123
L4439L
tp356
a(g125
L5896L
tp357
a(g127
L4621L
tp358
a(g129
L6494L
tp359
a(g131
L30984L
tp360
a(g133
L4542L
tp361
a(g135
L6357L
tp362
a(g137
L677L
tp363
a(g139
L759L
tp364
a(g141
L4586L
tp365
a(g143
L10950L
tp366
a(g145
L4838L
tp367
a(g147
L4366L
tp368
a(g149
L10963L
tp369
a(g151
L594L
tp370
a(g153
L5471L
tp371
a(g155
L22810L
tp372
a(g157
L5791L
tp373
a(g159
L5112L
tp374
a(g161
L28144L
tp375
a(g163
L4546L
tp376
a(g165
L4405L
tp377
a(g167
L3L
tp378
a(g169
L5161L
tp379
a(g171
L13967L
tp380
a(g173
L10829L
tp381
a(g175
L7644L
tp382
a(g177
L5582L
tp383
a(g179
L2841L
tp384
a(g181
L10905L
tp385
a(g183
L5695L
tp386
a(g185
L4684L
tp387
a(g187
L10870L
tp388
a(g189
L13644L
tp389
a(g191
L14078L
tp390
a(g193
L2991L
tp391
a(g195
L4408L
tp392
a(g197
L28251L
tp393
a(g199
L13274L
tp394
a(g201
L12827L
tp395
a(g203
L5658L
tp396
a(g205
L10840L
tp397
a(g207
L4538L
tp398
a(g209
L17965L
tp399
a(g211
L2835L
tp400
a(g213
L6389L
tp401
a(g215
L10929L
tp402
a(g217
L14427L
tp403
a(g219
L6169L
tp404
a(g221
L4475L
tp405
a(g223
L2364L
tp406
a(g225
L33137L
tp407
a(g227
L28040L
tp408
a(g229
L20900L
tp409
a(g231
L6358L
tp410
a(g233
L3518L
tp411
a(g235
L5682L
tp412
a(g237
L5712L
tp413
a(g239
L3404L
tp414
a(g241
L4423L
tp415
a(g243
L10886L
tp416
a(g245
L10860L
tp417
a(g247
L5126L
tp418
a(g249
L4583L
tp419
a(g251
L4609L
tp420
a(g253
L4550L
tp421
a(g255
L5114L
tp422
a(g257
L10876L
tp423
a(g259
L14396L
tp424
a(g261
L5705L
tp425
a(g263
L15840L
tp426
a(g265
L5662L
tp427
a(g267
L4368L
tp428
a(g269
L20770L
tp429
a(g271
L10848L
tp430
a(g273
L201L
tp431
a(g275
L6747L
tp432
a(g277
L12918L
tp433
a(g279
L21900L
tp434
a(g281
L4411L
tp435
a(g283
L7683L
tp436
a(g285
L33512L
tp437
a(g287
L10192L
tp438
a(g289
L15852L
tp439
a(g291
L4412L
tp440
a(g293
L202L
tp441
aaI250382
a.