(lp1
(lp2
(Vbiological_process
p3
I210094
tp4
a(Vcellular_component
p5
I68244
tp6
a(Vmolecular_function
p7
I55191
tp8
a(Vorganelle
p9
I17894
tp10
a(Vanatomical structure development
p11
I16027
tp12
a(Vtransport
p13
I11945
tp14
a(Vsignal transduction
p15
I9450
tp16
a(Vcellular nitrogen compound metabolic process
p17
I8791
tp18
a(Vresponse to stress
p19
I7381
tp20
a(Vprotein complex
p21
I7322
tp22
a(Vion binding
p23
I6816
tp24
a(Vsmall molecule metabolic process
p25
I6623
tp26
a(Vbiosynthetic process
p27
I6258
tp28
a(Vcellular protein modification process
p29
I4806
tp30
a(Vcatabolic process
p31
I4406
tp32
a(Vimmune system process
p33
I4095
tp34
a(Vcell differentiation
p35
I3662
tp36
a(Vcellular component assembly
p37
I3264
tp38
a(Vcytosol
p39
I3064
tp40
a(Vlipid metabolic process
p41
I2934
tp42
a(Venzyme binding
p43
I2724
tp44
a(Vtransmembrane transporter activity
p45
I2603
tp46
a(Vplasma membrane
p47
I2563
tp48
a(Vlocomotion
p49
I2453
tp50
a(Vanatomical structure formation involved in morphogenesis
p51
I2436
tp52
a(Vsignal transducer activity
p53
I2395
tp54
a(Vvesicle-mediated transport
p55
I2340
tp56
a(Vnucleus
p57
I2261
tp58
a(Vnucleolus
p59
I2179
tp60
a(Vhomeostatic process
p61
I2013
tp62
a(VDNA binding
p63
I1930
tp64
a(VDNA metabolic process
p65
I1918
tp66
a(Vcytoplasm
p67
I1861
tp68
a(Vtransmembrane transport
p69
I1852
tp70
a(Vmacromolecular complex assembly
p71
I1828
tp72
a(Voxidoreductase activity
p73
I1819
tp74
a(Vchromosome organization
p75
I1799
tp76
a(Vneurological system process
p77
I1762
tp78
a(Vcarbohydrate metabolic process
p79
I1726
tp80
a(Vcell motility
p81
I1725
tp82
a(Vembryo development
p83
I1673
tp84
a(Vgrowth
p85
I1648
tp86
a(Vprotein complex assembly
p87
I1506
tp88
a(Vprotein maturation
p89
I1506
tp90
a(Vcell-cell signaling
p91
I1495
tp92
a(Vnucleobase-containing compound catabolic process
p93
I1451
tp94
a(Vcytoskeletal protein binding
p95
I1389
tp96
a(Vcytoskeleton organization
p97
I1349
tp98
a(Vcytoplasmic membrane-bounded vesicle
p99
I1332
tp100
a(Vkinase activity
p101
I1249
tp102
a(VRNA binding
p103
I1240
tp104
a(Vlipid binding
p105
I1231
tp106
a(Vmitochondrion
p107
I1221
tp108
a(Vcellular amino acid metabolic process
p109
I1219
tp110
a(Vpeptidase activity
p111
I1116
tp112
a(VGolgi apparatus
p113
I1075
tp114
a(Vendoplasmic reticulum
p115
I1041
tp116
a(Vcell adhesion
p117
I1029
tp118
a(Vcytoskeleton
p119
I1008
tp120
a(Vcell proliferation
p121
I945
tp122
a(Venzyme regulator activity
p123
I921
tp124
a(Vmembrane organization
p125
I921
tp126
a(Vcell death
p127
I914
tp128
a(Vendosome
p129
I912
tp130
a(Vcell morphogenesis
p131
I847
tp132
a(Vmicrotubule organizing center
p133
I825
tp134
a(Vtranscription factor binding
p135
I819
tp136
a(Vligase activity
p137
I810
tp138
a(Vprotein binding transcription factor activity
p139
I810
tp140
a(Vnucleoplasm
p141
I809
tp142
a(Vextracellular region
p143
I799
tp144
a(Vsulfur compound metabolic process
p145
I719
tp146
a(Vnucleic acid binding transcription factor activity
p147
I717
tp148
a(VATPase activity
p149
I701
tp150
a(Vstructural molecule activity
p151
I697
tp152
a(Vcirculatory system process
p153
I662
tp154
a(Vextracellular space
p155
I637
tp156
a(Vprotein targeting
p157
I622
tp158
a(Vextracellular matrix organization
p159
I590
tp160
a(Vcofactor metabolic process
p161
I581
tp162
a(Vvacuole
p163
I562
tp164
a(Vcilium
p165
I539
tp166
a(VmRNA processing
p167
I537
tp168
a(Vtransferase activity, transferring acyl groups
p169
I533
tp170
a(Vphosphatase activity
p171
I510
tp172
a(Vsymbiosis, encompassing mutualism through parasitism
p173
I510
tp174
a(Vgeneration of precursor metabolites and energy
p175
I505
tp176
a(Vtransferase activity, transferring glycosyl groups
p177
I456
tp178
a(Vcell cycle
p179
I432
tp180
a(Vreproduction
p181
I404
tp182
a(Vlyase activity
p183
I398
tp184
a(Vcell junction organization
p185
I377
tp186
a(Vnucleocytoplasmic transport
p187
I375
tp188
a(Vcell division
p189
I354
tp190
a(Vplastid
p191
I349
tp192
a(Vaging
p193
I345
tp194
a(Vmethyltransferase activity
p195
I344
tp196
a(Vlysosome
p197
I330
tp198
a(Vprotein folding
p199
I319
tp200
a(Vdevelopmental maturation
p201
I308
tp202
a(Vnuclease activity
p203
I304
tp204
a(VGTPase activity
p205
I301
tp206
a(Vcytoskeleton-dependent intracellular transport
p207
I291
tp208
a(Vhelicase activity
p209
I277
tp210
a(Vproteinaceous extracellular matrix
p211
I277
tp212
a(Vmitochondrion organization
p213
I277
tp214
a(Vribonucleoprotein complex assembly
p215
I270
tp216
a(Vchromosome
p217
I256
tp218
a(Vsecondary metabolic process
p219
I246
tp220
a(Visomerase activity
p221
I245
tp222
a(Vexternal encapsulating structure
p223
I240
tp224
a(Vcell wall
p225
I235
tp226
a(Vhistone binding
p227
I227
tp228
a(VmRNA binding
p229
I219
tp230
a(Vnuclear envelope
p231
I213
tp232
a(Vhydrolase activity, acting on carbon-nitrogen (but not peptide) bonds
p233
I205
tp234
a(Vmitosis
p235
I192
tp236
a(Vstructural constituent of ribosome
p237
I191
tp238
a(Vplasma membrane organization
p239
I186
tp240
a(Vvacuolar transport
p241
I179
tp242
a(Vnucleotidyltransferase activity
p243
I179
tp244
a(Vhydrolase activity, acting on glycosyl bonds
p245
I179
tp246
a(Vcell wall organization or biogenesis
p247
I175
tp248
a(Vperoxisome
p249
I164
tp250
a(Vchromosome segregation
p251
I160
tp252
a(VtRNA metabolic process
p253
I159
tp254
a(Vunfolded protein binding
p255
I147
tp256
a(Vlipid particle
p257
I138
tp258
a(Vtranslation factor activity, nucleic acid binding
p259
I136
tp260
a(Vtranslation
p261
I135
tp262
a(Vsmall conjugating protein binding
p263
I127
tp264
a(Vribosome
p265
I123
tp266
a(Vprotein binding, bridging
p267
I119
tp268
a(Vprotein transporter activity
p269
I111
tp270
a(Vtransferase activity, transferring alkyl or aryl (other than methyl) groups
p271
I94
tp272
a(Vnuclear chromosome
p273
I88
tp274
a(Vintracellular
p275
I78
tp276
a(Vribosome biogenesis
p277
I77
tp278
a(Vpigmentation
p279
I65
tp280
a(VrRNA binding
p281
I63
tp282
a(Vthylakoid
p283
I33
tp284
a(Vnitrogen cycle metabolic process
p285
I27
tp286
a(Vcell
p287
I9
tp288
a(Vtransposition
p289
I6
tp290
a(Vphotosynthesis
p291
I5
tp292
a(VRNA modification guide activity
p293
I1
tp294
aa(lp295
(g3
L6372L
tp296
a(g5
L4365L
tp297
a(g7
L2787L
tp298
a(g9
L21685L
tp299
a(g11
L26888L
tp300
a(g13
L5491L
tp301
a(g15
L5801L
tp302
a(g17
L18268L
tp303
a(g19
L5613L
tp304
a(g21
L21693L
tp305
a(g23
L21630L
tp306
a(g25
L22689L
tp307
a(g27
L7192L
tp308
a(g29
L5168L
tp309
a(g31
L7190L
tp310
a(g33
L1781L
tp311
a(g35
L13924L
tp312
a(g37
L13633L
tp313
a(g39
L4599L
tp314
a(g41
L5326L
tp315
a(g43
L12968L
tp316
a(g45
L13690L
tp317
a(g47
L4644L
tp318
a(g49
L20507L
tp319
a(g51
L26682L
tp320
a(g53
L3827L
tp321
a(g55
L10381L
tp322
a(g57
L4422L
tp323
a(g59
L4507L
tp324
a(g61
L21086L
tp325
a(g63
L2790L
tp326
a(g65
L4995L
tp327
a(g67
L4514L
tp328
a(g69
L29927L
tp329
a(g71
L31581L
tp330
a(g73
L10598L
tp331
a(g75
L28228L
tp332
a(g77
L27837L
tp333
a(g79
L4725L
tp334
a(g81
L26901L
tp335
a(g83
L7881L
tp336
a(g85
L20503L
tp337
a(g87
L5165L
tp338
a(g89
L28535L
tp339
a(g91
L5896L
tp340
a(g93
L18282L
tp341
a(g95
L6320L
tp342
a(g97
L5663L
tp343
a(g99
L10229L
tp344
a(g101
L10466L
tp345
a(g103
L2830L
tp346
a(g105
L6500L
tp347
a(g107
L4515L
tp348
a(g109
L5218L
tp349
a(g111
L6448L
tp350
a(g113
L4567L
tp351
a(g115
L4556L
tp352
a(g117
L5791L
tp353
a(g119
L4621L
tp354
a(g121
L6494L
tp355
a(g123
L14001L
tp356
a(g125
L30984L
tp357
a(g127
L6436L
tp358
a(g129
L4542L
tp359
a(g131
L594L
tp360
a(g133
L4586L
tp361
a(g135
L6357L
tp362
a(g137
L10950L
tp363
a(g139
L677L
tp364
a(g141
L4439L
tp365
a(g143
L4366L
tp366
a(g145
L5471L
tp367
a(g147
L759L
tp368
a(g149
L10963L
tp369
a(g151
L4118L
tp370
a(g153
L2364L
tp371
a(g155
L4405L
tp372
a(g157
L5302L
tp373
a(g159
L13967L
tp374
a(g161
L28144L
tp375
a(g163
L4546L
tp376
a(g165
L4684L
tp377
a(g167
L5112L
tp378
a(g169
L10829L
tp379
a(g171
L10870L
tp380
a(g173
L22810L
tp381
a(g175
L4838L
tp382
a(g177
L10840L
tp383
a(g179
L5695L
tp384
a(g181
L3L
tp385
a(g183
L10905L
tp386
a(g185
L17965L
tp387
a(g187
L5582L
tp388
a(g189
L28251L
tp389
a(g191
L7644L
tp390
a(g193
L6169L
tp391
a(g195
L6389L
tp392
a(g197
L4538L
tp393
a(g199
L5161L
tp394
a(g201
L13274L
tp395
a(g203
L3518L
tp396
a(g205
L2991L
tp397
a(g207
L14427L
tp398
a(g209
L3404L
tp399
a(g211
L4368L
tp400
a(g213
L5658L
tp401
a(g215
L13644L
tp402
a(g217
L4475L
tp403
a(g219
L12827L
tp404
a(g221
L10929L
tp405
a(g223
L14078L
tp406
a(g225
L4408L
tp407
a(g227
L20900L
tp408
a(g229
L2835L
tp409
a(g231
L4423L
tp410
a(g233
L10886L
tp411
a(g235
L5712L
tp412
a(g237
L2841L
tp413
a(g239
L5662L
tp414
a(g241
L5682L
tp415
a(g243
L10860L
tp416
a(g245
L10876L
tp417
a(g247
L33137L
tp418
a(g249
L4550L
tp419
a(g251
L5705L
tp420
a(g253
L5114L
tp421
a(g255
L28040L
tp422
a(g257
L4583L
tp423
a(g259
L6358L
tp424
a(g261
L5126L
tp425
a(g263
L15840L
tp426
a(g265
L4609L
tp427
a(g267
L14396L
tp428
a(g269
L6747L
tp429
a(g271
L10848L
tp430
a(g273
L201L
tp431
a(g275
L4411L
tp432
a(g277
L20770L
tp433
a(g279
L21900L
tp434
a(g281
L12918L
tp435
a(g283
L7683L
tp436
a(g285
L33512L
tp437
a(g287
L4412L
tp438
a(g289
L15852L
tp439
a(g291
L10192L
tp440
a(g293
L14288L
tp441
aaI557406
a.