(lp1
(lp2
(Vbiological_process
p3
I187830
tp4
a(Vcellular_component
p5
I60103
tp6
a(Vmolecular_function
p7
I50354
tp8
a(Vorganelle
p9
I16212
tp10
a(Vanatomical structure development
p11
I14444
tp12
a(Vsignal transduction
p13
I9513
tp14
a(Vtransport
p15
I9429
tp16
a(Vcellular nitrogen compound metabolic process
p17
I8369
tp18
a(Vresponse to stress
p19
I7341
tp20
a(Vprotein complex
p21
I7108
tp22
a(Vion binding
p23
I6501
tp24
a(Vsmall molecule metabolic process
p25
I6476
tp26
a(Vbiosynthetic process
p27
I5819
tp28
a(Vcellular protein modification process
p29
I4850
tp30
a(Vimmune system process
p31
I4653
tp32
a(Vcatabolic process
p33
I4583
tp34
a(Vcell differentiation
p35
I3434
tp36
a(Vcellular component assembly
p37
I3172
tp38
a(Vcytosol
p39
I3146
tp40
a(Vlipid metabolic process
p41
I3040
tp42
a(Venzyme binding
p43
I2685
tp44
a(Vlocomotion
p45
I2340
tp46
a(Vnucleolus
p47
I2258
tp48
a(Vplasma membrane
p49
I2163
tp50
a(Vanatomical structure formation involved in morphogenesis
p51
I2137
tp52
a(Vnucleus
p53
I2085
tp54
a(Vmacromolecular complex assembly
p55
I1964
tp56
a(Vvesicle-mediated transport
p57
I1960
tp58
a(Voxidoreductase activity
p59
I1942
tp60
a(VDNA binding
p61
I1910
tp62
a(Vtransmembrane transporter activity
p63
I1889
tp64
a(Vhomeostatic process
p65
I1856
tp66
a(Vprotein maturation
p67
I1781
tp68
a(Vcarbohydrate metabolic process
p69
I1743
tp70
a(VDNA metabolic process
p71
I1723
tp72
a(Vcell motility
p73
I1683
tp74
a(Vembryo development
p75
I1662
tp76
a(Vcytoplasm
p77
I1652
tp78
a(Vchromosome organization
p79
I1646
tp80
a(Vprotein complex assembly
p81
I1622
tp82
a(Vsignal transducer activity
p83
I1545
tp84
a(Vnucleobase-containing compound catabolic process
p85
I1515
tp86
a(Vgrowth
p87
I1500
tp88
a(Vtransmembrane transport
p89
I1458
tp90
a(VRNA binding
p91
I1439
tp92
a(Vkinase activity
p93
I1366
tp94
a(Vcellular amino acid metabolic process
p95
I1281
tp96
a(Vmitochondrion
p97
I1280
tp98
a(Vneurological system process
p99
I1254
tp100
a(Vcytoskeleton organization
p101
I1207
tp102
a(Vcytoskeletal protein binding
p103
I1203
tp104
a(VGolgi apparatus
p105
I1103
tp106
a(Vcytoplasmic membrane-bounded vesicle
p107
I1096
tp108
a(Vcell proliferation
p109
I1049
tp110
a(Vpeptidase activity
p111
I1019
tp112
a(Vcell adhesion
p113
I1009
tp114
a(Vendoplasmic reticulum
p115
I1002
tp116
a(Vlipid binding
p117
I967
tp118
a(Vcell-cell signaling
p119
I952
tp120
a(Vcell death
p121
I947
tp122
a(Vcytoskeleton
p123
I923
tp124
a(Vligase activity
p125
I910
tp126
a(Vendosome
p127
I847
tp128
a(Venzyme regulator activity
p129
I838
tp130
a(Vnucleoplasm
p131
I830
tp132
a(Vmembrane organization
p133
I822
tp134
a(Vnucleic acid binding transcription factor activity
p135
I791
tp136
a(Vtranscription factor binding
p137
I790
tp138
a(VATPase activity
p139
I751
tp140
a(Vstructural molecule activity
p141
I751
tp142
a(Vprotein binding transcription factor activity
p143
I749
tp144
a(Vmicrotubule organizing center
p145
I742
tp146
a(Vcell morphogenesis
p147
I722
tp148
a(Vprotein targeting
p149
I668
tp150
a(Vextracellular region
p151
I667
tp152
a(Vsulfur compound metabolic process
p153
I663
tp154
a(Vcofactor metabolic process
p155
I623
tp156
a(Vsymbiosis, encompassing mutualism through parasitism
p157
I593
tp158
a(Vvacuole
p159
I566
tp160
a(Vgeneration of precursor metabolites and energy
p161
I552
tp162
a(VmRNA processing
p163
I551
tp164
a(Vextracellular space
p165
I536
tp166
a(Vextracellular matrix organization
p167
I525
tp168
a(Vtransferase activity, transferring acyl groups
p169
I508
tp170
a(Vreproduction
p171
I421
tp172
a(Vdevelopmental maturation
p173
I401
tp174
a(Vplastid
p175
I398
tp176
a(Vphosphatase activity
p177
I398
tp178
a(Vprotein folding
p179
I397
tp180
a(Vcilium
p181
I394
tp182
a(Vlyase activity
p183
I393
tp184
a(Vtransferase activity, transferring glycosyl groups
p185
I386
tp186
a(Vaging
p187
I373
tp188
a(Vnucleocytoplasmic transport
p189
I372
tp190
a(Vcell division
p191
I353
tp192
a(Vcell cycle
p193
I344
tp194
a(Vlysosome
p195
I328
tp196
a(VGTPase activity
p197
I323
tp198
a(Vcirculatory system process
p199
I320
tp200
a(Vexternal encapsulating structure
p201
I303
tp202
a(Vmethyltransferase activity
p203
I299
tp204
a(Vmitochondrion organization
p205
I296
tp206
a(Vcell wall
p207
I296
tp208
a(Vcell junction organization
p209
I293
tp210
a(Vribonucleoprotein complex assembly
p211
I291
tp212
a(Vsecondary metabolic process
p213
I275
tp214
a(Vhelicase activity
p215
I266
tp216
a(VmRNA binding
p217
I249
tp218
a(Vcytoskeleton-dependent intracellular transport
p219
I241
tp220
a(Vnuclease activity
p221
I240
tp222
a(Visomerase activity
p223
I238
tp224
a(Vchromosome
p225
I234
tp226
a(Vstructural constituent of ribosome
p227
I221
tp228
a(Vhistone binding
p229
I206
tp230
a(Vunfolded protein binding
p231
I194
tp232
a(Vhydrolase activity, acting on carbon-nitrogen (but not peptide) bonds
p233
I187
tp234
a(Vnuclear envelope
p235
I178
tp236
a(Vmitosis
p237
I176
tp238
a(Vcell wall organization or biogenesis
p239
I175
tp240
a(Vhydrolase activity, acting on glycosyl bonds
p241
I170
tp242
a(VtRNA metabolic process
p243
I161
tp244
a(Vtranslation factor activity, nucleic acid binding
p245
I161
tp246
a(Vvacuolar transport
p247
I157
tp248
a(Vlipid particle
p249
I157
tp250
a(Vperoxisome
p251
I157
tp252
a(Vchromosome segregation
p253
I156
tp254
a(Vproteinaceous extracellular matrix
p255
I149
tp256
a(Vplasma membrane organization
p257
I149
tp258
a(Vnucleotidyltransferase activity
p259
I147
tp260
a(Vtranslation
p261
I140
tp262
a(Vsmall conjugating protein binding
p263
I136
tp264
a(Vprotein binding, bridging
p265
I131
tp266
a(Vribosome
p267
I117
tp268
a(Vtransferase activity, transferring alkyl or aryl (other than methyl) groups
p269
I102
tp270
a(Vnuclear chromosome
p271
I86
tp272
a(Vribosome biogenesis
p273
I80
tp274
a(Vprotein transporter activity
p275
I73
tp276
a(Vintracellular
p277
I66
tp278
a(Vpigmentation
p279
I61
tp280
a(VrRNA binding
p281
I56
tp282
a(Vnitrogen cycle metabolic process
p283
I40
tp284
a(Vthylakoid
p285
I29
tp286
a(Vtransposition
p287
I11
tp288
a(Vphotosynthesis
p289
I10
tp290
a(Vcell
p291
I4
tp292
aa(lp293
(g3
L6372L
tp294
a(g5
L4365L
tp295
a(g7
L2787L
tp296
a(g9
L21685L
tp297
a(g11
L26888L
tp298
a(g13
L5801L
tp299
a(g15
L5491L
tp300
a(g17
L18268L
tp301
a(g19
L5613L
tp302
a(g21
L21693L
tp303
a(g23
L21630L
tp304
a(g25
L22689L
tp305
a(g27
L7192L
tp306
a(g29
L5168L
tp307
a(g31
L1781L
tp308
a(g33
L7190L
tp309
a(g35
L13924L
tp310
a(g37
L13633L
tp311
a(g39
L4599L
tp312
a(g41
L5326L
tp313
a(g43
L12968L
tp314
a(g45
L20507L
tp315
a(g47
L4507L
tp316
a(g49
L4644L
tp317
a(g51
L26682L
tp318
a(g53
L4422L
tp319
a(g55
L31581L
tp320
a(g57
L10381L
tp321
a(g59
L10598L
tp322
a(g61
L2790L
tp323
a(g63
L13690L
tp324
a(g65
L21086L
tp325
a(g67
L28535L
tp326
a(g69
L4725L
tp327
a(g71
L4995L
tp328
a(g73
L26901L
tp329
a(g75
L7881L
tp330
a(g77
L4514L
tp331
a(g79
L28228L
tp332
a(g81
L5165L
tp333
a(g83
L3827L
tp334
a(g85
L18282L
tp335
a(g87
L20503L
tp336
a(g89
L29927L
tp337
a(g91
L2830L
tp338
a(g93
L10466L
tp339
a(g95
L5218L
tp340
a(g97
L4515L
tp341
a(g99
L27837L
tp342
a(g101
L5663L
tp343
a(g103
L6320L
tp344
a(g105
L4567L
tp345
a(g107
L10229L
tp346
a(g109
L6494L
tp347
a(g111
L6448L
tp348
a(g113
L5791L
tp349
a(g115
L4556L
tp350
a(g117
L6500L
tp351
a(g119
L5896L
tp352
a(g121
L6436L
tp353
a(g123
L4621L
tp354
a(g125
L10950L
tp355
a(g127
L4542L
tp356
a(g129
L14001L
tp357
a(g131
L4439L
tp358
a(g133
L30984L
tp359
a(g135
L759L
tp360
a(g137
L6357L
tp361
a(g139
L10963L
tp362
a(g141
L4118L
tp363
a(g143
L677L
tp364
a(g145
L4586L
tp365
a(g147
L594L
tp366
a(g149
L5302L
tp367
a(g151
L4366L
tp368
a(g153
L5471L
tp369
a(g155
L28144L
tp370
a(g157
L22810L
tp371
a(g159
L4546L
tp372
a(g161
L4838L
tp373
a(g163
L5112L
tp374
a(g165
L4405L
tp375
a(g167
L13967L
tp376
a(g169
L10829L
tp377
a(g171
L3L
tp378
a(g173
L13274L
tp379
a(g175
L7644L
tp380
a(g177
L10870L
tp381
a(g179
L5161L
tp382
a(g181
L4684L
tp383
a(g183
L10905L
tp384
a(g185
L10840L
tp385
a(g187
L6169L
tp386
a(g189
L5582L
tp387
a(g191
L28251L
tp388
a(g193
L5695L
tp389
a(g195
L4538L
tp390
a(g197
L2991L
tp391
a(g199
L2364L
tp392
a(g201
L14078L
tp393
a(g203
L6389L
tp394
a(g205
L5658L
tp395
a(g207
L4408L
tp396
a(g209
L17965L
tp397
a(g211
L13644L
tp398
a(g213
L12827L
tp399
a(g215
L3404L
tp400
a(g217
L2835L
tp401
a(g219
L14427L
tp402
a(g221
L3518L
tp403
a(g223
L10929L
tp404
a(g225
L4475L
tp405
a(g227
L2841L
tp406
a(g229
L20900L
tp407
a(g231
L28040L
tp408
a(g233
L10886L
tp409
a(g235
L4423L
tp410
a(g237
L5712L
tp411
a(g239
L33137L
tp412
a(g241
L10876L
tp413
a(g243
L5114L
tp414
a(g245
L6358L
tp415
a(g247
L5682L
tp416
a(g249
L4583L
tp417
a(g251
L4550L
tp418
a(g253
L5705L
tp419
a(g255
L4368L
tp420
a(g257
L5662L
tp421
a(g259
L10860L
tp422
a(g261
L5126L
tp423
a(g263
L15840L
tp424
a(g265
L14396L
tp425
a(g267
L4609L
tp426
a(g269
L10848L
tp427
a(g271
L201L
tp428
a(g273
L20770L
tp429
a(g275
L6747L
tp430
a(g277
L4411L
tp431
a(g279
L21900L
tp432
a(g281
L12918L
tp433
a(g283
L33512L
tp434
a(g285
L7683L
tp435
a(g287
L15852L
tp436
a(g289
L10192L
tp437
a(g291
L4412L
tp438
aaI509353
a.