(lp1
(lp2
(Vbiological_process
p3
I197846
tp4
a(Vcellular_component
p5
I65451
tp6
a(Vmolecular_function
p7
I53151
tp8
a(Vorganelle
p9
I17567
tp10
a(Vanatomical structure development
p11
I15034
tp12
a(Vtransport
p13
I10801
tp14
a(Vsignal transduction
p15
I9475
tp16
a(Vcellular nitrogen compound metabolic process
p17
I8495
tp18
a(Vprotein complex
p19
I7555
tp20
a(Vresponse to stress
p21
I7294
tp22
a(Vion binding
p23
I6446
tp24
a(Vsmall molecule metabolic process
p25
I6123
tp26
a(Vbiosynthetic process
p27
I5678
tp28
a(Vcellular protein modification process
p29
I5115
tp30
a(Vimmune system process
p31
I4451
tp32
a(Vcatabolic process
p33
I4349
tp34
a(Vcell differentiation
p35
I3670
tp36
a(Vcellular component assembly
p37
I3224
tp38
a(Vcytosol
p39
I3096
tp40
a(Venzyme binding
p41
I2996
tp42
a(Vlipid metabolic process
p43
I2983
tp44
a(Vlocomotion
p45
I2525
tp46
a(Vplasma membrane
p47
I2329
tp48
a(Vvesicle-mediated transport
p49
I2316
tp50
a(Vnucleolus
p51
I2303
tp52
a(Vnucleus
p53
I2263
tp54
a(Vanatomical structure formation involved in morphogenesis
p55
I2248
tp56
a(Vtransmembrane transporter activity
p57
I2117
tp58
a(Vhomeostatic process
p59
I1966
tp60
a(VDNA binding
p61
I1922
tp62
a(VDNA metabolic process
p63
I1845
tp64
a(Vmacromolecular complex assembly
p65
I1818
tp66
a(Vcytoplasm
p67
I1807
tp68
a(Vchromosome organization
p69
I1798
tp70
a(Vcell motility
p71
I1768
tp72
a(Voxidoreductase activity
p73
I1763
tp74
a(Vtransmembrane transport
p75
I1677
tp76
a(Vcarbohydrate metabolic process
p77
I1653
tp78
a(Vprotein maturation
p79
I1638
tp80
a(Vneurological system process
p81
I1633
tp82
a(Vembryo development
p83
I1590
tp84
a(Vcytoskeletal protein binding
p85
I1578
tp86
a(Vgrowth
p87
I1539
tp88
a(Vnucleobase-containing compound catabolic process
p89
I1503
tp90
a(Vprotein complex assembly
p91
I1493
tp92
a(Vsignal transducer activity
p93
I1488
tp94
a(Vkinase activity
p95
I1390
tp96
a(Vcytoskeleton organization
p97
I1366
tp98
a(VRNA binding
p99
I1279
tp100
a(Vmitochondrion
p101
I1248
tp102
a(Vcytoplasmic membrane-bounded vesicle
p103
I1212
tp104
a(Vlipid binding
p105
I1189
tp106
a(VGolgi apparatus
p107
I1169
tp108
a(Vcytoskeleton
p109
I1078
tp110
a(Vcellular amino acid metabolic process
p111
I1060
tp112
a(Vcell-cell signaling
p113
I1047
tp114
a(Vendoplasmic reticulum
p115
I1037
tp116
a(Venzyme regulator activity
p117
I1026
tp118
a(Vcell adhesion
p119
I1022
tp120
a(Vendosome
p121
I996
tp122
a(Vcell proliferation
p123
I979
tp124
a(Vpeptidase activity
p125
I973
tp126
a(Vcell death
p127
I970
tp128
a(Vmembrane organization
p129
I964
tp130
a(Vligase activity
p131
I943
tp132
a(Vtranscription factor binding
p133
I856
tp134
a(Vprotein binding transcription factor activity
p135
I849
tp136
a(Vnucleoplasm
p137
I824
tp138
a(Vmicrotubule organizing center
p139
I823
tp140
a(VATPase activity
p141
I806
tp142
a(Vcell morphogenesis
p143
I794
tp144
a(Vnucleic acid binding transcription factor activity
p145
I762
tp146
a(Vstructural molecule activity
p147
I681
tp148
a(Vprotein targeting
p149
I666
tp150
a(Vextracellular region
p151
I657
tp152
a(Vsulfur compound metabolic process
p153
I591
tp154
a(Vextracellular space
p155
I587
tp156
a(Vsymbiosis, encompassing mutualism through parasitism
p157
I570
tp158
a(Vvacuole
p159
I558
tp160
a(VmRNA processing
p161
I549
tp162
a(Vcofactor metabolic process
p163
I534
tp164
a(Vgeneration of precursor metabolites and energy
p165
I532
tp166
a(Vextracellular matrix organization
p167
I525
tp168
a(Vcilium
p169
I506
tp170
a(Vtransferase activity, transferring acyl groups
p171
I506
tp172
a(Vphosphatase activity
p173
I503
tp174
a(Vcell cycle
p175
I435
tp176
a(Vtransferase activity, transferring glycosyl groups
p177
I399
tp178
a(Vnucleocytoplasmic transport
p179
I398
tp180
a(Vreproduction
p181
I397
tp182
a(Vcell junction organization
p183
I373
tp184
a(Vdevelopmental maturation
p185
I372
tp186
a(Vcell division
p187
I344
tp188
a(Vaging
p189
I343
tp190
a(Vcirculatory system process
p191
I333
tp192
a(Vplastid
p193
I330
tp194
a(Vlysosome
p195
I327
tp196
a(Vmitochondrion organization
p197
I320
tp198
a(Vprotein folding
p199
I317
tp200
a(Vlyase activity
p201
I314
tp202
a(Vcytoskeleton-dependent intracellular transport
p203
I313
tp204
a(Vmethyltransferase activity
p205
I311
tp206
a(Vhelicase activity
p207
I303
tp208
a(Vnuclease activity
p209
I281
tp210
a(Vribonucleoprotein complex assembly
p211
I270
tp212
a(VGTPase activity
p213
I267
tp214
a(Vhistone binding
p215
I251
tp216
a(Vchromosome
p217
I248
tp218
a(Vsecondary metabolic process
p219
I245
tp220
a(VmRNA binding
p221
I218
tp222
a(Vexternal encapsulating structure
p223
I212
tp224
a(Vnuclear envelope
p225
I210
tp226
a(Vproteinaceous extracellular matrix
p227
I206
tp228
a(Vcell wall
p229
I206
tp230
a(Visomerase activity
p231
I201
tp232
a(Vplasma membrane organization
p233
I199
tp234
a(Vvacuolar transport
p235
I196
tp236
a(Vhydrolase activity, acting on carbon-nitrogen (but not peptide) bonds
p237
I189
tp238
a(Vhydrolase activity, acting on glycosyl bonds
p239
I187
tp240
a(Vmitosis
p241
I185
tp242
a(Vcell wall organization or biogenesis
p243
I174
tp244
a(Vprotein binding, bridging
p245
I163
tp246
a(Vstructural constituent of ribosome
p247
I162
tp248
a(Vnucleotidyltransferase activity
p249
I154
tp250
a(Vperoxisome
p251
I152
tp252
a(Vchromosome segregation
p253
I150
tp254
a(Vsmall conjugating protein binding
p255
I140
tp256
a(Vunfolded protein binding
p257
I140
tp258
a(VtRNA metabolic process
p259
I129
tp260
a(Vtranslation factor activity, nucleic acid binding
p261
I127
tp262
a(Vlipid particle
p263
I120
tp264
a(Vtranslation
p265
I120
tp266
a(Vribosome
p267
I116
tp268
a(Vprotein transporter activity
p269
I101
tp270
a(Vintracellular
p271
I89
tp272
a(Vtransferase activity, transferring alkyl or aryl (other than methyl) groups
p273
I82
tp274
a(Vnuclear chromosome
p275
I82
tp276
a(Vribosome biogenesis
p277
I72
tp278
a(Vpigmentation
p279
I68
tp280
a(VrRNA binding
p281
I49
tp282
a(Vthylakoid
p283
I31
tp284
a(Vnitrogen cycle metabolic process
p285
I26
tp286
a(Vphotosynthesis
p287
I11
tp288
a(Vtransposition
p289
I8
tp290
a(Vcell
p291
I5
tp292
aa(lp293
(g3
L6372L
tp294
a(g5
L4365L
tp295
a(g7
L2787L
tp296
a(g9
L21685L
tp297
a(g11
L26888L
tp298
a(g13
L5491L
tp299
a(g15
L5801L
tp300
a(g17
L18268L
tp301
a(g19
L21693L
tp302
a(g21
L5613L
tp303
a(g23
L21630L
tp304
a(g25
L22689L
tp305
a(g27
L7192L
tp306
a(g29
L5168L
tp307
a(g31
L1781L
tp308
a(g33
L7190L
tp309
a(g35
L13924L
tp310
a(g37
L13633L
tp311
a(g39
L4599L
tp312
a(g41
L12968L
tp313
a(g43
L5326L
tp314
a(g45
L20507L
tp315
a(g47
L4644L
tp316
a(g49
L10381L
tp317
a(g51
L4507L
tp318
a(g53
L4422L
tp319
a(g55
L26682L
tp320
a(g57
L13690L
tp321
a(g59
L21086L
tp322
a(g61
L2790L
tp323
a(g63
L4995L
tp324
a(g65
L31581L
tp325
a(g67
L4514L
tp326
a(g69
L28228L
tp327
a(g71
L26901L
tp328
a(g73
L10598L
tp329
a(g75
L29927L
tp330
a(g77
L4725L
tp331
a(g79
L28535L
tp332
a(g81
L27837L
tp333
a(g83
L7881L
tp334
a(g85
L6320L
tp335
a(g87
L20503L
tp336
a(g89
L18282L
tp337
a(g91
L5165L
tp338
a(g93
L3827L
tp339
a(g95
L10466L
tp340
a(g97
L5663L
tp341
a(g99
L2830L
tp342
a(g101
L4515L
tp343
a(g103
L10229L
tp344
a(g105
L6500L
tp345
a(g107
L4567L
tp346
a(g109
L4621L
tp347
a(g111
L5218L
tp348
a(g113
L5896L
tp349
a(g115
L4556L
tp350
a(g117
L14001L
tp351
a(g119
L5791L
tp352
a(g121
L4542L
tp353
a(g123
L6494L
tp354
a(g125
L6448L
tp355
a(g127
L6436L
tp356
a(g129
L30984L
tp357
a(g131
L10950L
tp358
a(g133
L6357L
tp359
a(g135
L677L
tp360
a(g137
L4439L
tp361
a(g139
L4586L
tp362
a(g141
L10963L
tp363
a(g143
L594L
tp364
a(g145
L759L
tp365
a(g147
L4118L
tp366
a(g149
L5302L
tp367
a(g151
L4366L
tp368
a(g153
L5471L
tp369
a(g155
L4405L
tp370
a(g157
L22810L
tp371
a(g159
L4546L
tp372
a(g161
L5112L
tp373
a(g163
L28144L
tp374
a(g165
L4838L
tp375
a(g167
L13967L
tp376
a(g169
L4684L
tp377
a(g171
L10829L
tp378
a(g173
L10870L
tp379
a(g175
L5695L
tp380
a(g177
L10840L
tp381
a(g179
L5582L
tp382
a(g181
L3L
tp383
a(g183
L17965L
tp384
a(g185
L13274L
tp385
a(g187
L28251L
tp386
a(g189
L6169L
tp387
a(g191
L2364L
tp388
a(g193
L7644L
tp389
a(g195
L4538L
tp390
a(g197
L5658L
tp391
a(g199
L5161L
tp392
a(g201
L10905L
tp393
a(g203
L14427L
tp394
a(g205
L6389L
tp395
a(g207
L3404L
tp396
a(g209
L3518L
tp397
a(g211
L13644L
tp398
a(g213
L2991L
tp399
a(g215
L20900L
tp400
a(g217
L4475L
tp401
a(g219
L12827L
tp402
a(g221
L2835L
tp403
a(g223
L14078L
tp404
a(g225
L4423L
tp405
a(g227
L4368L
tp406
a(g229
L4408L
tp407
a(g231
L10929L
tp408
a(g233
L5662L
tp409
a(g235
L5682L
tp410
a(g237
L10886L
tp411
a(g239
L10876L
tp412
a(g241
L5712L
tp413
a(g243
L33137L
tp414
a(g245
L14396L
tp415
a(g247
L2841L
tp416
a(g249
L10860L
tp417
a(g251
L4550L
tp418
a(g253
L5705L
tp419
a(g255
L15840L
tp420
a(g257
L28040L
tp421
a(g259
L5114L
tp422
a(g261
L6358L
tp423
a(g263
L4583L
tp424
a(g265
L5126L
tp425
a(g267
L4609L
tp426
a(g269
L6747L
tp427
a(g271
L4411L
tp428
a(g273
L10848L
tp429
a(g275
L201L
tp430
a(g277
L20770L
tp431
a(g279
L21900L
tp432
a(g281
L12918L
tp433
a(g283
L7683L
tp434
a(g285
L33512L
tp435
a(g287
L10192L
tp436
a(g289
L15852L
tp437
a(g291
L4412L
tp438
aaI534178
a.