(lp1
(lp2
(Vbiological_process
p3
I211617
tp4
a(Vcellular_component
p5
I72326
tp6
a(Vmolecular_function
p7
I59369
tp8
a(Vorganelle
p9
I19518
tp10
a(Vanatomical structure development
p11
I15643
tp12
a(Vtransport
p13
I11602
tp14
a(Vsignal transduction
p15
I9953
tp16
a(Vcellular nitrogen compound metabolic process
p17
I9928
tp18
a(Vprotein complex
p19
I8606
tp20
a(Vresponse to stress
p21
I8050
tp22
a(Vion binding
p23
I7567
tp24
a(Vsmall molecule metabolic process
p25
I7147
tp26
a(Vbiosynthetic process
p27
I6585
tp28
a(Vcellular protein modification process
p29
I5523
tp30
a(Vcatabolic process
p31
I5096
tp32
a(Vimmune system process
p33
I4427
tp34
a(Vcell differentiation
p35
I3786
tp36
a(Vcellular component assembly
p37
I3769
tp38
a(Vcytosol
p39
I3734
tp40
a(Vlipid metabolic process
p41
I3313
tp42
a(Venzyme binding
p43
I3247
tp44
a(Vnucleolus
p45
I2747
tp46
a(Vlocomotion
p47
I2719
tp48
a(Vvesicle-mediated transport
p49
I2628
tp50
a(Vplasma membrane
p51
I2588
tp52
a(Vanatomical structure formation involved in morphogenesis
p53
I2473
tp54
a(Vnucleus
p55
I2406
tp56
a(VDNA metabolic process
p57
I2203
tp58
a(VDNA binding
p59
I2171
tp60
a(Vchromosome organization
p61
I2158
tp62
a(Vhomeostatic process
p63
I2143
tp64
a(Vmacromolecular complex assembly
p65
I2106
tp66
a(Vtransmembrane transporter activity
p67
I2105
tp68
a(Voxidoreductase activity
p69
I2041
tp70
a(Vcell motility
p71
I1947
tp72
a(Vcytoplasm
p73
I1903
tp74
a(Vcarbohydrate metabolic process
p75
I1883
tp76
a(Vembryo development
p77
I1840
tp78
a(Vcytoskeletal protein binding
p79
I1826
tp80
a(Vnucleobase-containing compound catabolic process
p81
I1796
tp82
a(Vneurological system process
p83
I1795
tp84
a(Vprotein maturation
p85
I1708
tp86
a(Vcytoskeleton organization
p87
I1704
tp88
a(Vgrowth
p89
I1694
tp90
a(Vprotein complex assembly
p91
I1690
tp92
a(Vtransmembrane transport
p93
I1657
tp94
a(Vsignal transducer activity
p95
I1653
tp96
a(VRNA binding
p97
I1550
tp98
a(Vkinase activity
p99
I1524
tp100
a(Vmitochondrion
p101
I1416
tp102
a(Vlipid binding
p103
I1403
tp104
a(Vcytoplasmic membrane-bounded vesicle
p105
I1394
tp106
a(VGolgi apparatus
p107
I1366
tp108
a(Vcellular amino acid metabolic process
p109
I1333
tp110
a(Vcytoskeleton
p111
I1211
tp112
a(Vendoplasmic reticulum
p113
I1165
tp114
a(Venzyme regulator activity
p115
I1126
tp116
a(Vpeptidase activity
p117
I1108
tp118
a(Vcell-cell signaling
p119
I1102
tp120
a(Vmembrane organization
p121
I1094
tp122
a(Vendosome
p123
I1087
tp124
a(Vcell death
p125
I1079
tp126
a(Vcell adhesion
p127
I1078
tp128
a(Vcell proliferation
p129
I997
tp130
a(Vnucleoplasm
p131
I993
tp132
a(Vmicrotubule organizing center
p133
I988
tp134
a(Vligase activity
p135
I954
tp136
a(Vtranscription factor binding
p137
I939
tp138
a(Vstructural molecule activity
p139
I934
tp140
a(Vprotein binding transcription factor activity
p141
I933
tp142
a(VATPase activity
p143
I929
tp144
a(Vnucleic acid binding transcription factor activity
p145
I872
tp146
a(Vprotein targeting
p147
I829
tp148
a(Vcell morphogenesis
p149
I828
tp150
a(Vsulfur compound metabolic process
p151
I768
tp152
a(Vextracellular region
p153
I716
tp154
a(VmRNA processing
p155
I667
tp156
a(Vextracellular space
p157
I651
tp158
a(Vcofactor metabolic process
p159
I650
tp160
a(Vgeneration of precursor metabolites and energy
p161
I636
tp162
a(Vextracellular matrix organization
p163
I629
tp164
a(Vtransferase activity, transferring acyl groups
p165
I613
tp166
a(Vsymbiosis, encompassing mutualism through parasitism
p167
I613
tp168
a(Vvacuole
p169
I599
tp170
a(Vcilium
p171
I558
tp172
a(Vphosphatase activity
p173
I502
tp174
a(Vreproduction
p175
I463
tp176
a(Vcell cycle
p177
I462
tp178
a(Vnucleocytoplasmic transport
p179
I452
tp180
a(Vaging
p181
I440
tp182
a(Vcell junction organization
p183
I430
tp184
a(Vplastid
p185
I417
tp186
a(Vtransferase activity, transferring glycosyl groups
p187
I417
tp188
a(Vcell division
p189
I403
tp190
a(Vcirculatory system process
p191
I394
tp192
a(Vlyase activity
p193
I379
tp194
a(Vdevelopmental maturation
p195
I371
tp196
a(Vprotein folding
p197
I364
tp198
a(Vcytoskeleton-dependent intracellular transport
p199
I357
tp200
a(Vmethyltransferase activity
p201
I353
tp202
a(Vlysosome
p203
I343
tp204
a(Vribonucleoprotein complex assembly
p205
I340
tp206
a(Vmitochondrion organization
p207
I338
tp208
a(Vhelicase activity
p209
I324
tp210
a(Vnuclease activity
p211
I323
tp212
a(VGTPase activity
p213
I301
tp214
a(Vchromosome
p215
I299
tp216
a(Vexternal encapsulating structure
p217
I299
tp218
a(Vhistone binding
p219
I294
tp220
a(Vcell wall
p221
I293
tp222
a(Vsecondary metabolic process
p223
I292
tp224
a(Vstructural constituent of ribosome
p225
I273
tp226
a(VmRNA binding
p227
I272
tp228
a(Visomerase activity
p229
I263
tp230
a(Vnuclear envelope
p231
I258
tp232
a(Vproteinaceous extracellular matrix
p233
I226
tp234
a(Vvacuolar transport
p235
I225
tp236
a(Vmitosis
p237
I221
tp238
a(Vcell wall organization or biogenesis
p239
I217
tp240
a(Vhydrolase activity, acting on carbon-nitrogen (but not peptide) bonds
p241
I215
tp242
a(Vplasma membrane organization
p243
I199
tp244
a(Vnucleotidyltransferase activity
p245
I197
tp246
a(VtRNA metabolic process
p247
I189
tp248
a(Vprotein binding, bridging
p249
I183
tp250
a(Vchromosome segregation
p251
I183
tp252
a(Vtranslation factor activity, nucleic acid binding
p253
I181
tp254
a(Vperoxisome
p255
I178
tp256
a(Vhydrolase activity, acting on glycosyl bonds
p257
I176
tp258
a(Vunfolded protein binding
p259
I169
tp260
a(Vsmall conjugating protein binding
p261
I163
tp262
a(Vlipid particle
p263
I148
tp264
a(Vtranslation
p265
I142
tp266
a(Vribosome
p267
I134
tp268
a(Vprotein transporter activity
p269
I130
tp270
a(Vnuclear chromosome
p271
I104
tp272
a(Vribosome biogenesis
p273
I102
tp274
a(Vtransferase activity, transferring alkyl or aryl (other than methyl) groups
p275
I98
tp276
a(Vintracellular
p277
I72
tp278
a(VrRNA binding
p279
I71
tp280
a(Vpigmentation
p281
I69
tp282
a(Vthylakoid
p283
I35
tp284
a(Vnitrogen cycle metabolic process
p285
I26
tp286
a(Vtransposition
p287
I11
tp288
a(Vphotosynthesis
p289
I7
tp290
a(Vcell
p291
I6
tp292
aa(lp293
(g3
L6372L
tp294
a(g5
L4365L
tp295
a(g7
L2787L
tp296
a(g9
L21685L
tp297
a(g11
L26888L
tp298
a(g13
L5491L
tp299
a(g15
L5801L
tp300
a(g17
L18268L
tp301
a(g19
L21693L
tp302
a(g21
L5613L
tp303
a(g23
L21630L
tp304
a(g25
L22689L
tp305
a(g27
L7192L
tp306
a(g29
L5168L
tp307
a(g31
L7190L
tp308
a(g33
L1781L
tp309
a(g35
L13924L
tp310
a(g37
L13633L
tp311
a(g39
L4599L
tp312
a(g41
L5326L
tp313
a(g43
L12968L
tp314
a(g45
L4507L
tp315
a(g47
L20507L
tp316
a(g49
L10381L
tp317
a(g51
L4644L
tp318
a(g53
L26682L
tp319
a(g55
L4422L
tp320
a(g57
L4995L
tp321
a(g59
L2790L
tp322
a(g61
L28228L
tp323
a(g63
L21086L
tp324
a(g65
L31581L
tp325
a(g67
L13690L
tp326
a(g69
L10598L
tp327
a(g71
L26901L
tp328
a(g73
L4514L
tp329
a(g75
L4725L
tp330
a(g77
L7881L
tp331
a(g79
L6320L
tp332
a(g81
L18282L
tp333
a(g83
L27837L
tp334
a(g85
L28535L
tp335
a(g87
L5663L
tp336
a(g89
L20503L
tp337
a(g91
L5165L
tp338
a(g93
L29927L
tp339
a(g95
L3827L
tp340
a(g97
L2830L
tp341
a(g99
L10466L
tp342
a(g101
L4515L
tp343
a(g103
L6500L
tp344
a(g105
L10229L
tp345
a(g107
L4567L
tp346
a(g109
L5218L
tp347
a(g111
L4621L
tp348
a(g113
L4556L
tp349
a(g115
L14001L
tp350
a(g117
L6448L
tp351
a(g119
L5896L
tp352
a(g121
L30984L
tp353
a(g123
L4542L
tp354
a(g125
L6436L
tp355
a(g127
L5791L
tp356
a(g129
L6494L
tp357
a(g131
L4439L
tp358
a(g133
L4586L
tp359
a(g135
L10950L
tp360
a(g137
L6357L
tp361
a(g139
L4118L
tp362
a(g141
L677L
tp363
a(g143
L10963L
tp364
a(g145
L759L
tp365
a(g147
L5302L
tp366
a(g149
L594L
tp367
a(g151
L5471L
tp368
a(g153
L4366L
tp369
a(g155
L5112L
tp370
a(g157
L4405L
tp371
a(g159
L28144L
tp372
a(g161
L4838L
tp373
a(g163
L13967L
tp374
a(g165
L10829L
tp375
a(g167
L22810L
tp376
a(g169
L4546L
tp377
a(g171
L4684L
tp378
a(g173
L10870L
tp379
a(g175
L3L
tp380
a(g177
L5695L
tp381
a(g179
L5582L
tp382
a(g181
L6169L
tp383
a(g183
L17965L
tp384
a(g185
L7644L
tp385
a(g187
L10840L
tp386
a(g189
L28251L
tp387
a(g191
L2364L
tp388
a(g193
L10905L
tp389
a(g195
L13274L
tp390
a(g197
L5161L
tp391
a(g199
L14427L
tp392
a(g201
L6389L
tp393
a(g203
L4538L
tp394
a(g205
L13644L
tp395
a(g207
L5658L
tp396
a(g209
L3404L
tp397
a(g211
L3518L
tp398
a(g213
L2991L
tp399
a(g215
L4475L
tp400
a(g217
L14078L
tp401
a(g219
L20900L
tp402
a(g221
L4408L
tp403
a(g223
L12827L
tp404
a(g225
L2841L
tp405
a(g227
L2835L
tp406
a(g229
L10929L
tp407
a(g231
L4423L
tp408
a(g233
L4368L
tp409
a(g235
L5682L
tp410
a(g237
L5712L
tp411
a(g239
L33137L
tp412
a(g241
L10886L
tp413
a(g243
L5662L
tp414
a(g245
L10860L
tp415
a(g247
L5114L
tp416
a(g249
L14396L
tp417
a(g251
L5705L
tp418
a(g253
L6358L
tp419
a(g255
L4550L
tp420
a(g257
L10876L
tp421
a(g259
L28040L
tp422
a(g261
L15840L
tp423
a(g263
L4583L
tp424
a(g265
L5126L
tp425
a(g267
L4609L
tp426
a(g269
L6747L
tp427
a(g271
L201L
tp428
a(g273
L20770L
tp429
a(g275
L10848L
tp430
a(g277
L4411L
tp431
a(g279
L12918L
tp432
a(g281
L21900L
tp433
a(g283
L7683L
tp434
a(g285
L33512L
tp435
a(g287
L15852L
tp436
a(g289
L10192L
tp437
a(g291
L4412L
tp438
aaI586515
a.