(lp1
(lp2
(Vbiological_process
p3
I51420
tp4
a(Vcellular_component
p5
I17688
tp6
a(Vmolecular_function
p7
I14244
tp8
a(Vorganelle
p9
I4864
tp10
a(Vanatomical structure development
p11
I3788
tp12
a(Vtransport
p13
I2793
tp14
a(Vcellular nitrogen compound metabolic process
p15
I2635
tp16
a(Vsignal transduction
p17
I2515
tp18
a(Vprotein complex
p19
I2273
tp20
a(Vresponse to stress
p21
I2069
tp22
a(Vsmall molecule metabolic process
p23
I1865
tp24
a(Vbiosynthetic process
p25
I1818
tp26
a(Vion binding
p27
I1799
tp28
a(Vcellular protein modification process
p29
I1384
tp30
a(Vcatabolic process
p31
I1379
tp32
a(Vimmune system process
p33
I1244
tp34
a(Vcytosol
p35
I1022
tp36
a(Vcellular component assembly
p37
I960
tp38
a(Vcell differentiation
p39
I912
tp40
a(Vlipid metabolic process
p41
I817
tp42
a(Venzyme binding
p43
I784
tp44
a(Vnucleolus
p45
I687
tp46
a(Vvesicle-mediated transport
p47
I653
tp48
a(Vlocomotion
p49
I650
tp50
a(Vnucleus
p51
I638
tp52
a(Vplasma membrane
p53
I629
tp54
a(Vanatomical structure formation involved in morphogenesis
p55
I604
tp56
a(Vmacromolecular complex assembly
p57
I592
tp58
a(Vembryo development
p59
I553
tp60
a(VDNA binding
p61
I550
tp62
a(Vchromosome organization
p63
I528
tp64
a(Voxidoreductase activity
p65
I525
tp66
a(Vcarbohydrate metabolic process
p67
I516
tp68
a(VDNA metabolic process
p69
I499
tp70
a(Vhomeostatic process
p71
I498
tp72
a(Vnucleobase-containing compound catabolic process
p73
I489
tp74
a(Vprotein complex assembly
p75
I481
tp76
a(VRNA binding
p77
I462
tp78
a(Vprotein maturation
p79
I450
tp80
a(Vcytoplasm
p81
I449
tp82
a(Vgrowth
p83
I448
tp84
a(Vtransmembrane transporter activity
p85
I448
tp86
a(Vcell motility
p87
I445
tp88
a(Vmitochondrion
p89
I406
tp90
a(Vcytoskeletal protein binding
p91
I402
tp92
a(Vtransmembrane transport
p93
I397
tp94
a(Vcytoskeleton organization
p95
I396
tp96
a(Vsignal transducer activity
p97
I353
tp98
a(Vcellular amino acid metabolic process
p99
I351
tp100
a(Vcytoplasmic membrane-bounded vesicle
p101
I344
tp102
a(Vkinase activity
p103
I331
tp104
a(Vneurological system process
p105
I327
tp106
a(VGolgi apparatus
p107
I322
tp108
a(Vendoplasmic reticulum
p109
I304
tp110
a(Venzyme regulator activity
p111
I291
tp112
a(Vlipid binding
p113
I284
tp114
a(Vcell death
p115
I278
tp116
a(Vpeptidase activity
p117
I276
tp118
a(Vcell-cell signaling
p119
I271
tp120
a(Vstructural molecule activity
p121
I268
tp122
a(Vcell proliferation
p123
I260
tp124
a(Vnucleoplasm
p125
I260
tp126
a(Vcytoskeleton
p127
I258
tp128
a(Vendosome
p129
I257
tp130
a(Vprotein targeting
p131
I252
tp132
a(Vprotein binding transcription factor activity
p133
I251
tp134
a(Vmembrane organization
p135
I244
tp136
a(Vmicrotubule organizing center
p137
I243
tp138
a(Vtranscription factor binding
p139
I239
tp140
a(Vligase activity
p141
I234
tp142
a(Vnucleic acid binding transcription factor activity
p143
I223
tp144
a(Vcell adhesion
p145
I208
tp146
a(Vcell morphogenesis
p147
I207
tp148
a(VATPase activity
p149
I200
tp150
a(VmRNA processing
p151
I197
tp152
a(Vgeneration of precursor metabolites and energy
p153
I197
tp154
a(Vsymbiosis, encompassing mutualism through parasitism
p155
I186
tp156
a(Vextracellular region
p157
I185
tp158
a(Vcofactor metabolic process
p159
I183
tp160
a(Vsulfur compound metabolic process
p161
I181
tp162
a(Vvacuole
p163
I160
tp164
a(Vextracellular space
p165
I154
tp166
a(Vreproduction
p167
I143
tp168
a(Vtransferase activity, transferring acyl groups
p169
I143
tp170
a(Vextracellular matrix organization
p171
I142
tp172
a(Vprotein folding
p173
I141
tp174
a(Vphosphatase activity
p175
I129
tp176
a(Vplastid
p177
I125
tp178
a(Vnucleocytoplasmic transport
p179
I121
tp180
a(Vcilium
p181
I121
tp182
a(Vcell cycle
p183
I114
tp184
a(Vlyase activity
p185
I114
tp186
a(Vcell division
p187
I103
tp188
a(Vtransferase activity, transferring glycosyl groups
p189
I102
tp190
a(VGTPase activity
p191
I102
tp192
a(Vribonucleoprotein complex assembly
p193
I101
tp194
a(Vdevelopmental maturation
p195
I101
tp196
a(Vcytoskeleton-dependent intracellular transport
p197
I100
tp198
a(Vcell junction organization
p199
I100
tp200
a(Vstructural constituent of ribosome
p201
I100
tp202
a(Vsecondary metabolic process
p203
I96
tp204
a(Vmethyltransferase activity
p205
I95
tp206
a(Vexternal encapsulating structure
p207
I94
tp208
a(Vcell wall
p209
I92
tp210
a(Vmitochondrion organization
p211
I91
tp212
a(Vaging
p213
I88
tp214
a(VmRNA binding
p215
I87
tp216
a(Vlysosome
p217
I86
tp218
a(Visomerase activity
p219
I80
tp220
a(Vchromosome
p221
I80
tp222
a(Vhistone binding
p223
I74
tp224
a(Vunfolded protein binding
p225
I71
tp226
a(Vcirculatory system process
p227
I71
tp228
a(Vnuclease activity
p229
I70
tp230
a(Vcell wall organization or biogenesis
p231
I64
tp232
a(Vvacuolar transport
p233
I62
tp234
a(Vmitosis
p235
I61
tp236
a(Vhydrolase activity, acting on carbon-nitrogen (but not peptide) bonds
p237
I61
tp238
a(Vhelicase activity
p239
I60
tp240
a(Vtranslation factor activity, nucleic acid binding
p241
I54
tp242
a(Vnucleotidyltransferase activity
p243
I51
tp244
a(Vtranslation
p245
I51
tp246
a(Vlipid particle
p247
I48
tp248
a(Vchromosome segregation
p249
I47
tp250
a(Vribosome
p251
I47
tp252
a(Vnuclear envelope
p253
I46
tp254
a(VtRNA metabolic process
p255
I45
tp256
a(Vprotein binding, bridging
p257
I40
tp258
a(Vplasma membrane organization
p259
I40
tp260
a(Vperoxisome
p261
I39
tp262
a(Vsmall conjugating protein binding
p263
I39
tp264
a(Vhydrolase activity, acting on glycosyl bonds
p265
I34
tp266
a(Vnuclear chromosome
p267
I34
tp268
a(Vribosome biogenesis
p269
I34
tp270
a(Vproteinaceous extracellular matrix
p271
I30
tp272
a(Vtransferase activity, transferring alkyl or aryl (other than methyl) groups
p273
I28
tp274
a(Vprotein transporter activity
p275
I25
tp276
a(VrRNA binding
p277
I22
tp278
a(Vintracellular
p279
I17
tp280
a(Vpigmentation
p281
I16
tp282
a(Vthylakoid
p283
I12
tp284
a(Vnitrogen cycle metabolic process
p285
I8
tp286
a(Vtransposition
p287
I3
tp288
a(Vphotosynthesis
p289
I2
tp290
a(Vcell
p291
I1
tp292
aa(lp293
(g3
L6372L
tp294
a(g5
L4365L
tp295
a(g7
L2787L
tp296
a(g9
L21685L
tp297
a(g11
L26888L
tp298
a(g13
L5491L
tp299
a(g15
L18268L
tp300
a(g17
L5801L
tp301
a(g19
L21693L
tp302
a(g21
L5613L
tp303
a(g23
L22689L
tp304
a(g25
L7192L
tp305
a(g27
L21630L
tp306
a(g29
L5168L
tp307
a(g31
L7190L
tp308
a(g33
L1781L
tp309
a(g35
L4599L
tp310
a(g37
L13633L
tp311
a(g39
L13924L
tp312
a(g41
L5326L
tp313
a(g43
L12968L
tp314
a(g45
L4507L
tp315
a(g47
L10381L
tp316
a(g49
L20507L
tp317
a(g51
L4422L
tp318
a(g53
L4644L
tp319
a(g55
L26682L
tp320
a(g57
L31581L
tp321
a(g59
L7881L
tp322
a(g61
L2790L
tp323
a(g63
L28228L
tp324
a(g65
L10598L
tp325
a(g67
L4725L
tp326
a(g69
L4995L
tp327
a(g71
L21086L
tp328
a(g73
L18282L
tp329
a(g75
L5165L
tp330
a(g77
L2830L
tp331
a(g79
L28535L
tp332
a(g81
L4514L
tp333
a(g83
L20503L
tp334
a(g85
L13690L
tp335
a(g87
L26901L
tp336
a(g89
L4515L
tp337
a(g91
L6320L
tp338
a(g93
L29927L
tp339
a(g95
L5663L
tp340
a(g97
L3827L
tp341
a(g99
L5218L
tp342
a(g101
L10229L
tp343
a(g103
L10466L
tp344
a(g105
L27837L
tp345
a(g107
L4567L
tp346
a(g109
L4556L
tp347
a(g111
L14001L
tp348
a(g113
L6500L
tp349
a(g115
L6436L
tp350
a(g117
L6448L
tp351
a(g119
L5896L
tp352
a(g121
L4118L
tp353
a(g123
L6494L
tp354
a(g125
L4439L
tp355
a(g127
L4621L
tp356
a(g129
L4542L
tp357
a(g131
L5302L
tp358
a(g133
L677L
tp359
a(g135
L30984L
tp360
a(g137
L4586L
tp361
a(g139
L6357L
tp362
a(g141
L10950L
tp363
a(g143
L759L
tp364
a(g145
L5791L
tp365
a(g147
L594L
tp366
a(g149
L10963L
tp367
a(g151
L5112L
tp368
a(g153
L4838L
tp369
a(g155
L22810L
tp370
a(g157
L4366L
tp371
a(g159
L28144L
tp372
a(g161
L5471L
tp373
a(g163
L4546L
tp374
a(g165
L4405L
tp375
a(g167
L3L
tp376
a(g169
L10829L
tp377
a(g171
L13967L
tp378
a(g173
L5161L
tp379
a(g175
L10870L
tp380
a(g177
L7644L
tp381
a(g179
L5582L
tp382
a(g181
L4684L
tp383
a(g183
L5695L
tp384
a(g185
L10905L
tp385
a(g187
L28251L
tp386
a(g189
L10840L
tp387
a(g191
L2991L
tp388
a(g193
L13644L
tp389
a(g195
L13274L
tp390
a(g197
L14427L
tp391
a(g199
L17965L
tp392
a(g201
L2841L
tp393
a(g203
L12827L
tp394
a(g205
L6389L
tp395
a(g207
L14078L
tp396
a(g209
L4408L
tp397
a(g211
L5658L
tp398
a(g213
L6169L
tp399
a(g215
L2835L
tp400
a(g217
L4538L
tp401
a(g219
L10929L
tp402
a(g221
L4475L
tp403
a(g223
L20900L
tp404
a(g225
L28040L
tp405
a(g227
L2364L
tp406
a(g229
L3518L
tp407
a(g231
L33137L
tp408
a(g233
L5682L
tp409
a(g235
L5712L
tp410
a(g237
L10886L
tp411
a(g239
L3404L
tp412
a(g241
L6358L
tp413
a(g243
L10860L
tp414
a(g245
L5126L
tp415
a(g247
L4583L
tp416
a(g249
L5705L
tp417
a(g251
L4609L
tp418
a(g253
L4423L
tp419
a(g255
L5114L
tp420
a(g257
L14396L
tp421
a(g259
L5662L
tp422
a(g261
L4550L
tp423
a(g263
L15840L
tp424
a(g265
L10876L
tp425
a(g267
L201L
tp426
a(g269
L20770L
tp427
a(g271
L4368L
tp428
a(g273
L10848L
tp429
a(g275
L6747L
tp430
a(g277
L12918L
tp431
a(g279
L4411L
tp432
a(g281
L21900L
tp433
a(g283
L7683L
tp434
a(g285
L33512L
tp435
a(g287
L15852L
tp436
a(g289
L10192L
tp437
a(g291
L4412L
tp438
aaI144845
a.