(lp1
(lp2
(Vbiological_process
p3
I219447
tp4
a(Vcellular_component
p5
I73156
tp6
a(Vmolecular_function
p7
I59922
tp8
a(Vorganelle
p9
I19407
tp10
a(Vanatomical structure development
p11
I16522
tp12
a(Vtransport
p13
I12397
tp14
a(Vcellular nitrogen compound metabolic process
p15
I10205
tp16
a(Vsignal transduction
p17
I9862
tp18
a(Vresponse to stress
p19
I8216
tp20
a(Vprotein complex
p21
I7992
tp22
a(Vsmall molecule metabolic process
p23
I7656
tp24
a(Vion binding
p25
I7491
tp26
a(Vbiosynthetic process
p27
I6892
tp28
a(Vcellular protein modification process
p29
I5316
tp30
a(Vcatabolic process
p31
I5207
tp32
a(Vimmune system process
p33
I4845
tp34
a(Vcell differentiation
p35
I3602
tp36
a(Vcellular component assembly
p37
I3556
tp38
a(Vcytosol
p39
I3354
tp40
a(Vlipid metabolic process
p41
I3285
tp42
a(Venzyme binding
p43
I3032
tp44
a(Vtransmembrane transporter activity
p45
I2735
tp46
a(Vlocomotion
p47
I2699
tp48
a(Vplasma membrane
p49
I2563
tp50
a(Vvesicle-mediated transport
p51
I2429
tp52
a(Vnucleolus
p53
I2412
tp54
a(VDNA metabolic process
p55
I2380
tp56
a(Vnucleus
p57
I2365
tp58
a(Vanatomical structure formation involved in morphogenesis
p59
I2253
tp60
a(Voxidoreductase activity
p61
I2233
tp62
a(Vcytoplasm
p63
I2194
tp64
a(Vhomeostatic process
p65
I2074
tp66
a(Vchromosome organization
p67
I2035
tp68
a(Vmacromolecular complex assembly
p69
I2024
tp70
a(Vcarbohydrate metabolic process
p71
I2000
tp72
a(VDNA binding
p73
I1962
tp74
a(Vtransmembrane transport
p75
I1922
tp76
a(Vcell motility
p77
I1848
tp78
a(Vnucleobase-containing compound catabolic process
p79
I1825
tp80
a(Vembryo development
p81
I1813
tp82
a(Vprotein maturation
p83
I1792
tp84
a(Vcytoskeletal protein binding
p85
I1783
tp86
a(Vkinase activity
p87
I1726
tp88
a(Vneurological system process
p89
I1725
tp90
a(Vprotein complex assembly
p91
I1653
tp92
a(Vgrowth
p93
I1648
tp94
a(Vsignal transducer activity
p95
I1616
tp96
a(Vcellular amino acid metabolic process
p97
I1545
tp98
a(Vcytoskeleton organization
p99
I1532
tp100
a(VRNA binding
p101
I1448
tp102
a(VGolgi apparatus
p103
I1373
tp104
a(Vmitochondrion
p105
I1284
tp106
a(Vcytoplasmic membrane-bounded vesicle
p107
I1266
tp108
a(Vcytoskeleton
p109
I1264
tp110
a(Vcell adhesion
p111
I1196
tp112
a(Vpeptidase activity
p113
I1173
tp114
a(VATPase activity
p115
I1167
tp116
a(Vlipid binding
p117
I1143
tp118
a(Vcell-cell signaling
p119
I1063
tp120
a(Vendoplasmic reticulum
p121
I1055
tp122
a(Vcell death
p123
I1049
tp124
a(Vcell proliferation
p125
I1003
tp126
a(Vmembrane organization
p127
I1002
tp128
a(Venzyme regulator activity
p129
I975
tp130
a(Vligase activity
p131
I975
tp132
a(Vendosome
p133
I969
tp134
a(Vmicrotubule organizing center
p135
I878
tp136
a(Vnucleoplasm
p137
I851
tp138
a(Vcell morphogenesis
p139
I847
tp140
a(Vtranscription factor binding
p141
I791
tp142
a(Vstructural molecule activity
p143
I787
tp144
a(Vsulfur compound metabolic process
p145
I769
tp146
a(Vprotein binding transcription factor activity
p147
I733
tp148
a(Vextracellular region
p149
I691
tp150
a(Vextracellular matrix organization
p151
I688
tp152
a(Vcofactor metabolic process
p153
I681
tp154
a(Vprotein targeting
p155
I676
tp156
a(Vnucleic acid binding transcription factor activity
p157
I654
tp158
a(Vcilium
p159
I649
tp160
a(Vextracellular space
p161
I617
tp162
a(VmRNA processing
p163
I614
tp164
a(Vtransferase activity, transferring acyl groups
p165
I598
tp166
a(Vgeneration of precursor metabolites and energy
p167
I586
tp168
a(Vvacuole
p169
I583
tp170
a(Vsymbiosis, encompassing mutualism through parasitism
p171
I567
tp172
a(Vcell cycle
p173
I559
tp174
a(Vphosphatase activity
p175
I505
tp176
a(Vlyase activity
p177
I505
tp178
a(Vtransferase activity, transferring glycosyl groups
p179
I471
tp180
a(Vhelicase activity
p181
I466
tp182
a(Vreproduction
p183
I466
tp184
a(Vcell division
p185
I431
tp186
a(Vaging
p187
I405
tp188
a(Vplastid
p189
I394
tp190
a(Vdevelopmental maturation
p191
I388
tp192
a(Vnucleocytoplasmic transport
p193
I386
tp194
a(Vcell junction organization
p195
I371
tp196
a(Vnuclease activity
p197
I370
tp198
a(Vcytoskeleton-dependent intracellular transport
p199
I366
tp200
a(Vmethyltransferase activity
p201
I363
tp202
a(Vprotein folding
p203
I349
tp204
a(Vcirculatory system process
p205
I344
tp206
a(Vmitochondrion organization
p207
I314
tp208
a(Vribonucleoprotein complex assembly
p209
I310
tp210
a(Vlysosome
p211
I304
tp212
a(Vexternal encapsulating structure
p213
I303
tp214
a(Visomerase activity
p215
I296
tp216
a(Vcell wall
p217
I294
tp218
a(VGTPase activity
p219
I288
tp220
a(Vchromosome
p221
I279
tp222
a(Vsecondary metabolic process
p223
I278
tp224
a(Vnucleotidyltransferase activity
p225
I253
tp226
a(Vhistone binding
p227
I251
tp228
a(Vproteinaceous extracellular matrix
p229
I248
tp230
a(VmRNA binding
p231
I248
tp232
a(Vnuclear envelope
p233
I246
tp234
a(Vplasma membrane organization
p235
I244
tp236
a(VtRNA metabolic process
p237
I242
tp238
a(Vhydrolase activity, acting on glycosyl bonds
p239
I226
tp240
a(Vhydrolase activity, acting on carbon-nitrogen (but not peptide) bonds
p241
I225
tp242
a(Vstructural constituent of ribosome
p243
I204
tp244
a(Vcell wall organization or biogenesis
p245
I195
tp246
a(Vmitosis
p247
I189
tp248
a(Vvacuolar transport
p249
I185
tp250
a(Vchromosome segregation
p251
I176
tp252
a(Vunfolded protein binding
p253
I171
tp254
a(Vperoxisome
p255
I157
tp256
a(Vtranslation factor activity, nucleic acid binding
p257
I154
tp258
a(Vprotein binding, bridging
p259
I150
tp260
a(Vsmall conjugating protein binding
p261
I142
tp262
a(Vtranslation
p263
I142
tp264
a(Vlipid particle
p265
I141
tp266
a(Vribosome
p267
I127
tp268
a(Vprotein transporter activity
p269
I120
tp270
a(Vtransferase activity, transferring alkyl or aryl (other than methyl) groups
p271
I112
tp272
a(Vnuclear chromosome
p273
I92
tp274
a(Vintracellular
p275
I81
tp276
a(Vribosome biogenesis
p277
I77
tp278
a(Vpigmentation
p279
I75
tp280
a(VrRNA binding
p281
I69
tp282
a(Vthylakoid
p283
I42
tp284
a(Vnitrogen cycle metabolic process
p285
I37
tp286
a(Vphotosynthesis
p287
I11
tp288
a(Vtransposition
p289
I8
tp290
a(Vcell
p291
I6
tp292
aa(lp293
(g3
L6372L
tp294
a(g5
L4365L
tp295
a(g7
L2787L
tp296
a(g9
L21685L
tp297
a(g11
L26888L
tp298
a(g13
L5491L
tp299
a(g15
L18268L
tp300
a(g17
L5801L
tp301
a(g19
L5613L
tp302
a(g21
L21693L
tp303
a(g23
L22689L
tp304
a(g25
L21630L
tp305
a(g27
L7192L
tp306
a(g29
L5168L
tp307
a(g31
L7190L
tp308
a(g33
L1781L
tp309
a(g35
L13924L
tp310
a(g37
L13633L
tp311
a(g39
L4599L
tp312
a(g41
L5326L
tp313
a(g43
L12968L
tp314
a(g45
L13690L
tp315
a(g47
L20507L
tp316
a(g49
L4644L
tp317
a(g51
L10381L
tp318
a(g53
L4507L
tp319
a(g55
L4995L
tp320
a(g57
L4422L
tp321
a(g59
L26682L
tp322
a(g61
L10598L
tp323
a(g63
L4514L
tp324
a(g65
L21086L
tp325
a(g67
L28228L
tp326
a(g69
L31581L
tp327
a(g71
L4725L
tp328
a(g73
L2790L
tp329
a(g75
L29927L
tp330
a(g77
L26901L
tp331
a(g79
L18282L
tp332
a(g81
L7881L
tp333
a(g83
L28535L
tp334
a(g85
L6320L
tp335
a(g87
L10466L
tp336
a(g89
L27837L
tp337
a(g91
L5165L
tp338
a(g93
L20503L
tp339
a(g95
L3827L
tp340
a(g97
L5218L
tp341
a(g99
L5663L
tp342
a(g101
L2830L
tp343
a(g103
L4567L
tp344
a(g105
L4515L
tp345
a(g107
L10229L
tp346
a(g109
L4621L
tp347
a(g111
L5791L
tp348
a(g113
L6448L
tp349
a(g115
L10963L
tp350
a(g117
L6500L
tp351
a(g119
L5896L
tp352
a(g121
L4556L
tp353
a(g123
L6436L
tp354
a(g125
L6494L
tp355
a(g127
L30984L
tp356
a(g129
L14001L
tp357
a(g131
L10950L
tp358
a(g133
L4542L
tp359
a(g135
L4586L
tp360
a(g137
L4439L
tp361
a(g139
L594L
tp362
a(g141
L6357L
tp363
a(g143
L4118L
tp364
a(g145
L5471L
tp365
a(g147
L677L
tp366
a(g149
L4366L
tp367
a(g151
L13967L
tp368
a(g153
L28144L
tp369
a(g155
L5302L
tp370
a(g157
L759L
tp371
a(g159
L4684L
tp372
a(g161
L4405L
tp373
a(g163
L5112L
tp374
a(g165
L10829L
tp375
a(g167
L4838L
tp376
a(g169
L4546L
tp377
a(g171
L22810L
tp378
a(g173
L5695L
tp379
a(g175
L10870L
tp380
a(g177
L10905L
tp381
a(g179
L10840L
tp382
a(g181
L3404L
tp383
a(g183
L3L
tp384
a(g185
L28251L
tp385
a(g187
L6169L
tp386
a(g189
L7644L
tp387
a(g191
L13274L
tp388
a(g193
L5582L
tp389
a(g195
L17965L
tp390
a(g197
L3518L
tp391
a(g199
L14427L
tp392
a(g201
L6389L
tp393
a(g203
L5161L
tp394
a(g205
L2364L
tp395
a(g207
L5658L
tp396
a(g209
L13644L
tp397
a(g211
L4538L
tp398
a(g213
L14078L
tp399
a(g215
L10929L
tp400
a(g217
L4408L
tp401
a(g219
L2991L
tp402
a(g221
L4475L
tp403
a(g223
L12827L
tp404
a(g225
L10860L
tp405
a(g227
L20900L
tp406
a(g229
L4368L
tp407
a(g231
L2835L
tp408
a(g233
L4423L
tp409
a(g235
L5662L
tp410
a(g237
L5114L
tp411
a(g239
L10876L
tp412
a(g241
L10886L
tp413
a(g243
L2841L
tp414
a(g245
L33137L
tp415
a(g247
L5712L
tp416
a(g249
L5682L
tp417
a(g251
L5705L
tp418
a(g253
L28040L
tp419
a(g255
L4550L
tp420
a(g257
L6358L
tp421
a(g259
L14396L
tp422
a(g261
L15840L
tp423
a(g263
L5126L
tp424
a(g265
L4583L
tp425
a(g267
L4609L
tp426
a(g269
L6747L
tp427
a(g271
L10848L
tp428
a(g273
L201L
tp429
a(g275
L4411L
tp430
a(g277
L20770L
tp431
a(g279
L21900L
tp432
a(g281
L12918L
tp433
a(g283
L7683L
tp434
a(g285
L33512L
tp435
a(g287
L10192L
tp436
a(g289
L15852L
tp437
a(g291
L4412L
tp438
aaI595664
a.