(lp1
(lp2
(Vbiological_process
p3
I206825
tp4
a(Vcellular_component
p5
I64905
tp6
a(Vmolecular_function
p7
I51651
tp8
a(Vorganelle
p9
I17133
tp10
a(Vanatomical structure development
p11
I16313
tp12
a(Vtransport
p13
I11117
tp14
a(Vsignal transduction
p15
I9703
tp16
a(Vcellular nitrogen compound metabolic process
p17
I7863
tp18
a(Vresponse to stress
p19
I7291
tp20
a(Vprotein complex
p21
I6892
tp22
a(Vion binding
p23
I5961
tp24
a(Vsmall molecule metabolic process
p25
I5806
tp26
a(Vbiosynthetic process
p27
I5459
tp28
a(Vcellular protein modification process
p29
I4714
tp30
a(Vimmune system process
p31
I4037
tp32
a(Vcatabolic process
p33
I3946
tp34
a(Vcell differentiation
p35
I3849
tp36
a(Vcellular component assembly
p37
I3033
tp38
a(Vcytosol
p39
I2753
tp40
a(Vlipid metabolic process
p41
I2728
tp42
a(Venzyme binding
p43
I2694
tp44
a(Vlocomotion
p45
I2454
tp46
a(Vtransmembrane transporter activity
p47
I2411
tp48
a(Vplasma membrane
p49
I2369
tp50
a(Vanatomical structure formation involved in morphogenesis
p51
I2301
tp52
a(Vnucleus
p53
I2202
tp54
a(Vsignal transducer activity
p55
I2177
tp56
a(Vvesicle-mediated transport
p57
I2130
tp58
a(Vnucleolus
p59
I2113
tp60
a(Vhomeostatic process
p61
I2015
tp62
a(VDNA binding
p63
I1931
tp64
a(Vcytoplasm
p65
I1812
tp66
a(VDNA metabolic process
p67
I1793
tp68
a(Vneurological system process
p69
I1791
tp70
a(Vcell motility
p71
I1755
tp72
a(Vtransmembrane transport
p73
I1725
tp74
a(Vmacromolecular complex assembly
p75
I1708
tp76
a(Vchromosome organization
p77
I1689
tp78
a(Voxidoreductase activity
p79
I1587
tp80
a(Vgrowth
p81
I1552
tp82
a(Vcarbohydrate metabolic process
p83
I1535
tp84
a(Vembryo development
p85
I1533
tp86
a(Vprotein maturation
p87
I1515
tp88
a(Vcell-cell signaling
p89
I1457
tp90
a(Vcytoskeletal protein binding
p91
I1436
tp92
a(Vprotein complex assembly
p93
I1434
tp94
a(Vkinase activity
p95
I1288
tp96
a(Vnucleobase-containing compound catabolic process
p97
I1277
tp98
a(Vcytoskeleton organization
p99
I1232
tp100
a(Vcytoplasmic membrane-bounded vesicle
p101
I1217
tp102
a(VGolgi apparatus
p103
I1113
tp104
a(Vlipid binding
p105
I1083
tp106
a(VRNA binding
p107
I1081
tp108
a(Vmitochondrion
p109
I1070
tp110
a(Vcell adhesion
p111
I1055
tp112
a(Vcytoskeleton
p113
I1029
tp114
a(Vendoplasmic reticulum
p115
I999
tp116
a(Vcellular amino acid metabolic process
p117
I991
tp118
a(Vpeptidase activity
p119
I980
tp120
a(Vcell proliferation
p121
I962
tp122
a(Vcell death
p123
I947
tp124
a(Vendosome
p125
I899
tp126
a(Vmembrane organization
p127
I896
tp128
a(Vnucleic acid binding transcription factor activity
p129
I844
tp130
a(Venzyme regulator activity
p131
I835
tp132
a(Vcell morphogenesis
p133
I828
tp134
a(Vtranscription factor binding
p135
I803
tp136
a(Vligase activity
p137
I797
tp138
a(Vprotein binding transcription factor activity
p139
I784
tp140
a(Vmicrotubule organizing center
p141
I763
tp142
a(Vnucleoplasm
p143
I752
tp144
a(Vextracellular region
p145
I685
tp146
a(VATPase activity
p147
I658
tp148
a(Vsulfur compound metabolic process
p149
I644
tp150
a(Vextracellular space
p151
I625
tp152
a(Vstructural molecule activity
p153
I616
tp154
a(Vextracellular matrix organization
p155
I560
tp156
a(Vcirculatory system process
p157
I556
tp158
a(Vvacuole
p159
I546
tp160
a(Vprotein targeting
p161
I540
tp162
a(Vcilium
p163
I521
tp164
a(Vtransferase activity, transferring acyl groups
p165
I504
tp166
a(Vcofactor metabolic process
p167
I501
tp168
a(Vsymbiosis, encompassing mutualism through parasitism
p169
I473
tp170
a(VmRNA processing
p171
I458
tp172
a(Vphosphatase activity
p173
I446
tp174
a(Vcell cycle
p175
I437
tp176
a(Vgeneration of precursor metabolites and energy
p177
I427
tp178
a(Vtransferase activity, transferring glycosyl groups
p179
I412
tp180
a(Vreproduction
p181
I388
tp182
a(Vcell division
p183
I368
tp184
a(Vaging
p185
I364
tp186
a(Vcell junction organization
p187
I340
tp188
a(Vnucleocytoplasmic transport
p189
I338
tp190
a(Vdevelopmental maturation
p191
I335
tp192
a(Vlysosome
p193
I323
tp194
a(Vmethyltransferase activity
p195
I306
tp196
a(Vlyase activity
p197
I294
tp198
a(Vprotein folding
p199
I281
tp200
a(Vplastid
p201
I277
tp202
a(Vmitochondrion organization
p203
I277
tp204
a(Vhelicase activity
p205
I273
tp206
a(Vcytoskeleton-dependent intracellular transport
p207
I268
tp208
a(Vnuclease activity
p209
I265
tp210
a(Vchromosome
p211
I258
tp212
a(VGTPase activity
p213
I241
tp214
a(Vsecondary metabolic process
p215
I235
tp216
a(Vproteinaceous extracellular matrix
p217
I226
tp218
a(Vribonucleoprotein complex assembly
p219
I224
tp220
a(Vplasma membrane organization
p221
I223
tp222
a(Vhistone binding
p223
I219
tp224
a(Vexternal encapsulating structure
p225
I196
tp226
a(Visomerase activity
p227
I192
tp228
a(Vcell wall
p229
I188
tp230
a(VmRNA binding
p231
I186
tp232
a(Vhydrolase activity, acting on carbon-nitrogen (but not peptide) bonds
p233
I183
tp234
a(Vnuclear envelope
p235
I182
tp236
a(Vhydrolase activity, acting on glycosyl bonds
p237
I176
tp238
a(Vmitosis
p239
I166
tp240
a(Vvacuolar transport
p241
I156
tp242
a(Vcell wall organization or biogenesis
p243
I154
tp244
a(Vnucleotidyltransferase activity
p245
I150
tp246
a(Vchromosome segregation
p247
I150
tp248
a(Vprotein binding, bridging
p249
I149
tp250
a(Vperoxisome
p251
I138
tp252
a(Vunfolded protein binding
p253
I132
tp254
a(VtRNA metabolic process
p255
I126
tp256
a(Vsmall conjugating protein binding
p257
I123
tp258
a(Vlipid particle
p259
I119
tp260
a(Vstructural constituent of ribosome
p261
I113
tp262
a(Vtranslation factor activity, nucleic acid binding
p263
I111
tp264
a(Vribosome
p265
I103
tp266
a(Vtranslation
p267
I102
tp268
a(Vtransferase activity, transferring alkyl or aryl (other than methyl) groups
p269
I93
tp270
a(Vprotein transporter activity
p271
I88
tp272
a(Vintracellular
p273
I81
tp274
a(Vnuclear chromosome
p275
I77
tp276
a(Vpigmentation
p277
I70
tp278
a(Vribosome biogenesis
p279
I60
tp280
a(VrRNA binding
p281
I41
tp282
a(Vthylakoid
p283
I27
tp284
a(Vnitrogen cycle metabolic process
p285
I13
tp286
a(Vtransposition
p287
I7
tp288
a(Vcell
p289
I4
tp290
a(Vphotosynthesis
p291
I4
tp292
aa(lp293
(g3
L6372L
tp294
a(g5
L4365L
tp295
a(g7
L2787L
tp296
a(g9
L21685L
tp297
a(g11
L26888L
tp298
a(g13
L5491L
tp299
a(g15
L5801L
tp300
a(g17
L18268L
tp301
a(g19
L5613L
tp302
a(g21
L21693L
tp303
a(g23
L21630L
tp304
a(g25
L22689L
tp305
a(g27
L7192L
tp306
a(g29
L5168L
tp307
a(g31
L1781L
tp308
a(g33
L7190L
tp309
a(g35
L13924L
tp310
a(g37
L13633L
tp311
a(g39
L4599L
tp312
a(g41
L5326L
tp313
a(g43
L12968L
tp314
a(g45
L20507L
tp315
a(g47
L13690L
tp316
a(g49
L4644L
tp317
a(g51
L26682L
tp318
a(g53
L4422L
tp319
a(g55
L3827L
tp320
a(g57
L10381L
tp321
a(g59
L4507L
tp322
a(g61
L21086L
tp323
a(g63
L2790L
tp324
a(g65
L4514L
tp325
a(g67
L4995L
tp326
a(g69
L27837L
tp327
a(g71
L26901L
tp328
a(g73
L29927L
tp329
a(g75
L31581L
tp330
a(g77
L28228L
tp331
a(g79
L10598L
tp332
a(g81
L20503L
tp333
a(g83
L4725L
tp334
a(g85
L7881L
tp335
a(g87
L28535L
tp336
a(g89
L5896L
tp337
a(g91
L6320L
tp338
a(g93
L5165L
tp339
a(g95
L10466L
tp340
a(g97
L18282L
tp341
a(g99
L5663L
tp342
a(g101
L10229L
tp343
a(g103
L4567L
tp344
a(g105
L6500L
tp345
a(g107
L2830L
tp346
a(g109
L4515L
tp347
a(g111
L5791L
tp348
a(g113
L4621L
tp349
a(g115
L4556L
tp350
a(g117
L5218L
tp351
a(g119
L6448L
tp352
a(g121
L6494L
tp353
a(g123
L6436L
tp354
a(g125
L4542L
tp355
a(g127
L30984L
tp356
a(g129
L759L
tp357
a(g131
L14001L
tp358
a(g133
L594L
tp359
a(g135
L6357L
tp360
a(g137
L10950L
tp361
a(g139
L677L
tp362
a(g141
L4586L
tp363
a(g143
L4439L
tp364
a(g145
L4366L
tp365
a(g147
L10963L
tp366
a(g149
L5471L
tp367
a(g151
L4405L
tp368
a(g153
L4118L
tp369
a(g155
L13967L
tp370
a(g157
L2364L
tp371
a(g159
L4546L
tp372
a(g161
L5302L
tp373
a(g163
L4684L
tp374
a(g165
L10829L
tp375
a(g167
L28144L
tp376
a(g169
L22810L
tp377
a(g171
L5112L
tp378
a(g173
L10870L
tp379
a(g175
L5695L
tp380
a(g177
L4838L
tp381
a(g179
L10840L
tp382
a(g181
L3L
tp383
a(g183
L28251L
tp384
a(g185
L6169L
tp385
a(g187
L17965L
tp386
a(g189
L5582L
tp387
a(g191
L13274L
tp388
a(g193
L4538L
tp389
a(g195
L6389L
tp390
a(g197
L10905L
tp391
a(g199
L5161L
tp392
a(g201
L7644L
tp393
a(g203
L5658L
tp394
a(g205
L3404L
tp395
a(g207
L14427L
tp396
a(g209
L3518L
tp397
a(g211
L4475L
tp398
a(g213
L2991L
tp399
a(g215
L12827L
tp400
a(g217
L4368L
tp401
a(g219
L13644L
tp402
a(g221
L5662L
tp403
a(g223
L20900L
tp404
a(g225
L14078L
tp405
a(g227
L10929L
tp406
a(g229
L4408L
tp407
a(g231
L2835L
tp408
a(g233
L10886L
tp409
a(g235
L4423L
tp410
a(g237
L10876L
tp411
a(g239
L5712L
tp412
a(g241
L5682L
tp413
a(g243
L33137L
tp414
a(g245
L10860L
tp415
a(g247
L5705L
tp416
a(g249
L14396L
tp417
a(g251
L4550L
tp418
a(g253
L28040L
tp419
a(g255
L5114L
tp420
a(g257
L15840L
tp421
a(g259
L4583L
tp422
a(g261
L2841L
tp423
a(g263
L6358L
tp424
a(g265
L4609L
tp425
a(g267
L5126L
tp426
a(g269
L10848L
tp427
a(g271
L6747L
tp428
a(g273
L4411L
tp429
a(g275
L201L
tp430
a(g277
L21900L
tp431
a(g279
L20770L
tp432
a(g281
L12918L
tp433
a(g283
L7683L
tp434
a(g285
L33512L
tp435
a(g287
L15852L
tp436
a(g289
L4412L
tp437
a(g291
L10192L
tp438
aaI535415
a.