(lp1
(lp2
(Vbiological_process
p3
I141356
tp4
a(Vcellular_component
p5
I47484
tp6
a(Vmolecular_function
p7
I38046
tp8
a(Vorganelle
p9
I12851
tp10
a(Vanatomical structure development
p11
I10290
tp12
a(Vtransport
p13
I7966
tp14
a(Vcellular nitrogen compound metabolic process
p15
I7090
tp16
a(Vsignal transduction
p17
I6421
tp18
a(Vprotein complex
p19
I5636
tp20
a(Vresponse to stress
p21
I5336
tp22
a(Vsmall molecule metabolic process
p23
I5284
tp24
a(Vbiosynthetic process
p25
I5141
tp26
a(Vion binding
p27
I4414
tp28
a(Vcellular protein modification process
p29
I3694
tp30
a(Vcatabolic process
p31
I3620
tp32
a(Vimmune system process
p33
I2801
tp34
a(Vlipid metabolic process
p35
I2514
tp36
a(Vcell differentiation
p37
I2425
tp38
a(Vcytosol
p39
I2405
tp40
a(Vcellular component assembly
p41
I2333
tp42
a(Venzyme binding
p43
I1937
tp44
a(Vnucleolus
p45
I1680
tp46
a(Voxidoreductase activity
p47
I1665
tp48
a(Vplasma membrane
p49
I1653
tp50
a(Vvesicle-mediated transport
p51
I1630
tp52
a(Vnucleus
p53
I1627
tp54
a(Vlocomotion
p55
I1549
tp56
a(Vchromosome organization
p57
I1542
tp58
a(Vtransmembrane transporter activity
p59
I1499
tp60
a(VDNA metabolic process
p61
I1497
tp62
a(Vanatomical structure formation involved in morphogenesis
p63
I1460
tp64
a(Vcarbohydrate metabolic process
p65
I1391
tp66
a(Vmacromolecular complex assembly
p67
I1357
tp68
a(Vhomeostatic process
p69
I1353
tp70
a(VDNA binding
p71
I1348
tp72
a(Vembryo development
p73
I1281
tp74
a(Vsignal transducer activity
p75
I1280
tp76
a(Vcytoplasm
p77
I1278
tp78
a(Vnucleobase-containing compound catabolic process
p79
I1211
tp80
a(Vgrowth
p81
I1168
tp82
a(Vtransmembrane transport
p83
I1164
tp84
a(Vprotein complex assembly
p85
I1089
tp86
a(Vprotein maturation
p87
I1078
tp88
a(VRNA binding
p89
I1056
tp90
a(Vcytoskeleton organization
p91
I1035
tp92
a(Vmitochondrion
p93
I1032
tp94
a(Vcytoskeletal protein binding
p95
I1026
tp96
a(Vcell motility
p97
I1009
tp98
a(Vneurological system process
p99
I1000
tp100
a(Vcellular amino acid metabolic process
p101
I964
tp102
a(Vkinase activity
p103
I933
tp104
a(Vcytoplasmic membrane-bounded vesicle
p105
I865
tp106
a(Vcell-cell signaling
p107
I829
tp108
a(Vendoplasmic reticulum
p109
I805
tp110
a(VGolgi apparatus
p111
I775
tp112
a(Vlipid binding
p113
I739
tp114
a(Vcell death
p115
I726
tp116
a(Vpeptidase activity
p117
I698
tp118
a(Vcytoskeleton
p119
I693
tp120
a(Venzyme regulator activity
p121
I682
tp122
a(Vendosome
p123
I653
tp124
a(Vnucleoplasm
p125
I650
tp126
a(Vmembrane organization
p127
I638
tp128
a(Vmicrotubule organizing center
p129
I636
tp130
a(Vtranscription factor binding
p131
I621
tp132
a(Vligase activity
p133
I595
tp134
a(Vcell proliferation
p135
I595
tp136
a(Vprotein binding transcription factor activity
p137
I578
tp138
a(VATPase activity
p139
I547
tp140
a(Vcell adhesion
p141
I533
tp142
a(Vnucleic acid binding transcription factor activity
p143
I526
tp144
a(Vcell morphogenesis
p145
I522
tp146
a(Vstructural molecule activity
p147
I512
tp148
a(Vprotein targeting
p149
I509
tp150
a(Vcofactor metabolic process
p151
I486
tp152
a(Vextracellular region
p153
I463
tp154
a(Vtransferase activity, transferring acyl groups
p155
I463
tp156
a(Vgeneration of precursor metabolites and energy
p157
I458
tp158
a(Vsulfur compound metabolic process
p159
I457
tp160
a(VmRNA processing
p161
I433
tp162
a(Vcell cycle
p163
I431
tp164
a(Vcilium
p165
I426
tp166
a(Vsymbiosis, encompassing mutualism through parasitism
p167
I417
tp168
a(Vtransferase activity, transferring glycosyl groups
p169
I402
tp170
a(Vphosphatase activity
p171
I384
tp172
a(Vvacuole
p173
I372
tp174
a(Vreproduction
p175
I352
tp176
a(Vlyase activity
p177
I312
tp178
a(Vcell division
p179
I302
tp180
a(Vextracellular space
p181
I298
tp182
a(Vplastid
p183
I278
tp184
a(Vprotein folding
p185
I276
tp186
a(Vextracellular matrix organization
p187
I275
tp188
a(Vnucleocytoplasmic transport
p189
I266
tp190
a(Vcirculatory system process
p191
I266
tp192
a(Vmethyltransferase activity
p193
I258
tp194
a(Vcytoskeleton-dependent intracellular transport
p195
I256
tp196
a(Vcell junction organization
p197
I252
tp198
a(Vmitochondrion organization
p199
I240
tp200
a(Vaging
p201
I239
tp202
a(VGTPase activity
p203
I232
tp204
a(Vsecondary metabolic process
p205
I229
tp206
a(Vnuclease activity
p207
I224
tp208
a(Vchromosome
p209
I223
tp210
a(Vribonucleoprotein complex assembly
p211
I215
tp212
a(Vdevelopmental maturation
p213
I196
tp214
a(Vexternal encapsulating structure
p215
I196
tp216
a(Vlysosome
p217
I194
tp218
a(Vcell wall
p219
I194
tp220
a(Vhelicase activity
p221
I192
tp222
a(Visomerase activity
p223
I187
tp224
a(Vstructural constituent of ribosome
p225
I187
tp226
a(Vnuclear envelope
p227
I184
tp228
a(VmRNA binding
p229
I184
tp230
a(Vhistone binding
p231
I181
tp232
a(VtRNA metabolic process
p233
I160
tp234
a(Vcell wall organization or biogenesis
p235
I155
tp236
a(Vvacuolar transport
p237
I147
tp238
a(Vhydrolase activity, acting on carbon-nitrogen (but not peptide) bonds
p239
I147
tp240
a(Vnucleotidyltransferase activity
p241
I144
tp242
a(Vmitosis
p243
I142
tp244
a(Vchromosome segregation
p245
I135
tp246
a(Vplasma membrane organization
p247
I129
tp248
a(Vunfolded protein binding
p249
I126
tp250
a(Vtranslation factor activity, nucleic acid binding
p251
I122
tp252
a(Vhydrolase activity, acting on glycosyl bonds
p253
I119
tp254
a(Vperoxisome
p255
I119
tp256
a(Vtranslation
p257
I119
tp258
a(Vlipid particle
p259
I110
tp260
a(Vsmall conjugating protein binding
p261
I102
tp262
a(Vribosome
p263
I96
tp264
a(Vtransferase activity, transferring alkyl or aryl (other than methyl) groups
p265
I91
tp266
a(Vprotein binding, bridging
p267
I83
tp268
a(Vribosome biogenesis
p269
I71
tp270
a(Vproteinaceous extracellular matrix
p271
I70
tp272
a(Vnuclear chromosome
p273
I70
tp274
a(Vprotein transporter activity
p275
I69
tp276
a(Vintracellular
p277
I58
tp278
a(VrRNA binding
p279
I49
tp280
a(Vpigmentation
p281
I44
tp282
a(Vthylakoid
p283
I28
tp284
a(Vnitrogen cycle metabolic process
p285
I15
tp286
a(Vphotosynthesis
p287
I6
tp288
a(Vcell
p289
I3
tp290
a(Vtransposition
p291
I3
tp292
a(VRNA modification guide activity
p293
I2
tp294
aa(lp295
(g3
L6372L
tp296
a(g5
L4365L
tp297
a(g7
L2787L
tp298
a(g9
L21685L
tp299
a(g11
L26888L
tp300
a(g13
L5491L
tp301
a(g15
L18268L
tp302
a(g17
L5801L
tp303
a(g19
L21693L
tp304
a(g21
L5613L
tp305
a(g23
L22689L
tp306
a(g25
L7192L
tp307
a(g27
L21630L
tp308
a(g29
L5168L
tp309
a(g31
L7190L
tp310
a(g33
L1781L
tp311
a(g35
L5326L
tp312
a(g37
L13924L
tp313
a(g39
L4599L
tp314
a(g41
L13633L
tp315
a(g43
L12968L
tp316
a(g45
L4507L
tp317
a(g47
L10598L
tp318
a(g49
L4644L
tp319
a(g51
L10381L
tp320
a(g53
L4422L
tp321
a(g55
L20507L
tp322
a(g57
L28228L
tp323
a(g59
L13690L
tp324
a(g61
L4995L
tp325
a(g63
L26682L
tp326
a(g65
L4725L
tp327
a(g67
L31581L
tp328
a(g69
L21086L
tp329
a(g71
L2790L
tp330
a(g73
L7881L
tp331
a(g75
L3827L
tp332
a(g77
L4514L
tp333
a(g79
L18282L
tp334
a(g81
L20503L
tp335
a(g83
L29927L
tp336
a(g85
L5165L
tp337
a(g87
L28535L
tp338
a(g89
L2830L
tp339
a(g91
L5663L
tp340
a(g93
L4515L
tp341
a(g95
L6320L
tp342
a(g97
L26901L
tp343
a(g99
L27837L
tp344
a(g101
L5218L
tp345
a(g103
L10466L
tp346
a(g105
L10229L
tp347
a(g107
L5896L
tp348
a(g109
L4556L
tp349
a(g111
L4567L
tp350
a(g113
L6500L
tp351
a(g115
L6436L
tp352
a(g117
L6448L
tp353
a(g119
L4621L
tp354
a(g121
L14001L
tp355
a(g123
L4542L
tp356
a(g125
L4439L
tp357
a(g127
L30984L
tp358
a(g129
L4586L
tp359
a(g131
L6357L
tp360
a(g133
L10950L
tp361
a(g135
L6494L
tp362
a(g137
L677L
tp363
a(g139
L10963L
tp364
a(g141
L5791L
tp365
a(g143
L759L
tp366
a(g145
L594L
tp367
a(g147
L4118L
tp368
a(g149
L5302L
tp369
a(g151
L28144L
tp370
a(g153
L4366L
tp371
a(g155
L10829L
tp372
a(g157
L4838L
tp373
a(g159
L5471L
tp374
a(g161
L5112L
tp375
a(g163
L5695L
tp376
a(g165
L4684L
tp377
a(g167
L22810L
tp378
a(g169
L10840L
tp379
a(g171
L10870L
tp380
a(g173
L4546L
tp381
a(g175
L3L
tp382
a(g177
L10905L
tp383
a(g179
L28251L
tp384
a(g181
L4405L
tp385
a(g183
L7644L
tp386
a(g185
L5161L
tp387
a(g187
L13967L
tp388
a(g189
L5582L
tp389
a(g191
L2364L
tp390
a(g193
L6389L
tp391
a(g195
L14427L
tp392
a(g197
L17965L
tp393
a(g199
L5658L
tp394
a(g201
L6169L
tp395
a(g203
L2991L
tp396
a(g205
L12827L
tp397
a(g207
L3518L
tp398
a(g209
L4475L
tp399
a(g211
L13644L
tp400
a(g213
L13274L
tp401
a(g215
L14078L
tp402
a(g217
L4538L
tp403
a(g219
L4408L
tp404
a(g221
L3404L
tp405
a(g223
L10929L
tp406
a(g225
L2841L
tp407
a(g227
L4423L
tp408
a(g229
L2835L
tp409
a(g231
L20900L
tp410
a(g233
L5114L
tp411
a(g235
L33137L
tp412
a(g237
L5682L
tp413
a(g239
L10886L
tp414
a(g241
L10860L
tp415
a(g243
L5712L
tp416
a(g245
L5705L
tp417
a(g247
L5662L
tp418
a(g249
L28040L
tp419
a(g251
L6358L
tp420
a(g253
L10876L
tp421
a(g255
L4550L
tp422
a(g257
L5126L
tp423
a(g259
L4583L
tp424
a(g261
L15840L
tp425
a(g263
L4609L
tp426
a(g265
L10848L
tp427
a(g267
L14396L
tp428
a(g269
L20770L
tp429
a(g271
L4368L
tp430
a(g273
L201L
tp431
a(g275
L6747L
tp432
a(g277
L4411L
tp433
a(g279
L12918L
tp434
a(g281
L21900L
tp435
a(g283
L7683L
tp436
a(g285
L33512L
tp437
a(g287
L10192L
tp438
a(g289
L4412L
tp439
a(g291
L15852L
tp440
a(g293
L14288L
tp441
aaI387640
a.