(lp1
(lp2
(Vbiological_process
p3
I159391
tp4
a(Vcellular_component
p5
I55472
tp6
a(Vmolecular_function
p7
I45839
tp8
a(Vorganelle
p9
I14875
tp10
a(Vanatomical structure development
p11
I11916
tp12
a(Vtransport
p13
I9044
tp14
a(Vcellular nitrogen compound metabolic process
p15
I8189
tp16
a(Vsignal transduction
p17
I7340
tp18
a(Vprotein complex
p19
I7072
tp20
a(Vresponse to stress
p21
I6089
tp22
a(Vion binding
p23
I5892
tp24
a(Vsmall molecule metabolic process
p25
I5666
tp26
a(Vbiosynthetic process
p27
I5194
tp28
a(Vcellular protein modification process
p29
I4259
tp30
a(Vcatabolic process
p31
I4126
tp32
a(Vimmune system process
p33
I3432
tp34
a(Vcytosol
p35
I3069
tp36
a(Vcellular component assembly
p37
I3014
tp38
a(Vcell differentiation
p39
I2808
tp40
a(Venzyme binding
p41
I2557
tp42
a(Vlipid metabolic process
p43
I2509
tp44
a(Vnucleolus
p45
I2140
tp46
a(Vvesicle-mediated transport
p47
I2084
tp48
a(Vlocomotion
p49
I2032
tp50
a(Vplasma membrane
p51
I1973
tp52
a(VDNA metabolic process
p53
I1933
tp54
a(Vanatomical structure formation involved in morphogenesis
p55
I1907
tp56
a(Vnucleus
p57
I1849
tp58
a(Vchromosome organization
p59
I1764
tp60
a(Vmacromolecular complex assembly
p61
I1745
tp62
a(Vtransmembrane transporter activity
p63
I1698
tp64
a(VDNA binding
p65
I1660
tp66
a(Vhomeostatic process
p67
I1605
tp68
a(Vcarbohydrate metabolic process
p69
I1562
tp70
a(Vembryo development
p71
I1546
tp72
a(Voxidoreductase activity
p73
I1539
tp74
a(Vnucleobase-containing compound catabolic process
p75
I1456
tp76
a(Vcytoplasm
p77
I1444
tp78
a(Vcell motility
p79
I1438
tp80
a(Vprotein complex assembly
p81
I1408
tp82
a(Vcytoskeletal protein binding
p83
I1399
tp84
a(Vprotein maturation
p85
I1381
tp86
a(Vtransmembrane transport
p87
I1365
tp88
a(Vcytoskeleton organization
p89
I1344
tp90
a(Vgrowth
p91
I1307
tp92
a(VRNA binding
p93
I1234
tp94
a(Vneurological system process
p95
I1221
tp96
a(Vsignal transducer activity
p97
I1139
tp98
a(Vkinase activity
p99
I1100
tp100
a(Vmitochondrion
p101
I1099
tp102
a(Vcellular amino acid metabolic process
p103
I1054
tp104
a(Vcytoplasmic membrane-bounded vesicle
p105
I1053
tp106
a(VGolgi apparatus
p107
I1038
tp108
a(Vlipid binding
p109
I999
tp110
a(Vcytoskeleton
p111
I904
tp112
a(Vendoplasmic reticulum
p113
I896
tp114
a(Venzyme regulator activity
p115
I876
tp116
a(Vmembrane organization
p117
I851
tp118
a(Vnucleoplasm
p119
I834
tp120
a(Vpeptidase activity
p121
I818
tp122
a(Vcell-cell signaling
p123
I817
tp124
a(VATPase activity
p125
I810
tp126
a(Vcell proliferation
p127
I810
tp128
a(Vligase activity
p129
I809
tp130
a(Vcell death
p131
I801
tp132
a(Vendosome
p133
I796
tp134
a(Vcell adhesion
p135
I791
tp136
a(Vmicrotubule organizing center
p137
I787
tp138
a(Vtranscription factor binding
p139
I747
tp140
a(Vprotein binding transcription factor activity
p141
I739
tp142
a(Vstructural molecule activity
p143
I709
tp144
a(Vnucleic acid binding transcription factor activity
p145
I648
tp146
a(Vcell morphogenesis
p147
I646
tp148
a(Vprotein targeting
p149
I642
tp150
a(Vsulfur compound metabolic process
p151
I572
tp152
a(Vcofactor metabolic process
p153
I553
tp154
a(VmRNA processing
p155
I532
tp156
a(Vextracellular region
p157
I517
tp158
a(Vsymbiosis, encompassing mutualism through parasitism
p159
I507
tp160
a(Vgeneration of precursor metabolites and energy
p161
I494
tp162
a(Vtransferase activity, transferring acyl groups
p163
I472
tp164
a(Vextracellular space
p165
I467
tp166
a(Vvacuole
p167
I444
tp168
a(Vextracellular matrix organization
p169
I442
tp170
a(Vphosphatase activity
p171
I419
tp172
a(Vcilium
p173
I407
tp174
a(Vnucleocytoplasmic transport
p175
I370
tp176
a(Vcell junction organization
p177
I367
tp178
a(Vreproduction
p179
I355
tp180
a(Vcell cycle
p181
I354
tp182
a(Vaging
p183
I336
tp184
a(Vprotein folding
p185
I335
tp186
a(Vtransferase activity, transferring glycosyl groups
p187
I333
tp188
a(Vplastid
p189
I319
tp190
a(Vcell division
p191
I310
tp192
a(Vlyase activity
p193
I307
tp194
a(Vhelicase activity
p195
I306
tp196
a(Vcytoskeleton-dependent intracellular transport
p197
I304
tp198
a(Vdevelopmental maturation
p199
I296
tp200
a(Vribonucleoprotein complex assembly
p201
I286
tp202
a(Vmethyltransferase activity
p203
I275
tp204
a(Vmitochondrion organization
p205
I268
tp206
a(Vcirculatory system process
p207
I260
tp208
a(Vlysosome
p209
I249
tp210
a(Vnuclease activity
p211
I247
tp212
a(Vchromosome
p213
I246
tp214
a(VGTPase activity
p215
I245
tp216
a(Vsecondary metabolic process
p217
I240
tp218
a(Visomerase activity
p219
I233
tp220
a(Vhistone binding
p221
I232
tp222
a(Vexternal encapsulating structure
p223
I229
tp224
a(VmRNA binding
p225
I228
tp226
a(Vcell wall
p227
I223
tp228
a(Vnucleotidyltransferase activity
p229
I200
tp230
a(Vvacuolar transport
p231
I190
tp232
a(Vnuclear envelope
p233
I188
tp234
a(Vstructural constituent of ribosome
p235
I184
tp236
a(Vhydrolase activity, acting on carbon-nitrogen (but not peptide) bonds
p237
I175
tp238
a(Vmitosis
p239
I170
tp240
a(VtRNA metabolic process
p241
I168
tp242
a(Vcell wall organization or biogenesis
p243
I163
tp244
a(Vunfolded protein binding
p245
I162
tp246
a(Vchromosome segregation
p247
I160
tp248
a(Vplasma membrane organization
p249
I160
tp250
a(Vtranslation factor activity, nucleic acid binding
p251
I152
tp252
a(Vprotein binding, bridging
p253
I132
tp254
a(Vlipid particle
p255
I132
tp256
a(Vperoxisome
p257
I128
tp258
a(Vsmall conjugating protein binding
p259
I128
tp260
a(Vhydrolase activity, acting on glycosyl bonds
p261
I123
tp262
a(Vtranslation
p263
I122
tp264
a(Vproteinaceous extracellular matrix
p265
I113
tp266
a(Vribosome
p267
I109
tp268
a(Vprotein transporter activity
p269
I102
tp270
a(Vnuclear chromosome
p271
I85
tp272
a(Vtransferase activity, transferring alkyl or aryl (other than methyl) groups
p273
I80
tp274
a(Vribosome biogenesis
p275
I74
tp276
a(Vpigmentation
p277
I62
tp278
a(Vintracellular
p279
I56
tp280
a(VrRNA binding
p281
I42
tp282
a(Vthylakoid
p283
I29
tp284
a(Vnitrogen cycle metabolic process
p285
I28
tp286
a(Vtransposition
p287
I23
tp288
a(Vcell
p289
I6
tp290
a(Vphotosynthesis
p291
I4
tp292
aa(lp293
(g3
L6372L
tp294
a(g5
L4365L
tp295
a(g7
L2787L
tp296
a(g9
L21685L
tp297
a(g11
L26888L
tp298
a(g13
L5491L
tp299
a(g15
L18268L
tp300
a(g17
L5801L
tp301
a(g19
L21693L
tp302
a(g21
L5613L
tp303
a(g23
L21630L
tp304
a(g25
L22689L
tp305
a(g27
L7192L
tp306
a(g29
L5168L
tp307
a(g31
L7190L
tp308
a(g33
L1781L
tp309
a(g35
L4599L
tp310
a(g37
L13633L
tp311
a(g39
L13924L
tp312
a(g41
L12968L
tp313
a(g43
L5326L
tp314
a(g45
L4507L
tp315
a(g47
L10381L
tp316
a(g49
L20507L
tp317
a(g51
L4644L
tp318
a(g53
L4995L
tp319
a(g55
L26682L
tp320
a(g57
L4422L
tp321
a(g59
L28228L
tp322
a(g61
L31581L
tp323
a(g63
L13690L
tp324
a(g65
L2790L
tp325
a(g67
L21086L
tp326
a(g69
L4725L
tp327
a(g71
L7881L
tp328
a(g73
L10598L
tp329
a(g75
L18282L
tp330
a(g77
L4514L
tp331
a(g79
L26901L
tp332
a(g81
L5165L
tp333
a(g83
L6320L
tp334
a(g85
L28535L
tp335
a(g87
L29927L
tp336
a(g89
L5663L
tp337
a(g91
L20503L
tp338
a(g93
L2830L
tp339
a(g95
L27837L
tp340
a(g97
L3827L
tp341
a(g99
L10466L
tp342
a(g101
L4515L
tp343
a(g103
L5218L
tp344
a(g105
L10229L
tp345
a(g107
L4567L
tp346
a(g109
L6500L
tp347
a(g111
L4621L
tp348
a(g113
L4556L
tp349
a(g115
L14001L
tp350
a(g117
L30984L
tp351
a(g119
L4439L
tp352
a(g121
L6448L
tp353
a(g123
L5896L
tp354
a(g125
L10963L
tp355
a(g127
L6494L
tp356
a(g129
L10950L
tp357
a(g131
L6436L
tp358
a(g133
L4542L
tp359
a(g135
L5791L
tp360
a(g137
L4586L
tp361
a(g139
L6357L
tp362
a(g141
L677L
tp363
a(g143
L4118L
tp364
a(g145
L759L
tp365
a(g147
L594L
tp366
a(g149
L5302L
tp367
a(g151
L5471L
tp368
a(g153
L28144L
tp369
a(g155
L5112L
tp370
a(g157
L4366L
tp371
a(g159
L22810L
tp372
a(g161
L4838L
tp373
a(g163
L10829L
tp374
a(g165
L4405L
tp375
a(g167
L4546L
tp376
a(g169
L13967L
tp377
a(g171
L10870L
tp378
a(g173
L4684L
tp379
a(g175
L5582L
tp380
a(g177
L17965L
tp381
a(g179
L3L
tp382
a(g181
L5695L
tp383
a(g183
L6169L
tp384
a(g185
L5161L
tp385
a(g187
L10840L
tp386
a(g189
L7644L
tp387
a(g191
L28251L
tp388
a(g193
L10905L
tp389
a(g195
L3404L
tp390
a(g197
L14427L
tp391
a(g199
L13274L
tp392
a(g201
L13644L
tp393
a(g203
L6389L
tp394
a(g205
L5658L
tp395
a(g207
L2364L
tp396
a(g209
L4538L
tp397
a(g211
L3518L
tp398
a(g213
L4475L
tp399
a(g215
L2991L
tp400
a(g217
L12827L
tp401
a(g219
L10929L
tp402
a(g221
L20900L
tp403
a(g223
L14078L
tp404
a(g225
L2835L
tp405
a(g227
L4408L
tp406
a(g229
L10860L
tp407
a(g231
L5682L
tp408
a(g233
L4423L
tp409
a(g235
L2841L
tp410
a(g237
L10886L
tp411
a(g239
L5712L
tp412
a(g241
L5114L
tp413
a(g243
L33137L
tp414
a(g245
L28040L
tp415
a(g247
L5705L
tp416
a(g249
L5662L
tp417
a(g251
L6358L
tp418
a(g253
L14396L
tp419
a(g255
L4583L
tp420
a(g257
L4550L
tp421
a(g259
L15840L
tp422
a(g261
L10876L
tp423
a(g263
L5126L
tp424
a(g265
L4368L
tp425
a(g267
L4609L
tp426
a(g269
L6747L
tp427
a(g271
L201L
tp428
a(g273
L10848L
tp429
a(g275
L20770L
tp430
a(g277
L21900L
tp431
a(g279
L4411L
tp432
a(g281
L12918L
tp433
a(g283
L7683L
tp434
a(g285
L33512L
tp435
a(g287
L15852L
tp436
a(g289
L4412L
tp437
a(g291
L10192L
tp438
aaI450229
a.