(lp1
(lp2
(Vbiological_process
p3
I196974
tp4
a(Vcellular_component
p5
I64123
tp6
a(Vmolecular_function
p7
I50571
tp8
a(Vorganelle
p9
I17646
tp10
a(Vanatomical structure development
p11
I13284
tp12
a(Vtransport
p13
I11327
tp14
a(Vsignal transduction
p15
I9821
tp16
a(Vcellular nitrogen compound metabolic process
p17
I9666
tp18
a(Vresponse to stress
p19
I7641
tp20
a(Vprotein complex
p21
I6810
tp22
a(Vbiosynthetic process
p23
I6148
tp24
a(Vsmall molecule metabolic process
p25
I5897
tp26
a(Vion binding
p27
I5507
tp28
a(Vcellular protein modification process
p29
I5489
tp30
a(Vimmune system process
p31
I4997
tp32
a(Vcatabolic process
p33
I4399
tp34
a(Vcellular component assembly
p35
I3343
tp36
a(Vcell differentiation
p37
I3091
tp38
a(Venzyme binding
p39
I2953
tp40
a(Vcytosol
p41
I2803
tp42
a(VDNA metabolic process
p43
I2625
tp44
a(Vlipid metabolic process
p45
I2585
tp46
a(Vvesicle-mediated transport
p47
I2365
tp48
a(Vnucleus
p49
I2269
tp50
a(Vplasma membrane
p51
I2184
tp52
a(Vcytoplasm
p53
I2148
tp54
a(Vlocomotion
p55
I2124
tp56
a(Vnucleolus
p57
I2057
tp58
a(Vchromosome organization
p59
I1912
tp60
a(VDNA binding
p61
I1892
tp62
a(Vmacromolecular complex assembly
p63
I1839
tp64
a(Vhomeostatic process
p65
I1823
tp66
a(Vanatomical structure formation involved in morphogenesis
p67
I1767
tp68
a(Vembryo development
p69
I1640
tp70
a(Vnucleobase-containing compound catabolic process
p71
I1596
tp72
a(Vkinase activity
p73
I1581
tp74
a(Voxidoreductase activity
p75
I1567
tp76
a(Vcytoskeletal protein binding
p77
I1566
tp78
a(Vcarbohydrate metabolic process
p79
I1556
tp80
a(Vprotein complex assembly
p81
I1457
tp82
a(Vprotein maturation
p83
I1454
tp84
a(Vcell motility
p85
I1385
tp86
a(Vtransmembrane transporter activity
p87
I1352
tp88
a(Vgrowth
p89
I1321
tp90
a(Vcytoskeleton organization
p91
I1319
tp92
a(Vcytoskeleton
p93
I1311
tp94
a(VRNA binding
p95
I1252
tp96
a(Vcell death
p97
I1208
tp98
a(Vsignal transducer activity
p99
I1194
tp100
a(Vmitochondrion
p101
I1162
tp102
a(Vtransmembrane transport
p103
I1152
tp104
a(Vneurological system process
p105
I1145
tp106
a(Vmembrane organization
p107
I1118
tp108
a(Vcellular amino acid metabolic process
p109
I1080
tp110
a(VATPase activity
p111
I1073
tp112
a(Vpeptidase activity
p113
I1071
tp114
a(Vcell-cell signaling
p115
I1026
tp116
a(VGolgi apparatus
p117
I978
tp118
a(Vcytoplasmic membrane-bounded vesicle
p119
I955
tp120
a(Vendosome
p121
I921
tp122
a(Vcell adhesion
p123
I918
tp124
a(Vendoplasmic reticulum
p125
I855
tp126
a(Vligase activity
p127
I853
tp128
a(Venzyme regulator activity
p129
I812
tp130
a(Vcell morphogenesis
p131
I790
tp132
a(Vlipid binding
p133
I782
tp134
a(Vmicrotubule organizing center
p135
I777
tp136
a(Vcell proliferation
p137
I769
tp138
a(Vnucleoplasm
p139
I754
tp140
a(Vprotein targeting
p141
I734
tp142
a(Vtranscription factor binding
p143
I716
tp144
a(Vhelicase activity
p145
I679
tp146
a(Vprotein binding transcription factor activity
p147
I674
tp148
a(Vstructural molecule activity
p149
I647
tp150
a(Vsulfur compound metabolic process
p151
I572
tp152
a(Vsymbiosis, encompassing mutualism through parasitism
p153
I557
tp154
a(Vnucleic acid binding transcription factor activity
p155
I555
tp156
a(VmRNA processing
p157
I536
tp158
a(Vphosphatase activity
p159
I535
tp160
a(Vextracellular region
p161
I524
tp162
a(Vplasma membrane organization
p163
I524
tp164
a(Vcell cycle
p165
I523
tp166
a(Vcofactor metabolic process
p167
I511
tp168
a(Vreproduction
p169
I475
tp170
a(Vvacuole
p171
I475
tp172
a(Vgeneration of precursor metabolites and energy
p173
I444
tp174
a(Vtransferase activity, transferring acyl groups
p175
I442
tp176
a(Vcilium
p177
I425
tp178
a(Vextracellular matrix organization
p179
I418
tp180
a(Vtransferase activity, transferring glycosyl groups
p181
I390
tp182
a(Vmethyltransferase activity
p183
I382
tp184
a(Vextracellular space
p185
I368
tp186
a(Vplastid
p187
I360
tp188
a(Vcell division
p189
I350
tp190
a(Vaging
p191
I348
tp192
a(Vribonucleoprotein complex assembly
p193
I330
tp194
a(Vnuclease activity
p195
I323
tp196
a(Vnucleocytoplasmic transport
p197
I320
tp198
a(Vprotein folding
p199
I315
tp200
a(Vlyase activity
p201
I313
tp202
a(Vcell junction organization
p203
I311
tp204
a(Vcytoskeleton-dependent intracellular transport
p205
I292
tp206
a(Vchromosome
p207
I290
tp208
a(VGTPase activity
p209
I280
tp210
a(Vlysosome
p211
I272
tp212
a(Vdevelopmental maturation
p213
I269
tp214
a(Vmitochondrion organization
p215
I263
tp216
a(Vsecondary metabolic process
p217
I237
tp218
a(Vhistone binding
p219
I235
tp220
a(Vnuclear envelope
p221
I233
tp222
a(Vexternal encapsulating structure
p223
I233
tp224
a(Vcell wall
p225
I229
tp226
a(Visomerase activity
p227
I228
tp228
a(Vproteinaceous extracellular matrix
p229
I224
tp230
a(Vmitosis
p231
I201
tp232
a(Vstructural constituent of ribosome
p233
I199
tp234
a(VtRNA metabolic process
p235
I197
tp236
a(VmRNA binding
p237
I195
tp238
a(Vhydrolase activity, acting on carbon-nitrogen (but not peptide) bonds
p239
I193
tp240
a(Vcirculatory system process
p241
I192
tp242
a(Vnucleotidyltransferase activity
p243
I186
tp244
a(Vchromosome segregation
p245
I175
tp246
a(Vvacuolar transport
p247
I170
tp248
a(Vprotein binding, bridging
p249
I167
tp250
a(Vcell wall organization or biogenesis
p251
I164
tp252
a(Vhydrolase activity, acting on glycosyl bonds
p253
I157
tp254
a(Vunfolded protein binding
p255
I144
tp256
a(Vperoxisome
p257
I140
tp258
a(Vtranslation factor activity, nucleic acid binding
p259
I133
tp260
a(Vtranslation
p261
I129
tp262
a(Vsmall conjugating protein binding
p263
I118
tp264
a(Vintracellular
p265
I113
tp266
a(Vlipid particle
p267
I110
tp268
a(Vribosome
p269
I102
tp270
a(Vnuclear chromosome
p271
I98
tp272
a(Vtransferase activity, transferring alkyl or aryl (other than methyl) groups
p273
I90
tp274
a(Vribosome biogenesis
p275
I90
tp276
a(Vprotein transporter activity
p277
I68
tp278
a(Vpigmentation
p279
I58
tp280
a(VrRNA binding
p281
I56
tp282
a(Vthylakoid
p283
I29
tp284
a(Vnitrogen cycle metabolic process
p285
I13
tp286
a(Vcell
p287
I5
tp288
a(Vtransposition
p289
I4
tp290
a(Vphotosynthesis
p291
I3
tp292
aa(lp293
(g3
L6372L
tp294
a(g5
L4365L
tp295
a(g7
L2787L
tp296
a(g9
L21685L
tp297
a(g11
L26888L
tp298
a(g13
L5491L
tp299
a(g15
L5801L
tp300
a(g17
L18268L
tp301
a(g19
L5613L
tp302
a(g21
L21693L
tp303
a(g23
L7192L
tp304
a(g25
L22689L
tp305
a(g27
L21630L
tp306
a(g29
L5168L
tp307
a(g31
L1781L
tp308
a(g33
L7190L
tp309
a(g35
L13633L
tp310
a(g37
L13924L
tp311
a(g39
L12968L
tp312
a(g41
L4599L
tp313
a(g43
L4995L
tp314
a(g45
L5326L
tp315
a(g47
L10381L
tp316
a(g49
L4422L
tp317
a(g51
L4644L
tp318
a(g53
L4514L
tp319
a(g55
L20507L
tp320
a(g57
L4507L
tp321
a(g59
L28228L
tp322
a(g61
L2790L
tp323
a(g63
L31581L
tp324
a(g65
L21086L
tp325
a(g67
L26682L
tp326
a(g69
L7881L
tp327
a(g71
L18282L
tp328
a(g73
L10466L
tp329
a(g75
L10598L
tp330
a(g77
L6320L
tp331
a(g79
L4725L
tp332
a(g81
L5165L
tp333
a(g83
L28535L
tp334
a(g85
L26901L
tp335
a(g87
L13690L
tp336
a(g89
L20503L
tp337
a(g91
L5663L
tp338
a(g93
L4621L
tp339
a(g95
L2830L
tp340
a(g97
L6436L
tp341
a(g99
L3827L
tp342
a(g101
L4515L
tp343
a(g103
L29927L
tp344
a(g105
L27837L
tp345
a(g107
L30984L
tp346
a(g109
L5218L
tp347
a(g111
L10963L
tp348
a(g113
L6448L
tp349
a(g115
L5896L
tp350
a(g117
L4567L
tp351
a(g119
L10229L
tp352
a(g121
L4542L
tp353
a(g123
L5791L
tp354
a(g125
L4556L
tp355
a(g127
L10950L
tp356
a(g129
L14001L
tp357
a(g131
L594L
tp358
a(g133
L6500L
tp359
a(g135
L4586L
tp360
a(g137
L6494L
tp361
a(g139
L4439L
tp362
a(g141
L5302L
tp363
a(g143
L6357L
tp364
a(g145
L3404L
tp365
a(g147
L677L
tp366
a(g149
L4118L
tp367
a(g151
L5471L
tp368
a(g153
L22810L
tp369
a(g155
L759L
tp370
a(g157
L5112L
tp371
a(g159
L10870L
tp372
a(g161
L4366L
tp373
a(g163
L5662L
tp374
a(g165
L5695L
tp375
a(g167
L28144L
tp376
a(g169
L3L
tp377
a(g171
L4546L
tp378
a(g173
L4838L
tp379
a(g175
L10829L
tp380
a(g177
L4684L
tp381
a(g179
L13967L
tp382
a(g181
L10840L
tp383
a(g183
L6389L
tp384
a(g185
L4405L
tp385
a(g187
L7644L
tp386
a(g189
L28251L
tp387
a(g191
L6169L
tp388
a(g193
L13644L
tp389
a(g195
L3518L
tp390
a(g197
L5582L
tp391
a(g199
L5161L
tp392
a(g201
L10905L
tp393
a(g203
L17965L
tp394
a(g205
L14427L
tp395
a(g207
L4475L
tp396
a(g209
L2991L
tp397
a(g211
L4538L
tp398
a(g213
L13274L
tp399
a(g215
L5658L
tp400
a(g217
L12827L
tp401
a(g219
L20900L
tp402
a(g221
L4423L
tp403
a(g223
L14078L
tp404
a(g225
L4408L
tp405
a(g227
L10929L
tp406
a(g229
L4368L
tp407
a(g231
L5712L
tp408
a(g233
L2841L
tp409
a(g235
L5114L
tp410
a(g237
L2835L
tp411
a(g239
L10886L
tp412
a(g241
L2364L
tp413
a(g243
L10860L
tp414
a(g245
L5705L
tp415
a(g247
L5682L
tp416
a(g249
L14396L
tp417
a(g251
L33137L
tp418
a(g253
L10876L
tp419
a(g255
L28040L
tp420
a(g257
L4550L
tp421
a(g259
L6358L
tp422
a(g261
L5126L
tp423
a(g263
L15840L
tp424
a(g265
L4411L
tp425
a(g267
L4583L
tp426
a(g269
L4609L
tp427
a(g271
L201L
tp428
a(g273
L10848L
tp429
a(g275
L20770L
tp430
a(g277
L6747L
tp431
a(g279
L21900L
tp432
a(g281
L12918L
tp433
a(g283
L7683L
tp434
a(g285
L33512L
tp435
a(g287
L4412L
tp436
a(g289
L15852L
tp437
a(g291
L10192L
tp438
aaI523890
a.