(lp1
(lp2
(Vbiological_process
p3
I249588
tp4
a(Vcellular_component
p5
I83533
tp6
a(Vmolecular_function
p7
I67166
tp8
a(Vorganelle
p9
I21948
tp10
a(Vanatomical structure development
p11
I19310
tp12
a(Vtransport
p13
I14192
tp14
a(Vsignal transduction
p15
I11538
tp16
a(Vcellular nitrogen compound metabolic process
p17
I10921
tp18
a(Vresponse to stress
p19
I9216
tp20
a(Vprotein complex
p21
I9179
tp22
a(Vion binding
p23
I8294
tp24
a(Vsmall molecule metabolic process
p25
I7490
tp26
a(Vbiosynthetic process
p27
I6963
tp28
a(Vcellular protein modification process
p29
I6086
tp30
a(Vcatabolic process
p31
I5441
tp32
a(Vimmune system process
p33
I5192
tp34
a(Vcell differentiation
p35
I4673
tp36
a(Vcellular component assembly
p37
I4114
tp38
a(Vcytosol
p39
I3684
tp40
a(Vlipid metabolic process
p41
I3547
tp42
a(Venzyme binding
p43
I3529
tp44
a(Vlocomotion
p45
I3208
tp46
a(Vplasma membrane
p47
I3086
tp48
a(Vanatomical structure formation involved in morphogenesis
p49
I3024
tp50
a(Vvesicle-mediated transport
p51
I3008
tp52
a(Vtransmembrane transporter activity
p53
I2936
tp54
a(Vnucleolus
p55
I2848
tp56
a(Vnucleus
p57
I2780
tp58
a(VDNA metabolic process
p59
I2440
tp60
a(Vhomeostatic process
p61
I2429
tp62
a(VDNA binding
p63
I2348
tp64
a(Vmacromolecular complex assembly
p65
I2302
tp66
a(Vcell motility
p67
I2279
tp68
a(Vchromosome organization
p69
I2274
tp70
a(Vsignal transducer activity
p71
I2252
tp72
a(Vcytoplasm
p73
I2236
tp74
a(Vtransmembrane transport
p75
I2233
tp76
a(Vneurological system process
p77
I2076
tp78
a(Voxidoreductase activity
p79
I2040
tp80
a(Vembryo development
p81
I2021
tp82
a(Vgrowth
p83
I2010
tp84
a(Vprotein maturation
p85
I1970
tp86
a(Vcarbohydrate metabolic process
p87
I1938
tp88
a(Vnucleobase-containing compound catabolic process
p89
I1931
tp90
a(Vcytoskeletal protein binding
p91
I1900
tp92
a(Vprotein complex assembly
p93
I1884
tp94
a(Vkinase activity
p95
I1786
tp96
a(Vcytoskeleton organization
p97
I1750
tp98
a(VRNA binding
p99
I1601
tp100
a(Vlipid binding
p101
I1567
tp102
a(Vcytoplasmic membrane-bounded vesicle
p103
I1555
tp104
a(VGolgi apparatus
p105
I1501
tp106
a(Vcell adhesion
p107
I1463
tp108
a(Vcell-cell signaling
p109
I1435
tp110
a(Vpeptidase activity
p111
I1423
tp112
a(Vmitochondrion
p113
I1411
tp114
a(Vcellular amino acid metabolic process
p115
I1350
tp116
a(Vcytoskeleton
p117
I1346
tp118
a(Vendoplasmic reticulum
p119
I1273
tp120
a(Vcell death
p121
I1228
tp122
a(Venzyme regulator activity
p123
I1192
tp124
a(Vendosome
p125
I1191
tp126
a(Vcell proliferation
p127
I1190
tp128
a(Vmembrane organization
p129
I1164
tp130
a(Vmicrotubule organizing center
p131
I1045
tp132
a(Vligase activity
p133
I1030
tp134
a(Vprotein binding transcription factor activity
p135
I1016
tp136
a(Vcell morphogenesis
p137
I1000
tp138
a(Vnucleoplasm
p139
I993
tp140
a(VATPase activity
p141
I989
tp142
a(Vtranscription factor binding
p143
I977
tp144
a(Vstructural molecule activity
p145
I962
tp146
a(Vextracellular region
p147
I958
tp148
a(Vnucleic acid binding transcription factor activity
p149
I903
tp150
a(Vprotein targeting
p151
I862
tp152
a(Vextracellular space
p153
I818
tp154
a(Vsulfur compound metabolic process
p155
I727
tp156
a(Vextracellular matrix organization
p157
I720
tp158
a(VmRNA processing
p159
I686
tp160
a(Vcilium
p161
I686
tp162
a(Vphosphatase activity
p163
I652
tp164
a(Vcofactor metabolic process
p165
I643
tp166
a(Vvacuole
p167
I631
tp168
a(Vtransferase activity, transferring acyl groups
p169
I625
tp170
a(Vsymbiosis, encompassing mutualism through parasitism
p171
I621
tp172
a(Vgeneration of precursor metabolites and energy
p173
I615
tp174
a(Vcirculatory system process
p175
I525
tp176
a(Vcell cycle
p177
I520
tp178
a(Vreproduction
p179
I512
tp180
a(Vnucleocytoplasmic transport
p181
I484
tp182
a(Vaging
p183
I469
tp184
a(Vcell junction organization
p185
I459
tp186
a(Vtransferase activity, transferring glycosyl groups
p187
I451
tp188
a(Vcell division
p189
I427
tp190
a(Vplastid
p191
I425
tp192
a(Vlyase activity
p193
I414
tp194
a(Vdevelopmental maturation
p195
I403
tp196
a(Vnuclease activity
p197
I396
tp198
a(Vcytoskeleton-dependent intracellular transport
p199
I369
tp200
a(Vproteinaceous extracellular matrix
p201
I365
tp202
a(Vlysosome
p203
I365
tp204
a(Vprotein folding
p205
I363
tp206
a(Vhelicase activity
p207
I349
tp208
a(Vmethyltransferase activity
p209
I345
tp210
a(Vribonucleoprotein complex assembly
p211
I340
tp212
a(Vmitochondrion organization
p213
I337
tp214
a(Vchromosome
p215
I322
tp216
a(VGTPase activity
p217
I316
tp218
a(Vhistone binding
p219
I297
tp220
a(Vsecondary metabolic process
p221
I282
tp222
a(VmRNA binding
p223
I280
tp224
a(Vstructural constituent of ribosome
p225
I276
tp226
a(Vexternal encapsulating structure
p227
I264
tp228
a(Vnuclear envelope
p229
I260
tp230
a(Vcell wall
p231
I260
tp232
a(Visomerase activity
p233
I247
tp234
a(Vnucleotidyltransferase activity
p235
I243
tp236
a(Vplasma membrane organization
p237
I233
tp238
a(Vhydrolase activity, acting on carbon-nitrogen (but not peptide) bonds
p239
I222
tp240
a(Vmitosis
p241
I217
tp242
a(Vvacuolar transport
p243
I212
tp244
a(Vhydrolase activity, acting on glycosyl bonds
p245
I209
tp246
a(Vcell wall organization or biogenesis
p247
I209
tp248
a(Vprotein binding, bridging
p249
I199
tp250
a(Vchromosome segregation
p251
I193
tp252
a(Vsmall conjugating protein binding
p253
I183
tp254
a(Vperoxisome
p255
I171
tp256
a(VtRNA metabolic process
p257
I166
tp258
a(Vunfolded protein binding
p259
I162
tp260
a(Vtranslation factor activity, nucleic acid binding
p261
I154
tp262
a(Vlipid particle
p263
I153
tp264
a(Vprotein transporter activity
p265
I141
tp266
a(Vtranslation
p267
I137
tp268
a(Vribosome
p269
I122
tp270
a(Vribosome biogenesis
p271
I119
tp272
a(Vtransferase activity, transferring alkyl or aryl (other than methyl) groups
p273
I112
tp274
a(Vnuclear chromosome
p275
I109
tp276
a(Vintracellular
p277
I88
tp278
a(Vpigmentation
p279
I77
tp280
a(VrRNA binding
p281
I71
tp282
a(Vthylakoid
p283
I30
tp284
a(Vnitrogen cycle metabolic process
p285
I21
tp286
a(Vtransposition
p287
I7
tp288
a(Vcell
p289
I6
tp290
a(Vphotosynthesis
p291
I6
tp292
a(VRNA modification guide activity
p293
I1
tp294
aa(lp295
(g3
L6372L
tp296
a(g5
L4365L
tp297
a(g7
L2787L
tp298
a(g9
L21685L
tp299
a(g11
L26888L
tp300
a(g13
L5491L
tp301
a(g15
L5801L
tp302
a(g17
L18268L
tp303
a(g19
L5613L
tp304
a(g21
L21693L
tp305
a(g23
L21630L
tp306
a(g25
L22689L
tp307
a(g27
L7192L
tp308
a(g29
L5168L
tp309
a(g31
L7190L
tp310
a(g33
L1781L
tp311
a(g35
L13924L
tp312
a(g37
L13633L
tp313
a(g39
L4599L
tp314
a(g41
L5326L
tp315
a(g43
L12968L
tp316
a(g45
L20507L
tp317
a(g47
L4644L
tp318
a(g49
L26682L
tp319
a(g51
L10381L
tp320
a(g53
L13690L
tp321
a(g55
L4507L
tp322
a(g57
L4422L
tp323
a(g59
L4995L
tp324
a(g61
L21086L
tp325
a(g63
L2790L
tp326
a(g65
L31581L
tp327
a(g67
L26901L
tp328
a(g69
L28228L
tp329
a(g71
L3827L
tp330
a(g73
L4514L
tp331
a(g75
L29927L
tp332
a(g77
L27837L
tp333
a(g79
L10598L
tp334
a(g81
L7881L
tp335
a(g83
L20503L
tp336
a(g85
L28535L
tp337
a(g87
L4725L
tp338
a(g89
L18282L
tp339
a(g91
L6320L
tp340
a(g93
L5165L
tp341
a(g95
L10466L
tp342
a(g97
L5663L
tp343
a(g99
L2830L
tp344
a(g101
L6500L
tp345
a(g103
L10229L
tp346
a(g105
L4567L
tp347
a(g107
L5791L
tp348
a(g109
L5896L
tp349
a(g111
L6448L
tp350
a(g113
L4515L
tp351
a(g115
L5218L
tp352
a(g117
L4621L
tp353
a(g119
L4556L
tp354
a(g121
L6436L
tp355
a(g123
L14001L
tp356
a(g125
L4542L
tp357
a(g127
L6494L
tp358
a(g129
L30984L
tp359
a(g131
L4586L
tp360
a(g133
L10950L
tp361
a(g135
L677L
tp362
a(g137
L594L
tp363
a(g139
L4439L
tp364
a(g141
L10963L
tp365
a(g143
L6357L
tp366
a(g145
L4118L
tp367
a(g147
L4366L
tp368
a(g149
L759L
tp369
a(g151
L5302L
tp370
a(g153
L4405L
tp371
a(g155
L5471L
tp372
a(g157
L13967L
tp373
a(g159
L5112L
tp374
a(g161
L4684L
tp375
a(g163
L10870L
tp376
a(g165
L28144L
tp377
a(g167
L4546L
tp378
a(g169
L10829L
tp379
a(g171
L22810L
tp380
a(g173
L4838L
tp381
a(g175
L2364L
tp382
a(g177
L5695L
tp383
a(g179
L3L
tp384
a(g181
L5582L
tp385
a(g183
L6169L
tp386
a(g185
L17965L
tp387
a(g187
L10840L
tp388
a(g189
L28251L
tp389
a(g191
L7644L
tp390
a(g193
L10905L
tp391
a(g195
L13274L
tp392
a(g197
L3518L
tp393
a(g199
L14427L
tp394
a(g201
L4368L
tp395
a(g203
L4538L
tp396
a(g205
L5161L
tp397
a(g207
L3404L
tp398
a(g209
L6389L
tp399
a(g211
L13644L
tp400
a(g213
L5658L
tp401
a(g215
L4475L
tp402
a(g217
L2991L
tp403
a(g219
L20900L
tp404
a(g221
L12827L
tp405
a(g223
L2835L
tp406
a(g225
L2841L
tp407
a(g227
L14078L
tp408
a(g229
L4423L
tp409
a(g231
L4408L
tp410
a(g233
L10929L
tp411
a(g235
L10860L
tp412
a(g237
L5662L
tp413
a(g239
L10886L
tp414
a(g241
L5712L
tp415
a(g243
L5682L
tp416
a(g245
L10876L
tp417
a(g247
L33137L
tp418
a(g249
L14396L
tp419
a(g251
L5705L
tp420
a(g253
L15840L
tp421
a(g255
L4550L
tp422
a(g257
L5114L
tp423
a(g259
L28040L
tp424
a(g261
L6358L
tp425
a(g263
L4583L
tp426
a(g265
L6747L
tp427
a(g267
L5126L
tp428
a(g269
L4609L
tp429
a(g271
L20770L
tp430
a(g273
L10848L
tp431
a(g275
L201L
tp432
a(g277
L4411L
tp433
a(g279
L21900L
tp434
a(g281
L12918L
tp435
a(g283
L7683L
tp436
a(g285
L33512L
tp437
a(g287
L15852L
tp438
a(g289
L4412L
tp439
a(g291
L10192L
tp440
a(g293
L14288L
tp441
aaI673737
a.