(lp1
(lp2
(Vbiological_process
p3
I160386
tp4
a(Vcellular_component
p5
I58072
tp6
a(Vmolecular_function
p7
I48696
tp8
a(Vorganelle
p9
I15571
tp10
a(Vanatomical structure development
p11
I11897
tp12
a(Vtransport
p13
I9840
tp14
a(Vcellular nitrogen compound metabolic process
p15
I8377
tp16
a(Vsignal transduction
p17
I7473
tp18
a(Vprotein complex
p19
I6630
tp20
a(Vion binding
p21
I6052
tp22
a(Vsmall molecule metabolic process
p23
I5760
tp24
a(Vresponse to stress
p25
I5718
tp26
a(Vbiosynthetic process
p27
I5168
tp28
a(Vcellular protein modification process
p29
I4390
tp30
a(Vcatabolic process
p31
I4009
tp32
a(Vimmune system process
p33
I3358
tp34
a(Vcytosol
p35
I3031
tp36
a(Vcellular component assembly
p37
I2809
tp38
a(Vcell differentiation
p39
I2779
tp40
a(Vlipid metabolic process
p41
I2634
tp42
a(Venzyme binding
p43
I2389
tp44
a(Vplasma membrane
p45
I2213
tp46
a(Vnucleus
p47
I2197
tp48
a(Vtransmembrane transporter activity
p49
I2172
tp50
a(Vnucleolus
p51
I2140
tp52
a(VDNA metabolic process
p53
I1975
tp54
a(Vvesicle-mediated transport
p55
I1954
tp56
a(Vcytoplasm
p57
I1879
tp58
a(Vtransmembrane transport
p59
I1793
tp60
a(Vlocomotion
p61
I1789
tp62
a(Vanatomical structure formation involved in morphogenesis
p63
I1760
tp64
a(VDNA binding
p65
I1751
tp66
a(Vchromosome organization
p67
I1691
tp68
a(Voxidoreductase activity
p69
I1670
tp70
a(Vmacromolecular complex assembly
p71
I1654
tp72
a(Vhomeostatic process
p73
I1562
tp74
a(Vcarbohydrate metabolic process
p75
I1492
tp76
a(Vnucleobase-containing compound catabolic process
p77
I1444
tp78
a(Vprotein maturation
p79
I1421
tp80
a(Vembryo development
p81
I1394
tp82
a(Vprotein complex assembly
p83
I1331
tp84
a(Vcell motility
p85
I1278
tp86
a(Vneurological system process
p87
I1255
tp88
a(Vcytoskeletal protein binding
p89
I1250
tp90
a(Vsignal transducer activity
p91
I1243
tp92
a(Vkinase activity
p93
I1235
tp94
a(Vcytoskeleton organization
p95
I1220
tp96
a(VRNA binding
p97
I1201
tp98
a(Vmitochondrion
p99
I1143
tp100
a(Vgrowth
p101
I1113
tp102
a(Vcellular amino acid metabolic process
p103
I1084
tp104
a(Vpeptidase activity
p105
I1054
tp106
a(Vlipid binding
p107
I1037
tp108
a(Vcytoplasmic membrane-bounded vesicle
p109
I1023
tp110
a(VGolgi apparatus
p111
I980
tp112
a(Vendoplasmic reticulum
p113
I908
tp114
a(Vcell-cell signaling
p115
I901
tp116
a(Vcytoskeleton
p117
I898
tp118
a(Venzyme regulator activity
p119
I878
tp120
a(Vmembrane organization
p121
I836
tp122
a(Vnucleoplasm
p123
I830
tp124
a(Vendosome
p125
I820
tp126
a(Vmicrotubule organizing center
p127
I759
tp128
a(Vligase activity
p129
I748
tp130
a(Vcell death
p131
I740
tp132
a(Vtranscription factor binding
p133
I732
tp134
a(Vcell adhesion
p135
I721
tp136
a(Vcell proliferation
p137
I716
tp138
a(VATPase activity
p139
I699
tp140
a(Vprotein binding transcription factor activity
p141
I678
tp142
a(Vnucleic acid binding transcription factor activity
p143
I678
tp144
a(Vextracellular region
p145
I660
tp146
a(Vstructural molecule activity
p147
I626
tp148
a(Vsulfur compound metabolic process
p149
I607
tp150
a(Vcell morphogenesis
p151
I585
tp152
a(Vprotein targeting
p153
I580
tp154
a(VmRNA processing
p155
I548
tp156
a(Vcofactor metabolic process
p157
I542
tp158
a(Vsymbiosis, encompassing mutualism through parasitism
p159
I518
tp160
a(Vgeneration of precursor metabolites and energy
p161
I501
tp162
a(Vextracellular space
p163
I493
tp164
a(Vtransferase activity, transferring acyl groups
p165
I485
tp166
a(Vphosphatase activity
p167
I482
tp168
a(Vextracellular matrix organization
p169
I459
tp170
a(Vvacuole
p171
I451
tp172
a(Vcilium
p173
I430
tp174
a(Vtransferase activity, transferring glycosyl groups
p175
I396
tp176
a(Vnucleocytoplasmic transport
p177
I383
tp178
a(Vcell cycle
p179
I369
tp180
a(Vlyase activity
p181
I336
tp182
a(Vmethyltransferase activity
p183
I317
tp184
a(Vreproduction
p185
I315
tp186
a(Vprotein folding
p187
I312
tp188
a(Vaging
p189
I292
tp190
a(Vcell junction organization
p191
I289
tp192
a(Vlysosome
p193
I283
tp194
a(Vcell division
p195
I275
tp196
a(Vcirculatory system process
p197
I272
tp198
a(Vribonucleoprotein complex assembly
p199
I270
tp200
a(VGTPase activity
p201
I270
tp202
a(Vcytoskeleton-dependent intracellular transport
p203
I266
tp204
a(Vhelicase activity
p205
I265
tp206
a(Vmitochondrion organization
p207
I255
tp208
a(Vnuclease activity
p209
I255
tp210
a(Vplastid
p211
I251
tp212
a(Vdevelopmental maturation
p213
I244
tp214
a(Vhistone binding
p215
I237
tp216
a(Vchromosome
p217
I232
tp218
a(Visomerase activity
p219
I212
tp220
a(Vsecondary metabolic process
p221
I195
tp222
a(VmRNA binding
p223
I192
tp224
a(Vnucleotidyltransferase activity
p225
I187
tp226
a(Vstructural constituent of ribosome
p227
I182
tp228
a(Vhydrolase activity, acting on carbon-nitrogen (but not peptide) bonds
p229
I182
tp230
a(Vplasma membrane organization
p231
I179
tp232
a(Vhydrolase activity, acting on glycosyl bonds
p233
I177
tp234
a(Vproteinaceous extracellular matrix
p235
I170
tp236
a(Vmitosis
p237
I161
tp238
a(Vnuclear envelope
p239
I156
tp240
a(Vunfolded protein binding
p241
I148
tp242
a(Vexternal encapsulating structure
p243
I146
tp244
a(Vvacuolar transport
p245
I145
tp246
a(Vcell wall
p247
I142
tp248
a(Vperoxisome
p249
I139
tp250
a(VtRNA metabolic process
p251
I139
tp252
a(Vtranslation factor activity, nucleic acid binding
p253
I135
tp254
a(Vprotein binding, bridging
p255
I134
tp256
a(Vchromosome segregation
p257
I132
tp258
a(Vtranslation
p259
I119
tp260
a(Vsmall conjugating protein binding
p261
I110
tp262
a(Vintracellular
p263
I108
tp264
a(Vcell wall organization or biogenesis
p265
I108
tp266
a(Vlipid particle
p267
I107
tp268
a(Vprotein transporter activity
p269
I99
tp270
a(Vtransferase activity, transferring alkyl or aryl (other than methyl) groups
p271
I98
tp272
a(Vribosome
p273
I90
tp274
a(Vnuclear chromosome
p275
I85
tp276
a(Vribosome biogenesis
p277
I73
tp278
a(Vpigmentation
p279
I49
tp280
a(VrRNA binding
p281
I46
tp282
a(Vthylakoid
p283
I24
tp284
a(Vnitrogen cycle metabolic process
p285
I20
tp286
a(Vtransposition
p287
I9
tp288
a(Vcell
p289
I8
tp290
a(Vphotosynthesis
p291
I2
tp292
aa(lp293
(g3
L6372L
tp294
a(g5
L4365L
tp295
a(g7
L2787L
tp296
a(g9
L21685L
tp297
a(g11
L26888L
tp298
a(g13
L5491L
tp299
a(g15
L18268L
tp300
a(g17
L5801L
tp301
a(g19
L21693L
tp302
a(g21
L21630L
tp303
a(g23
L22689L
tp304
a(g25
L5613L
tp305
a(g27
L7192L
tp306
a(g29
L5168L
tp307
a(g31
L7190L
tp308
a(g33
L1781L
tp309
a(g35
L4599L
tp310
a(g37
L13633L
tp311
a(g39
L13924L
tp312
a(g41
L5326L
tp313
a(g43
L12968L
tp314
a(g45
L4644L
tp315
a(g47
L4422L
tp316
a(g49
L13690L
tp317
a(g51
L4507L
tp318
a(g53
L4995L
tp319
a(g55
L10381L
tp320
a(g57
L4514L
tp321
a(g59
L29927L
tp322
a(g61
L20507L
tp323
a(g63
L26682L
tp324
a(g65
L2790L
tp325
a(g67
L28228L
tp326
a(g69
L10598L
tp327
a(g71
L31581L
tp328
a(g73
L21086L
tp329
a(g75
L4725L
tp330
a(g77
L18282L
tp331
a(g79
L28535L
tp332
a(g81
L7881L
tp333
a(g83
L5165L
tp334
a(g85
L26901L
tp335
a(g87
L27837L
tp336
a(g89
L6320L
tp337
a(g91
L3827L
tp338
a(g93
L10466L
tp339
a(g95
L5663L
tp340
a(g97
L2830L
tp341
a(g99
L4515L
tp342
a(g101
L20503L
tp343
a(g103
L5218L
tp344
a(g105
L6448L
tp345
a(g107
L6500L
tp346
a(g109
L10229L
tp347
a(g111
L4567L
tp348
a(g113
L4556L
tp349
a(g115
L5896L
tp350
a(g117
L4621L
tp351
a(g119
L14001L
tp352
a(g121
L30984L
tp353
a(g123
L4439L
tp354
a(g125
L4542L
tp355
a(g127
L4586L
tp356
a(g129
L10950L
tp357
a(g131
L6436L
tp358
a(g133
L6357L
tp359
a(g135
L5791L
tp360
a(g137
L6494L
tp361
a(g139
L10963L
tp362
a(g141
L677L
tp363
a(g143
L759L
tp364
a(g145
L4366L
tp365
a(g147
L4118L
tp366
a(g149
L5471L
tp367
a(g151
L594L
tp368
a(g153
L5302L
tp369
a(g155
L5112L
tp370
a(g157
L28144L
tp371
a(g159
L22810L
tp372
a(g161
L4838L
tp373
a(g163
L4405L
tp374
a(g165
L10829L
tp375
a(g167
L10870L
tp376
a(g169
L13967L
tp377
a(g171
L4546L
tp378
a(g173
L4684L
tp379
a(g175
L10840L
tp380
a(g177
L5582L
tp381
a(g179
L5695L
tp382
a(g181
L10905L
tp383
a(g183
L6389L
tp384
a(g185
L3L
tp385
a(g187
L5161L
tp386
a(g189
L6169L
tp387
a(g191
L17965L
tp388
a(g193
L4538L
tp389
a(g195
L28251L
tp390
a(g197
L2364L
tp391
a(g199
L13644L
tp392
a(g201
L2991L
tp393
a(g203
L14427L
tp394
a(g205
L3404L
tp395
a(g207
L5658L
tp396
a(g209
L3518L
tp397
a(g211
L7644L
tp398
a(g213
L13274L
tp399
a(g215
L20900L
tp400
a(g217
L4475L
tp401
a(g219
L10929L
tp402
a(g221
L12827L
tp403
a(g223
L2835L
tp404
a(g225
L10860L
tp405
a(g227
L2841L
tp406
a(g229
L10886L
tp407
a(g231
L5662L
tp408
a(g233
L10876L
tp409
a(g235
L4368L
tp410
a(g237
L5712L
tp411
a(g239
L4423L
tp412
a(g241
L28040L
tp413
a(g243
L14078L
tp414
a(g245
L5682L
tp415
a(g247
L4408L
tp416
a(g249
L4550L
tp417
a(g251
L5114L
tp418
a(g253
L6358L
tp419
a(g255
L14396L
tp420
a(g257
L5705L
tp421
a(g259
L5126L
tp422
a(g261
L15840L
tp423
a(g263
L4411L
tp424
a(g265
L33137L
tp425
a(g267
L4583L
tp426
a(g269
L6747L
tp427
a(g271
L10848L
tp428
a(g273
L4609L
tp429
a(g275
L201L
tp430
a(g277
L20770L
tp431
a(g279
L21900L
tp432
a(g281
L12918L
tp433
a(g283
L7683L
tp434
a(g285
L33512L
tp435
a(g287
L15852L
tp436
a(g289
L4412L
tp437
a(g291
L10192L
tp438
aaI457738
a.