(lp1
(lp2
(Vbiological_process
p3
I291674
tp4
a(Vcellular_component
p5
I99065
tp6
a(Vmolecular_function
p7
I81992
tp8
a(Vorganelle
p9
I26291
tp10
a(Vanatomical structure development
p11
I21876
tp12
a(Vtransport
p13
I16852
tp14
a(Vcellular nitrogen compound metabolic process
p15
I14237
tp16
a(Vsignal transduction
p17
I13229
tp18
a(Vprotein complex
p19
I12010
tp20
a(Vresponse to stress
p21
I10934
tp22
a(Vion binding
p23
I10147
tp24
a(Vsmall molecule metabolic process
p25
I9445
tp26
a(Vbiosynthetic process
p27
I8754
tp28
a(Vcellular protein modification process
p29
I7754
tp30
a(Vcatabolic process
p31
I7005
tp32
a(Vimmune system process
p33
I5978
tp34
a(Vcell differentiation
p35
I5195
tp36
a(Vcellular component assembly
p37
I5194
tp38
a(Vcytosol
p39
I4930
tp40
a(Venzyme binding
p41
I4489
tp42
a(Vlipid metabolic process
p43
I4314
tp44
a(Vlocomotion
p45
I3797
tp46
a(Vnucleolus
p47
I3779
tp48
a(Vvesicle-mediated transport
p49
I3697
tp50
a(VDNA metabolic process
p51
I3639
tp52
a(Vplasma membrane
p53
I3551
tp54
a(Vanatomical structure formation involved in morphogenesis
p55
I3514
tp56
a(Vtransmembrane transporter activity
p57
I3379
tp58
a(Vnucleus
p59
I3176
tp60
a(Vchromosome organization
p61
I3118
tp62
a(Vhomeostatic process
p63
I2970
tp64
a(Vmacromolecular complex assembly
p65
I2910
tp66
a(VDNA binding
p67
I2884
tp68
a(Vcell motility
p69
I2681
tp70
a(Vcarbohydrate metabolic process
p71
I2650
tp72
a(Vcytoplasm
p73
I2635
tp74
a(Vnucleobase-containing compound catabolic process
p75
I2609
tp76
a(Vcytoskeletal protein binding
p77
I2592
tp78
a(Vtransmembrane transport
p79
I2574
tp80
a(Vembryo development
p81
I2532
tp82
a(Vcytoskeleton organization
p83
I2474
tp84
a(Voxidoreductase activity
p85
I2416
tp86
a(Vprotein maturation
p87
I2393
tp88
a(Vneurological system process
p89
I2372
tp90
a(Vgrowth
p91
I2329
tp92
a(Vprotein complex assembly
p93
I2317
tp94
a(Vsignal transducer activity
p95
I2313
tp96
a(Vkinase activity
p97
I2225
tp98
a(VRNA binding
p99
I2059
tp100
a(VGolgi apparatus
p101
I1899
tp102
a(Vlipid binding
p103
I1870
tp104
a(Vcytoplasmic membrane-bounded vesicle
p105
I1795
tp106
a(Vmitochondrion
p107
I1771
tp108
a(Vcytoskeleton
p109
I1724
tp110
a(Vcellular amino acid metabolic process
p111
I1677
tp112
a(VATPase activity
p113
I1623
tp114
a(Vcell adhesion
p115
I1605
tp116
a(Vendoplasmic reticulum
p117
I1555
tp118
a(Vmembrane organization
p119
I1536
tp120
a(Vligase activity
p121
I1509
tp122
a(Vcell-cell signaling
p123
I1458
tp124
a(Vcell proliferation
p125
I1450
tp126
a(Vendosome
p127
I1438
tp128
a(Vcell death
p129
I1437
tp130
a(Vpeptidase activity
p131
I1425
tp132
a(Venzyme regulator activity
p133
I1415
tp134
a(Vnucleoplasm
p135
I1391
tp136
a(Vmicrotubule organizing center
p137
I1300
tp138
a(Vtranscription factor binding
p139
I1266
tp140
a(Vprotein binding transcription factor activity
p141
I1223
tp142
a(Vstructural molecule activity
p143
I1213
tp144
a(Vcell morphogenesis
p145
I1174
tp146
a(Vprotein targeting
p147
I1100
tp148
a(Vnucleic acid binding transcription factor activity
p149
I1063
tp150
a(Vsulfur compound metabolic process
p151
I962
tp152
a(Vextracellular region
p153
I893
tp154
a(Vsymbiosis, encompassing mutualism through parasitism
p155
I864
tp156
a(VmRNA processing
p157
I855
tp158
a(Vcofactor metabolic process
p159
I833
tp160
a(Vtransferase activity, transferring acyl groups
p161
I808
tp162
a(Vextracellular space
p163
I797
tp164
a(Vvacuole
p165
I761
tp166
a(Vgeneration of precursor metabolites and energy
p167
I745
tp168
a(Vphosphatase activity
p169
I737
tp170
a(Vextracellular matrix organization
p171
I735
tp172
a(Vcilium
p173
I731
tp174
a(Vhelicase activity
p175
I669
tp176
a(Vnucleocytoplasmic transport
p177
I646
tp178
a(Vtransferase activity, transferring glycosyl groups
p179
I637
tp180
a(Vcell junction organization
p181
I630
tp182
a(Vcell cycle
p183
I630
tp184
a(Vreproduction
p185
I617
tp186
a(Vaging
p187
I571
tp188
a(Vcell division
p189
I566
tp190
a(Vplastid
p191
I517
tp192
a(Vdevelopmental maturation
p193
I504
tp194
a(Vnuclease activity
p195
I503
tp196
a(Vcirculatory system process
p197
I492
tp198
a(Vmitochondrion organization
p199
I481
tp200
a(Vcytoskeleton-dependent intracellular transport
p201
I469
tp202
a(Vribonucleoprotein complex assembly
p203
I467
tp204
a(Vmethyltransferase activity
p205
I463
tp206
a(Vchromosome
p207
I458
tp208
a(Vprotein folding
p209
I442
tp210
a(Vlyase activity
p211
I441
tp212
a(Vlysosome
p213
I432
tp214
a(Vhistone binding
p215
I411
tp216
a(Vnuclear envelope
p217
I375
tp218
a(Vnucleotidyltransferase activity
p219
I366
tp220
a(Vsecondary metabolic process
p221
I365
tp222
a(VmRNA binding
p223
I355
tp224
a(Visomerase activity
p225
I343
tp226
a(VGTPase activity
p227
I341
tp228
a(Vexternal encapsulating structure
p229
I338
tp230
a(Vcell wall
p231
I331
tp232
a(Vplasma membrane organization
p233
I327
tp234
a(Vvacuolar transport
p235
I324
tp236
a(Vchromosome segregation
p237
I301
tp238
a(Vmitosis
p239
I296
tp240
a(Vstructural constituent of ribosome
p241
I288
tp242
a(Vhydrolase activity, acting on carbon-nitrogen (but not peptide) bonds
p243
I273
tp244
a(Vproteinaceous extracellular matrix
p245
I263
tp246
a(VtRNA metabolic process
p247
I261
tp248
a(Vcell wall organization or biogenesis
p249
I261
tp250
a(Vhydrolase activity, acting on glycosyl bonds
p251
I242
tp252
a(Vsmall conjugating protein binding
p253
I233
tp254
a(Vperoxisome
p255
I231
tp256
a(Vtranslation factor activity, nucleic acid binding
p257
I230
tp258
a(Vprotein binding, bridging
p259
I230
tp260
a(Vprotein transporter activity
p261
I221
tp262
a(Vunfolded protein binding
p263
I204
tp264
a(Vlipid particle
p265
I182
tp266
a(Vtranslation
p267
I171
tp268
a(Vribosome
p269
I155
tp270
a(Vnuclear chromosome
p271
I135
tp272
a(Vtransferase activity, transferring alkyl or aryl (other than methyl) groups
p273
I127
tp274
a(Vintracellular
p275
I111
tp276
a(Vribosome biogenesis
p277
I109
tp278
a(Vpigmentation
p279
I106
tp280
a(VrRNA binding
p281
I72
tp282
a(Vtransposition
p283
I53
tp284
a(Vthylakoid
p285
I45
tp286
a(Vnitrogen cycle metabolic process
p287
I33
tp288
a(Vcell
p289
I9
tp290
a(Vphotosynthesis
p291
I7
tp292
a(VRNA modification guide activity
p293
I1
tp294
aa(lp295
(g3
L6372L
tp296
a(g5
L4365L
tp297
a(g7
L2787L
tp298
a(g9
L21685L
tp299
a(g11
L26888L
tp300
a(g13
L5491L
tp301
a(g15
L18268L
tp302
a(g17
L5801L
tp303
a(g19
L21693L
tp304
a(g21
L5613L
tp305
a(g23
L21630L
tp306
a(g25
L22689L
tp307
a(g27
L7192L
tp308
a(g29
L5168L
tp309
a(g31
L7190L
tp310
a(g33
L1781L
tp311
a(g35
L13924L
tp312
a(g37
L13633L
tp313
a(g39
L4599L
tp314
a(g41
L12968L
tp315
a(g43
L5326L
tp316
a(g45
L20507L
tp317
a(g47
L4507L
tp318
a(g49
L10381L
tp319
a(g51
L4995L
tp320
a(g53
L4644L
tp321
a(g55
L26682L
tp322
a(g57
L13690L
tp323
a(g59
L4422L
tp324
a(g61
L28228L
tp325
a(g63
L21086L
tp326
a(g65
L31581L
tp327
a(g67
L2790L
tp328
a(g69
L26901L
tp329
a(g71
L4725L
tp330
a(g73
L4514L
tp331
a(g75
L18282L
tp332
a(g77
L6320L
tp333
a(g79
L29927L
tp334
a(g81
L7881L
tp335
a(g83
L5663L
tp336
a(g85
L10598L
tp337
a(g87
L28535L
tp338
a(g89
L27837L
tp339
a(g91
L20503L
tp340
a(g93
L5165L
tp341
a(g95
L3827L
tp342
a(g97
L10466L
tp343
a(g99
L2830L
tp344
a(g101
L4567L
tp345
a(g103
L6500L
tp346
a(g105
L10229L
tp347
a(g107
L4515L
tp348
a(g109
L4621L
tp349
a(g111
L5218L
tp350
a(g113
L10963L
tp351
a(g115
L5791L
tp352
a(g117
L4556L
tp353
a(g119
L30984L
tp354
a(g121
L10950L
tp355
a(g123
L5896L
tp356
a(g125
L6494L
tp357
a(g127
L4542L
tp358
a(g129
L6436L
tp359
a(g131
L6448L
tp360
a(g133
L14001L
tp361
a(g135
L4439L
tp362
a(g137
L4586L
tp363
a(g139
L6357L
tp364
a(g141
L677L
tp365
a(g143
L4118L
tp366
a(g145
L594L
tp367
a(g147
L5302L
tp368
a(g149
L759L
tp369
a(g151
L5471L
tp370
a(g153
L4366L
tp371
a(g155
L22810L
tp372
a(g157
L5112L
tp373
a(g159
L28144L
tp374
a(g161
L10829L
tp375
a(g163
L4405L
tp376
a(g165
L4546L
tp377
a(g167
L4838L
tp378
a(g169
L10870L
tp379
a(g171
L13967L
tp380
a(g173
L4684L
tp381
a(g175
L3404L
tp382
a(g177
L5582L
tp383
a(g179
L10840L
tp384
a(g181
L17965L
tp385
a(g183
L5695L
tp386
a(g185
L3L
tp387
a(g187
L6169L
tp388
a(g189
L28251L
tp389
a(g191
L7644L
tp390
a(g193
L13274L
tp391
a(g195
L3518L
tp392
a(g197
L2364L
tp393
a(g199
L5658L
tp394
a(g201
L14427L
tp395
a(g203
L13644L
tp396
a(g205
L6389L
tp397
a(g207
L4475L
tp398
a(g209
L5161L
tp399
a(g211
L10905L
tp400
a(g213
L4538L
tp401
a(g215
L20900L
tp402
a(g217
L4423L
tp403
a(g219
L10860L
tp404
a(g221
L12827L
tp405
a(g223
L2835L
tp406
a(g225
L10929L
tp407
a(g227
L2991L
tp408
a(g229
L14078L
tp409
a(g231
L4408L
tp410
a(g233
L5662L
tp411
a(g235
L5682L
tp412
a(g237
L5705L
tp413
a(g239
L5712L
tp414
a(g241
L2841L
tp415
a(g243
L10886L
tp416
a(g245
L4368L
tp417
a(g247
L5114L
tp418
a(g249
L33137L
tp419
a(g251
L10876L
tp420
a(g253
L15840L
tp421
a(g255
L4550L
tp422
a(g257
L6358L
tp423
a(g259
L14396L
tp424
a(g261
L6747L
tp425
a(g263
L28040L
tp426
a(g265
L4583L
tp427
a(g267
L5126L
tp428
a(g269
L4609L
tp429
a(g271
L201L
tp430
a(g273
L10848L
tp431
a(g275
L4411L
tp432
a(g277
L20770L
tp433
a(g279
L21900L
tp434
a(g281
L12918L
tp435
a(g283
L15852L
tp436
a(g285
L7683L
tp437
a(g287
L33512L
tp438
a(g289
L4412L
tp439
a(g291
L10192L
tp440
a(g293
L14288L
tp441
aaI806949
a.