(lp1
(lp2
(Vbiological_process
p3
I268396
tp4
a(Vcellular_component
p5
I92056
tp6
a(Vmolecular_function
p7
I83045
tp8
a(Vorganelle
p9
I23653
tp10
a(Vanatomical structure development
p11
I18890
tp12
a(Vtransport
p13
I16947
tp14
a(Vcellular nitrogen compound metabolic process
p15
I14617
tp16
a(Vsignal transduction
p17
I11964
tp18
a(Vsmall molecule metabolic process
p19
I11448
tp20
a(Vion binding
p21
I10934
tp22
a(Vprotein complex
p23
I10713
tp24
a(Vresponse to stress
p25
I10586
tp26
a(Vbiosynthetic process
p27
I10052
tp28
a(Vcatabolic process
p29
I7690
tp30
a(Vcellular protein modification process
p31
I6996
tp32
a(Vimmune system process
p33
I5185
tp34
a(Vcellular component assembly
p35
I4792
tp36
a(Vcytosol
p37
I4615
tp38
a(Vlipid metabolic process
p39
I4541
tp40
a(Vcell differentiation
p41
I4513
tp42
a(Vtransmembrane transporter activity
p43
I4165
tp44
a(Venzyme binding
p45
I3935
tp46
a(Vplasma membrane
p47
I3863
tp48
a(VDNA metabolic process
p49
I3729
tp50
a(Voxidoreductase activity
p51
I3610
tp52
a(Vlocomotion
p53
I3268
tp54
a(Vnucleolus
p55
I3257
tp56
a(Vcytoplasm
p57
I3076
tp58
a(Vvesicle-mediated transport
p59
I3066
tp60
a(VDNA binding
p61
I3056
tp62
a(Vtransmembrane transport
p63
I3027
tp64
a(Vcarbohydrate metabolic process
p65
I2991
tp66
a(Vnucleus
p67
I2990
tp68
a(Vanatomical structure formation involved in morphogenesis
p69
I2932
tp70
a(Vchromosome organization
p71
I2767
tp72
a(Vmacromolecular complex assembly
p73
I2724
tp74
a(Vcellular amino acid metabolic process
p75
I2649
tp76
a(Vhomeostatic process
p77
I2610
tp78
a(Vnucleobase-containing compound catabolic process
p79
I2555
tp80
a(Vprotein complex assembly
p81
I2239
tp82
a(Vcell motility
p83
I2220
tp84
a(Vkinase activity
p85
I2208
tp86
a(Vembryo development
p87
I2204
tp88
a(Vprotein maturation
p89
I2170
tp90
a(Vgrowth
p91
I2136
tp92
a(Vcytoskeletal protein binding
p93
I2130
tp94
a(Vcytoskeleton organization
p95
I2072
tp96
a(Vsignal transducer activity
p97
I2048
tp98
a(Vneurological system process
p99
I1985
tp100
a(VRNA binding
p101
I1906
tp102
a(VATPase activity
p103
I1813
tp104
a(Vmitochondrion
p105
I1714
tp106
a(Vlipid binding
p107
I1625
tp108
a(Vcytoplasmic membrane-bounded vesicle
p109
I1611
tp110
a(VGolgi apparatus
p111
I1569
tp112
a(Vligase activity
p113
I1537
tp114
a(Vcytoskeleton
p115
I1468
tp116
a(Vpeptidase activity
p117
I1418
tp118
a(Vendoplasmic reticulum
p119
I1400
tp120
a(Vmembrane organization
p121
I1368
tp122
a(Vcell adhesion
p123
I1362
tp124
a(Venzyme regulator activity
p125
I1297
tp126
a(Vcofactor metabolic process
p127
I1250
tp128
a(Vcell-cell signaling
p129
I1233
tp130
a(Vcell proliferation
p131
I1232
tp132
a(Vcell death
p133
I1227
tp134
a(Vendosome
p135
I1220
tp136
a(Vmicrotubule organizing center
p137
I1214
tp138
a(Vnucleoplasm
p139
I1185
tp140
a(Vtranscription factor binding
p141
I1152
tp142
a(Vnucleic acid binding transcription factor activity
p143
I1122
tp144
a(Vprotein binding transcription factor activity
p145
I1098
tp146
a(Vsulfur compound metabolic process
p147
I1057
tp148
a(Vcell morphogenesis
p149
I1023
tp150
a(Vstructural molecule activity
p151
I982
tp152
a(Vgeneration of precursor metabolites and energy
p153
I947
tp154
a(Vtransferase activity, transferring acyl groups
p155
I905
tp156
a(Vprotein targeting
p157
I856
tp158
a(Vextracellular region
p159
I836
tp160
a(Vlyase activity
p161
I748
tp162
a(VmRNA processing
p163
I737
tp164
a(Vsymbiosis, encompassing mutualism through parasitism
p165
I735
tp166
a(Vphosphatase activity
p167
I720
tp168
a(Vextracellular space
p169
I692
tp170
a(Vextracellular matrix organization
p171
I661
tp172
a(Vvacuole
p173
I655
tp174
a(Vnuclease activity
p175
I653
tp176
a(Vcilium
p177
I648
tp178
a(Vhelicase activity
p179
I647
tp180
a(Vtransferase activity, transferring glycosyl groups
p181
I634
tp182
a(Vcell cycle
p183
I620
tp184
a(Vexternal encapsulating structure
p185
I556
tp186
a(Vnucleocytoplasmic transport
p187
I555
tp188
a(Vreproduction
p189
I541
tp190
a(Vcell division
p191
I536
tp192
a(Vmethyltransferase activity
p193
I534
tp194
a(Vcell wall
p195
I533
tp196
a(Vaging
p197
I532
tp198
a(Vcell junction organization
p199
I527
tp200
a(Visomerase activity
p201
I503
tp202
a(Vplastid
p203
I502
tp204
a(Vprotein folding
p205
I497
tp206
a(Vsecondary metabolic process
p207
I472
tp208
a(Vnucleotidyltransferase activity
p209
I462
tp210
a(Vdevelopmental maturation
p211
I455
tp212
a(Vmitochondrion organization
p213
I425
tp214
a(Vchromosome
p215
I402
tp216
a(Vcytoskeleton-dependent intracellular transport
p217
I400
tp218
a(Vhydrolase activity, acting on carbon-nitrogen (but not peptide) bonds
p219
I398
tp220
a(Vribonucleoprotein complex assembly
p221
I385
tp222
a(Vlysosome
p223
I382
tp224
a(Vcirculatory system process
p225
I374
tp226
a(VtRNA metabolic process
p227
I365
tp228
a(VGTPase activity
p229
I352
tp230
a(Vhistone binding
p231
I344
tp232
a(Vnuclear envelope
p233
I323
tp234
a(VmRNA binding
p235
I320
tp236
a(Vcell wall organization or biogenesis
p237
I272
tp238
a(Vchromosome segregation
p239
I270
tp240
a(Vhydrolase activity, acting on glycosyl bonds
p241
I269
tp242
a(Vvacuolar transport
p243
I265
tp244
a(Vplasma membrane organization
p245
I263
tp246
a(Vmitosis
p247
I259
tp248
a(Vperoxisome
p249
I248
tp250
a(Vunfolded protein binding
p251
I234
tp252
a(Vproteinaceous extracellular matrix
p253
I232
tp254
a(Vtranslation factor activity, nucleic acid binding
p255
I225
tp256
a(Vprotein transporter activity
p257
I224
tp258
a(Vstructural constituent of ribosome
p259
I203
tp260
a(Vsmall conjugating protein binding
p261
I200
tp262
a(Vprotein binding, bridging
p263
I199
tp264
a(Vtranslation
p265
I192
tp266
a(Vlipid particle
p267
I174
tp268
a(Vribosome
p269
I157
tp270
a(Vtransferase activity, transferring alkyl or aryl (other than methyl) groups
p271
I145
tp272
a(Vintracellular
p273
I139
tp274
a(Vnuclear chromosome
p275
I111
tp276
a(Vpigmentation
p277
I110
tp278
a(Vribosome biogenesis
p279
I94
tp280
a(VrRNA binding
p281
I86
tp282
a(Vnitrogen cycle metabolic process
p283
I59
tp284
a(Vtransposition
p285
I55
tp286
a(Vthylakoid
p287
I40
tp288
a(Vcell
p289
I14
tp290
a(Vphotosynthesis
p291
I4
tp292
a(Vcytoplasmic chromosome
p293
I1
tp294
aa(lp295
(g3
L6372L
tp296
a(g5
L4365L
tp297
a(g7
L2787L
tp298
a(g9
L21685L
tp299
a(g11
L26888L
tp300
a(g13
L5491L
tp301
a(g15
L18268L
tp302
a(g17
L5801L
tp303
a(g19
L22689L
tp304
a(g21
L21630L
tp305
a(g23
L21693L
tp306
a(g25
L5613L
tp307
a(g27
L7192L
tp308
a(g29
L7190L
tp309
a(g31
L5168L
tp310
a(g33
L1781L
tp311
a(g35
L13633L
tp312
a(g37
L4599L
tp313
a(g39
L5326L
tp314
a(g41
L13924L
tp315
a(g43
L13690L
tp316
a(g45
L12968L
tp317
a(g47
L4644L
tp318
a(g49
L4995L
tp319
a(g51
L10598L
tp320
a(g53
L20507L
tp321
a(g55
L4507L
tp322
a(g57
L4514L
tp323
a(g59
L10381L
tp324
a(g61
L2790L
tp325
a(g63
L29927L
tp326
a(g65
L4725L
tp327
a(g67
L4422L
tp328
a(g69
L26682L
tp329
a(g71
L28228L
tp330
a(g73
L31581L
tp331
a(g75
L5218L
tp332
a(g77
L21086L
tp333
a(g79
L18282L
tp334
a(g81
L5165L
tp335
a(g83
L26901L
tp336
a(g85
L10466L
tp337
a(g87
L7881L
tp338
a(g89
L28535L
tp339
a(g91
L20503L
tp340
a(g93
L6320L
tp341
a(g95
L5663L
tp342
a(g97
L3827L
tp343
a(g99
L27837L
tp344
a(g101
L2830L
tp345
a(g103
L10963L
tp346
a(g105
L4515L
tp347
a(g107
L6500L
tp348
a(g109
L10229L
tp349
a(g111
L4567L
tp350
a(g113
L10950L
tp351
a(g115
L4621L
tp352
a(g117
L6448L
tp353
a(g119
L4556L
tp354
a(g121
L30984L
tp355
a(g123
L5791L
tp356
a(g125
L14001L
tp357
a(g127
L28144L
tp358
a(g129
L5896L
tp359
a(g131
L6494L
tp360
a(g133
L6436L
tp361
a(g135
L4542L
tp362
a(g137
L4586L
tp363
a(g139
L4439L
tp364
a(g141
L6357L
tp365
a(g143
L759L
tp366
a(g145
L677L
tp367
a(g147
L5471L
tp368
a(g149
L594L
tp369
a(g151
L4118L
tp370
a(g153
L4838L
tp371
a(g155
L10829L
tp372
a(g157
L5302L
tp373
a(g159
L4366L
tp374
a(g161
L10905L
tp375
a(g163
L5112L
tp376
a(g165
L22810L
tp377
a(g167
L10870L
tp378
a(g169
L4405L
tp379
a(g171
L13967L
tp380
a(g173
L4546L
tp381
a(g175
L3518L
tp382
a(g177
L4684L
tp383
a(g179
L3404L
tp384
a(g181
L10840L
tp385
a(g183
L5695L
tp386
a(g185
L14078L
tp387
a(g187
L5582L
tp388
a(g189
L3L
tp389
a(g191
L28251L
tp390
a(g193
L6389L
tp391
a(g195
L4408L
tp392
a(g197
L6169L
tp393
a(g199
L17965L
tp394
a(g201
L10929L
tp395
a(g203
L7644L
tp396
a(g205
L5161L
tp397
a(g207
L12827L
tp398
a(g209
L10860L
tp399
a(g211
L13274L
tp400
a(g213
L5658L
tp401
a(g215
L4475L
tp402
a(g217
L14427L
tp403
a(g219
L10886L
tp404
a(g221
L13644L
tp405
a(g223
L4538L
tp406
a(g225
L2364L
tp407
a(g227
L5114L
tp408
a(g229
L2991L
tp409
a(g231
L20900L
tp410
a(g233
L4423L
tp411
a(g235
L2835L
tp412
a(g237
L33137L
tp413
a(g239
L5705L
tp414
a(g241
L10876L
tp415
a(g243
L5682L
tp416
a(g245
L5662L
tp417
a(g247
L5712L
tp418
a(g249
L4550L
tp419
a(g251
L28040L
tp420
a(g253
L4368L
tp421
a(g255
L6358L
tp422
a(g257
L6747L
tp423
a(g259
L2841L
tp424
a(g261
L15840L
tp425
a(g263
L14396L
tp426
a(g265
L5126L
tp427
a(g267
L4583L
tp428
a(g269
L4609L
tp429
a(g271
L10848L
tp430
a(g273
L4411L
tp431
a(g275
L201L
tp432
a(g277
L21900L
tp433
a(g279
L20770L
tp434
a(g281
L12918L
tp435
a(g283
L33512L
tp436
a(g285
L15852L
tp437
a(g287
L7683L
tp438
a(g289
L4412L
tp439
a(g291
L10192L
tp440
a(g293
L202L
tp441
aaI766511
a.