(lp1
(lp2
(Vbiological_process
p3
I349076
tp4
a(Vcellular_component
p5
I117818
tp6
a(Vmolecular_function
p7
I96507
tp8
a(Vorganelle
p9
I31365
tp10
a(Vanatomical structure development
p11
I25657
tp12
a(Vtransport
p13
I19998
tp14
a(Vcellular nitrogen compound metabolic process
p15
I17000
tp16
a(Vsignal transduction
p17
I15988
tp18
a(Vresponse to stress
p19
I13469
tp20
a(Vprotein complex
p21
I13213
tp22
a(Vsmall molecule metabolic process
p23
I12054
tp24
a(Vion binding
p25
I11988
tp26
a(Vbiosynthetic process
p27
I11687
tp28
a(Vcatabolic process
p29
I8842
tp30
a(Vcellular protein modification process
p31
I8613
tp32
a(Vimmune system process
p33
I7057
tp34
a(Vcellular component assembly
p35
I5947
tp36
a(Vcell differentiation
p37
I5841
tp38
a(Vcytosol
p39
I5714
tp40
a(Vlipid metabolic process
p41
I5495
tp42
a(Venzyme binding
p43
I5022
tp44
a(Vplasma membrane
p45
I4450
tp46
a(Vlocomotion
p47
I4292
tp48
a(Vnucleolus
p49
I4244
tp50
a(Vvesicle-mediated transport
p51
I4098
tp52
a(Vtransmembrane transporter activity
p53
I4066
tp54
a(Vanatomical structure formation involved in morphogenesis
p55
I3800
tp56
a(VDNA metabolic process
p57
I3781
tp58
a(Vnucleus
p59
I3774
tp60
a(Vhomeostatic process
p61
I3549
tp62
a(Vmacromolecular complex assembly
p63
I3438
tp64
a(Voxidoreductase activity
p65
I3395
tp66
a(Vcarbohydrate metabolic process
p67
I3366
tp68
a(VDNA binding
p69
I3330
tp70
a(Vchromosome organization
p71
I3249
tp72
a(Vnucleobase-containing compound catabolic process
p73
I3181
tp74
a(Vcytoplasm
p75
I3068
tp76
a(Vtransmembrane transport
p77
I3058
tp78
a(Vcell motility
p79
I3038
tp80
a(Vsignal transducer activity
p81
I3031
tp82
a(Vembryo development
p83
I2991
tp84
a(Vneurological system process
p85
I2986
tp86
a(Vprotein maturation
p87
I2885
tp88
a(Vgrowth
p89
I2820
tp90
a(Vprotein complex assembly
p91
I2820
tp92
a(Vcytoskeletal protein binding
p93
I2818
tp94
a(Vcytoskeleton organization
p95
I2541
tp96
a(VRNA binding
p97
I2423
tp98
a(Vkinase activity
p99
I2403
tp100
a(VGolgi apparatus
p101
I2303
tp102
a(Vcytoplasmic membrane-bounded vesicle
p103
I2213
tp104
a(Vcellular amino acid metabolic process
p105
I2210
tp106
a(Vmitochondrion
p107
I2204
tp108
a(Vcell-cell signaling
p109
I1989
tp110
a(Vlipid binding
p111
I1981
tp112
a(Vendoplasmic reticulum
p113
I1885
tp114
a(Vpeptidase activity
p115
I1856
tp116
a(Vcytoskeleton
p117
I1852
tp118
a(Vmembrane organization
p119
I1776
tp120
a(Vcell adhesion
p121
I1749
tp122
a(Vcell death
p123
I1746
tp124
a(VATPase activity
p125
I1712
tp126
a(Vendosome
p127
I1664
tp128
a(Vligase activity
p129
I1640
tp130
a(Venzyme regulator activity
p131
I1613
tp132
a(Vcell proliferation
p133
I1604
tp134
a(Vstructural molecule activity
p135
I1595
tp136
a(Vnucleoplasm
p137
I1539
tp138
a(Vprotein targeting
p139
I1493
tp140
a(Vmicrotubule organizing center
p141
I1415
tp142
a(Vtranscription factor binding
p143
I1402
tp144
a(Vcell morphogenesis
p145
I1371
tp146
a(Vsulfur compound metabolic process
p147
I1348
tp148
a(Vextracellular region
p149
I1325
tp150
a(Vprotein binding transcription factor activity
p151
I1296
tp152
a(Vnucleic acid binding transcription factor activity
p153
I1255
tp154
a(Vcofactor metabolic process
p155
I1156
tp156
a(Vextracellular space
p157
I1114
tp158
a(Vgeneration of precursor metabolites and energy
p159
I1081
tp160
a(Vextracellular matrix organization
p161
I991
tp162
a(Vsymbiosis, encompassing mutualism through parasitism
p163
I979
tp164
a(Vvacuole
p165
I970
tp166
a(Vtransferase activity, transferring acyl groups
p167
I957
tp168
a(VmRNA processing
p169
I943
tp170
a(Vcilium
p171
I867
tp172
a(Vplastid
p173
I865
tp174
a(Vphosphatase activity
p175
I801
tp176
a(Vreproduction
p177
I740
tp178
a(Vcirculatory system process
p179
I737
tp180
a(Vaging
p181
I732
tp182
a(Vcell cycle
p183
I710
tp184
a(Vnucleocytoplasmic transport
p185
I706
tp186
a(Vtransferase activity, transferring glycosyl groups
p187
I682
tp188
a(Vcell junction organization
p189
I667
tp190
a(Vlyase activity
p191
I632
tp192
a(Vhelicase activity
p193
I612
tp194
a(Vprotein folding
p195
I609
tp196
a(Vmethyltransferase activity
p197
I597
tp198
a(Vcell division
p199
I590
tp200
a(Vexternal encapsulating structure
p201
I585
tp202
a(Vcell wall
p203
I576
tp204
a(Vstructural constituent of ribosome
p205
I569
tp206
a(Vdevelopmental maturation
p207
I545
tp208
a(Vnuclease activity
p209
I525
tp210
a(Vsecondary metabolic process
p211
I521
tp212
a(Vlysosome
p213
I513
tp214
a(Vmitochondrion organization
p215
I505
tp216
a(Vribonucleoprotein complex assembly
p217
I499
tp218
a(Vcytoskeleton-dependent intracellular transport
p219
I498
tp220
a(VGTPase activity
p221
I493
tp222
a(Vchromosome
p223
I473
tp224
a(Visomerase activity
p225
I447
tp226
a(Vnuclear envelope
p227
I443
tp228
a(VmRNA binding
p229
I412
tp230
a(Vhistone binding
p231
I411
tp232
a(Vnucleotidyltransferase activity
p233
I396
tp234
a(Vcell wall organization or biogenesis
p235
I367
tp236
a(Vvacuolar transport
p237
I366
tp238
a(Vproteinaceous extracellular matrix
p239
I363
tp240
a(Vhydrolase activity, acting on glycosyl bonds
p241
I350
tp242
a(Vplasma membrane organization
p243
I346
tp244
a(Vmitosis
p245
I322
tp246
a(VtRNA metabolic process
p247
I308
tp248
a(Vtranslation factor activity, nucleic acid binding
p249
I306
tp250
a(Vhydrolase activity, acting on carbon-nitrogen (but not peptide) bonds
p251
I305
tp252
a(Vperoxisome
p253
I304
tp254
a(Vprotein binding, bridging
p255
I301
tp256
a(Vchromosome segregation
p257
I301
tp258
a(Vunfolded protein binding
p259
I254
tp260
a(Vlipid particle
p261
I238
tp262
a(Vribosome
p263
I235
tp264
a(Vsmall conjugating protein binding
p265
I234
tp266
a(Vtranslation
p267
I228
tp268
a(Vprotein transporter activity
p269
I206
tp270
a(Vribosome biogenesis
p271
I178
tp272
a(Vtransferase activity, transferring alkyl or aryl (other than methyl) groups
p273
I171
tp274
a(Vnuclear chromosome
p275
I159
tp276
a(Vintracellular
p277
I135
tp278
a(Vpigmentation
p279
I128
tp280
a(Vthylakoid
p281
I118
tp282
a(VrRNA binding
p283
I112
tp284
a(Vnitrogen cycle metabolic process
p285
I53
tp286
a(Vtransposition
p287
I39
tp288
a(Vphotosynthesis
p289
I35
tp290
a(Vcell
p291
I16
tp292
a(Vcytoplasmic chromosome
p293
I1
tp294
aa(lp295
(g3
L6372L
tp296
a(g5
L4365L
tp297
a(g7
L2787L
tp298
a(g9
L21685L
tp299
a(g11
L26888L
tp300
a(g13
L5491L
tp301
a(g15
L18268L
tp302
a(g17
L5801L
tp303
a(g19
L5613L
tp304
a(g21
L21693L
tp305
a(g23
L22689L
tp306
a(g25
L21630L
tp307
a(g27
L7192L
tp308
a(g29
L7190L
tp309
a(g31
L5168L
tp310
a(g33
L1781L
tp311
a(g35
L13633L
tp312
a(g37
L13924L
tp313
a(g39
L4599L
tp314
a(g41
L5326L
tp315
a(g43
L12968L
tp316
a(g45
L4644L
tp317
a(g47
L20507L
tp318
a(g49
L4507L
tp319
a(g51
L10381L
tp320
a(g53
L13690L
tp321
a(g55
L26682L
tp322
a(g57
L4995L
tp323
a(g59
L4422L
tp324
a(g61
L21086L
tp325
a(g63
L31581L
tp326
a(g65
L10598L
tp327
a(g67
L4725L
tp328
a(g69
L2790L
tp329
a(g71
L28228L
tp330
a(g73
L18282L
tp331
a(g75
L4514L
tp332
a(g77
L29927L
tp333
a(g79
L26901L
tp334
a(g81
L3827L
tp335
a(g83
L7881L
tp336
a(g85
L27837L
tp337
a(g87
L28535L
tp338
a(g89
L20503L
tp339
a(g91
L5165L
tp340
a(g93
L6320L
tp341
a(g95
L5663L
tp342
a(g97
L2830L
tp343
a(g99
L10466L
tp344
a(g101
L4567L
tp345
a(g103
L10229L
tp346
a(g105
L5218L
tp347
a(g107
L4515L
tp348
a(g109
L5896L
tp349
a(g111
L6500L
tp350
a(g113
L4556L
tp351
a(g115
L6448L
tp352
a(g117
L4621L
tp353
a(g119
L30984L
tp354
a(g121
L5791L
tp355
a(g123
L6436L
tp356
a(g125
L10963L
tp357
a(g127
L4542L
tp358
a(g129
L10950L
tp359
a(g131
L14001L
tp360
a(g133
L6494L
tp361
a(g135
L4118L
tp362
a(g137
L4439L
tp363
a(g139
L5302L
tp364
a(g141
L4586L
tp365
a(g143
L6357L
tp366
a(g145
L594L
tp367
a(g147
L5471L
tp368
a(g149
L4366L
tp369
a(g151
L677L
tp370
a(g153
L759L
tp371
a(g155
L28144L
tp372
a(g157
L4405L
tp373
a(g159
L4838L
tp374
a(g161
L13967L
tp375
a(g163
L22810L
tp376
a(g165
L4546L
tp377
a(g167
L10829L
tp378
a(g169
L5112L
tp379
a(g171
L4684L
tp380
a(g173
L7644L
tp381
a(g175
L10870L
tp382
a(g177
L3L
tp383
a(g179
L2364L
tp384
a(g181
L6169L
tp385
a(g183
L5695L
tp386
a(g185
L5582L
tp387
a(g187
L10840L
tp388
a(g189
L17965L
tp389
a(g191
L10905L
tp390
a(g193
L3404L
tp391
a(g195
L5161L
tp392
a(g197
L6389L
tp393
a(g199
L28251L
tp394
a(g201
L14078L
tp395
a(g203
L4408L
tp396
a(g205
L2841L
tp397
a(g207
L13274L
tp398
a(g209
L3518L
tp399
a(g211
L12827L
tp400
a(g213
L4538L
tp401
a(g215
L5658L
tp402
a(g217
L13644L
tp403
a(g219
L14427L
tp404
a(g221
L2991L
tp405
a(g223
L4475L
tp406
a(g225
L10929L
tp407
a(g227
L4423L
tp408
a(g229
L2835L
tp409
a(g231
L20900L
tp410
a(g233
L10860L
tp411
a(g235
L33137L
tp412
a(g237
L5682L
tp413
a(g239
L4368L
tp414
a(g241
L10876L
tp415
a(g243
L5662L
tp416
a(g245
L5712L
tp417
a(g247
L5114L
tp418
a(g249
L6358L
tp419
a(g251
L10886L
tp420
a(g253
L4550L
tp421
a(g255
L14396L
tp422
a(g257
L5705L
tp423
a(g259
L28040L
tp424
a(g261
L4583L
tp425
a(g263
L4609L
tp426
a(g265
L15840L
tp427
a(g267
L5126L
tp428
a(g269
L6747L
tp429
a(g271
L20770L
tp430
a(g273
L10848L
tp431
a(g275
L201L
tp432
a(g277
L4411L
tp433
a(g279
L21900L
tp434
a(g281
L7683L
tp435
a(g283
L12918L
tp436
a(g285
L33512L
tp437
a(g287
L15852L
tp438
a(g289
L10192L
tp439
a(g291
L4412L
tp440
a(g293
L202L
tp441
aaI960910
a.