(lp1
(lp2
(Vbiological_process
p3
I163309
tp4
a(Vcellular_component
p5
I56723
tp6
a(Vmolecular_function
p7
I45860
tp8
a(Vorganelle
p9
I15444
tp10
a(Vanatomical structure development
p11
I11590
tp12
a(Vtransport
p13
I9278
tp14
a(Vcellular nitrogen compound metabolic process
p15
I8669
tp16
a(Vsignal transduction
p17
I7280
tp18
a(Vprotein complex
p19
I6901
tp20
a(Vresponse to stress
p21
I6244
tp22
a(Vsmall molecule metabolic process
p23
I5812
tp24
a(Vion binding
p25
I5773
tp26
a(Vbiosynthetic process
p27
I5527
tp28
a(Vcellular protein modification process
p29
I4617
tp30
a(Vcatabolic process
p31
I4293
tp32
a(Vimmune system process
p33
I3345
tp34
a(Vcellular component assembly
p35
I3036
tp36
a(Vcytosol
p37
I2942
tp38
a(Vcell differentiation
p39
I2685
tp40
a(Venzyme binding
p41
I2499
tp42
a(Vlipid metabolic process
p43
I2458
tp44
a(VDNA metabolic process
p45
I2218
tp46
a(Vvesicle-mediated transport
p47
I2143
tp48
a(Vnucleolus
p49
I2076
tp50
a(Vplasma membrane
p51
I1986
tp52
a(Vlocomotion
p53
I1972
tp54
a(Vnucleus
p55
I1904
tp56
a(Vchromosome organization
p57
I1900
tp58
a(Vanatomical structure formation involved in morphogenesis
p59
I1775
tp60
a(Vcarbohydrate metabolic process
p61
I1735
tp62
a(Vmacromolecular complex assembly
p63
I1667
tp64
a(Vtransmembrane transporter activity
p65
I1665
tp66
a(Vhomeostatic process
p67
I1592
tp68
a(Vnucleobase-containing compound catabolic process
p69
I1523
tp70
a(Voxidoreductase activity
p71
I1511
tp72
a(Vembryo development
p73
I1497
tp74
a(VDNA binding
p75
I1467
tp76
a(Vcytoplasm
p77
I1464
tp78
a(Vcytoskeletal protein binding
p79
I1464
tp80
a(Vkinase activity
p81
I1422
tp82
a(Vcytoskeleton organization
p83
I1401
tp84
a(Vcell motility
p85
I1355
tp86
a(Vprotein complex assembly
p87
I1352
tp88
a(Vgrowth
p89
I1340
tp90
a(Vtransmembrane transport
p91
I1302
tp92
a(Vprotein maturation
p93
I1299
tp94
a(Vneurological system process
p95
I1182
tp96
a(VRNA binding
p97
I1134
tp98
a(Vcellular amino acid metabolic process
p99
I1128
tp100
a(Vmitochondrion
p101
I1077
tp102
a(Vsignal transducer activity
p103
I1053
tp104
a(VGolgi apparatus
p105
I1035
tp106
a(Vlipid binding
p107
I1013
tp108
a(Vcytoskeleton
p109
I1010
tp110
a(Vcytoplasmic membrane-bounded vesicle
p111
I976
tp112
a(VATPase activity
p113
I918
tp114
a(Vendoplasmic reticulum
p115
I887
tp116
a(Vmembrane organization
p117
I859
tp118
a(Vendosome
p119
I832
tp120
a(Vmicrotubule organizing center
p121
I824
tp122
a(Vcell death
p123
I816
tp124
a(Vcell adhesion
p125
I813
tp126
a(Venzyme regulator activity
p127
I811
tp128
a(Vnucleoplasm
p129
I807
tp130
a(Vligase activity
p131
I803
tp132
a(Vpeptidase activity
p133
I766
tp134
a(Vcell proliferation
p135
I745
tp136
a(Vcell-cell signaling
p137
I735
tp138
a(Vcell morphogenesis
p139
I703
tp140
a(Vtranscription factor binding
p141
I678
tp142
a(Vprotein binding transcription factor activity
p143
I624
tp144
a(Vprotein targeting
p145
I603
tp146
a(Vstructural molecule activity
p147
I601
tp148
a(Vsulfur compound metabolic process
p149
I584
tp150
a(Vcofactor metabolic process
p151
I532
tp152
a(Vnucleic acid binding transcription factor activity
p153
I514
tp154
a(Vtransferase activity, transferring acyl groups
p155
I496
tp156
a(Vphosphatase activity
p157
I491
tp158
a(VmRNA processing
p159
I485
tp160
a(Vcell cycle
p161
I483
tp162
a(Vextracellular region
p163
I469
tp164
a(Vsymbiosis, encompassing mutualism through parasitism
p165
I457
tp166
a(Vgeneration of precursor metabolites and energy
p167
I456
tp168
a(Vcilium
p169
I455
tp170
a(Vvacuole
p171
I439
tp172
a(Vreproduction
p173
I406
tp174
a(Vhelicase activity
p175
I391
tp176
a(Vtransferase activity, transferring glycosyl groups
p177
I371
tp178
a(Vextracellular space
p179
I367
tp180
a(Vcell junction organization
p181
I367
tp182
a(Vextracellular matrix organization
p183
I356
tp184
a(Vnucleocytoplasmic transport
p185
I343
tp186
a(Vplastid
p187
I338
tp188
a(Vcell division
p189
I338
tp190
a(Vlyase activity
p191
I334
tp192
a(Vaging
p193
I333
tp194
a(Vcytoskeleton-dependent intracellular transport
p195
I316
tp196
a(Vprotein folding
p197
I298
tp198
a(Vmethyltransferase activity
p199
I295
tp200
a(Vnuclease activity
p201
I285
tp202
a(Vchromosome
p203
I283
tp204
a(Vdevelopmental maturation
p205
I264
tp206
a(Vmitochondrion organization
p207
I258
tp208
a(Vribonucleoprotein complex assembly
p209
I258
tp210
a(Vcirculatory system process
p211
I253
tp212
a(Visomerase activity
p213
I251
tp214
a(Vlysosome
p215
I234
tp216
a(VGTPase activity
p217
I231
tp218
a(Vexternal encapsulating structure
p219
I221
tp220
a(Vnuclear envelope
p221
I219
tp222
a(Vcell wall
p223
I217
tp224
a(Vsecondary metabolic process
p225
I216
tp226
a(Vhistone binding
p227
I212
tp228
a(Vnucleotidyltransferase activity
p229
I212
tp230
a(Vchromosome segregation
p231
I209
tp232
a(VtRNA metabolic process
p233
I208
tp234
a(Vhydrolase activity, acting on glycosyl bonds
p235
I198
tp236
a(VmRNA binding
p237
I192
tp238
a(Vvacuolar transport
p239
I191
tp240
a(Vmitosis
p241
I188
tp242
a(Vplasma membrane organization
p243
I175
tp244
a(Vcell wall organization or biogenesis
p245
I173
tp246
a(Vhydrolase activity, acting on carbon-nitrogen (but not peptide) bonds
p247
I167
tp248
a(Vstructural constituent of ribosome
p249
I156
tp250
a(Vprotein binding, bridging
p251
I141
tp252
a(Vtranslation factor activity, nucleic acid binding
p253
I133
tp254
a(Vperoxisome
p255
I131
tp256
a(Vsmall conjugating protein binding
p257
I124
tp258
a(Vunfolded protein binding
p259
I121
tp260
a(Vlipid particle
p261
I120
tp262
a(Vtranslation
p263
I114
tp264
a(Vproteinaceous extracellular matrix
p265
I103
tp266
a(Vprotein transporter activity
p267
I101
tp268
a(Vribosome
p269
I91
tp270
a(Vtransferase activity, transferring alkyl or aryl (other than methyl) groups
p271
I83
tp272
a(Vnuclear chromosome
p273
I80
tp274
a(Vribosome biogenesis
p275
I77
tp276
a(Vintracellular
p277
I72
tp278
a(Vpigmentation
p279
I60
tp280
a(VrRNA binding
p281
I39
tp282
a(Vnitrogen cycle metabolic process
p283
I29
tp284
a(Vthylakoid
p285
I29
tp286
a(Vtransposition
p287
I20
tp288
a(Vcell
p289
I6
tp290
a(Vphotosynthesis
p291
I4
tp292
a(VRNA modification guide activity
p293
I1
tp294
aa(lp295
(g3
L6372L
tp296
a(g5
L4365L
tp297
a(g7
L2787L
tp298
a(g9
L21685L
tp299
a(g11
L26888L
tp300
a(g13
L5491L
tp301
a(g15
L18268L
tp302
a(g17
L5801L
tp303
a(g19
L21693L
tp304
a(g21
L5613L
tp305
a(g23
L22689L
tp306
a(g25
L21630L
tp307
a(g27
L7192L
tp308
a(g29
L5168L
tp309
a(g31
L7190L
tp310
a(g33
L1781L
tp311
a(g35
L13633L
tp312
a(g37
L4599L
tp313
a(g39
L13924L
tp314
a(g41
L12968L
tp315
a(g43
L5326L
tp316
a(g45
L4995L
tp317
a(g47
L10381L
tp318
a(g49
L4507L
tp319
a(g51
L4644L
tp320
a(g53
L20507L
tp321
a(g55
L4422L
tp322
a(g57
L28228L
tp323
a(g59
L26682L
tp324
a(g61
L4725L
tp325
a(g63
L31581L
tp326
a(g65
L13690L
tp327
a(g67
L21086L
tp328
a(g69
L18282L
tp329
a(g71
L10598L
tp330
a(g73
L7881L
tp331
a(g75
L2790L
tp332
a(g77
L4514L
tp333
a(g79
L6320L
tp334
a(g81
L10466L
tp335
a(g83
L5663L
tp336
a(g85
L26901L
tp337
a(g87
L5165L
tp338
a(g89
L20503L
tp339
a(g91
L29927L
tp340
a(g93
L28535L
tp341
a(g95
L27837L
tp342
a(g97
L2830L
tp343
a(g99
L5218L
tp344
a(g101
L4515L
tp345
a(g103
L3827L
tp346
a(g105
L4567L
tp347
a(g107
L6500L
tp348
a(g109
L4621L
tp349
a(g111
L10229L
tp350
a(g113
L10963L
tp351
a(g115
L4556L
tp352
a(g117
L30984L
tp353
a(g119
L4542L
tp354
a(g121
L4586L
tp355
a(g123
L6436L
tp356
a(g125
L5791L
tp357
a(g127
L14001L
tp358
a(g129
L4439L
tp359
a(g131
L10950L
tp360
a(g133
L6448L
tp361
a(g135
L6494L
tp362
a(g137
L5896L
tp363
a(g139
L594L
tp364
a(g141
L6357L
tp365
a(g143
L677L
tp366
a(g145
L5302L
tp367
a(g147
L4118L
tp368
a(g149
L5471L
tp369
a(g151
L28144L
tp370
a(g153
L759L
tp371
a(g155
L10829L
tp372
a(g157
L10870L
tp373
a(g159
L5112L
tp374
a(g161
L5695L
tp375
a(g163
L4366L
tp376
a(g165
L22810L
tp377
a(g167
L4838L
tp378
a(g169
L4684L
tp379
a(g171
L4546L
tp380
a(g173
L3L
tp381
a(g175
L3404L
tp382
a(g177
L10840L
tp383
a(g179
L4405L
tp384
a(g181
L17965L
tp385
a(g183
L13967L
tp386
a(g185
L5582L
tp387
a(g187
L7644L
tp388
a(g189
L28251L
tp389
a(g191
L10905L
tp390
a(g193
L6169L
tp391
a(g195
L14427L
tp392
a(g197
L5161L
tp393
a(g199
L6389L
tp394
a(g201
L3518L
tp395
a(g203
L4475L
tp396
a(g205
L13274L
tp397
a(g207
L5658L
tp398
a(g209
L13644L
tp399
a(g211
L2364L
tp400
a(g213
L10929L
tp401
a(g215
L4538L
tp402
a(g217
L2991L
tp403
a(g219
L14078L
tp404
a(g221
L4423L
tp405
a(g223
L4408L
tp406
a(g225
L12827L
tp407
a(g227
L20900L
tp408
a(g229
L10860L
tp409
a(g231
L5705L
tp410
a(g233
L5114L
tp411
a(g235
L10876L
tp412
a(g237
L2835L
tp413
a(g239
L5682L
tp414
a(g241
L5712L
tp415
a(g243
L5662L
tp416
a(g245
L33137L
tp417
a(g247
L10886L
tp418
a(g249
L2841L
tp419
a(g251
L14396L
tp420
a(g253
L6358L
tp421
a(g255
L4550L
tp422
a(g257
L15840L
tp423
a(g259
L28040L
tp424
a(g261
L4583L
tp425
a(g263
L5126L
tp426
a(g265
L4368L
tp427
a(g267
L6747L
tp428
a(g269
L4609L
tp429
a(g271
L10848L
tp430
a(g273
L201L
tp431
a(g275
L20770L
tp432
a(g277
L4411L
tp433
a(g279
L21900L
tp434
a(g281
L12918L
tp435
a(g283
L33512L
tp436
a(g285
L7683L
tp437
a(g287
L15852L
tp438
a(g289
L4412L
tp439
a(g291
L10192L
tp440
a(g293
L14288L
tp441
aaI456612
a.