(lp1
(lp2
(Vbiological_process
p3
I145448
tp4
a(Vcellular_component
p5
I50554
tp6
a(Vmolecular_function
p7
I41975
tp8
a(Vorganelle
p9
I13507
tp10
a(Vanatomical structure development
p11
I10849
tp12
a(Vtransport
p13
I8278
tp14
a(Vcellular nitrogen compound metabolic process
p15
I7504
tp16
a(Vsignal transduction
p17
I6619
tp18
a(Vprotein complex
p19
I6403
tp20
a(Vresponse to stress
p21
I5595
tp22
a(Vion binding
p23
I5382
tp24
a(Vsmall molecule metabolic process
p25
I5303
tp26
a(Vbiosynthetic process
p27
I4791
tp28
a(Vcatabolic process
p29
I3842
tp30
a(Vcellular protein modification process
p31
I3810
tp32
a(Vimmune system process
p33
I3087
tp34
a(Vcytosol
p35
I2800
tp36
a(Vcellular component assembly
p37
I2753
tp38
a(Vcell differentiation
p39
I2535
tp40
a(Venzyme binding
p41
I2316
tp42
a(Vlipid metabolic process
p43
I2313
tp44
a(Vnucleolus
p45
I1977
tp46
a(Vvesicle-mediated transport
p47
I1920
tp48
a(Vplasma membrane
p49
I1839
tp50
a(Vlocomotion
p51
I1789
tp52
a(VDNA metabolic process
p53
I1740
tp54
a(Vanatomical structure formation involved in morphogenesis
p55
I1671
tp56
a(Vnucleus
p57
I1642
tp58
a(Vmacromolecular complex assembly
p59
I1599
tp60
a(Vchromosome organization
p61
I1549
tp62
a(Vtransmembrane transporter activity
p63
I1541
tp64
a(VDNA binding
p65
I1523
tp66
a(Vhomeostatic process
p67
I1462
tp68
a(Vcarbohydrate metabolic process
p69
I1460
tp70
a(Voxidoreductase activity
p71
I1430
tp72
a(Vembryo development
p73
I1406
tp74
a(Vnucleobase-containing compound catabolic process
p75
I1361
tp76
a(Vcytoplasm
p77
I1295
tp78
a(Vprotein complex assembly
p79
I1276
tp80
a(Vprotein maturation
p81
I1267
tp82
a(Vcell motility
p83
I1265
tp84
a(Vcytoskeletal protein binding
p85
I1247
tp86
a(Vtransmembrane transport
p87
I1207
tp88
a(Vgrowth
p89
I1200
tp90
a(Vcytoskeleton organization
p91
I1196
tp92
a(VRNA binding
p93
I1145
tp94
a(Vneurological system process
p95
I1097
tp96
a(Vsignal transducer activity
p97
I1050
tp98
a(Vcellular amino acid metabolic process
p99
I1025
tp100
a(Vmitochondrion
p101
I986
tp102
a(Vkinase activity
p103
I978
tp104
a(VGolgi apparatus
p105
I958
tp106
a(Vcytoplasmic membrane-bounded vesicle
p107
I949
tp108
a(Vlipid binding
p109
I928
tp110
a(Vcytoskeleton
p111
I824
tp112
a(Vpeptidase activity
p113
I795
tp114
a(Venzyme regulator activity
p115
I785
tp116
a(Vendoplasmic reticulum
p117
I784
tp118
a(Vmembrane organization
p119
I784
tp120
a(Vnucleoplasm
p121
I780
tp122
a(VATPase activity
p123
I759
tp124
a(Vcell death
p125
I752
tp126
a(Vcell-cell signaling
p127
I727
tp128
a(Vligase activity
p129
I726
tp130
a(Vcell proliferation
p131
I721
tp132
a(Vcell adhesion
p133
I717
tp134
a(Vendosome
p135
I697
tp136
a(Vmicrotubule organizing center
p137
I690
tp138
a(Vtranscription factor binding
p139
I679
tp140
a(Vstructural molecule activity
p141
I664
tp142
a(Vprotein binding transcription factor activity
p143
I645
tp144
a(Vprotein targeting
p145
I608
tp146
a(Vnucleic acid binding transcription factor activity
p147
I600
tp148
a(Vcell morphogenesis
p149
I581
tp150
a(Vsulfur compound metabolic process
p151
I559
tp152
a(Vextracellular region
p153
I505
tp154
a(Vcofactor metabolic process
p155
I497
tp156
a(Vgeneration of precursor metabolites and energy
p157
I484
tp158
a(Vsymbiosis, encompassing mutualism through parasitism
p159
I480
tp160
a(VmRNA processing
p161
I468
tp162
a(Vextracellular space
p163
I446
tp164
a(Vtransferase activity, transferring acyl groups
p165
I437
tp166
a(Vvacuole
p167
I424
tp168
a(Vextracellular matrix organization
p169
I409
tp170
a(Vcilium
p171
I362
tp172
a(Vphosphatase activity
p173
I357
tp174
a(Vreproduction
p175
I340
tp176
a(Vnucleocytoplasmic transport
p177
I337
tp178
a(Vcell cycle
p179
I326
tp180
a(Vcell junction organization
p181
I322
tp182
a(Vplastid
p183
I313
tp184
a(Vaging
p185
I308
tp186
a(Vprotein folding
p187
I307
tp188
a(Vhelicase activity
p189
I285
tp190
a(Vtransferase activity, transferring glycosyl groups
p191
I285
tp192
a(Vlyase activity
p193
I281
tp194
a(Vcell division
p195
I274
tp196
a(Vribonucleoprotein complex assembly
p197
I272
tp198
a(Vdevelopmental maturation
p199
I262
tp200
a(Vcytoskeleton-dependent intracellular transport
p201
I253
tp202
a(Vcirculatory system process
p203
I252
tp204
a(Vmitochondrion organization
p205
I246
tp206
a(Vmethyltransferase activity
p207
I235
tp208
a(Vlysosome
p209
I233
tp210
a(Vexternal encapsulating structure
p211
I224
tp212
a(Visomerase activity
p213
I223
tp214
a(VGTPase activity
p215
I222
tp216
a(Vchromosome
p217
I220
tp218
a(Vcell wall
p219
I220
tp220
a(Vnuclease activity
p221
I216
tp222
a(Vsecondary metabolic process
p223
I209
tp224
a(VmRNA binding
p225
I207
tp226
a(Vhistone binding
p227
I200
tp228
a(Vstructural constituent of ribosome
p229
I193
tp230
a(Vnucleotidyltransferase activity
p231
I188
tp232
a(Vnuclear envelope
p233
I187
tp234
a(Vvacuolar transport
p235
I171
tp236
a(VtRNA metabolic process
p237
I159
tp238
a(Vtranslation factor activity, nucleic acid binding
p239
I156
tp240
a(Vcell wall organization or biogenesis
p241
I154
tp242
a(Vmitosis
p243
I149
tp244
a(Vplasma membrane organization
p245
I146
tp246
a(Vhydrolase activity, acting on carbon-nitrogen (but not peptide) bonds
p247
I144
tp248
a(Vunfolded protein binding
p249
I138
tp250
a(Vchromosome segregation
p251
I138
tp252
a(Vhydrolase activity, acting on glycosyl bonds
p253
I133
tp254
a(Vperoxisome
p255
I132
tp256
a(Vprotein binding, bridging
p257
I129
tp258
a(Vlipid particle
p259
I123
tp260
a(Vsmall conjugating protein binding
p261
I121
tp262
a(Vproteinaceous extracellular matrix
p263
I117
tp264
a(Vtranslation
p265
I109
tp266
a(Vprotein transporter activity
p267
I105
tp268
a(Vribosome
p269
I102
tp270
a(Vtransferase activity, transferring alkyl or aryl (other than methyl) groups
p271
I80
tp272
a(Vnuclear chromosome
p273
I71
tp274
a(Vribosome biogenesis
p275
I69
tp276
a(Vpigmentation
p277
I64
tp278
a(Vintracellular
p279
I52
tp280
a(VrRNA binding
p281
I41
tp282
a(Vnitrogen cycle metabolic process
p283
I30
tp284
a(Vthylakoid
p285
I25
tp286
a(Vtransposition
p287
I20
tp288
a(Vphotosynthesis
p289
I9
tp290
a(Vcell
p291
I5
tp292
a(Vcytoplasmic chromosome
p293
I1
tp294
aa(lp295
(g3
L6372L
tp296
a(g5
L4365L
tp297
a(g7
L2787L
tp298
a(g9
L21685L
tp299
a(g11
L26888L
tp300
a(g13
L5491L
tp301
a(g15
L18268L
tp302
a(g17
L5801L
tp303
a(g19
L21693L
tp304
a(g21
L5613L
tp305
a(g23
L21630L
tp306
a(g25
L22689L
tp307
a(g27
L7192L
tp308
a(g29
L7190L
tp309
a(g31
L5168L
tp310
a(g33
L1781L
tp311
a(g35
L4599L
tp312
a(g37
L13633L
tp313
a(g39
L13924L
tp314
a(g41
L12968L
tp315
a(g43
L5326L
tp316
a(g45
L4507L
tp317
a(g47
L10381L
tp318
a(g49
L4644L
tp319
a(g51
L20507L
tp320
a(g53
L4995L
tp321
a(g55
L26682L
tp322
a(g57
L4422L
tp323
a(g59
L31581L
tp324
a(g61
L28228L
tp325
a(g63
L13690L
tp326
a(g65
L2790L
tp327
a(g67
L21086L
tp328
a(g69
L4725L
tp329
a(g71
L10598L
tp330
a(g73
L7881L
tp331
a(g75
L18282L
tp332
a(g77
L4514L
tp333
a(g79
L5165L
tp334
a(g81
L28535L
tp335
a(g83
L26901L
tp336
a(g85
L6320L
tp337
a(g87
L29927L
tp338
a(g89
L20503L
tp339
a(g91
L5663L
tp340
a(g93
L2830L
tp341
a(g95
L27837L
tp342
a(g97
L3827L
tp343
a(g99
L5218L
tp344
a(g101
L4515L
tp345
a(g103
L10466L
tp346
a(g105
L4567L
tp347
a(g107
L10229L
tp348
a(g109
L6500L
tp349
a(g111
L4621L
tp350
a(g113
L6448L
tp351
a(g115
L14001L
tp352
a(g117
L4556L
tp353
a(g119
L30984L
tp354
a(g121
L4439L
tp355
a(g123
L10963L
tp356
a(g125
L6436L
tp357
a(g127
L5896L
tp358
a(g129
L10950L
tp359
a(g131
L6494L
tp360
a(g133
L5791L
tp361
a(g135
L4542L
tp362
a(g137
L4586L
tp363
a(g139
L6357L
tp364
a(g141
L4118L
tp365
a(g143
L677L
tp366
a(g145
L5302L
tp367
a(g147
L759L
tp368
a(g149
L594L
tp369
a(g151
L5471L
tp370
a(g153
L4366L
tp371
a(g155
L28144L
tp372
a(g157
L4838L
tp373
a(g159
L22810L
tp374
a(g161
L5112L
tp375
a(g163
L4405L
tp376
a(g165
L10829L
tp377
a(g167
L4546L
tp378
a(g169
L13967L
tp379
a(g171
L4684L
tp380
a(g173
L10870L
tp381
a(g175
L3L
tp382
a(g177
L5582L
tp383
a(g179
L5695L
tp384
a(g181
L17965L
tp385
a(g183
L7644L
tp386
a(g185
L6169L
tp387
a(g187
L5161L
tp388
a(g189
L3404L
tp389
a(g191
L10840L
tp390
a(g193
L10905L
tp391
a(g195
L28251L
tp392
a(g197
L13644L
tp393
a(g199
L13274L
tp394
a(g201
L14427L
tp395
a(g203
L2364L
tp396
a(g205
L5658L
tp397
a(g207
L6389L
tp398
a(g209
L4538L
tp399
a(g211
L14078L
tp400
a(g213
L10929L
tp401
a(g215
L2991L
tp402
a(g217
L4475L
tp403
a(g219
L4408L
tp404
a(g221
L3518L
tp405
a(g223
L12827L
tp406
a(g225
L2835L
tp407
a(g227
L20900L
tp408
a(g229
L2841L
tp409
a(g231
L10860L
tp410
a(g233
L4423L
tp411
a(g235
L5682L
tp412
a(g237
L5114L
tp413
a(g239
L6358L
tp414
a(g241
L33137L
tp415
a(g243
L5712L
tp416
a(g245
L5662L
tp417
a(g247
L10886L
tp418
a(g249
L28040L
tp419
a(g251
L5705L
tp420
a(g253
L10876L
tp421
a(g255
L4550L
tp422
a(g257
L14396L
tp423
a(g259
L4583L
tp424
a(g261
L15840L
tp425
a(g263
L4368L
tp426
a(g265
L5126L
tp427
a(g267
L6747L
tp428
a(g269
L4609L
tp429
a(g271
L10848L
tp430
a(g273
L201L
tp431
a(g275
L20770L
tp432
a(g277
L21900L
tp433
a(g279
L4411L
tp434
a(g281
L12918L
tp435
a(g283
L33512L
tp436
a(g285
L7683L
tp437
a(g287
L15852L
tp438
a(g289
L10192L
tp439
a(g291
L4412L
tp440
a(g293
L202L
tp441
aaI410921
a.