(lp1
(lp2
(Vbiological_process
p3
I359776
tp4
a(Vcellular_component
p5
I124591
tp6
a(Vmolecular_function
p7
I101455
tp8
a(Vorganelle
p9
I34083
tp10
a(Vanatomical structure development
p11
I24797
tp12
a(Vtransport
p13
I21596
tp14
a(Vcellular nitrogen compound metabolic process
p15
I18475
tp16
a(Vsignal transduction
p17
I15852
tp18
a(Vresponse to stress
p19
I14510
tp20
a(Vprotein complex
p21
I14338
tp22
a(Vbiosynthetic process
p23
I13061
tp24
a(Vsmall molecule metabolic process
p25
I13008
tp26
a(Vion binding
p27
I12622
tp28
a(Vcellular protein modification process
p29
I10168
tp30
a(Vcatabolic process
p31
I9470
tp32
a(Vimmune system process
p33
I7036
tp34
a(Vcellular component assembly
p35
I6302
tp36
a(Vcytosol
p37
I6203
tp38
a(Vlipid metabolic process
p39
I5947
tp40
a(Vcell differentiation
p41
I5725
tp42
a(Venzyme binding
p43
I5425
tp44
a(Vplasma membrane
p45
I4690
tp46
a(VDNA metabolic process
p47
I4627
tp48
a(Vtransmembrane transporter activity
p49
I4539
tp50
a(Vvesicle-mediated transport
p51
I4307
tp52
a(Vnucleus
p53
I4238
tp54
a(Vnucleolus
p55
I4228
tp56
a(Vcarbohydrate metabolic process
p57
I4155
tp58
a(Vlocomotion
p59
I4046
tp60
a(Vchromosome organization
p61
I3798
tp62
a(Vanatomical structure formation involved in morphogenesis
p63
I3715
tp64
a(Voxidoreductase activity
p65
I3583
tp66
a(Vmacromolecular complex assembly
p67
I3564
tp68
a(Vcytoplasm
p69
I3391
tp70
a(Vhomeostatic process
p71
I3388
tp72
a(Vtransmembrane transport
p73
I3301
tp74
a(Vkinase activity
p75
I3289
tp76
a(Vnucleobase-containing compound catabolic process
p77
I3237
tp78
a(VDNA binding
p79
I3154
tp80
a(Vcytoskeletal protein binding
p81
I3100
tp82
a(Vgrowth
p83
I3033
tp84
a(Vembryo development
p85
I2992
tp86
a(Vprotein complex assembly
p87
I2893
tp88
a(Vcytoskeleton organization
p89
I2886
tp90
a(Vprotein maturation
p91
I2839
tp92
a(Vcell motility
p93
I2837
tp94
a(VRNA binding
p95
I2543
tp96
a(Vneurological system process
p97
I2501
tp98
a(Vmitochondrion
p99
I2393
tp100
a(Vcellular amino acid metabolic process
p101
I2387
tp102
a(VGolgi apparatus
p103
I2291
tp104
a(VATPase activity
p105
I2237
tp106
a(Vcytoskeleton
p107
I2154
tp108
a(Vcytoplasmic membrane-bounded vesicle
p109
I2030
tp110
a(Vsignal transducer activity
p111
I1991
tp112
a(Vlipid binding
p113
I1982
tp114
a(Vendoplasmic reticulum
p115
I1892
tp116
a(Vmembrane organization
p117
I1852
tp118
a(Vligase activity
p119
I1821
tp120
a(Vmicrotubule organizing center
p121
I1813
tp122
a(Vpeptidase activity
p123
I1806
tp124
a(Vendosome
p125
I1700
tp126
a(Vcell-cell signaling
p127
I1684
tp128
a(Vcell death
p129
I1651
tp130
a(Vcell adhesion
p131
I1646
tp132
a(Vnucleoplasm
p133
I1630
tp134
a(Venzyme regulator activity
p135
I1630
tp136
a(Vcell morphogenesis
p137
I1522
tp138
a(Vcell proliferation
p139
I1505
tp140
a(Vprotein targeting
p141
I1396
tp142
a(Vtranscription factor binding
p143
I1383
tp144
a(Vsulfur compound metabolic process
p145
I1362
tp146
a(Vcofactor metabolic process
p147
I1359
tp148
a(Vprotein binding transcription factor activity
p149
I1256
tp150
a(Vstructural molecule activity
p151
I1252
tp152
a(Vextracellular region
p153
I1203
tp154
a(Vtransferase activity, transferring acyl groups
p155
I1113
tp156
a(Vcilium
p157
I1107
tp158
a(VmRNA processing
p159
I1082
tp160
a(Vgeneration of precursor metabolites and energy
p161
I1062
tp162
a(Vvacuole
p163
I1056
tp164
a(Vnucleic acid binding transcription factor activity
p165
I1033
tp166
a(Vplastid
p167
I1030
tp168
a(Vcell cycle
p169
I1019
tp170
a(Vphosphatase activity
p171
I952
tp172
a(Vsymbiosis, encompassing mutualism through parasitism
p173
I938
tp174
a(Vhelicase activity
p175
I935
tp176
a(Vreproduction
p177
I833
tp178
a(Vextracellular space
p179
I793
tp180
a(Vtransferase activity, transferring glycosyl groups
p181
I784
tp182
a(Vlyase activity
p183
I782
tp184
a(Vnucleocytoplasmic transport
p185
I779
tp186
a(Vextracellular matrix organization
p187
I757
tp188
a(Vcell division
p189
I740
tp190
a(Vaging
p191
I685
tp192
a(Vprotein folding
p193
I676
tp194
a(Vmethyltransferase activity
p195
I673
tp196
a(Vcytoskeleton-dependent intracellular transport
p197
I654
tp198
a(Vcell junction organization
p199
I653
tp200
a(Vdevelopmental maturation
p201
I606
tp202
a(Vnuclease activity
p203
I605
tp204
a(Vexternal encapsulating structure
p205
I581
tp206
a(Vcell wall
p207
I572
tp208
a(Vchromosome
p209
I563
tp210
a(Vsecondary metabolic process
p211
I562
tp212
a(Visomerase activity
p213
I558
tp214
a(Vcirculatory system process
p215
I541
tp216
a(Vribonucleoprotein complex assembly
p217
I539
tp218
a(Vmitochondrion organization
p219
I506
tp220
a(Vlysosome
p221
I493
tp222
a(Vnuclear envelope
p223
I492
tp224
a(Vcell wall organization or biogenesis
p225
I465
tp226
a(VGTPase activity
p227
I455
tp228
a(Vnucleotidyltransferase activity
p229
I453
tp230
a(VmRNA binding
p231
I453
tp232
a(Vhydrolase activity, acting on glycosyl bonds
p233
I450
tp234
a(Vhistone binding
p235
I397
tp236
a(Vchromosome segregation
p237
I390
tp238
a(Vplasma membrane organization
p239
I383
tp240
a(Vvacuolar transport
p241
I375
tp242
a(Vperoxisome
p243
I365
tp244
a(VtRNA metabolic process
p245
I358
tp246
a(Vhydrolase activity, acting on carbon-nitrogen (but not peptide) bonds
p247
I356
tp248
a(Vmitosis
p249
I356
tp250
a(Vprotein binding, bridging
p251
I337
tp252
a(Vsmall conjugating protein binding
p253
I291
tp254
a(Vtranslation factor activity, nucleic acid binding
p255
I287
tp256
a(Vunfolded protein binding
p257
I264
tp258
a(Vstructural constituent of ribosome
p259
I260
tp260
a(Vtranslation
p261
I257
tp262
a(Vproteinaceous extracellular matrix
p263
I252
tp264
a(Vlipid particle
p265
I230
tp266
a(Vribosome
p267
I208
tp268
a(Vprotein transporter activity
p269
I208
tp270
a(Vtransferase activity, transferring alkyl or aryl (other than methyl) groups
p271
I176
tp272
a(Vintracellular
p273
I160
tp274
a(Vnuclear chromosome
p275
I154
tp276
a(Vribosome biogenesis
p277
I149
tp278
a(Vpigmentation
p279
I144
tp280
a(Vthylakoid
p281
I135
tp282
a(VrRNA binding
p283
I79
tp284
a(Vnitrogen cycle metabolic process
p285
I59
tp286
a(Vtransposition
p287
I58
tp288
a(Vphotosynthesis
p289
I38
tp290
a(Vcell
p291
I9
tp292
a(Vcytoplasmic chromosome
p293
I6
tp294
a(VRNA modification guide activity
p295
I2
tp296
aa(lp297
(g3
L6372L
tp298
a(g5
L4365L
tp299
a(g7
L2787L
tp300
a(g9
L21685L
tp301
a(g11
L26888L
tp302
a(g13
L5491L
tp303
a(g15
L18268L
tp304
a(g17
L5801L
tp305
a(g19
L5613L
tp306
a(g21
L21693L
tp307
a(g23
L7192L
tp308
a(g25
L22689L
tp309
a(g27
L21630L
tp310
a(g29
L5168L
tp311
a(g31
L7190L
tp312
a(g33
L1781L
tp313
a(g35
L13633L
tp314
a(g37
L4599L
tp315
a(g39
L5326L
tp316
a(g41
L13924L
tp317
a(g43
L12968L
tp318
a(g45
L4644L
tp319
a(g47
L4995L
tp320
a(g49
L13690L
tp321
a(g51
L10381L
tp322
a(g53
L4422L
tp323
a(g55
L4507L
tp324
a(g57
L4725L
tp325
a(g59
L20507L
tp326
a(g61
L28228L
tp327
a(g63
L26682L
tp328
a(g65
L10598L
tp329
a(g67
L31581L
tp330
a(g69
L4514L
tp331
a(g71
L21086L
tp332
a(g73
L29927L
tp333
a(g75
L10466L
tp334
a(g77
L18282L
tp335
a(g79
L2790L
tp336
a(g81
L6320L
tp337
a(g83
L20503L
tp338
a(g85
L7881L
tp339
a(g87
L5165L
tp340
a(g89
L5663L
tp341
a(g91
L28535L
tp342
a(g93
L26901L
tp343
a(g95
L2830L
tp344
a(g97
L27837L
tp345
a(g99
L4515L
tp346
a(g101
L5218L
tp347
a(g103
L4567L
tp348
a(g105
L10963L
tp349
a(g107
L4621L
tp350
a(g109
L10229L
tp351
a(g111
L3827L
tp352
a(g113
L6500L
tp353
a(g115
L4556L
tp354
a(g117
L30984L
tp355
a(g119
L10950L
tp356
a(g121
L4586L
tp357
a(g123
L6448L
tp358
a(g125
L4542L
tp359
a(g127
L5896L
tp360
a(g129
L6436L
tp361
a(g131
L5791L
tp362
a(g133
L4439L
tp363
a(g135
L14001L
tp364
a(g137
L594L
tp365
a(g139
L6494L
tp366
a(g141
L5302L
tp367
a(g143
L6357L
tp368
a(g145
L5471L
tp369
a(g147
L28144L
tp370
a(g149
L677L
tp371
a(g151
L4118L
tp372
a(g153
L4366L
tp373
a(g155
L10829L
tp374
a(g157
L4684L
tp375
a(g159
L5112L
tp376
a(g161
L4838L
tp377
a(g163
L4546L
tp378
a(g165
L759L
tp379
a(g167
L7644L
tp380
a(g169
L5695L
tp381
a(g171
L10870L
tp382
a(g173
L22810L
tp383
a(g175
L3404L
tp384
a(g177
L3L
tp385
a(g179
L4405L
tp386
a(g181
L10840L
tp387
a(g183
L10905L
tp388
a(g185
L5582L
tp389
a(g187
L13967L
tp390
a(g189
L28251L
tp391
a(g191
L6169L
tp392
a(g193
L5161L
tp393
a(g195
L6389L
tp394
a(g197
L14427L
tp395
a(g199
L17965L
tp396
a(g201
L13274L
tp397
a(g203
L3518L
tp398
a(g205
L14078L
tp399
a(g207
L4408L
tp400
a(g209
L4475L
tp401
a(g211
L12827L
tp402
a(g213
L10929L
tp403
a(g215
L2364L
tp404
a(g217
L13644L
tp405
a(g219
L5658L
tp406
a(g221
L4538L
tp407
a(g223
L4423L
tp408
a(g225
L33137L
tp409
a(g227
L2991L
tp410
a(g229
L10860L
tp411
a(g231
L2835L
tp412
a(g233
L10876L
tp413
a(g235
L20900L
tp414
a(g237
L5705L
tp415
a(g239
L5662L
tp416
a(g241
L5682L
tp417
a(g243
L4550L
tp418
a(g245
L5114L
tp419
a(g247
L10886L
tp420
a(g249
L5712L
tp421
a(g251
L14396L
tp422
a(g253
L15840L
tp423
a(g255
L6358L
tp424
a(g257
L28040L
tp425
a(g259
L2841L
tp426
a(g261
L5126L
tp427
a(g263
L4368L
tp428
a(g265
L4583L
tp429
a(g267
L4609L
tp430
a(g269
L6747L
tp431
a(g271
L10848L
tp432
a(g273
L4411L
tp433
a(g275
L201L
tp434
a(g277
L20770L
tp435
a(g279
L21900L
tp436
a(g281
L7683L
tp437
a(g283
L12918L
tp438
a(g285
L33512L
tp439
a(g287
L15852L
tp440
a(g289
L10192L
tp441
a(g291
L4412L
tp442
a(g293
L202L
tp443
a(g295
L14288L
tp444
aaI1003915
a.