(lp1
(lp2
(Vbiological_process
p3
I137552
tp4
a(Vcellular_component
p5
I48231
tp6
a(Vmolecular_function
p7
I39688
tp8
a(Vorganelle
p9
I13044
tp10
a(Vanatomical structure development
p11
I10149
tp12
a(Vtransport
p13
I7800
tp14
a(Vcellular nitrogen compound metabolic process
p15
I7247
tp16
a(Vsignal transduction
p17
I6144
tp18
a(Vprotein complex
p19
I6101
tp20
a(Vresponse to stress
p21
I5276
tp22
a(Vion binding
p23
I5060
tp24
a(Vsmall molecule metabolic process
p25
I5009
tp26
a(Vbiosynthetic process
p27
I4452
tp28
a(Vcellular protein modification process
p29
I3794
tp30
a(Vcatabolic process
p31
I3663
tp32
a(Vimmune system process
p33
I2868
tp34
a(Vcytosol
p35
I2656
tp36
a(Vcellular component assembly
p37
I2572
tp38
a(Vcell differentiation
p39
I2288
tp40
a(Venzyme binding
p41
I2176
tp42
a(Vlipid metabolic process
p43
I2127
tp44
a(Vnucleolus
p45
I1890
tp46
a(VDNA metabolic process
p47
I1779
tp48
a(Vvesicle-mediated transport
p49
I1741
tp50
a(Vlocomotion
p51
I1722
tp52
a(Vplasma membrane
p53
I1700
tp54
a(Vchromosome organization
p55
I1617
tp56
a(Vnucleus
p57
I1570
tp58
a(Vanatomical structure formation involved in morphogenesis
p59
I1557
tp60
a(Vtransmembrane transporter activity
p61
I1506
tp62
a(Vmacromolecular complex assembly
p63
I1447
tp64
a(Vcarbohydrate metabolic process
p65
I1388
tp66
a(VDNA binding
p67
I1360
tp68
a(Vhomeostatic process
p69
I1347
tp70
a(Vembryo development
p71
I1313
tp72
a(Voxidoreductase activity
p73
I1286
tp74
a(Vprotein maturation
p75
I1245
tp76
a(Vnucleobase-containing compound catabolic process
p77
I1240
tp78
a(Vcytoplasm
p79
I1235
tp80
a(Vcell motility
p81
I1208
tp82
a(Vcytoskeletal protein binding
p83
I1195
tp84
a(Vcytoskeleton organization
p85
I1193
tp86
a(Vtransmembrane transport
p87
I1172
tp88
a(Vprotein complex assembly
p89
I1163
tp90
a(Vgrowth
p91
I1109
tp92
a(VRNA binding
p93
I1075
tp94
a(Vneurological system process
p95
I1056
tp96
a(Vcellular amino acid metabolic process
p97
I1036
tp98
a(Vkinase activity
p99
I1035
tp100
a(VGolgi apparatus
p101
I926
tp102
a(Vcytoplasmic membrane-bounded vesicle
p103
I913
tp104
a(Vsignal transducer activity
p105
I900
tp106
a(Vmitochondrion
p107
I893
tp108
a(Vlipid binding
p109
I850
tp110
a(Vcytoskeleton
p111
I821
tp112
a(Vpeptidase activity
p113
I767
tp114
a(Vligase activity
p115
I757
tp116
a(VATPase activity
p117
I747
tp118
a(Vnucleoplasm
p119
I746
tp120
a(Vendoplasmic reticulum
p121
I737
tp122
a(Vmembrane organization
p123
I727
tp124
a(Vcell death
p125
I725
tp126
a(Venzyme regulator activity
p127
I717
tp128
a(Vcell adhesion
p129
I708
tp130
a(Vmicrotubule organizing center
p131
I706
tp132
a(Vendosome
p133
I680
tp134
a(Vcell proliferation
p135
I679
tp136
a(Vcell-cell signaling
p137
I648
tp138
a(Vtranscription factor binding
p139
I621
tp140
a(Vprotein binding transcription factor activity
p141
I580
tp142
a(Vcell morphogenesis
p143
I567
tp144
a(Vstructural molecule activity
p145
I558
tp146
a(Vsulfur compound metabolic process
p147
I519
tp148
a(Vnucleic acid binding transcription factor activity
p149
I501
tp150
a(Vprotein targeting
p151
I500
tp152
a(Vcofactor metabolic process
p153
I490
tp154
a(VmRNA processing
p155
I465
tp156
a(Vextracellular region
p157
I439
tp158
a(Vsymbiosis, encompassing mutualism through parasitism
p159
I424
tp160
a(Vvacuole
p161
I419
tp162
a(Vtransferase activity, transferring acyl groups
p163
I404
tp164
a(Vgeneration of precursor metabolites and energy
p165
I396
tp166
a(Vextracellular space
p167
I363
tp168
a(Vphosphatase activity
p169
I362
tp170
a(Vcilium
p171
I356
tp172
a(Vextracellular matrix organization
p173
I347
tp174
a(Vnucleocytoplasmic transport
p175
I333
tp176
a(Vcell cycle
p177
I331
tp178
a(Vcell junction organization
p179
I325
tp180
a(Vhelicase activity
p181
I318
tp182
a(Vreproduction
p183
I313
tp184
a(Vaging
p185
I294
tp186
a(Vcell division
p187
I284
tp188
a(Vtransferase activity, transferring glycosyl groups
p189
I280
tp190
a(Vprotein folding
p191
I261
tp192
a(Vplastid
p193
I261
tp194
a(Vmethyltransferase activity
p195
I248
tp196
a(Vlyase activity
p197
I246
tp198
a(Vcytoskeleton-dependent intracellular transport
p199
I241
tp200
a(Vnuclease activity
p201
I239
tp202
a(Vdevelopmental maturation
p203
I238
tp204
a(Vchromosome
p205
I231
tp206
a(Vribonucleoprotein complex assembly
p207
I229
tp208
a(Vcirculatory system process
p209
I224
tp210
a(Vlysosome
p211
I224
tp212
a(Vmitochondrion organization
p213
I220
tp214
a(Vhistone binding
p215
I201
tp216
a(Vexternal encapsulating structure
p217
I196
tp218
a(Vsecondary metabolic process
p219
I194
tp220
a(Vcell wall
p221
I192
tp222
a(VGTPase activity
p223
I191
tp224
a(VmRNA binding
p225
I188
tp226
a(Vnuclear envelope
p227
I184
tp228
a(Visomerase activity
p229
I183
tp230
a(VtRNA metabolic process
p231
I182
tp232
a(Vnucleotidyltransferase activity
p233
I175
tp234
a(Vvacuolar transport
p235
I159
tp236
a(Vhydrolase activity, acting on carbon-nitrogen (but not peptide) bonds
p237
I151
tp238
a(Vplasma membrane organization
p239
I146
tp240
a(Vmitosis
p241
I146
tp242
a(Vchromosome segregation
p243
I146
tp244
a(Vcell wall organization or biogenesis
p245
I141
tp246
a(Vtranslation factor activity, nucleic acid binding
p247
I127
tp248
a(Vsmall conjugating protein binding
p249
I125
tp250
a(Vunfolded protein binding
p251
I121
tp252
a(Vstructural constituent of ribosome
p253
I121
tp254
a(Vhydrolase activity, acting on glycosyl bonds
p255
I115
tp256
a(Vperoxisome
p257
I113
tp258
a(Vprotein binding, bridging
p259
I105
tp260
a(Vlipid particle
p261
I103
tp262
a(Vtranslation
p263
I99
tp264
a(Vprotein transporter activity
p265
I95
tp266
a(Vproteinaceous extracellular matrix
p267
I93
tp268
a(Vribosome
p269
I84
tp270
a(Vnuclear chromosome
p271
I72
tp272
a(Vtransferase activity, transferring alkyl or aryl (other than methyl) groups
p273
I71
tp274
a(Vpigmentation
p275
I57
tp276
a(Vribosome biogenesis
p277
I57
tp278
a(Vintracellular
p279
I53
tp280
a(VrRNA binding
p281
I31
tp282
a(Vnitrogen cycle metabolic process
p283
I22
tp284
a(Vthylakoid
p285
I22
tp286
a(Vtransposition
p287
I20
tp288
a(Vcell
p289
I6
tp290
a(Vphotosynthesis
p291
I2
tp292
aa(lp293
(g3
L6372L
tp294
a(g5
L4365L
tp295
a(g7
L2787L
tp296
a(g9
L21685L
tp297
a(g11
L26888L
tp298
a(g13
L5491L
tp299
a(g15
L18268L
tp300
a(g17
L5801L
tp301
a(g19
L21693L
tp302
a(g21
L5613L
tp303
a(g23
L21630L
tp304
a(g25
L22689L
tp305
a(g27
L7192L
tp306
a(g29
L5168L
tp307
a(g31
L7190L
tp308
a(g33
L1781L
tp309
a(g35
L4599L
tp310
a(g37
L13633L
tp311
a(g39
L13924L
tp312
a(g41
L12968L
tp313
a(g43
L5326L
tp314
a(g45
L4507L
tp315
a(g47
L4995L
tp316
a(g49
L10381L
tp317
a(g51
L20507L
tp318
a(g53
L4644L
tp319
a(g55
L28228L
tp320
a(g57
L4422L
tp321
a(g59
L26682L
tp322
a(g61
L13690L
tp323
a(g63
L31581L
tp324
a(g65
L4725L
tp325
a(g67
L2790L
tp326
a(g69
L21086L
tp327
a(g71
L7881L
tp328
a(g73
L10598L
tp329
a(g75
L28535L
tp330
a(g77
L18282L
tp331
a(g79
L4514L
tp332
a(g81
L26901L
tp333
a(g83
L6320L
tp334
a(g85
L5663L
tp335
a(g87
L29927L
tp336
a(g89
L5165L
tp337
a(g91
L20503L
tp338
a(g93
L2830L
tp339
a(g95
L27837L
tp340
a(g97
L5218L
tp341
a(g99
L10466L
tp342
a(g101
L4567L
tp343
a(g103
L10229L
tp344
a(g105
L3827L
tp345
a(g107
L4515L
tp346
a(g109
L6500L
tp347
a(g111
L4621L
tp348
a(g113
L6448L
tp349
a(g115
L10950L
tp350
a(g117
L10963L
tp351
a(g119
L4439L
tp352
a(g121
L4556L
tp353
a(g123
L30984L
tp354
a(g125
L6436L
tp355
a(g127
L14001L
tp356
a(g129
L5791L
tp357
a(g131
L4586L
tp358
a(g133
L4542L
tp359
a(g135
L6494L
tp360
a(g137
L5896L
tp361
a(g139
L6357L
tp362
a(g141
L677L
tp363
a(g143
L594L
tp364
a(g145
L4118L
tp365
a(g147
L5471L
tp366
a(g149
L759L
tp367
a(g151
L5302L
tp368
a(g153
L28144L
tp369
a(g155
L5112L
tp370
a(g157
L4366L
tp371
a(g159
L22810L
tp372
a(g161
L4546L
tp373
a(g163
L10829L
tp374
a(g165
L4838L
tp375
a(g167
L4405L
tp376
a(g169
L10870L
tp377
a(g171
L4684L
tp378
a(g173
L13967L
tp379
a(g175
L5582L
tp380
a(g177
L5695L
tp381
a(g179
L17965L
tp382
a(g181
L3404L
tp383
a(g183
L3L
tp384
a(g185
L6169L
tp385
a(g187
L28251L
tp386
a(g189
L10840L
tp387
a(g191
L5161L
tp388
a(g193
L7644L
tp389
a(g195
L6389L
tp390
a(g197
L10905L
tp391
a(g199
L14427L
tp392
a(g201
L3518L
tp393
a(g203
L13274L
tp394
a(g205
L4475L
tp395
a(g207
L13644L
tp396
a(g209
L2364L
tp397
a(g211
L4538L
tp398
a(g213
L5658L
tp399
a(g215
L20900L
tp400
a(g217
L14078L
tp401
a(g219
L12827L
tp402
a(g221
L4408L
tp403
a(g223
L2991L
tp404
a(g225
L2835L
tp405
a(g227
L4423L
tp406
a(g229
L10929L
tp407
a(g231
L5114L
tp408
a(g233
L10860L
tp409
a(g235
L5682L
tp410
a(g237
L10886L
tp411
a(g239
L5662L
tp412
a(g241
L5712L
tp413
a(g243
L5705L
tp414
a(g245
L33137L
tp415
a(g247
L6358L
tp416
a(g249
L15840L
tp417
a(g251
L28040L
tp418
a(g253
L2841L
tp419
a(g255
L10876L
tp420
a(g257
L4550L
tp421
a(g259
L14396L
tp422
a(g261
L4583L
tp423
a(g263
L5126L
tp424
a(g265
L6747L
tp425
a(g267
L4368L
tp426
a(g269
L4609L
tp427
a(g271
L201L
tp428
a(g273
L10848L
tp429
a(g275
L21900L
tp430
a(g277
L20770L
tp431
a(g279
L4411L
tp432
a(g281
L12918L
tp433
a(g283
L33512L
tp434
a(g285
L7683L
tp435
a(g287
L15852L
tp436
a(g289
L4412L
tp437
a(g291
L10192L
tp438
aaI388869
a.