(lp1
(lp2
(Vbiological_process
p3
I286007
tp4
a(Vcellular_component
p5
I96301
tp6
a(Vmolecular_function
p7
I80327
tp8
a(Vorganelle
p9
I25545
tp10
a(Vanatomical structure development
p11
I21814
tp12
a(Vtransport
p13
I15947
tp14
a(Vsignal transduction
p15
I13118
tp16
a(Vcellular nitrogen compound metabolic process
p17
I12945
tp18
a(Vprotein complex
p19
I11441
tp20
a(Vresponse to stress
p21
I10442
tp22
a(Vion binding
p23
I10079
tp24
a(Vsmall molecule metabolic process
p25
I9012
tp26
a(Vbiosynthetic process
p27
I7867
tp28
a(Vcellular protein modification process
p29
I7466
tp30
a(Vcatabolic process
p31
I6465
tp32
a(Vimmune system process
p33
I5876
tp34
a(Vcell differentiation
p35
I5271
tp36
a(Vcellular component assembly
p37
I4997
tp38
a(Vcytosol
p39
I4729
tp40
a(Venzyme binding
p41
I4545
tp42
a(Vlipid metabolic process
p43
I4273
tp44
a(Vlocomotion
p45
I3810
tp46
a(Vvesicle-mediated transport
p47
I3514
tp48
a(Vnucleolus
p49
I3503
tp50
a(Vanatomical structure formation involved in morphogenesis
p51
I3482
tp52
a(Vplasma membrane
p53
I3342
tp54
a(VDNA metabolic process
p55
I3309
tp56
a(Vtransmembrane transporter activity
p57
I3265
tp58
a(Vnucleus
p59
I3180
tp60
a(Vchromosome organization
p61
I2947
tp62
a(Vhomeostatic process
p63
I2894
tp64
a(VDNA binding
p65
I2856
tp66
a(Vcell motility
p67
I2751
tp68
a(Vmacromolecular complex assembly
p69
I2725
tp70
a(Vcytoplasm
p71
I2707
tp72
a(Voxidoreductase activity
p73
I2473
tp74
a(Vneurological system process
p75
I2468
tp76
a(Vtransmembrane transport
p77
I2462
tp78
a(Vcytoskeletal protein binding
p79
I2455
tp80
a(Vcarbohydrate metabolic process
p81
I2395
tp82
a(Vnucleobase-containing compound catabolic process
p83
I2294
tp84
a(Vembryo development
p85
I2286
tp86
a(Vprotein maturation
p87
I2269
tp88
a(Vcytoskeleton organization
p89
I2248
tp90
a(Vprotein complex assembly
p91
I2225
tp92
a(Vgrowth
p93
I2212
tp94
a(Vsignal transducer activity
p95
I2206
tp96
a(Vkinase activity
p97
I2166
tp98
a(Vlipid binding
p99
I1859
tp100
a(VGolgi apparatus
p101
I1827
tp102
a(Vcytoplasmic membrane-bounded vesicle
p103
I1797
tp104
a(Vcell adhesion
p105
I1742
tp106
a(VRNA binding
p107
I1741
tp108
a(Vmitochondrion
p109
I1714
tp110
a(Vcytoskeleton
p111
I1654
tp112
a(Vcellular amino acid metabolic process
p113
I1591
tp114
a(Vmembrane organization
p115
I1525
tp116
a(Vcell-cell signaling
p117
I1486
tp118
a(Vendoplasmic reticulum
p119
I1467
tp120
a(Vligase activity
p121
I1465
tp122
a(Vendosome
p123
I1463
tp124
a(VATPase activity
p125
I1450
tp126
a(Venzyme regulator activity
p127
I1434
tp128
a(Vpeptidase activity
p129
I1416
tp130
a(Vcell proliferation
p131
I1407
tp132
a(Vcell death
p133
I1343
tp134
a(Vnucleoplasm
p135
I1317
tp136
a(Vmicrotubule organizing center
p137
I1296
tp138
a(Vtranscription factor binding
p139
I1263
tp140
a(Vcell morphogenesis
p141
I1236
tp142
a(Vprotein binding transcription factor activity
p143
I1217
tp144
a(Vnucleic acid binding transcription factor activity
p145
I1112
tp146
a(Vstructural molecule activity
p147
I1020
tp148
a(Vextracellular region
p149
I909
tp150
a(Vprotein targeting
p151
I886
tp152
a(Vsulfur compound metabolic process
p153
I871
tp154
a(Vcofactor metabolic process
p155
I832
tp156
a(Vextracellular space
p157
I827
tp158
a(Vcilium
p159
I789
tp160
a(Vextracellular matrix organization
p161
I787
tp162
a(Vsymbiosis, encompassing mutualism through parasitism
p163
I778
tp164
a(VmRNA processing
p165
I770
tp166
a(Vtransferase activity, transferring acyl groups
p167
I759
tp168
a(Vvacuole
p169
I722
tp170
a(Vphosphatase activity
p171
I718
tp172
a(Vgeneration of precursor metabolites and energy
p173
I684
tp174
a(Vcell junction organization
p175
I647
tp176
a(Vcell cycle
p177
I631
tp178
a(Vaging
p179
I613
tp180
a(Vnucleocytoplasmic transport
p181
I599
tp182
a(Vtransferase activity, transferring glycosyl groups
p183
I579
tp184
a(Vhelicase activity
p185
I573
tp186
a(Vreproduction
p187
I556
tp188
a(Vcell division
p189
I530
tp190
a(Vcirculatory system process
p191
I502
tp192
a(Vdevelopmental maturation
p193
I501
tp194
a(Vcytoskeleton-dependent intracellular transport
p195
I484
tp196
a(Vnuclease activity
p197
I471
tp198
a(Vlyase activity
p199
I444
tp200
a(Vmitochondrion organization
p201
I442
tp202
a(Vmethyltransferase activity
p203
I437
tp204
a(Vlysosome
p205
I425
tp206
a(Vplastid
p207
I413
tp208
a(Vprotein folding
p209
I411
tp210
a(Vribonucleoprotein complex assembly
p211
I395
tp212
a(Vhistone binding
p213
I394
tp214
a(Vchromosome
p215
I383
tp216
a(Vnuclear envelope
p217
I353
tp218
a(Vsecondary metabolic process
p219
I334
tp220
a(VGTPase activity
p221
I324
tp222
a(Vplasma membrane organization
p223
I321
tp224
a(Visomerase activity
p225
I312
tp226
a(Vproteinaceous extracellular matrix
p227
I311
tp228
a(Vnucleotidyltransferase activity
p229
I308
tp230
a(VmRNA binding
p231
I292
tp232
a(Vvacuolar transport
p233
I290
tp234
a(Vexternal encapsulating structure
p235
I279
tp236
a(Vmitosis
p237
I271
tp238
a(Vcell wall
p239
I270
tp240
a(Vhydrolase activity, acting on carbon-nitrogen (but not peptide) bonds
p241
I269
tp242
a(Vprotein binding, bridging
p243
I248
tp244
a(Vchromosome segregation
p245
I243
tp246
a(VtRNA metabolic process
p247
I236
tp248
a(Vcell wall organization or biogenesis
p249
I231
tp250
a(Vsmall conjugating protein binding
p251
I230
tp252
a(Vhydrolase activity, acting on glycosyl bonds
p253
I226
tp254
a(Vprotein transporter activity
p255
I210
tp256
a(Vperoxisome
p257
I208
tp258
a(Vtranslation factor activity, nucleic acid binding
p259
I184
tp260
a(Vlipid particle
p261
I179
tp262
a(Vunfolded protein binding
p263
I177
tp264
a(Vstructural constituent of ribosome
p265
I164
tp266
a(Vtranslation
p267
I147
tp268
a(Vribosome
p269
I130
tp270
a(Vtransferase activity, transferring alkyl or aryl (other than methyl) groups
p271
I120
tp272
a(Vpigmentation
p273
I111
tp274
a(Vnuclear chromosome
p275
I108
tp276
a(Vintracellular
p277
I101
tp278
a(Vribosome biogenesis
p279
I95
tp280
a(VrRNA binding
p281
I49
tp282
a(Vnitrogen cycle metabolic process
p283
I41
tp284
a(Vthylakoid
p285
I36
tp286
a(Vtransposition
p287
I24
tp288
a(Vcell
p289
I17
tp290
a(Vphotosynthesis
p291
I7
tp292
aa(lp293
(g3
L6372L
tp294
a(g5
L4365L
tp295
a(g7
L2787L
tp296
a(g9
L21685L
tp297
a(g11
L26888L
tp298
a(g13
L5491L
tp299
a(g15
L5801L
tp300
a(g17
L18268L
tp301
a(g19
L21693L
tp302
a(g21
L5613L
tp303
a(g23
L21630L
tp304
a(g25
L22689L
tp305
a(g27
L7192L
tp306
a(g29
L5168L
tp307
a(g31
L7190L
tp308
a(g33
L1781L
tp309
a(g35
L13924L
tp310
a(g37
L13633L
tp311
a(g39
L4599L
tp312
a(g41
L12968L
tp313
a(g43
L5326L
tp314
a(g45
L20507L
tp315
a(g47
L10381L
tp316
a(g49
L4507L
tp317
a(g51
L26682L
tp318
a(g53
L4644L
tp319
a(g55
L4995L
tp320
a(g57
L13690L
tp321
a(g59
L4422L
tp322
a(g61
L28228L
tp323
a(g63
L21086L
tp324
a(g65
L2790L
tp325
a(g67
L26901L
tp326
a(g69
L31581L
tp327
a(g71
L4514L
tp328
a(g73
L10598L
tp329
a(g75
L27837L
tp330
a(g77
L29927L
tp331
a(g79
L6320L
tp332
a(g81
L4725L
tp333
a(g83
L18282L
tp334
a(g85
L7881L
tp335
a(g87
L28535L
tp336
a(g89
L5663L
tp337
a(g91
L5165L
tp338
a(g93
L20503L
tp339
a(g95
L3827L
tp340
a(g97
L10466L
tp341
a(g99
L6500L
tp342
a(g101
L4567L
tp343
a(g103
L10229L
tp344
a(g105
L5791L
tp345
a(g107
L2830L
tp346
a(g109
L4515L
tp347
a(g111
L4621L
tp348
a(g113
L5218L
tp349
a(g115
L30984L
tp350
a(g117
L5896L
tp351
a(g119
L4556L
tp352
a(g121
L10950L
tp353
a(g123
L4542L
tp354
a(g125
L10963L
tp355
a(g127
L14001L
tp356
a(g129
L6448L
tp357
a(g131
L6494L
tp358
a(g133
L6436L
tp359
a(g135
L4439L
tp360
a(g137
L4586L
tp361
a(g139
L6357L
tp362
a(g141
L594L
tp363
a(g143
L677L
tp364
a(g145
L759L
tp365
a(g147
L4118L
tp366
a(g149
L4366L
tp367
a(g151
L5302L
tp368
a(g153
L5471L
tp369
a(g155
L28144L
tp370
a(g157
L4405L
tp371
a(g159
L4684L
tp372
a(g161
L13967L
tp373
a(g163
L22810L
tp374
a(g165
L5112L
tp375
a(g167
L10829L
tp376
a(g169
L4546L
tp377
a(g171
L10870L
tp378
a(g173
L4838L
tp379
a(g175
L17965L
tp380
a(g177
L5695L
tp381
a(g179
L6169L
tp382
a(g181
L5582L
tp383
a(g183
L10840L
tp384
a(g185
L3404L
tp385
a(g187
L3L
tp386
a(g189
L28251L
tp387
a(g191
L2364L
tp388
a(g193
L13274L
tp389
a(g195
L14427L
tp390
a(g197
L3518L
tp391
a(g199
L10905L
tp392
a(g201
L5658L
tp393
a(g203
L6389L
tp394
a(g205
L4538L
tp395
a(g207
L7644L
tp396
a(g209
L5161L
tp397
a(g211
L13644L
tp398
a(g213
L20900L
tp399
a(g215
L4475L
tp400
a(g217
L4423L
tp401
a(g219
L12827L
tp402
a(g221
L2991L
tp403
a(g223
L5662L
tp404
a(g225
L10929L
tp405
a(g227
L4368L
tp406
a(g229
L10860L
tp407
a(g231
L2835L
tp408
a(g233
L5682L
tp409
a(g235
L14078L
tp410
a(g237
L5712L
tp411
a(g239
L4408L
tp412
a(g241
L10886L
tp413
a(g243
L14396L
tp414
a(g245
L5705L
tp415
a(g247
L5114L
tp416
a(g249
L33137L
tp417
a(g251
L15840L
tp418
a(g253
L10876L
tp419
a(g255
L6747L
tp420
a(g257
L4550L
tp421
a(g259
L6358L
tp422
a(g261
L4583L
tp423
a(g263
L28040L
tp424
a(g265
L2841L
tp425
a(g267
L5126L
tp426
a(g269
L4609L
tp427
a(g271
L10848L
tp428
a(g273
L21900L
tp429
a(g275
L201L
tp430
a(g277
L4411L
tp431
a(g279
L20770L
tp432
a(g281
L12918L
tp433
a(g283
L33512L
tp434
a(g285
L7683L
tp435
a(g287
L15852L
tp436
a(g289
L4412L
tp437
a(g291
L10192L
tp438
aaI783971
a.