(lp1
(lp2
(Vbiological_process
p3
I275998
tp4
a(Vcellular_component
p5
I93252
tp6
a(Vmolecular_function
p7
I77273
tp8
a(Vorganelle
p9
I24554
tp10
a(Vanatomical structure development
p11
I20862
tp12
a(Vtransport
p13
I15855
tp14
a(Vcellular nitrogen compound metabolic process
p15
I13124
tp16
a(Vsignal transduction
p17
I12172
tp18
a(Vprotein complex
p19
I10518
tp20
a(Vresponse to stress
p21
I10167
tp22
a(Vion binding
p23
I9785
tp24
a(Vsmall molecule metabolic process
p25
I9592
tp26
a(Vbiosynthetic process
p27
I8450
tp28
a(Vcellular protein modification process
p29
I6807
tp30
a(Vcatabolic process
p31
I6575
tp32
a(Vimmune system process
p33
I5789
tp34
a(Vcellular component assembly
p35
I4650
tp36
a(Vcell differentiation
p37
I4586
tp38
a(Vcytosol
p39
I4379
tp40
a(Vlipid metabolic process
p41
I4160
tp42
a(Venzyme binding
p43
I4021
tp44
a(Vtransmembrane transporter activity
p45
I3537
tp46
a(Vlocomotion
p47
I3431
tp48
a(VDNA metabolic process
p49
I3315
tp50
a(Vplasma membrane
p51
I3278
tp52
a(Vvesicle-mediated transport
p53
I3207
tp54
a(Vnucleolus
p55
I3178
tp56
a(Vanatomical structure formation involved in morphogenesis
p57
I2952
tp58
a(Vnucleus
p59
I2938
tp60
a(Vchromosome organization
p61
I2743
tp62
a(Vcytoplasm
p63
I2740
tp64
a(Voxidoreductase activity
p65
I2722
tp66
a(Vhomeostatic process
p67
I2683
tp68
a(Vmacromolecular complex assembly
p69
I2585
tp70
a(Vcarbohydrate metabolic process
p71
I2530
tp72
a(VDNA binding
p73
I2522
tp74
a(Vtransmembrane transport
p75
I2493
tp76
a(Vcell motility
p77
I2396
tp78
a(Vcytoskeletal protein binding
p79
I2378
tp80
a(Vnucleobase-containing compound catabolic process
p81
I2303
tp82
a(Vneurological system process
p83
I2292
tp84
a(Vprotein maturation
p85
I2273
tp86
a(Vembryo development
p87
I2253
tp88
a(Vkinase activity
p89
I2164
tp90
a(Vprotein complex assembly
p91
I2099
tp92
a(Vcytoskeleton organization
p93
I2084
tp94
a(Vgrowth
p95
I2059
tp96
a(Vsignal transducer activity
p97
I2049
tp98
a(Vcellular amino acid metabolic process
p99
I1897
tp100
a(VGolgi apparatus
p101
I1767
tp102
a(VRNA binding
p103
I1758
tp104
a(Vcytoskeleton
p105
I1652
tp106
a(Vcytoplasmic membrane-bounded vesicle
p107
I1631
tp108
a(VATPase activity
p109
I1577
tp110
a(Vlipid binding
p111
I1574
tp112
a(Vcell adhesion
p113
I1571
tp114
a(Vmitochondrion
p115
I1571
tp116
a(Vpeptidase activity
p117
I1439
tp118
a(Vmembrane organization
p119
I1365
tp120
a(Vendoplasmic reticulum
p121
I1343
tp122
a(Vcell-cell signaling
p123
I1338
tp124
a(Vligase activity
p125
I1316
tp126
a(Vcell death
p127
I1294
tp128
a(Vcell proliferation
p129
I1293
tp130
a(Venzyme regulator activity
p131
I1269
tp132
a(Vendosome
p133
I1251
tp134
a(Vmicrotubule organizing center
p135
I1179
tp136
a(Vnucleoplasm
p137
I1165
tp138
a(Vcell morphogenesis
p139
I1079
tp140
a(Vtranscription factor binding
p141
I1060
tp142
a(Vsulfur compound metabolic process
p143
I979
tp144
a(Vprotein binding transcription factor activity
p145
I970
tp146
a(Vstructural molecule activity
p147
I960
tp148
a(Vcofactor metabolic process
p149
I868
tp150
a(Vnucleic acid binding transcription factor activity
p151
I856
tp152
a(Vextracellular matrix organization
p153
I846
tp154
a(Vextracellular region
p155
I838
tp156
a(Vprotein targeting
p157
I814
tp158
a(Vcilium
p159
I814
tp160
a(Vtransferase activity, transferring acyl groups
p161
I784
tp162
a(Vextracellular space
p163
I776
tp164
a(VmRNA processing
p165
I752
tp166
a(Vvacuole
p167
I707
tp168
a(Vsymbiosis, encompassing mutualism through parasitism
p169
I702
tp170
a(Vgeneration of precursor metabolites and energy
p171
I686
tp172
a(Vcell cycle
p173
I685
tp174
a(Vphosphatase activity
p175
I666
tp176
a(Vhelicase activity
p177
I652
tp178
a(Vtransferase activity, transferring glycosyl groups
p179
I600
tp180
a(Vlyase activity
p181
I584
tp182
a(Vaging
p183
I565
tp184
a(Vcell junction organization
p185
I538
tp186
a(Vreproduction
p187
I535
tp188
a(Vcell division
p189
I535
tp190
a(Vnucleocytoplasmic transport
p191
I514
tp192
a(Vdevelopmental maturation
p193
I482
tp194
a(Vnuclease activity
p195
I477
tp196
a(Vcytoskeleton-dependent intracellular transport
p197
I470
tp198
a(Vplastid
p199
I463
tp200
a(Vcirculatory system process
p201
I462
tp202
a(Vmethyltransferase activity
p203
I448
tp204
a(Vprotein folding
p205
I402
tp206
a(Vmitochondrion organization
p207
I400
tp208
a(Vribonucleoprotein complex assembly
p209
I394
tp210
a(Vlysosome
p211
I381
tp212
a(Visomerase activity
p213
I369
tp214
a(Vchromosome
p215
I365
tp216
a(Vnucleotidyltransferase activity
p217
I351
tp218
a(Vexternal encapsulating structure
p219
I344
tp220
a(Vnuclear envelope
p221
I342
tp222
a(Vhistone binding
p223
I335
tp224
a(Vcell wall
p225
I333
tp226
a(VGTPase activity
p227
I329
tp228
a(Vsecondary metabolic process
p229
I326
tp230
a(Vplasma membrane organization
p231
I324
tp232
a(VtRNA metabolic process
p233
I320
tp234
a(VmRNA binding
p235
I302
tp236
a(Vproteinaceous extracellular matrix
p237
I301
tp238
a(Vhydrolase activity, acting on glycosyl bonds
p239
I281
tp240
a(Vhydrolase activity, acting on carbon-nitrogen (but not peptide) bonds
p241
I278
tp242
a(Vvacuolar transport
p243
I251
tp244
a(Vchromosome segregation
p245
I242
tp246
a(Vmitosis
p247
I237
tp248
a(Vcell wall organization or biogenesis
p249
I230
tp250
a(Vperoxisome
p251
I207
tp252
a(Vprotein binding, bridging
p253
I202
tp254
a(Vtranslation factor activity, nucleic acid binding
p255
I198
tp256
a(Vsmall conjugating protein binding
p257
I192
tp258
a(Vunfolded protein binding
p259
I191
tp260
a(Vstructural constituent of ribosome
p261
I188
tp262
a(Vlipid particle
p263
I177
tp264
a(Vprotein transporter activity
p265
I172
tp266
a(Vtranslation
p267
I162
tp268
a(Vribosome
p269
I142
tp270
a(Vtransferase activity, transferring alkyl or aryl (other than methyl) groups
p271
I136
tp272
a(Vnuclear chromosome
p273
I109
tp274
a(Vpigmentation
p275
I105
tp276
a(Vintracellular
p277
I103
tp278
a(Vribosome biogenesis
p279
I83
tp280
a(VrRNA binding
p281
I67
tp282
a(Vnitrogen cycle metabolic process
p283
I49
tp284
a(Vthylakoid
p285
I47
tp286
a(Vtransposition
p287
I25
tp288
a(Vphotosynthesis
p289
I11
tp290
a(Vcell
p291
I10
tp292
aa(lp293
(g3
L6372L
tp294
a(g5
L4365L
tp295
a(g7
L2787L
tp296
a(g9
L21685L
tp297
a(g11
L26888L
tp298
a(g13
L5491L
tp299
a(g15
L18268L
tp300
a(g17
L5801L
tp301
a(g19
L21693L
tp302
a(g21
L5613L
tp303
a(g23
L21630L
tp304
a(g25
L22689L
tp305
a(g27
L7192L
tp306
a(g29
L5168L
tp307
a(g31
L7190L
tp308
a(g33
L1781L
tp309
a(g35
L13633L
tp310
a(g37
L13924L
tp311
a(g39
L4599L
tp312
a(g41
L5326L
tp313
a(g43
L12968L
tp314
a(g45
L13690L
tp315
a(g47
L20507L
tp316
a(g49
L4995L
tp317
a(g51
L4644L
tp318
a(g53
L10381L
tp319
a(g55
L4507L
tp320
a(g57
L26682L
tp321
a(g59
L4422L
tp322
a(g61
L28228L
tp323
a(g63
L4514L
tp324
a(g65
L10598L
tp325
a(g67
L21086L
tp326
a(g69
L31581L
tp327
a(g71
L4725L
tp328
a(g73
L2790L
tp329
a(g75
L29927L
tp330
a(g77
L26901L
tp331
a(g79
L6320L
tp332
a(g81
L18282L
tp333
a(g83
L27837L
tp334
a(g85
L28535L
tp335
a(g87
L7881L
tp336
a(g89
L10466L
tp337
a(g91
L5165L
tp338
a(g93
L5663L
tp339
a(g95
L20503L
tp340
a(g97
L3827L
tp341
a(g99
L5218L
tp342
a(g101
L4567L
tp343
a(g103
L2830L
tp344
a(g105
L4621L
tp345
a(g107
L10229L
tp346
a(g109
L10963L
tp347
a(g111
L6500L
tp348
a(g113
L5791L
tp349
a(g115
L4515L
tp350
a(g117
L6448L
tp351
a(g119
L30984L
tp352
a(g121
L4556L
tp353
a(g123
L5896L
tp354
a(g125
L10950L
tp355
a(g127
L6436L
tp356
a(g129
L6494L
tp357
a(g131
L14001L
tp358
a(g133
L4542L
tp359
a(g135
L4586L
tp360
a(g137
L4439L
tp361
a(g139
L594L
tp362
a(g141
L6357L
tp363
a(g143
L5471L
tp364
a(g145
L677L
tp365
a(g147
L4118L
tp366
a(g149
L28144L
tp367
a(g151
L759L
tp368
a(g153
L13967L
tp369
a(g155
L4366L
tp370
a(g157
L5302L
tp371
a(g159
L4684L
tp372
a(g161
L10829L
tp373
a(g163
L4405L
tp374
a(g165
L5112L
tp375
a(g167
L4546L
tp376
a(g169
L22810L
tp377
a(g171
L4838L
tp378
a(g173
L5695L
tp379
a(g175
L10870L
tp380
a(g177
L3404L
tp381
a(g179
L10840L
tp382
a(g181
L10905L
tp383
a(g183
L6169L
tp384
a(g185
L17965L
tp385
a(g187
L3L
tp386
a(g189
L28251L
tp387
a(g191
L5582L
tp388
a(g193
L13274L
tp389
a(g195
L3518L
tp390
a(g197
L14427L
tp391
a(g199
L7644L
tp392
a(g201
L2364L
tp393
a(g203
L6389L
tp394
a(g205
L5161L
tp395
a(g207
L5658L
tp396
a(g209
L13644L
tp397
a(g211
L4538L
tp398
a(g213
L10929L
tp399
a(g215
L4475L
tp400
a(g217
L10860L
tp401
a(g219
L14078L
tp402
a(g221
L4423L
tp403
a(g223
L20900L
tp404
a(g225
L4408L
tp405
a(g227
L2991L
tp406
a(g229
L12827L
tp407
a(g231
L5662L
tp408
a(g233
L5114L
tp409
a(g235
L2835L
tp410
a(g237
L4368L
tp411
a(g239
L10876L
tp412
a(g241
L10886L
tp413
a(g243
L5682L
tp414
a(g245
L5705L
tp415
a(g247
L5712L
tp416
a(g249
L33137L
tp417
a(g251
L4550L
tp418
a(g253
L14396L
tp419
a(g255
L6358L
tp420
a(g257
L15840L
tp421
a(g259
L28040L
tp422
a(g261
L2841L
tp423
a(g263
L4583L
tp424
a(g265
L6747L
tp425
a(g267
L5126L
tp426
a(g269
L4609L
tp427
a(g271
L10848L
tp428
a(g273
L201L
tp429
a(g275
L21900L
tp430
a(g277
L4411L
tp431
a(g279
L20770L
tp432
a(g281
L12918L
tp433
a(g283
L33512L
tp434
a(g285
L7683L
tp435
a(g287
L15852L
tp436
a(g289
L10192L
tp437
a(g291
L4412L
tp438
aaI756203
a.