(lp1
(lp2
(Vbiological_process
p3
I107971
tp4
a(Vcellular_component
p5
I37784
tp6
a(Vmolecular_function
p7
I31595
tp8
a(Vorganelle
p9
I10011
tp10
a(Vanatomical structure development
p11
I8128
tp12
a(Vtransport
p13
I6251
tp14
a(Vcellular nitrogen compound metabolic process
p15
I5554
tp16
a(Vsignal transduction
p17
I4825
tp18
a(Vprotein complex
p19
I4799
tp20
a(Vion binding
p21
I4093
tp22
a(Vresponse to stress
p23
I4020
tp24
a(Vsmall molecule metabolic process
p25
I3801
tp26
a(Vbiosynthetic process
p27
I3376
tp28
a(Vcellular protein modification process
p29
I2875
tp30
a(Vcatabolic process
p31
I2747
tp32
a(Vimmune system process
p33
I2188
tp34
a(Vcellular component assembly
p35
I2054
tp36
a(Vcytosol
p37
I2047
tp38
a(Vcell differentiation
p39
I1896
tp40
a(Venzyme binding
p41
I1773
tp42
a(Vlipid metabolic process
p43
I1692
tp44
a(Vnucleolus
p45
I1453
tp46
a(VDNA metabolic process
p47
I1434
tp48
a(Vvesicle-mediated transport
p49
I1431
tp50
a(Vlocomotion
p51
I1382
tp52
a(Vplasma membrane
p53
I1344
tp54
a(Vanatomical structure formation involved in morphogenesis
p55
I1303
tp56
a(Vtransmembrane transporter activity
p57
I1250
tp58
a(Vchromosome organization
p59
I1236
tp60
a(Vnucleus
p61
I1211
tp62
a(Vmacromolecular complex assembly
p63
I1153
tp64
a(VDNA binding
p65
I1110
tp66
a(Vhomeostatic process
p67
I1107
tp68
a(Vcarbohydrate metabolic process
p69
I1046
tp70
a(Voxidoreductase activity
p71
I1014
tp72
a(Vcytoskeletal protein binding
p73
I997
tp74
a(Vcytoplasm
p75
I995
tp76
a(Vembryo development
p77
I993
tp78
a(Vcell motility
p79
I993
tp80
a(Vtransmembrane transport
p81
I968
tp82
a(Vnucleobase-containing compound catabolic process
p83
I967
tp84
a(Vcytoskeleton organization
p85
I948
tp86
a(Vprotein maturation
p87
I931
tp88
a(Vprotein complex assembly
p89
I927
tp90
a(Vneurological system process
p91
I894
tp92
a(Vgrowth
p93
I859
tp94
a(Vsignal transducer activity
p95
I786
tp96
a(VRNA binding
p97
I772
tp98
a(Vkinase activity
p99
I769
tp100
a(VGolgi apparatus
p101
I716
tp102
a(Vlipid binding
p103
I715
tp104
a(Vcytoplasmic membrane-bounded vesicle
p105
I709
tp106
a(Vcellular amino acid metabolic process
p107
I703
tp108
a(Vmitochondrion
p109
I693
tp110
a(Vcytoskeleton
p111
I646
tp112
a(VATPase activity
p113
I610
tp114
a(Vmembrane organization
p115
I607
tp116
a(Vendoplasmic reticulum
p117
I592
tp118
a(Venzyme regulator activity
p119
I585
tp120
a(Vcell adhesion
p121
I583
tp122
a(Vligase activity
p123
I575
tp124
a(Vnucleoplasm
p125
I574
tp126
a(Vcell proliferation
p127
I550
tp128
a(Vcell-cell signaling
p129
I546
tp130
a(Vmicrotubule organizing center
p131
I544
tp132
a(Vpeptidase activity
p133
I542
tp134
a(Vendosome
p135
I539
tp136
a(Vcell death
p137
I523
tp138
a(Vtranscription factor binding
p139
I508
tp140
a(Vprotein binding transcription factor activity
p141
I488
tp142
a(Vstructural molecule activity
p143
I441
tp144
a(Vcell morphogenesis
p145
I439
tp146
a(Vnucleic acid binding transcription factor activity
p147
I425
tp148
a(Vsulfur compound metabolic process
p149
I391
tp150
a(Vprotein targeting
p151
I390
tp152
a(Vcofactor metabolic process
p153
I370
tp154
a(VmRNA processing
p155
I335
tp156
a(Vextracellular region
p157
I332
tp158
a(Vtransferase activity, transferring acyl groups
p159
I329
tp160
a(Vsymbiosis, encompassing mutualism through parasitism
p161
I321
tp162
a(Vextracellular space
p163
I313
tp164
a(Vextracellular matrix organization
p165
I300
tp166
a(Vgeneration of precursor metabolites and energy
p167
I297
tp168
a(Vphosphatase activity
p169
I290
tp170
a(Vcilium
p171
I286
tp172
a(Vvacuole
p173
I284
tp174
a(Vcell junction organization
p175
I267
tp176
a(Vnucleocytoplasmic transport
p177
I249
tp178
a(Vaging
p179
I248
tp180
a(Vhelicase activity
p181
I246
tp182
a(Vcell cycle
p183
I240
tp184
a(Vtransferase activity, transferring glycosyl groups
p185
I231
tp186
a(Vreproduction
p187
I212
tp188
a(Vcell division
p189
I207
tp190
a(Vcytoskeleton-dependent intracellular transport
p191
I204
tp192
a(Vdevelopmental maturation
p193
I195
tp194
a(Vprotein folding
p195
I194
tp196
a(Vplastid
p197
I194
tp198
a(Vlyase activity
p199
I193
tp200
a(Vcirculatory system process
p201
I189
tp202
a(Vribonucleoprotein complex assembly
p203
I185
tp204
a(Vmethyltransferase activity
p205
I180
tp206
a(Vnuclease activity
p207
I177
tp208
a(Vmitochondrion organization
p209
I177
tp210
a(Vchromosome
p211
I166
tp212
a(Vlysosome
p213
I163
tp214
a(Vhistone binding
p215
I158
tp216
a(Visomerase activity
p217
I153
tp218
a(Vnucleotidyltransferase activity
p219
I149
tp220
a(Vsecondary metabolic process
p221
I144
tp222
a(VGTPase activity
p223
I143
tp224
a(Vnuclear envelope
p225
I142
tp226
a(VmRNA binding
p227
I141
tp228
a(Vexternal encapsulating structure
p229
I135
tp230
a(Vcell wall
p231
I131
tp232
a(Vvacuolar transport
p233
I128
tp234
a(VtRNA metabolic process
p235
I123
tp236
a(Vplasma membrane organization
p237
I120
tp238
a(Vhydrolase activity, acting on carbon-nitrogen (but not peptide) bonds
p239
I114
tp240
a(Vchromosome segregation
p241
I113
tp242
a(Vmitosis
p243
I109
tp244
a(Vcell wall organization or biogenesis
p245
I99
tp246
a(Vtranslation factor activity, nucleic acid binding
p247
I98
tp248
a(Vprotein binding, bridging
p249
I92
tp250
a(Vunfolded protein binding
p251
I91
tp252
a(Vsmall conjugating protein binding
p253
I89
tp254
a(Vperoxisome
p255
I89
tp256
a(Vhydrolase activity, acting on glycosyl bonds
p257
I89
tp258
a(Vlipid particle
p259
I84
tp260
a(Vstructural constituent of ribosome
p261
I84
tp262
a(Vproteinaceous extracellular matrix
p263
I83
tp264
a(Vprotein transporter activity
p265
I77
tp266
a(Vtranslation
p267
I71
tp268
a(Vribosome
p269
I62
tp270
a(Vtransferase activity, transferring alkyl or aryl (other than methyl) groups
p271
I52
tp272
a(Vnuclear chromosome
p273
I51
tp274
a(Vpigmentation
p275
I46
tp276
a(Vribosome biogenesis
p277
I40
tp278
a(Vintracellular
p279
I39
tp280
a(Vtransposition
p281
I20
tp282
a(Vnitrogen cycle metabolic process
p283
I20
tp284
a(VrRNA binding
p285
I20
tp286
a(Vthylakoid
p287
I17
tp288
a(Vcell
p289
I5
tp290
a(Vphotosynthesis
p291
I2
tp292
aa(lp293
(g3
L6372L
tp294
a(g5
L4365L
tp295
a(g7
L2787L
tp296
a(g9
L21685L
tp297
a(g11
L26888L
tp298
a(g13
L5491L
tp299
a(g15
L18268L
tp300
a(g17
L5801L
tp301
a(g19
L21693L
tp302
a(g21
L21630L
tp303
a(g23
L5613L
tp304
a(g25
L22689L
tp305
a(g27
L7192L
tp306
a(g29
L5168L
tp307
a(g31
L7190L
tp308
a(g33
L1781L
tp309
a(g35
L13633L
tp310
a(g37
L4599L
tp311
a(g39
L13924L
tp312
a(g41
L12968L
tp313
a(g43
L5326L
tp314
a(g45
L4507L
tp315
a(g47
L4995L
tp316
a(g49
L10381L
tp317
a(g51
L20507L
tp318
a(g53
L4644L
tp319
a(g55
L26682L
tp320
a(g57
L13690L
tp321
a(g59
L28228L
tp322
a(g61
L4422L
tp323
a(g63
L31581L
tp324
a(g65
L2790L
tp325
a(g67
L21086L
tp326
a(g69
L4725L
tp327
a(g71
L10598L
tp328
a(g73
L6320L
tp329
a(g75
L4514L
tp330
a(g77
L7881L
tp331
a(g79
L26901L
tp332
a(g81
L29927L
tp333
a(g83
L18282L
tp334
a(g85
L5663L
tp335
a(g87
L28535L
tp336
a(g89
L5165L
tp337
a(g91
L27837L
tp338
a(g93
L20503L
tp339
a(g95
L3827L
tp340
a(g97
L2830L
tp341
a(g99
L10466L
tp342
a(g101
L4567L
tp343
a(g103
L6500L
tp344
a(g105
L10229L
tp345
a(g107
L5218L
tp346
a(g109
L4515L
tp347
a(g111
L4621L
tp348
a(g113
L10963L
tp349
a(g115
L30984L
tp350
a(g117
L4556L
tp351
a(g119
L14001L
tp352
a(g121
L5791L
tp353
a(g123
L10950L
tp354
a(g125
L4439L
tp355
a(g127
L6494L
tp356
a(g129
L5896L
tp357
a(g131
L4586L
tp358
a(g133
L6448L
tp359
a(g135
L4542L
tp360
a(g137
L6436L
tp361
a(g139
L6357L
tp362
a(g141
L677L
tp363
a(g143
L4118L
tp364
a(g145
L594L
tp365
a(g147
L759L
tp366
a(g149
L5471L
tp367
a(g151
L5302L
tp368
a(g153
L28144L
tp369
a(g155
L5112L
tp370
a(g157
L4366L
tp371
a(g159
L10829L
tp372
a(g161
L22810L
tp373
a(g163
L4405L
tp374
a(g165
L13967L
tp375
a(g167
L4838L
tp376
a(g169
L10870L
tp377
a(g171
L4684L
tp378
a(g173
L4546L
tp379
a(g175
L17965L
tp380
a(g177
L5582L
tp381
a(g179
L6169L
tp382
a(g181
L3404L
tp383
a(g183
L5695L
tp384
a(g185
L10840L
tp385
a(g187
L3L
tp386
a(g189
L28251L
tp387
a(g191
L14427L
tp388
a(g193
L13274L
tp389
a(g195
L5161L
tp390
a(g197
L7644L
tp391
a(g199
L10905L
tp392
a(g201
L2364L
tp393
a(g203
L13644L
tp394
a(g205
L6389L
tp395
a(g207
L3518L
tp396
a(g209
L5658L
tp397
a(g211
L4475L
tp398
a(g213
L4538L
tp399
a(g215
L20900L
tp400
a(g217
L10929L
tp401
a(g219
L10860L
tp402
a(g221
L12827L
tp403
a(g223
L2991L
tp404
a(g225
L4423L
tp405
a(g227
L2835L
tp406
a(g229
L14078L
tp407
a(g231
L4408L
tp408
a(g233
L5682L
tp409
a(g235
L5114L
tp410
a(g237
L5662L
tp411
a(g239
L10886L
tp412
a(g241
L5705L
tp413
a(g243
L5712L
tp414
a(g245
L33137L
tp415
a(g247
L6358L
tp416
a(g249
L14396L
tp417
a(g251
L28040L
tp418
a(g253
L15840L
tp419
a(g255
L4550L
tp420
a(g257
L10876L
tp421
a(g259
L4583L
tp422
a(g261
L2841L
tp423
a(g263
L4368L
tp424
a(g265
L6747L
tp425
a(g267
L5126L
tp426
a(g269
L4609L
tp427
a(g271
L10848L
tp428
a(g273
L201L
tp429
a(g275
L21900L
tp430
a(g277
L20770L
tp431
a(g279
L4411L
tp432
a(g281
L15852L
tp433
a(g283
L33512L
tp434
a(g285
L12918L
tp435
a(g287
L7683L
tp436
a(g289
L4412L
tp437
a(g291
L10192L
tp438
aaI305384
a.