(lp1
(lp2
(Vbiological_process
p3
I133350
tp4
a(Vcellular_component
p5
I46536
tp6
a(Vmolecular_function
p7
I38523
tp8
a(Vorganelle
p9
I12359
tp10
a(Vanatomical structure development
p11
I9848
tp12
a(Vtransport
p13
I7746
tp14
a(Vcellular nitrogen compound metabolic process
p15
I6683
tp16
a(Vsignal transduction
p17
I6228
tp18
a(Vprotein complex
p19
I5807
tp20
a(Vresponse to stress
p21
I5209
tp22
a(Vion binding
p23
I4949
tp24
a(Vsmall molecule metabolic process
p25
I4622
tp26
a(Vbiosynthetic process
p27
I4170
tp28
a(Vcellular protein modification process
p29
I3471
tp30
a(Vcatabolic process
p31
I3458
tp32
a(Vimmune system process
p33
I2990
tp34
a(Vcytosol
p35
I2559
tp36
a(Vcellular component assembly
p37
I2514
tp38
a(Vcell differentiation
p39
I2309
tp40
a(Venzyme binding
p41
I2185
tp42
a(Vlipid metabolic process
p43
I2069
tp44
a(Vvesicle-mediated transport
p45
I1803
tp46
a(Vnucleolus
p47
I1759
tp48
a(Vlocomotion
p49
I1693
tp50
a(Vplasma membrane
p51
I1664
tp52
a(VDNA metabolic process
p53
I1625
tp54
a(Vanatomical structure formation involved in morphogenesis
p55
I1557
tp56
a(Vnucleus
p57
I1516
tp58
a(Vtransmembrane transporter activity
p59
I1489
tp60
a(Vmacromolecular complex assembly
p61
I1412
tp62
a(Vchromosome organization
p63
I1395
tp64
a(Vhomeostatic process
p65
I1374
tp66
a(VDNA binding
p67
I1308
tp68
a(Vcarbohydrate metabolic process
p69
I1301
tp70
a(Voxidoreductase activity
p71
I1280
tp72
a(Vembryo development
p73
I1270
tp74
a(Vcytoskeletal protein binding
p75
I1238
tp76
a(Vnucleobase-containing compound catabolic process
p77
I1221
tp78
a(Vcell motility
p79
I1216
tp80
a(Vcytoplasm
p81
I1197
tp82
a(Vtransmembrane transport
p83
I1180
tp84
a(Vprotein maturation
p85
I1175
tp86
a(Vcytoskeleton organization
p87
I1146
tp88
a(Vprotein complex assembly
p89
I1138
tp90
a(Vneurological system process
p91
I1076
tp92
a(Vgrowth
p93
I1068
tp94
a(VRNA binding
p95
I1001
tp96
a(Vsignal transducer activity
p97
I944
tp98
a(Vkinase activity
p99
I942
tp100
a(Vcytoplasmic membrane-bounded vesicle
p101
I901
tp102
a(VGolgi apparatus
p103
I876
tp104
a(Vcellular amino acid metabolic process
p105
I876
tp106
a(Vmitochondrion
p107
I861
tp108
a(Vlipid binding
p109
I850
tp110
a(Vcytoskeleton
p111
I782
tp112
a(Vmembrane organization
p113
I742
tp114
a(Venzyme regulator activity
p115
I732
tp116
a(Vendoplasmic reticulum
p117
I730
tp118
a(VATPase activity
p119
I724
tp120
a(Vcell adhesion
p121
I702
tp122
a(Vligase activity
p123
I701
tp124
a(Vcell death
p125
I698
tp126
a(Vcell proliferation
p127
I698
tp128
a(Vnucleoplasm
p129
I682
tp130
a(Vendosome
p131
I671
tp132
a(Vpeptidase activity
p133
I667
tp134
a(Vcell-cell signaling
p135
I656
tp136
a(Vmicrotubule organizing center
p137
I648
tp138
a(Vstructural molecule activity
p139
I608
tp140
a(Vtranscription factor binding
p141
I589
tp142
a(Vprotein binding transcription factor activity
p143
I580
tp144
a(Vcell morphogenesis
p145
I531
tp146
a(Vprotein targeting
p147
I519
tp148
a(Vnucleic acid binding transcription factor activity
p149
I505
tp150
a(Vsulfur compound metabolic process
p151
I460
tp152
a(Vcofactor metabolic process
p153
I433
tp154
a(Vextracellular region
p155
I429
tp156
a(Vsymbiosis, encompassing mutualism through parasitism
p157
I416
tp158
a(VmRNA processing
p159
I404
tp160
a(Vvacuole
p161
I393
tp162
a(Vgeneration of precursor metabolites and energy
p163
I390
tp164
a(Vextracellular space
p165
I386
tp166
a(Vextracellular matrix organization
p167
I380
tp168
a(Vtransferase activity, transferring acyl groups
p169
I374
tp170
a(Vphosphatase activity
p171
I344
tp172
a(Vcilium
p173
I325
tp174
a(Vcell junction organization
p175
I317
tp176
a(Vnucleocytoplasmic transport
p177
I300
tp178
a(Vaging
p179
I293
tp180
a(Vreproduction
p181
I292
tp182
a(Vcell cycle
p183
I280
tp184
a(Vhelicase activity
p185
I274
tp186
a(Vtransferase activity, transferring glycosyl groups
p187
I272
tp188
a(Vcell division
p189
I261
tp190
a(Vplastid
p191
I258
tp192
a(Vprotein folding
p193
I253
tp194
a(Vcytoskeleton-dependent intracellular transport
p195
I249
tp196
a(Vlyase activity
p197
I245
tp198
a(Vdevelopmental maturation
p199
I236
tp200
a(Vlysosome
p201
I229
tp202
a(Vmitochondrion organization
p203
I225
tp204
a(Vribonucleoprotein complex assembly
p205
I225
tp206
a(Vnuclease activity
p207
I217
tp208
a(Vcirculatory system process
p209
I216
tp210
a(Vmethyltransferase activity
p211
I207
tp212
a(VGTPase activity
p213
I197
tp214
a(Vchromosome
p215
I188
tp216
a(Vhistone binding
p217
I181
tp218
a(Vsecondary metabolic process
p219
I181
tp220
a(Visomerase activity
p221
I181
tp222
a(VmRNA binding
p223
I181
tp224
a(Vnucleotidyltransferase activity
p225
I175
tp226
a(Vexternal encapsulating structure
p227
I174
tp228
a(Vnuclear envelope
p229
I172
tp230
a(Vcell wall
p231
I169
tp232
a(Vvacuolar transport
p233
I157
tp234
a(VtRNA metabolic process
p235
I151
tp236
a(Vstructural constituent of ribosome
p237
I150
tp238
a(Vplasma membrane organization
p239
I147
tp240
a(Vhydrolase activity, acting on carbon-nitrogen (but not peptide) bonds
p241
I136
tp242
a(Vmitosis
p243
I135
tp244
a(Vcell wall organization or biogenesis
p245
I132
tp246
a(Vchromosome segregation
p247
I127
tp248
a(Vunfolded protein binding
p249
I122
tp250
a(Vtranslation factor activity, nucleic acid binding
p251
I122
tp252
a(Vsmall conjugating protein binding
p253
I110
tp254
a(Vperoxisome
p255
I110
tp256
a(Vprotein binding, bridging
p257
I110
tp258
a(Vhydrolase activity, acting on glycosyl bonds
p259
I106
tp260
a(Vproteinaceous extracellular matrix
p261
I105
tp262
a(Vlipid particle
p263
I102
tp264
a(Vtranslation
p265
I97
tp266
a(Vprotein transporter activity
p267
I91
tp268
a(Vribosome
p269
I76
tp270
a(Vnuclear chromosome
p271
I63
tp272
a(Vtransferase activity, transferring alkyl or aryl (other than methyl) groups
p273
I59
tp274
a(Vpigmentation
p275
I53
tp276
a(Vribosome biogenesis
p277
I52
tp278
a(Vintracellular
p279
I51
tp280
a(VrRNA binding
p281
I33
tp282
a(Vnitrogen cycle metabolic process
p283
I23
tp284
a(Vthylakoid
p285
I21
tp286
a(Vtransposition
p287
I20
tp288
a(Vcell
p289
I6
tp290
a(Vphotosynthesis
p291
I4
tp292
aa(lp293
(g3
L6372L
tp294
a(g5
L4365L
tp295
a(g7
L2787L
tp296
a(g9
L21685L
tp297
a(g11
L26888L
tp298
a(g13
L5491L
tp299
a(g15
L18268L
tp300
a(g17
L5801L
tp301
a(g19
L21693L
tp302
a(g21
L5613L
tp303
a(g23
L21630L
tp304
a(g25
L22689L
tp305
a(g27
L7192L
tp306
a(g29
L5168L
tp307
a(g31
L7190L
tp308
a(g33
L1781L
tp309
a(g35
L4599L
tp310
a(g37
L13633L
tp311
a(g39
L13924L
tp312
a(g41
L12968L
tp313
a(g43
L5326L
tp314
a(g45
L10381L
tp315
a(g47
L4507L
tp316
a(g49
L20507L
tp317
a(g51
L4644L
tp318
a(g53
L4995L
tp319
a(g55
L26682L
tp320
a(g57
L4422L
tp321
a(g59
L13690L
tp322
a(g61
L31581L
tp323
a(g63
L28228L
tp324
a(g65
L21086L
tp325
a(g67
L2790L
tp326
a(g69
L4725L
tp327
a(g71
L10598L
tp328
a(g73
L7881L
tp329
a(g75
L6320L
tp330
a(g77
L18282L
tp331
a(g79
L26901L
tp332
a(g81
L4514L
tp333
a(g83
L29927L
tp334
a(g85
L28535L
tp335
a(g87
L5663L
tp336
a(g89
L5165L
tp337
a(g91
L27837L
tp338
a(g93
L20503L
tp339
a(g95
L2830L
tp340
a(g97
L3827L
tp341
a(g99
L10466L
tp342
a(g101
L10229L
tp343
a(g103
L4567L
tp344
a(g105
L5218L
tp345
a(g107
L4515L
tp346
a(g109
L6500L
tp347
a(g111
L4621L
tp348
a(g113
L30984L
tp349
a(g115
L14001L
tp350
a(g117
L4556L
tp351
a(g119
L10963L
tp352
a(g121
L5791L
tp353
a(g123
L10950L
tp354
a(g125
L6436L
tp355
a(g127
L6494L
tp356
a(g129
L4439L
tp357
a(g131
L4542L
tp358
a(g133
L6448L
tp359
a(g135
L5896L
tp360
a(g137
L4586L
tp361
a(g139
L4118L
tp362
a(g141
L6357L
tp363
a(g143
L677L
tp364
a(g145
L594L
tp365
a(g147
L5302L
tp366
a(g149
L759L
tp367
a(g151
L5471L
tp368
a(g153
L28144L
tp369
a(g155
L4366L
tp370
a(g157
L22810L
tp371
a(g159
L5112L
tp372
a(g161
L4546L
tp373
a(g163
L4838L
tp374
a(g165
L4405L
tp375
a(g167
L13967L
tp376
a(g169
L10829L
tp377
a(g171
L10870L
tp378
a(g173
L4684L
tp379
a(g175
L17965L
tp380
a(g177
L5582L
tp381
a(g179
L6169L
tp382
a(g181
L3L
tp383
a(g183
L5695L
tp384
a(g185
L3404L
tp385
a(g187
L10840L
tp386
a(g189
L28251L
tp387
a(g191
L7644L
tp388
a(g193
L5161L
tp389
a(g195
L14427L
tp390
a(g197
L10905L
tp391
a(g199
L13274L
tp392
a(g201
L4538L
tp393
a(g203
L5658L
tp394
a(g205
L13644L
tp395
a(g207
L3518L
tp396
a(g209
L2364L
tp397
a(g211
L6389L
tp398
a(g213
L2991L
tp399
a(g215
L4475L
tp400
a(g217
L20900L
tp401
a(g219
L12827L
tp402
a(g221
L10929L
tp403
a(g223
L2835L
tp404
a(g225
L10860L
tp405
a(g227
L14078L
tp406
a(g229
L4423L
tp407
a(g231
L4408L
tp408
a(g233
L5682L
tp409
a(g235
L5114L
tp410
a(g237
L2841L
tp411
a(g239
L5662L
tp412
a(g241
L10886L
tp413
a(g243
L5712L
tp414
a(g245
L33137L
tp415
a(g247
L5705L
tp416
a(g249
L28040L
tp417
a(g251
L6358L
tp418
a(g253
L15840L
tp419
a(g255
L4550L
tp420
a(g257
L14396L
tp421
a(g259
L10876L
tp422
a(g261
L4368L
tp423
a(g263
L4583L
tp424
a(g265
L5126L
tp425
a(g267
L6747L
tp426
a(g269
L4609L
tp427
a(g271
L201L
tp428
a(g273
L10848L
tp429
a(g275
L21900L
tp430
a(g277
L20770L
tp431
a(g279
L4411L
tp432
a(g281
L12918L
tp433
a(g283
L33512L
tp434
a(g285
L7683L
tp435
a(g287
L15852L
tp436
a(g289
L4412L
tp437
a(g291
L10192L
tp438
aaI376155
a.