(lp1
(lp2
(Vbiological_process
p3
I306139
tp4
a(Vcellular_component
p5
I103629
tp6
a(Vmolecular_function
p7
I84517
tp8
a(Vorganelle
p9
I27095
tp10
a(Vanatomical structure development
p11
I23650
tp12
a(Vtransport
p13
I17650
tp14
a(Vsignal transduction
p15
I13848
tp16
a(Vcellular nitrogen compound metabolic process
p17
I13840
tp18
a(Vprotein complex
p19
I11705
tp20
a(Vresponse to stress
p21
I11167
tp22
a(Vion binding
p23
I10588
tp24
a(Vsmall molecule metabolic process
p25
I9426
tp26
a(Vbiosynthetic process
p27
I8521
tp28
a(Vcellular protein modification process
p29
I7577
tp30
a(Vcatabolic process
p31
I6809
tp32
a(Vimmune system process
p33
I6136
tp34
a(Vcell differentiation
p35
I5657
tp36
a(Vcellular component assembly
p37
I5208
tp38
a(Vcytosol
p39
I4709
tp40
a(Venzyme binding
p41
I4518
tp42
a(Vlipid metabolic process
p43
I4422
tp44
a(Vlocomotion
p45
I3940
tp46
a(Vplasma membrane
p47
I3801
tp48
a(Vvesicle-mediated transport
p49
I3786
tp50
a(Vtransmembrane transporter activity
p51
I3738
tp52
a(Vanatomical structure formation involved in morphogenesis
p53
I3723
tp54
a(Vnucleolus
p55
I3614
tp56
a(VDNA metabolic process
p57
I3375
tp58
a(Vnucleus
p59
I3353
tp60
a(Vhomeostatic process
p61
I3038
tp62
a(Vchromosome organization
p63
I2982
tp64
a(VDNA binding
p65
I2908
tp66
a(Vmacromolecular complex assembly
p67
I2863
tp68
a(Vcell motility
p69
I2827
tp70
a(Vtransmembrane transport
p71
I2804
tp72
a(Vcytoplasm
p73
I2782
tp74
a(Vsignal transducer activity
p75
I2685
tp76
a(Vneurological system process
p77
I2643
tp78
a(Voxidoreductase activity
p79
I2529
tp80
a(Vcytoskeletal protein binding
p81
I2495
tp82
a(Vcarbohydrate metabolic process
p83
I2468
tp84
a(Vembryo development
p85
I2461
tp86
a(Vprotein maturation
p87
I2451
tp88
a(Vgrowth
p89
I2421
tp90
a(Vnucleobase-containing compound catabolic process
p91
I2409
tp92
a(Vprotein complex assembly
p93
I2330
tp94
a(Vcytoskeleton organization
p95
I2302
tp96
a(Vkinase activity
p97
I2224
tp98
a(Vlipid binding
p99
I1998
tp100
a(Vcytoplasmic membrane-bounded vesicle
p101
I1920
tp102
a(VRNA binding
p103
I1911
tp104
a(VGolgi apparatus
p105
I1895
tp106
a(Vcell adhesion
p107
I1838
tp108
a(Vcytoskeleton
p109
I1734
tp110
a(Vcell-cell signaling
p111
I1710
tp112
a(Vcellular amino acid metabolic process
p113
I1702
tp114
a(Vmitochondrion
p115
I1698
tp116
a(Vpeptidase activity
p117
I1689
tp118
a(Vendoplasmic reticulum
p119
I1561
tp120
a(Vmembrane organization
p121
I1527
tp122
a(Venzyme regulator activity
p123
I1486
tp124
a(Vcell proliferation
p125
I1480
tp126
a(Vcell death
p127
I1473
tp128
a(Vendosome
p129
I1473
tp130
a(VATPase activity
p131
I1399
tp132
a(Vligase activity
p133
I1371
tp134
a(Vmicrotubule organizing center
p135
I1346
tp136
a(Vnucleoplasm
p137
I1307
tp138
a(Vprotein binding transcription factor activity
p139
I1253
tp140
a(Vtranscription factor binding
p141
I1246
tp142
a(Vcell morphogenesis
p143
I1232
tp144
a(Vstructural molecule activity
p145
I1135
tp146
a(Vextracellular region
p147
I1105
tp148
a(Vnucleic acid binding transcription factor activity
p149
I1105
tp150
a(Vprotein targeting
p151
I1000
tp152
a(Vextracellular space
p153
I977
tp154
a(Vsulfur compound metabolic process
p155
I937
tp156
a(Vextracellular matrix organization
p157
I878
tp158
a(Vcilium
p159
I851
tp160
a(Vcofactor metabolic process
p161
I830
tp162
a(VmRNA processing
p163
I824
tp164
a(Vphosphatase activity
p165
I813
tp166
a(Vtransferase activity, transferring acyl groups
p167
I811
tp168
a(Vsymbiosis, encompassing mutualism through parasitism
p169
I756
tp170
a(Vvacuole
p171
I755
tp172
a(Vgeneration of precursor metabolites and energy
p173
I715
tp174
a(Vcell cycle
p175
I646
tp176
a(Vcirculatory system process
p177
I643
tp178
a(Vaging
p179
I629
tp180
a(Vcell junction organization
p181
I626
tp182
a(Vnucleocytoplasmic transport
p183
I612
tp184
a(Vreproduction
p185
I581
tp186
a(Vtransferase activity, transferring glycosyl groups
p187
I580
tp188
a(Vhelicase activity
p189
I535
tp190
a(Vcell division
p191
I531
tp192
a(Vnuclease activity
p193
I503
tp194
a(Vdevelopmental maturation
p195
I497
tp196
a(Vplastid
p197
I494
tp198
a(Vlyase activity
p199
I493
tp200
a(Vcytoskeleton-dependent intracellular transport
p201
I473
tp202
a(Vlysosome
p203
I442
tp204
a(Vmethyltransferase activity
p205
I430
tp206
a(Vribonucleoprotein complex assembly
p207
I424
tp208
a(Vmitochondrion organization
p209
I423
tp210
a(Vproteinaceous extracellular matrix
p211
I418
tp212
a(Vprotein folding
p213
I416
tp214
a(Vchromosome
p215
I408
tp216
a(Vhistone binding
p217
I381
tp218
a(VGTPase activity
p219
I357
tp220
a(Vnuclear envelope
p221
I356
tp222
a(Vnucleotidyltransferase activity
p223
I341
tp224
a(VmRNA binding
p225
I334
tp226
a(Vsecondary metabolic process
p227
I330
tp228
a(Visomerase activity
p229
I320
tp230
a(Vplasma membrane organization
p231
I313
tp232
a(Vexternal encapsulating structure
p233
I305
tp234
a(Vcell wall
p235
I299
tp236
a(Vvacuolar transport
p237
I278
tp238
a(Vhydrolase activity, acting on carbon-nitrogen (but not peptide) bonds
p239
I275
tp240
a(Vmitosis
p241
I265
tp242
a(Vhydrolase activity, acting on glycosyl bonds
p243
I264
tp244
a(Vstructural constituent of ribosome
p245
I260
tp246
a(Vchromosome segregation
p247
I259
tp248
a(Vprotein binding, bridging
p249
I251
tp250
a(VtRNA metabolic process
p251
I244
tp252
a(Vcell wall organization or biogenesis
p253
I244
tp254
a(Vsmall conjugating protein binding
p255
I233
tp256
a(Vperoxisome
p257
I221
tp258
a(Vtranslation factor activity, nucleic acid binding
p259
I198
tp260
a(Vprotein transporter activity
p261
I193
tp262
a(Vlipid particle
p263
I189
tp264
a(Vunfolded protein binding
p265
I182
tp266
a(Vtranslation
p267
I157
tp268
a(Vribosome
p269
I137
tp270
a(Vtransferase activity, transferring alkyl or aryl (other than methyl) groups
p271
I136
tp272
a(Vnuclear chromosome
p273
I126
tp274
a(Vribosome biogenesis
p275
I125
tp276
a(Vintracellular
p277
I110
tp278
a(Vpigmentation
p279
I107
tp280
a(VrRNA binding
p281
I69
tp282
a(Vthylakoid
p283
I35
tp284
a(Vnitrogen cycle metabolic process
p285
I33
tp286
a(Vtransposition
p287
I24
tp288
a(Vcell
p289
I10
tp290
a(Vphotosynthesis
p291
I6
tp292
a(VRNA modification guide activity
p293
I1
tp294
aa(lp295
(g3
L6372L
tp296
a(g5
L4365L
tp297
a(g7
L2787L
tp298
a(g9
L21685L
tp299
a(g11
L26888L
tp300
a(g13
L5491L
tp301
a(g15
L5801L
tp302
a(g17
L18268L
tp303
a(g19
L21693L
tp304
a(g21
L5613L
tp305
a(g23
L21630L
tp306
a(g25
L22689L
tp307
a(g27
L7192L
tp308
a(g29
L5168L
tp309
a(g31
L7190L
tp310
a(g33
L1781L
tp311
a(g35
L13924L
tp312
a(g37
L13633L
tp313
a(g39
L4599L
tp314
a(g41
L12968L
tp315
a(g43
L5326L
tp316
a(g45
L20507L
tp317
a(g47
L4644L
tp318
a(g49
L10381L
tp319
a(g51
L13690L
tp320
a(g53
L26682L
tp321
a(g55
L4507L
tp322
a(g57
L4995L
tp323
a(g59
L4422L
tp324
a(g61
L21086L
tp325
a(g63
L28228L
tp326
a(g65
L2790L
tp327
a(g67
L31581L
tp328
a(g69
L26901L
tp329
a(g71
L29927L
tp330
a(g73
L4514L
tp331
a(g75
L3827L
tp332
a(g77
L27837L
tp333
a(g79
L10598L
tp334
a(g81
L6320L
tp335
a(g83
L4725L
tp336
a(g85
L7881L
tp337
a(g87
L28535L
tp338
a(g89
L20503L
tp339
a(g91
L18282L
tp340
a(g93
L5165L
tp341
a(g95
L5663L
tp342
a(g97
L10466L
tp343
a(g99
L6500L
tp344
a(g101
L10229L
tp345
a(g103
L2830L
tp346
a(g105
L4567L
tp347
a(g107
L5791L
tp348
a(g109
L4621L
tp349
a(g111
L5896L
tp350
a(g113
L5218L
tp351
a(g115
L4515L
tp352
a(g117
L6448L
tp353
a(g119
L4556L
tp354
a(g121
L30984L
tp355
a(g123
L14001L
tp356
a(g125
L6494L
tp357
a(g127
L6436L
tp358
a(g129
L4542L
tp359
a(g131
L10963L
tp360
a(g133
L10950L
tp361
a(g135
L4586L
tp362
a(g137
L4439L
tp363
a(g139
L677L
tp364
a(g141
L6357L
tp365
a(g143
L594L
tp366
a(g145
L4118L
tp367
a(g147
L4366L
tp368
a(g149
L759L
tp369
a(g151
L5302L
tp370
a(g153
L4405L
tp371
a(g155
L5471L
tp372
a(g157
L13967L
tp373
a(g159
L4684L
tp374
a(g161
L28144L
tp375
a(g163
L5112L
tp376
a(g165
L10870L
tp377
a(g167
L10829L
tp378
a(g169
L22810L
tp379
a(g171
L4546L
tp380
a(g173
L4838L
tp381
a(g175
L5695L
tp382
a(g177
L2364L
tp383
a(g179
L6169L
tp384
a(g181
L17965L
tp385
a(g183
L5582L
tp386
a(g185
L3L
tp387
a(g187
L10840L
tp388
a(g189
L3404L
tp389
a(g191
L28251L
tp390
a(g193
L3518L
tp391
a(g195
L13274L
tp392
a(g197
L7644L
tp393
a(g199
L10905L
tp394
a(g201
L14427L
tp395
a(g203
L4538L
tp396
a(g205
L6389L
tp397
a(g207
L13644L
tp398
a(g209
L5658L
tp399
a(g211
L4368L
tp400
a(g213
L5161L
tp401
a(g215
L4475L
tp402
a(g217
L20900L
tp403
a(g219
L2991L
tp404
a(g221
L4423L
tp405
a(g223
L10860L
tp406
a(g225
L2835L
tp407
a(g227
L12827L
tp408
a(g229
L10929L
tp409
a(g231
L5662L
tp410
a(g233
L14078L
tp411
a(g235
L4408L
tp412
a(g237
L5682L
tp413
a(g239
L10886L
tp414
a(g241
L5712L
tp415
a(g243
L10876L
tp416
a(g245
L2841L
tp417
a(g247
L5705L
tp418
a(g249
L14396L
tp419
a(g251
L5114L
tp420
a(g253
L33137L
tp421
a(g255
L15840L
tp422
a(g257
L4550L
tp423
a(g259
L6358L
tp424
a(g261
L6747L
tp425
a(g263
L4583L
tp426
a(g265
L28040L
tp427
a(g267
L5126L
tp428
a(g269
L4609L
tp429
a(g271
L10848L
tp430
a(g273
L201L
tp431
a(g275
L20770L
tp432
a(g277
L4411L
tp433
a(g279
L21900L
tp434
a(g281
L12918L
tp435
a(g283
L7683L
tp436
a(g285
L33512L
tp437
a(g287
L15852L
tp438
a(g289
L4412L
tp439
a(g291
L10192L
tp440
a(g293
L14288L
tp441
aaI834276
a.