(lp1
(lp2
(Vbiological_process
p3
I216937
tp4
a(Vcellular_component
p5
I78168
tp6
a(Vmolecular_function
p7
I66047
tp8
a(Vorganelle
p9
I20718
tp10
a(Vanatomical structure development
p11
I16237
tp12
a(Vtransport
p13
I13298
tp14
a(Vcellular nitrogen compound metabolic process
p15
I11296
tp16
a(Vsignal transduction
p17
I9783
tp18
a(Vprotein complex
p19
I9156
tp20
a(Vion binding
p21
I8346
tp22
a(Vsmall molecule metabolic process
p23
I7696
tp24
a(Vresponse to stress
p25
I7669
tp26
a(Vbiosynthetic process
p27
I6726
tp28
a(Vcellular protein modification process
p29
I5881
tp30
a(Vcatabolic process
p31
I5377
tp32
a(Vimmune system process
p33
I4302
tp34
a(Vcytosol
p35
I4056
tp36
a(Vcellular component assembly
p37
I3903
tp38
a(Vcell differentiation
p39
I3763
tp40
a(Vlipid metabolic process
p41
I3509
tp42
a(Venzyme binding
p43
I3378
tp44
a(Vtransmembrane transporter activity
p45
I2974
tp46
a(Vplasma membrane
p47
I2928
tp48
a(VDNA metabolic process
p49
I2910
tp50
a(Vnucleolus
p51
I2906
tp52
a(Vnucleus
p53
I2770
tp54
a(Vvesicle-mediated transport
p55
I2732
tp56
a(Vlocomotion
p57
I2521
tp58
a(Vanatomical structure formation involved in morphogenesis
p59
I2459
tp60
a(Vcytoplasm
p61
I2425
tp62
a(Vchromosome organization
p63
I2399
tp64
a(Vtransmembrane transport
p65
I2364
tp66
a(VDNA binding
p67
I2311
tp68
a(Vmacromolecular complex assembly
p69
I2215
tp70
a(Vhomeostatic process
p71
I2171
tp72
a(Voxidoreductase activity
p73
I2159
tp74
a(Vcarbohydrate metabolic process
p75
I2022
tp76
a(Vnucleobase-containing compound catabolic process
p77
I1922
tp78
a(Vprotein maturation
p79
I1902
tp80
a(Vcytoskeletal protein binding
p81
I1845
tp82
a(Vembryo development
p83
I1834
tp84
a(Vcell motility
p85
I1826
tp86
a(Vneurological system process
p87
I1822
tp88
a(Vprotein complex assembly
p89
I1777
tp90
a(Vcytoskeleton organization
p91
I1772
tp92
a(Vsignal transducer activity
p93
I1676
tp94
a(Vkinase activity
p95
I1673
tp96
a(Vgrowth
p97
I1524
tp98
a(VRNA binding
p99
I1511
tp100
a(Vlipid binding
p101
I1468
tp102
a(Vcellular amino acid metabolic process
p103
I1436
tp104
a(Vmitochondrion
p105
I1430
tp106
a(Vcytoplasmic membrane-bounded vesicle
p107
I1388
tp108
a(VGolgi apparatus
p109
I1374
tp110
a(Vpeptidase activity
p111
I1320
tp112
a(Vcytoskeleton
p113
I1286
tp114
a(Vmembrane organization
p115
I1199
tp116
a(Vendoplasmic reticulum
p117
I1196
tp118
a(Vcell-cell signaling
p119
I1176
tp120
a(Venzyme regulator activity
p121
I1172
tp122
a(Vnucleoplasm
p123
I1144
tp124
a(VATPase activity
p125
I1109
tp126
a(Vendosome
p127
I1102
tp128
a(Vcell adhesion
p129
I1096
tp130
a(Vligase activity
p131
I1089
tp132
a(Vmicrotubule organizing center
p133
I1060
tp134
a(Vcell proliferation
p135
I1006
tp136
a(Vtranscription factor binding
p137
I1001
tp138
a(Vcell death
p139
I985
tp140
a(Vprotein binding transcription factor activity
p141
I915
tp142
a(Vnucleic acid binding transcription factor activity
p143
I880
tp144
a(Vcell morphogenesis
p145
I817
tp146
a(Vsulfur compound metabolic process
p147
I817
tp148
a(Vextracellular region
p149
I807
tp150
a(Vstructural molecule activity
p151
I799
tp152
a(Vcofactor metabolic process
p153
I729
tp154
a(Vprotein targeting
p155
I718
tp156
a(VmRNA processing
p157
I686
tp158
a(Vtransferase activity, transferring acyl groups
p159
I671
tp160
a(Vsymbiosis, encompassing mutualism through parasitism
p161
I653
tp162
a(Vextracellular space
p163
I652
tp164
a(Vphosphatase activity
p165
I643
tp166
a(Vextracellular matrix organization
p167
I617
tp168
a(Vgeneration of precursor metabolites and energy
p169
I601
tp170
a(Vcilium
p171
I595
tp172
a(Vvacuole
p173
I575
tp174
a(Vtransferase activity, transferring glycosyl groups
p175
I525
tp176
a(Vnucleocytoplasmic transport
p177
I511
tp178
a(Vcell cycle
p179
I495
tp180
a(Vcell junction organization
p181
I456
tp182
a(Vaging
p183
I452
tp184
a(Vhelicase activity
p185
I451
tp186
a(Vlyase activity
p187
I415
tp188
a(Vmethyltransferase activity
p189
I402
tp190
a(Vcirculatory system process
p191
I390
tp192
a(Vreproduction
p193
I384
tp194
a(Vcell division
p195
I379
tp196
a(Vcytoskeleton-dependent intracellular transport
p197
I370
tp198
a(Vprotein folding
p199
I365
tp200
a(Vnuclease activity
p201
I362
tp202
a(Vlysosome
p203
I360
tp204
a(Vribonucleoprotein complex assembly
p205
I354
tp206
a(Vmitochondrion organization
p207
I341
tp208
a(Vdevelopmental maturation
p209
I338
tp210
a(Vhistone binding
p211
I321
tp212
a(Vplastid
p213
I320
tp214
a(Vchromosome
p215
I318
tp216
a(VGTPase activity
p217
I311
tp218
a(Vnucleotidyltransferase activity
p219
I285
tp220
a(Visomerase activity
p221
I285
tp222
a(Vplasma membrane organization
p223
I259
tp224
a(Vnuclear envelope
p225
I252
tp226
a(VmRNA binding
p227
I246
tp228
a(Vsecondary metabolic process
p229
I243
tp230
a(Vhydrolase activity, acting on carbon-nitrogen (but not peptide) bonds
p231
I235
tp232
a(Vhydrolase activity, acting on glycosyl bonds
p233
I232
tp234
a(Vproteinaceous extracellular matrix
p235
I223
tp236
a(VtRNA metabolic process
p237
I217
tp238
a(Vvacuolar transport
p239
I211
tp240
a(Vmitosis
p241
I209
tp242
a(Vchromosome segregation
p243
I198
tp244
a(Vperoxisome
p245
I189
tp246
a(Vexternal encapsulating structure
p247
I187
tp248
a(Vprotein binding, bridging
p249
I186
tp250
a(Vcell wall
p251
I181
tp252
a(Vtranslation factor activity, nucleic acid binding
p253
I179
tp254
a(Vunfolded protein binding
p255
I168
tp256
a(Vstructural constituent of ribosome
p257
I166
tp258
a(Vsmall conjugating protein binding
p259
I160
tp260
a(Vprotein transporter activity
p261
I151
tp262
a(Vlipid particle
p263
I143
tp264
a(Vcell wall organization or biogenesis
p265
I143
tp266
a(Vtranslation
p267
I139
tp268
a(Vintracellular
p269
I130
tp270
a(Vtransferase activity, transferring alkyl or aryl (other than methyl) groups
p271
I122
tp272
a(Vribosome
p273
I105
tp274
a(Vnuclear chromosome
p275
I102
tp276
a(Vpigmentation
p277
I79
tp278
a(Vribosome biogenesis
p279
I79
tp280
a(VrRNA binding
p281
I44
tp282
a(Vnitrogen cycle metabolic process
p283
I32
tp284
a(Vthylakoid
p285
I29
tp286
a(Vtransposition
p287
I26
tp288
a(Vcell
p289
I12
tp290
a(Vphotosynthesis
p291
I2
tp292
aa(lp293
(g3
L6372L
tp294
a(g5
L4365L
tp295
a(g7
L2787L
tp296
a(g9
L21685L
tp297
a(g11
L26888L
tp298
a(g13
L5491L
tp299
a(g15
L18268L
tp300
a(g17
L5801L
tp301
a(g19
L21693L
tp302
a(g21
L21630L
tp303
a(g23
L22689L
tp304
a(g25
L5613L
tp305
a(g27
L7192L
tp306
a(g29
L5168L
tp307
a(g31
L7190L
tp308
a(g33
L1781L
tp309
a(g35
L4599L
tp310
a(g37
L13633L
tp311
a(g39
L13924L
tp312
a(g41
L5326L
tp313
a(g43
L12968L
tp314
a(g45
L13690L
tp315
a(g47
L4644L
tp316
a(g49
L4995L
tp317
a(g51
L4507L
tp318
a(g53
L4422L
tp319
a(g55
L10381L
tp320
a(g57
L20507L
tp321
a(g59
L26682L
tp322
a(g61
L4514L
tp323
a(g63
L28228L
tp324
a(g65
L29927L
tp325
a(g67
L2790L
tp326
a(g69
L31581L
tp327
a(g71
L21086L
tp328
a(g73
L10598L
tp329
a(g75
L4725L
tp330
a(g77
L18282L
tp331
a(g79
L28535L
tp332
a(g81
L6320L
tp333
a(g83
L7881L
tp334
a(g85
L26901L
tp335
a(g87
L27837L
tp336
a(g89
L5165L
tp337
a(g91
L5663L
tp338
a(g93
L3827L
tp339
a(g95
L10466L
tp340
a(g97
L20503L
tp341
a(g99
L2830L
tp342
a(g101
L6500L
tp343
a(g103
L5218L
tp344
a(g105
L4515L
tp345
a(g107
L10229L
tp346
a(g109
L4567L
tp347
a(g111
L6448L
tp348
a(g113
L4621L
tp349
a(g115
L30984L
tp350
a(g117
L4556L
tp351
a(g119
L5896L
tp352
a(g121
L14001L
tp353
a(g123
L4439L
tp354
a(g125
L10963L
tp355
a(g127
L4542L
tp356
a(g129
L5791L
tp357
a(g131
L10950L
tp358
a(g133
L4586L
tp359
a(g135
L6494L
tp360
a(g137
L6357L
tp361
a(g139
L6436L
tp362
a(g141
L677L
tp363
a(g143
L759L
tp364
a(g145
L594L
tp365
a(g147
L5471L
tp366
a(g149
L4366L
tp367
a(g151
L4118L
tp368
a(g153
L28144L
tp369
a(g155
L5302L
tp370
a(g157
L5112L
tp371
a(g159
L10829L
tp372
a(g161
L22810L
tp373
a(g163
L4405L
tp374
a(g165
L10870L
tp375
a(g167
L13967L
tp376
a(g169
L4838L
tp377
a(g171
L4684L
tp378
a(g173
L4546L
tp379
a(g175
L10840L
tp380
a(g177
L5582L
tp381
a(g179
L5695L
tp382
a(g181
L17965L
tp383
a(g183
L6169L
tp384
a(g185
L3404L
tp385
a(g187
L10905L
tp386
a(g189
L6389L
tp387
a(g191
L2364L
tp388
a(g193
L3L
tp389
a(g195
L28251L
tp390
a(g197
L14427L
tp391
a(g199
L5161L
tp392
a(g201
L3518L
tp393
a(g203
L4538L
tp394
a(g205
L13644L
tp395
a(g207
L5658L
tp396
a(g209
L13274L
tp397
a(g211
L20900L
tp398
a(g213
L7644L
tp399
a(g215
L4475L
tp400
a(g217
L2991L
tp401
a(g219
L10860L
tp402
a(g221
L10929L
tp403
a(g223
L5662L
tp404
a(g225
L4423L
tp405
a(g227
L2835L
tp406
a(g229
L12827L
tp407
a(g231
L10886L
tp408
a(g233
L10876L
tp409
a(g235
L4368L
tp410
a(g237
L5114L
tp411
a(g239
L5682L
tp412
a(g241
L5712L
tp413
a(g243
L5705L
tp414
a(g245
L4550L
tp415
a(g247
L14078L
tp416
a(g249
L14396L
tp417
a(g251
L4408L
tp418
a(g253
L6358L
tp419
a(g255
L28040L
tp420
a(g257
L2841L
tp421
a(g259
L15840L
tp422
a(g261
L6747L
tp423
a(g263
L4583L
tp424
a(g265
L33137L
tp425
a(g267
L5126L
tp426
a(g269
L4411L
tp427
a(g271
L10848L
tp428
a(g273
L4609L
tp429
a(g275
L201L
tp430
a(g277
L21900L
tp431
a(g279
L20770L
tp432
a(g281
L12918L
tp433
a(g283
L33512L
tp434
a(g285
L7683L
tp435
a(g287
L15852L
tp436
a(g289
L4412L
tp437
a(g291
L10192L
tp438
aaI618277
a.