(lp1
(lp2
(Vbiological_process
p3
I276073
tp4
a(Vcellular_component
p5
I90253
tp6
a(Vmolecular_function
p7
I70715
tp8
a(Vorganelle
p9
I25102
tp10
a(Vanatomical structure development
p11
I18287
tp12
a(Vtransport
p13
I16132
tp14
a(Vsignal transduction
p15
I13656
tp16
a(Vcellular nitrogen compound metabolic process
p17
I13284
tp18
a(Vresponse to stress
p19
I10541
tp20
a(Vprotein complex
p21
I8953
tp22
a(Vbiosynthetic process
p23
I8372
tp24
a(Vsmall molecule metabolic process
p25
I8150
tp26
a(Vcellular protein modification process
p27
I7971
tp28
a(Vion binding
p29
I7567
tp30
a(Vimmune system process
p31
I6672
tp32
a(Vcatabolic process
p33
I6080
tp34
a(Vcellular component assembly
p35
I4638
tp36
a(Vcell differentiation
p37
I4312
tp38
a(Venzyme binding
p39
I4154
tp40
a(Vlipid metabolic process
p41
I3894
tp42
a(VDNA metabolic process
p43
I3807
tp44
a(Vcytosol
p45
I3651
tp46
a(Vvesicle-mediated transport
p47
I3381
tp48
a(Vnucleus
p49
I3172
tp50
a(Vlocomotion
p51
I3081
tp52
a(Vplasma membrane
p53
I3026
tp54
a(Vcytoplasm
p55
I2926
tp56
a(Vchromosome organization
p57
I2813
tp58
a(Vnucleolus
p59
I2783
tp60
a(Vkinase activity
p61
I2587
tp62
a(Vhomeostatic process
p63
I2531
tp64
a(VDNA binding
p65
I2487
tp66
a(Vanatomical structure formation involved in morphogenesis
p67
I2447
tp68
a(Vmacromolecular complex assembly
p69
I2360
tp70
a(Vnucleobase-containing compound catabolic process
p71
I2313
tp72
a(Vtransmembrane transporter activity
p73
I2203
tp74
a(Vcarbohydrate metabolic process
p75
I2176
tp76
a(Vcytoskeletal protein binding
p77
I2123
tp78
a(Voxidoreductase activity
p79
I2111
tp80
a(Vembryo development
p81
I2072
tp82
a(Vcell motility
p83
I2022
tp84
a(Vprotein maturation
p85
I1895
tp86
a(Vprotein complex assembly
p87
I1889
tp88
a(Vcytoskeleton
p89
I1883
tp90
a(Vcytoskeleton organization
p91
I1868
tp92
a(Vtransmembrane transport
p93
I1768
tp94
a(Vgrowth
p95
I1754
tp96
a(Vsignal transducer activity
p97
I1719
tp98
a(Vcell death
p99
I1589
tp100
a(Vmitochondrion
p101
I1576
tp102
a(VATPase activity
p103
I1573
tp104
a(VRNA binding
p105
I1551
tp106
a(Vmembrane organization
p107
I1546
tp108
a(Vneurological system process
p109
I1510
tp110
a(Vendosome
p111
I1482
tp112
a(Vcytoplasmic membrane-bounded vesicle
p113
I1447
tp114
a(VGolgi apparatus
p115
I1390
tp116
a(Vcell adhesion
p117
I1388
tp118
a(Vpeptidase activity
p119
I1375
tp120
a(Vcellular amino acid metabolic process
p121
I1347
tp122
a(Vcell-cell signaling
p123
I1299
tp124
a(Vlipid binding
p125
I1176
tp126
a(Vcell morphogenesis
p127
I1160
tp128
a(Vligase activity
p129
I1157
tp130
a(Vendoplasmic reticulum
p131
I1152
tp132
a(Vmicrotubule organizing center
p133
I1118
tp134
a(Venzyme regulator activity
p135
I1076
tp136
a(Vcell proliferation
p137
I1066
tp138
a(Vnucleoplasm
p139
I994
tp140
a(Vtranscription factor binding
p141
I974
tp142
a(Vprotein targeting
p143
I956
tp144
a(Vhelicase activity
p145
I902
tp146
a(Vprotein binding transcription factor activity
p147
I875
tp148
a(Vphosphatase activity
p149
I848
tp150
a(Vcell cycle
p151
I780
tp152
a(Vsulfur compound metabolic process
p153
I755
tp154
a(Vstructural molecule activity
p155
I750
tp156
a(Vsymbiosis, encompassing mutualism through parasitism
p157
I746
tp158
a(Vvacuole
p159
I696
tp160
a(Vnucleic acid binding transcription factor activity
p161
I692
tp162
a(VmRNA processing
p163
I688
tp164
a(Vplasma membrane organization
p165
I670
tp166
a(Vcofactor metabolic process
p167
I659
tp168
a(Vextracellular region
p169
I641
tp170
a(Vtransferase activity, transferring acyl groups
p171
I631
tp172
a(Vtransferase activity, transferring glycosyl groups
p173
I607
tp174
a(Vreproduction
p175
I604
tp176
a(Vcilium
p177
I599
tp178
a(Vmethyltransferase activity
p179
I512
tp180
a(Vgeneration of precursor metabolites and energy
p181
I506
tp182
a(Vnuclease activity
p183
I505
tp184
a(Vcell junction organization
p185
I497
tp186
a(Vcell division
p187
I495
tp188
a(Vextracellular matrix organization
p189
I487
tp190
a(Vaging
p191
I479
tp192
a(Vplastid
p193
I442
tp194
a(Vextracellular space
p195
I436
tp196
a(VGTPase activity
p197
I433
tp198
a(Vchromosome
p199
I401
tp200
a(Vnucleocytoplasmic transport
p201
I390
tp202
a(Vlysosome
p203
I386
tp204
a(Vlyase activity
p205
I386
tp206
a(Vribonucleoprotein complex assembly
p207
I382
tp208
a(Vdevelopmental maturation
p209
I366
tp210
a(Vprotein folding
p211
I356
tp212
a(Vcytoskeleton-dependent intracellular transport
p213
I355
tp214
a(Vhistone binding
p215
I354
tp216
a(Vsecondary metabolic process
p217
I329
tp218
a(Vmitochondrion organization
p219
I321
tp220
a(Vnuclear envelope
p221
I306
tp222
a(Visomerase activity
p223
I287
tp224
a(VtRNA metabolic process
p225
I281
tp226
a(Vproteinaceous extracellular matrix
p227
I275
tp228
a(Vmitosis
p229
I268
tp230
a(Vnucleotidyltransferase activity
p231
I266
tp232
a(Vexternal encapsulating structure
p233
I263
tp234
a(Vprotein binding, bridging
p235
I263
tp236
a(Vvacuolar transport
p237
I262
tp238
a(Vhydrolase activity, acting on glycosyl bonds
p239
I262
tp240
a(Vcell wall
p241
I260
tp242
a(Vhydrolase activity, acting on carbon-nitrogen (but not peptide) bonds
p243
I255
tp244
a(Vchromosome segregation
p245
I242
tp246
a(Vcirculatory system process
p247
I235
tp248
a(VmRNA binding
p249
I228
tp250
a(Vperoxisome
p251
I225
tp252
a(Vcell wall organization or biogenesis
p253
I214
tp254
a(Vsmall conjugating protein binding
p255
I192
tp256
a(Vintracellular
p257
I176
tp258
a(Vtranslation factor activity, nucleic acid binding
p259
I168
tp260
a(Vstructural constituent of ribosome
p261
I164
tp262
a(Vlipid particle
p263
I146
tp264
a(Vtranslation
p265
I141
tp266
a(Vunfolded protein binding
p267
I128
tp268
a(Vtransferase activity, transferring alkyl or aryl (other than methyl) groups
p269
I128
tp270
a(Vnuclear chromosome
p271
I115
tp272
a(Vribosome
p273
I107
tp274
a(Vprotein transporter activity
p275
I106
tp276
a(Vribosome biogenesis
p277
I104
tp278
a(Vpigmentation
p279
I80
tp280
a(VrRNA binding
p281
I59
tp282
a(Vthylakoid
p283
I31
tp284
a(Vcell
p285
I19
tp286
a(Vnitrogen cycle metabolic process
p287
I11
tp288
a(Vtransposition
p289
I3
tp290
a(Vphotosynthesis
p291
I2
tp292
aa(lp293
(g3
L6372L
tp294
a(g5
L4365L
tp295
a(g7
L2787L
tp296
a(g9
L21685L
tp297
a(g11
L26888L
tp298
a(g13
L5491L
tp299
a(g15
L5801L
tp300
a(g17
L18268L
tp301
a(g19
L5613L
tp302
a(g21
L21693L
tp303
a(g23
L7192L
tp304
a(g25
L22689L
tp305
a(g27
L5168L
tp306
a(g29
L21630L
tp307
a(g31
L1781L
tp308
a(g33
L7190L
tp309
a(g35
L13633L
tp310
a(g37
L13924L
tp311
a(g39
L12968L
tp312
a(g41
L5326L
tp313
a(g43
L4995L
tp314
a(g45
L4599L
tp315
a(g47
L10381L
tp316
a(g49
L4422L
tp317
a(g51
L20507L
tp318
a(g53
L4644L
tp319
a(g55
L4514L
tp320
a(g57
L28228L
tp321
a(g59
L4507L
tp322
a(g61
L10466L
tp323
a(g63
L21086L
tp324
a(g65
L2790L
tp325
a(g67
L26682L
tp326
a(g69
L31581L
tp327
a(g71
L18282L
tp328
a(g73
L13690L
tp329
a(g75
L4725L
tp330
a(g77
L6320L
tp331
a(g79
L10598L
tp332
a(g81
L7881L
tp333
a(g83
L26901L
tp334
a(g85
L28535L
tp335
a(g87
L5165L
tp336
a(g89
L4621L
tp337
a(g91
L5663L
tp338
a(g93
L29927L
tp339
a(g95
L20503L
tp340
a(g97
L3827L
tp341
a(g99
L6436L
tp342
a(g101
L4515L
tp343
a(g103
L10963L
tp344
a(g105
L2830L
tp345
a(g107
L30984L
tp346
a(g109
L27837L
tp347
a(g111
L4542L
tp348
a(g113
L10229L
tp349
a(g115
L4567L
tp350
a(g117
L5791L
tp351
a(g119
L6448L
tp352
a(g121
L5218L
tp353
a(g123
L5896L
tp354
a(g125
L6500L
tp355
a(g127
L594L
tp356
a(g129
L10950L
tp357
a(g131
L4556L
tp358
a(g133
L4586L
tp359
a(g135
L14001L
tp360
a(g137
L6494L
tp361
a(g139
L4439L
tp362
a(g141
L6357L
tp363
a(g143
L5302L
tp364
a(g145
L3404L
tp365
a(g147
L677L
tp366
a(g149
L10870L
tp367
a(g151
L5695L
tp368
a(g153
L5471L
tp369
a(g155
L4118L
tp370
a(g157
L22810L
tp371
a(g159
L4546L
tp372
a(g161
L759L
tp373
a(g163
L5112L
tp374
a(g165
L5662L
tp375
a(g167
L28144L
tp376
a(g169
L4366L
tp377
a(g171
L10829L
tp378
a(g173
L10840L
tp379
a(g175
L3L
tp380
a(g177
L4684L
tp381
a(g179
L6389L
tp382
a(g181
L4838L
tp383
a(g183
L3518L
tp384
a(g185
L17965L
tp385
a(g187
L28251L
tp386
a(g189
L13967L
tp387
a(g191
L6169L
tp388
a(g193
L7644L
tp389
a(g195
L4405L
tp390
a(g197
L2991L
tp391
a(g199
L4475L
tp392
a(g201
L5582L
tp393
a(g203
L4538L
tp394
a(g205
L10905L
tp395
a(g207
L13644L
tp396
a(g209
L13274L
tp397
a(g211
L5161L
tp398
a(g213
L14427L
tp399
a(g215
L20900L
tp400
a(g217
L12827L
tp401
a(g219
L5658L
tp402
a(g221
L4423L
tp403
a(g223
L10929L
tp404
a(g225
L5114L
tp405
a(g227
L4368L
tp406
a(g229
L5712L
tp407
a(g231
L10860L
tp408
a(g233
L14078L
tp409
a(g235
L14396L
tp410
a(g237
L5682L
tp411
a(g239
L10876L
tp412
a(g241
L4408L
tp413
a(g243
L10886L
tp414
a(g245
L5705L
tp415
a(g247
L2364L
tp416
a(g249
L2835L
tp417
a(g251
L4550L
tp418
a(g253
L33137L
tp419
a(g255
L15840L
tp420
a(g257
L4411L
tp421
a(g259
L6358L
tp422
a(g261
L2841L
tp423
a(g263
L4583L
tp424
a(g265
L5126L
tp425
a(g267
L28040L
tp426
a(g269
L10848L
tp427
a(g271
L201L
tp428
a(g273
L4609L
tp429
a(g275
L6747L
tp430
a(g277
L20770L
tp431
a(g279
L21900L
tp432
a(g281
L12918L
tp433
a(g283
L7683L
tp434
a(g285
L4412L
tp435
a(g287
L33512L
tp436
a(g289
L15852L
tp437
a(g291
L10192L
tp438
aaI730789
a.