(lp1
(lp2
(Vbiological_process
p3
I329257
tp4
a(Vcellular_component
p5
I107716
tp6
a(Vmolecular_function
p7
I86724
tp8
a(Vorganelle
p9
I29062
tp10
a(Vanatomical structure development
p11
I23244
tp12
a(Vtransport
p13
I19135
tp14
a(Vcellular nitrogen compound metabolic process
p15
I15714
tp16
a(Vsignal transduction
p17
I15710
tp18
a(Vresponse to stress
p19
I12486
tp20
a(Vprotein complex
p21
I11748
tp22
a(Vion binding
p23
I9762
tp24
a(Vbiosynthetic process
p25
I9708
tp26
a(Vsmall molecule metabolic process
p27
I9676
tp28
a(Vcellular protein modification process
p29
I8984
tp30
a(Vimmune system process
p31
I7543
tp32
a(Vcatabolic process
p33
I7278
tp34
a(Vcellular component assembly
p35
I5523
tp36
a(Vcell differentiation
p37
I5478
tp38
a(Venzyme binding
p39
I4885
tp40
a(Vcytosol
p41
I4664
tp42
a(Vlipid metabolic process
p43
I4390
tp44
a(VDNA metabolic process
p45
I4331
tp46
a(Vvesicle-mediated transport
p47
I3978
tp48
a(Vlocomotion
p49
I3889
tp50
a(Vplasma membrane
p51
I3762
tp52
a(Vnucleolus
p53
I3696
tp54
a(Vnucleus
p55
I3596
tp56
a(Vanatomical structure formation involved in morphogenesis
p57
I3374
tp58
a(Vcytoplasm
p59
I3339
tp60
a(Vchromosome organization
p61
I3266
tp62
a(Vhomeostatic process
p63
I3188
tp64
a(VDNA binding
p65
I3116
tp66
a(Vtransmembrane transporter activity
p67
I3033
tp68
a(Vmacromolecular complex assembly
p69
I3004
tp70
a(Vcytoskeletal protein binding
p71
I2759
tp72
a(Vnucleobase-containing compound catabolic process
p73
I2749
tp74
a(Vkinase activity
p75
I2706
tp76
a(Vcarbohydrate metabolic process
p77
I2644
tp78
a(Vcell motility
p79
I2628
tp80
a(Vembryo development
p81
I2626
tp82
a(Vprotein maturation
p83
I2466
tp84
a(Vcytoskeleton organization
p85
I2449
tp86
a(Voxidoreductase activity
p87
I2444
tp88
a(Vsignal transducer activity
p89
I2368
tp90
a(Vprotein complex assembly
p91
I2366
tp92
a(Vtransmembrane transport
p93
I2361
tp94
a(Vgrowth
p95
I2343
tp96
a(Vneurological system process
p97
I2296
tp98
a(Vcytoskeleton
p99
I2131
tp100
a(VRNA binding
p101
I2077
tp102
a(VATPase activity
p103
I1886
tp104
a(Vcell death
p105
I1844
tp106
a(VGolgi apparatus
p107
I1839
tp108
a(Vmitochondrion
p109
I1834
tp110
a(Vmembrane organization
p111
I1803
tp112
a(Vcell adhesion
p113
I1732
tp114
a(Vcellular amino acid metabolic process
p115
I1703
tp116
a(Vcytoplasmic membrane-bounded vesicle
p117
I1697
tp118
a(Vpeptidase activity
p119
I1678
tp120
a(Vcell-cell signaling
p121
I1667
tp122
a(Vlipid binding
p123
I1653
tp124
a(Vendosome
p125
I1563
tp126
a(Vligase activity
p127
I1553
tp128
a(Vendoplasmic reticulum
p129
I1514
tp130
a(Vcell proliferation
p131
I1409
tp132
a(Venzyme regulator activity
p133
I1351
tp134
a(Vcell morphogenesis
p135
I1318
tp136
a(Vnucleoplasm
p137
I1311
tp138
a(Vmicrotubule organizing center
p139
I1290
tp140
a(Vtranscription factor binding
p141
I1235
tp142
a(Vprotein targeting
p143
I1192
tp144
a(Vprotein binding transcription factor activity
p145
I1158
tp146
a(Vstructural molecule activity
p147
I1151
tp148
a(Vhelicase activity
p149
I1042
tp150
a(Vnucleic acid binding transcription factor activity
p151
I970
tp152
a(Vsulfur compound metabolic process
p153
I962
tp154
a(Vsymbiosis, encompassing mutualism through parasitism
p155
I914
tp156
a(Vextracellular region
p157
I900
tp158
a(VmRNA processing
p159
I859
tp160
a(Vphosphatase activity
p161
I853
tp162
a(Vcell cycle
p163
I799
tp164
a(Vvacuole
p165
I792
tp166
a(Vcofactor metabolic process
p167
I791
tp168
a(Vtransferase activity, transferring acyl groups
p169
I778
tp170
a(Vcilium
p171
I749
tp172
a(Vreproduction
p173
I737
tp174
a(Vextracellular matrix organization
p175
I711
tp176
a(Vextracellular space
p177
I698
tp178
a(Vgeneration of precursor metabolites and energy
p179
I695
tp180
a(Vtransferase activity, transferring glycosyl groups
p181
I694
tp182
a(Vplasma membrane organization
p183
I691
tp184
a(Vcell division
p185
I606
tp186
a(Vnucleocytoplasmic transport
p187
I596
tp188
a(Vaging
p189
I583
tp190
a(Vnuclease activity
p191
I579
tp192
a(Vcell junction organization
p193
I574
tp194
a(Vmethyltransferase activity
p195
I570
tp196
a(Vplastid
p197
I558
tp198
a(Vribonucleoprotein complex assembly
p199
I511
tp200
a(Vchromosome
p201
I502
tp202
a(Vdevelopmental maturation
p203
I477
tp204
a(Vmitochondrion organization
p205
I476
tp206
a(Vcytoskeleton-dependent intracellular transport
p207
I457
tp208
a(Vlysosome
p209
I455
tp210
a(Vlyase activity
p211
I447
tp212
a(Vcirculatory system process
p213
I424
tp214
a(Vprotein folding
p215
I422
tp216
a(Vnuclear envelope
p217
I420
tp218
a(Vhistone binding
p219
I414
tp220
a(VGTPase activity
p221
I376
tp222
a(Vproteinaceous extracellular matrix
p223
I374
tp224
a(Vsecondary metabolic process
p225
I362
tp226
a(Vnucleotidyltransferase activity
p227
I352
tp228
a(Vexternal encapsulating structure
p229
I342
tp230
a(Visomerase activity
p231
I338
tp232
a(Vcell wall
p233
I337
tp234
a(Vmitosis
p235
I327
tp236
a(VmRNA binding
p237
I322
tp238
a(Vchromosome segregation
p239
I316
tp240
a(Vvacuolar transport
p241
I304
tp242
a(Vstructural constituent of ribosome
p243
I303
tp244
a(Vhydrolase activity, acting on carbon-nitrogen (but not peptide) bonds
p245
I291
tp246
a(VtRNA metabolic process
p247
I290
tp248
a(Vhydrolase activity, acting on glycosyl bonds
p249
I276
tp250
a(Vprotein binding, bridging
p251
I265
tp252
a(Vcell wall organization or biogenesis
p253
I262
tp254
a(Vperoxisome
p255
I243
tp256
a(Vsmall conjugating protein binding
p257
I223
tp258
a(Vtranslation factor activity, nucleic acid binding
p259
I211
tp260
a(Vprotein transporter activity
p261
I187
tp262
a(Vunfolded protein binding
p263
I186
tp264
a(Vtranslation
p265
I178
tp266
a(Vintracellular
p267
I168
tp268
a(Vlipid particle
p269
I160
tp270
a(Vribosome
p271
I148
tp272
a(Vnuclear chromosome
p273
I148
tp274
a(Vtransferase activity, transferring alkyl or aryl (other than methyl) groups
p275
I137
tp276
a(Vribosome biogenesis
p277
I125
tp278
a(Vpigmentation
p279
I102
tp280
a(VrRNA binding
p281
I86
tp282
a(Vthylakoid
p283
I45
tp284
a(Vtransposition
p285
I34
tp286
a(Vnitrogen cycle metabolic process
p287
I18
tp288
a(Vcell
p289
I8
tp290
a(Vphotosynthesis
p291
I6
tp292
a(VRNA modification guide activity
p293
I1
tp294
aa(lp295
(g3
L6372L
tp296
a(g5
L4365L
tp297
a(g7
L2787L
tp298
a(g9
L21685L
tp299
a(g11
L26888L
tp300
a(g13
L5491L
tp301
a(g15
L18268L
tp302
a(g17
L5801L
tp303
a(g19
L5613L
tp304
a(g21
L21693L
tp305
a(g23
L21630L
tp306
a(g25
L7192L
tp307
a(g27
L22689L
tp308
a(g29
L5168L
tp309
a(g31
L1781L
tp310
a(g33
L7190L
tp311
a(g35
L13633L
tp312
a(g37
L13924L
tp313
a(g39
L12968L
tp314
a(g41
L4599L
tp315
a(g43
L5326L
tp316
a(g45
L4995L
tp317
a(g47
L10381L
tp318
a(g49
L20507L
tp319
a(g51
L4644L
tp320
a(g53
L4507L
tp321
a(g55
L4422L
tp322
a(g57
L26682L
tp323
a(g59
L4514L
tp324
a(g61
L28228L
tp325
a(g63
L21086L
tp326
a(g65
L2790L
tp327
a(g67
L13690L
tp328
a(g69
L31581L
tp329
a(g71
L6320L
tp330
a(g73
L18282L
tp331
a(g75
L10466L
tp332
a(g77
L4725L
tp333
a(g79
L26901L
tp334
a(g81
L7881L
tp335
a(g83
L28535L
tp336
a(g85
L5663L
tp337
a(g87
L10598L
tp338
a(g89
L3827L
tp339
a(g91
L5165L
tp340
a(g93
L29927L
tp341
a(g95
L20503L
tp342
a(g97
L27837L
tp343
a(g99
L4621L
tp344
a(g101
L2830L
tp345
a(g103
L10963L
tp346
a(g105
L6436L
tp347
a(g107
L4567L
tp348
a(g109
L4515L
tp349
a(g111
L30984L
tp350
a(g113
L5791L
tp351
a(g115
L5218L
tp352
a(g117
L10229L
tp353
a(g119
L6448L
tp354
a(g121
L5896L
tp355
a(g123
L6500L
tp356
a(g125
L4542L
tp357
a(g127
L10950L
tp358
a(g129
L4556L
tp359
a(g131
L6494L
tp360
a(g133
L14001L
tp361
a(g135
L594L
tp362
a(g137
L4439L
tp363
a(g139
L4586L
tp364
a(g141
L6357L
tp365
a(g143
L5302L
tp366
a(g145
L677L
tp367
a(g147
L4118L
tp368
a(g149
L3404L
tp369
a(g151
L759L
tp370
a(g153
L5471L
tp371
a(g155
L22810L
tp372
a(g157
L4366L
tp373
a(g159
L5112L
tp374
a(g161
L10870L
tp375
a(g163
L5695L
tp376
a(g165
L4546L
tp377
a(g167
L28144L
tp378
a(g169
L10829L
tp379
a(g171
L4684L
tp380
a(g173
L3L
tp381
a(g175
L13967L
tp382
a(g177
L4405L
tp383
a(g179
L4838L
tp384
a(g181
L10840L
tp385
a(g183
L5662L
tp386
a(g185
L28251L
tp387
a(g187
L5582L
tp388
a(g189
L6169L
tp389
a(g191
L3518L
tp390
a(g193
L17965L
tp391
a(g195
L6389L
tp392
a(g197
L7644L
tp393
a(g199
L13644L
tp394
a(g201
L4475L
tp395
a(g203
L13274L
tp396
a(g205
L5658L
tp397
a(g207
L14427L
tp398
a(g209
L4538L
tp399
a(g211
L10905L
tp400
a(g213
L2364L
tp401
a(g215
L5161L
tp402
a(g217
L4423L
tp403
a(g219
L20900L
tp404
a(g221
L2991L
tp405
a(g223
L4368L
tp406
a(g225
L12827L
tp407
a(g227
L10860L
tp408
a(g229
L14078L
tp409
a(g231
L10929L
tp410
a(g233
L4408L
tp411
a(g235
L5712L
tp412
a(g237
L2835L
tp413
a(g239
L5705L
tp414
a(g241
L5682L
tp415
a(g243
L2841L
tp416
a(g245
L10886L
tp417
a(g247
L5114L
tp418
a(g249
L10876L
tp419
a(g251
L14396L
tp420
a(g253
L33137L
tp421
a(g255
L4550L
tp422
a(g257
L15840L
tp423
a(g259
L6358L
tp424
a(g261
L6747L
tp425
a(g263
L28040L
tp426
a(g265
L5126L
tp427
a(g267
L4411L
tp428
a(g269
L4583L
tp429
a(g271
L4609L
tp430
a(g273
L201L
tp431
a(g275
L10848L
tp432
a(g277
L20770L
tp433
a(g279
L21900L
tp434
a(g281
L12918L
tp435
a(g283
L7683L
tp436
a(g285
L15852L
tp437
a(g287
L33512L
tp438
a(g289
L4412L
tp439
a(g291
L10192L
tp440
a(g293
L14288L
tp441
aaI880610
a.