(lp1
(lp2
(Vbiological_process
p3
I386659
tp4
a(Vcellular_component
p5
I126469
tp6
a(Vmolecular_function
p7
I101239
tp8
a(Vorganelle
p9
I34136
tp10
a(Vanatomical structure development
p11
I27025
tp12
a(Vtransport
p13
I22281
tp14
a(Vcellular nitrogen compound metabolic process
p15
I18477
tp16
a(Vsignal transduction
p17
I18469
tp18
a(Vresponse to stress
p19
I15021
tp20
a(Vprotein complex
p21
I12951
tp22
a(Vbiosynthetic process
p23
I12641
tp24
a(Vsmall molecule metabolic process
p25
I12285
tp26
a(Vion binding
p27
I11603
tp28
a(Vcellular protein modification process
p29
I9843
tp30
a(Vcatabolic process
p31
I9115
tp32
a(Vimmune system process
p33
I8622
tp34
a(Vcellular component assembly
p35
I6276
tp36
a(Vcell differentiation
p37
I6124
tp38
a(Vlipid metabolic process
p39
I5571
tp40
a(Vcytosol
p41
I5448
tp42
a(Venzyme binding
p43
I5418
tp44
a(Vplasma membrane
p45
I4661
tp46
a(VDNA metabolic process
p47
I4473
tp48
a(Vlocomotion
p49
I4384
tp50
a(Vvesicle-mediated transport
p51
I4379
tp52
a(Vnucleus
p53
I4194
tp54
a(Vnucleolus
p55
I4161
tp56
a(Vcytoplasm
p57
I3772
tp58
a(Vhomeostatic process
p59
I3767
tp60
a(Vtransmembrane transporter activity
p61
I3720
tp62
a(Vanatomical structure formation involved in morphogenesis
p63
I3660
tp64
a(VDNA binding
p65
I3562
tp66
a(Vmacromolecular complex assembly
p67
I3532
tp68
a(Voxidoreductase activity
p69
I3423
tp70
a(Vchromosome organization
p71
I3397
tp72
a(Vcarbohydrate metabolic process
p73
I3360
tp74
a(Vnucleobase-containing compound catabolic process
p75
I3321
tp76
a(Vsignal transducer activity
p77
I3086
tp78
a(Vembryo development
p79
I3085
tp80
a(Vcell motility
p81
I2985
tp82
a(Vcytoskeletal protein binding
p83
I2985
tp84
a(Vprotein maturation
p85
I2958
tp86
a(Vneurological system process
p87
I2910
tp88
a(Vkinase activity
p89
I2884
tp90
a(Vprotein complex assembly
p91
I2869
tp92
a(Vtransmembrane transport
p93
I2845
tp94
a(Vgrowth
p95
I2834
tp96
a(Vcytoskeleton organization
p97
I2516
tp98
a(VRNA binding
p99
I2441
tp100
a(Vmitochondrion
p101
I2267
tp102
a(Vcytoskeleton
p103
I2259
tp104
a(VGolgi apparatus
p105
I2243
tp106
a(Vcellular amino acid metabolic process
p107
I2236
tp108
a(Vcell-cell signaling
p109
I2198
tp110
a(Vcell death
p111
I2153
tp112
a(Vcytoplasmic membrane-bounded vesicle
p113
I2115
tp114
a(Vpeptidase activity
p115
I2109
tp116
a(Vmembrane organization
p117
I2043
tp118
a(VATPase activity
p119
I1975
tp120
a(Vcell adhesion
p121
I1876
tp122
a(Vendoplasmic reticulum
p123
I1844
tp124
a(Vendosome
p125
I1789
tp126
a(Vlipid binding
p127
I1764
tp128
a(Vligase activity
p129
I1684
tp130
a(Vprotein targeting
p131
I1585
tp132
a(Vcell proliferation
p133
I1563
tp134
a(Venzyme regulator activity
p135
I1549
tp136
a(Vstructural molecule activity
p137
I1533
tp138
a(Vcell morphogenesis
p139
I1515
tp140
a(Vnucleoplasm
p141
I1459
tp142
a(Vmicrotubule organizing center
p143
I1405
tp144
a(Vtranscription factor binding
p145
I1371
tp146
a(Vsulfur compound metabolic process
p147
I1348
tp148
a(Vextracellular region
p149
I1332
tp150
a(Vprotein binding transcription factor activity
p151
I1231
tp152
a(Vnucleic acid binding transcription factor activity
p153
I1162
tp154
a(Vcofactor metabolic process
p155
I1114
tp156
a(Vgeneration of precursor metabolites and energy
p157
I1031
tp158
a(Vsymbiosis, encompassing mutualism through parasitism
p159
I1029
tp160
a(Vextracellular space
p161
I1015
tp162
a(Vvacuole
p163
I1001
tp164
a(Vhelicase activity
p165
I985
tp166
a(Vextracellular matrix organization
p167
I967
tp168
a(VmRNA processing
p169
I947
tp170
a(Vtransferase activity, transferring acyl groups
p171
I927
tp172
a(Vphosphatase activity
p173
I917
tp174
a(Vplastid
p175
I906
tp176
a(Vcilium
p177
I885
tp178
a(Vcell cycle
p179
I879
tp180
a(Vreproduction
p181
I860
tp182
a(Vaging
p183
I744
tp184
a(Vtransferase activity, transferring glycosyl groups
p185
I739
tp186
a(Vplasma membrane organization
p187
I710
tp188
a(Vmethyltransferase activity
p189
I704
tp190
a(Vcirculatory system process
p191
I669
tp192
a(Vnucleocytoplasmic transport
p193
I656
tp194
a(Vlyase activity
p195
I638
tp196
a(Vcell division
p197
I630
tp198
a(Vcell junction organization
p199
I611
tp200
a(Vnuclease activity
p201
I601
tp202
a(Vprotein folding
p203
I589
tp204
a(Vexternal encapsulating structure
p205
I589
tp206
a(Vstructural constituent of ribosome
p207
I584
tp208
a(Vcell wall
p209
I582
tp210
a(Vribonucleoprotein complex assembly
p211
I543
tp212
a(Vlysosome
p213
I536
tp214
a(VGTPase activity
p215
I528
tp216
a(Vsecondary metabolic process
p217
I518
tp218
a(Vdevelopmental maturation
p219
I518
tp220
a(Vchromosome
p221
I517
tp222
a(Vmitochondrion organization
p223
I500
tp224
a(Vnuclear envelope
p225
I488
tp226
a(Vcytoskeleton-dependent intracellular transport
p227
I486
tp228
a(Vproteinaceous extracellular matrix
p229
I474
tp230
a(Visomerase activity
p231
I442
tp232
a(Vhistone binding
p233
I414
tp234
a(Vhydrolase activity, acting on glycosyl bonds
p235
I384
tp236
a(Vnucleotidyltransferase activity
p237
I382
tp238
a(VmRNA binding
p239
I379
tp240
a(Vcell wall organization or biogenesis
p241
I368
tp242
a(Vmitosis
p243
I353
tp244
a(Vvacuolar transport
p245
I346
tp246
a(VtRNA metabolic process
p247
I337
tp248
a(Vprotein binding, bridging
p249
I336
tp250
a(Vhydrolase activity, acting on carbon-nitrogen (but not peptide) bonds
p251
I323
tp252
a(Vperoxisome
p253
I316
tp254
a(Vchromosome segregation
p255
I316
tp256
a(Vtranslation factor activity, nucleic acid binding
p257
I287
tp258
a(Vunfolded protein binding
p259
I236
tp260
a(Vtranslation
p261
I235
tp262
a(Vribosome
p263
I228
tp264
a(Vsmall conjugating protein binding
p265
I224
tp266
a(Vlipid particle
p267
I216
tp268
a(Vribosome biogenesis
p269
I194
tp270
a(Vintracellular
p271
I192
tp272
a(Vtransferase activity, transferring alkyl or aryl (other than methyl) groups
p273
I181
tp274
a(Vprotein transporter activity
p275
I172
tp276
a(Vnuclear chromosome
p277
I172
tp278
a(VrRNA binding
p279
I126
tp280
a(Vpigmentation
p281
I124
tp282
a(Vthylakoid
p283
I118
tp284
a(Vnitrogen cycle metabolic process
p285
I38
tp286
a(Vphotosynthesis
p287
I34
tp288
a(Vtransposition
p289
I20
tp290
a(Vcell
p291
I15
tp292
a(Vcytoplasmic chromosome
p293
I1
tp294
aa(lp295
(g3
L6372L
tp296
a(g5
L4365L
tp297
a(g7
L2787L
tp298
a(g9
L21685L
tp299
a(g11
L26888L
tp300
a(g13
L5491L
tp301
a(g15
L18268L
tp302
a(g17
L5801L
tp303
a(g19
L5613L
tp304
a(g21
L21693L
tp305
a(g23
L7192L
tp306
a(g25
L22689L
tp307
a(g27
L21630L
tp308
a(g29
L5168L
tp309
a(g31
L7190L
tp310
a(g33
L1781L
tp311
a(g35
L13633L
tp312
a(g37
L13924L
tp313
a(g39
L5326L
tp314
a(g41
L4599L
tp315
a(g43
L12968L
tp316
a(g45
L4644L
tp317
a(g47
L4995L
tp318
a(g49
L20507L
tp319
a(g51
L10381L
tp320
a(g53
L4422L
tp321
a(g55
L4507L
tp322
a(g57
L4514L
tp323
a(g59
L21086L
tp324
a(g61
L13690L
tp325
a(g63
L26682L
tp326
a(g65
L2790L
tp327
a(g67
L31581L
tp328
a(g69
L10598L
tp329
a(g71
L28228L
tp330
a(g73
L4725L
tp331
a(g75
L18282L
tp332
a(g77
L3827L
tp333
a(g79
L7881L
tp334
a(g81
L26901L
tp335
a(g83
L6320L
tp336
a(g85
L28535L
tp337
a(g87
L27837L
tp338
a(g89
L10466L
tp339
a(g91
L5165L
tp340
a(g93
L29927L
tp341
a(g95
L20503L
tp342
a(g97
L5663L
tp343
a(g99
L2830L
tp344
a(g101
L4515L
tp345
a(g103
L4621L
tp346
a(g105
L4567L
tp347
a(g107
L5218L
tp348
a(g109
L5896L
tp349
a(g111
L6436L
tp350
a(g113
L10229L
tp351
a(g115
L6448L
tp352
a(g117
L30984L
tp353
a(g119
L10963L
tp354
a(g121
L5791L
tp355
a(g123
L4556L
tp356
a(g125
L4542L
tp357
a(g127
L6500L
tp358
a(g129
L10950L
tp359
a(g131
L5302L
tp360
a(g133
L6494L
tp361
a(g135
L14001L
tp362
a(g137
L4118L
tp363
a(g139
L594L
tp364
a(g141
L4439L
tp365
a(g143
L4586L
tp366
a(g145
L6357L
tp367
a(g147
L5471L
tp368
a(g149
L4366L
tp369
a(g151
L677L
tp370
a(g153
L759L
tp371
a(g155
L28144L
tp372
a(g157
L4838L
tp373
a(g159
L22810L
tp374
a(g161
L4405L
tp375
a(g163
L4546L
tp376
a(g165
L3404L
tp377
a(g167
L13967L
tp378
a(g169
L5112L
tp379
a(g171
L10829L
tp380
a(g173
L10870L
tp381
a(g175
L7644L
tp382
a(g177
L4684L
tp383
a(g179
L5695L
tp384
a(g181
L3L
tp385
a(g183
L6169L
tp386
a(g185
L10840L
tp387
a(g187
L5662L
tp388
a(g189
L6389L
tp389
a(g191
L2364L
tp390
a(g193
L5582L
tp391
a(g195
L10905L
tp392
a(g197
L28251L
tp393
a(g199
L17965L
tp394
a(g201
L3518L
tp395
a(g203
L5161L
tp396
a(g205
L14078L
tp397
a(g207
L2841L
tp398
a(g209
L4408L
tp399
a(g211
L13644L
tp400
a(g213
L4538L
tp401
a(g215
L2991L
tp402
a(g217
L12827L
tp403
a(g219
L13274L
tp404
a(g221
L4475L
tp405
a(g223
L5658L
tp406
a(g225
L4423L
tp407
a(g227
L14427L
tp408
a(g229
L4368L
tp409
a(g231
L10929L
tp410
a(g233
L20900L
tp411
a(g235
L10876L
tp412
a(g237
L10860L
tp413
a(g239
L2835L
tp414
a(g241
L33137L
tp415
a(g243
L5712L
tp416
a(g245
L5682L
tp417
a(g247
L5114L
tp418
a(g249
L14396L
tp419
a(g251
L10886L
tp420
a(g253
L4550L
tp421
a(g255
L5705L
tp422
a(g257
L6358L
tp423
a(g259
L28040L
tp424
a(g261
L5126L
tp425
a(g263
L4609L
tp426
a(g265
L15840L
tp427
a(g267
L4583L
tp428
a(g269
L20770L
tp429
a(g271
L4411L
tp430
a(g273
L10848L
tp431
a(g275
L6747L
tp432
a(g277
L201L
tp433
a(g279
L12918L
tp434
a(g281
L21900L
tp435
a(g283
L7683L
tp436
a(g285
L33512L
tp437
a(g287
L10192L
tp438
a(g289
L15852L
tp439
a(g291
L4412L
tp440
a(g293
L202L
tp441
aaI1034571
a.