(lp1
(lp2
(Vbiological_process
p3
I200892
tp4
a(Vcellular_component
p5
I65374
tp6
a(Vmolecular_function
p7
I50592
tp8
a(Vorganelle
p9
I18215
tp10
a(Vanatomical structure development
p11
I12958
tp12
a(Vtransport
p13
I11561
tp14
a(Vcellular nitrogen compound metabolic process
p15
I10146
tp16
a(Vsignal transduction
p17
I9761
tp18
a(Vresponse to stress
p19
I7796
tp20
a(Vprotein complex
p21
I6639
tp22
a(Vbiosynthetic process
p23
I6481
tp24
a(Vsmall molecule metabolic process
p25
I6043
tp26
a(Vcellular protein modification process
p27
I5847
tp28
a(Vion binding
p29
I5388
tp30
a(Vimmune system process
p31
I4910
tp32
a(Vcatabolic process
p33
I4566
tp34
a(Vcellular component assembly
p35
I3365
tp36
a(Vcell differentiation
p37
I2968
tp38
a(VDNA metabolic process
p39
I2910
tp40
a(Venzyme binding
p41
I2895
tp42
a(Vcytosol
p43
I2676
tp44
a(Vlipid metabolic process
p45
I2534
tp46
a(Vvesicle-mediated transport
p47
I2424
tp48
a(Vnucleus
p49
I2324
tp50
a(Vplasma membrane
p51
I2197
tp52
a(Vcytoplasm
p53
I2168
tp54
a(Vlocomotion
p55
I2064
tp56
a(Vchromosome organization
p57
I2048
tp58
a(Vnucleolus
p59
I1993
tp60
a(Vkinase activity
p61
I1903
tp62
a(Vhomeostatic process
p63
I1810
tp64
a(Vmacromolecular complex assembly
p65
I1761
tp66
a(Vcarbohydrate metabolic process
p67
I1729
tp68
a(VDNA binding
p69
I1699
tp70
a(Vnucleobase-containing compound catabolic process
p71
I1663
tp72
a(Vanatomical structure formation involved in morphogenesis
p73
I1635
tp74
a(Vcytoskeletal protein binding
p75
I1631
tp76
a(Vembryo development
p77
I1591
tp78
a(Voxidoreductase activity
p79
I1539
tp80
a(Vcytoskeleton
p81
I1417
tp82
a(Vprotein complex assembly
p83
I1401
tp84
a(Vcytoskeleton organization
p85
I1376
tp86
a(Vprotein maturation
p87
I1372
tp88
a(Vgrowth
p89
I1354
tp90
a(Vtransmembrane transporter activity
p91
I1319
tp92
a(Vcell motility
p93
I1302
tp94
a(Vcell death
p95
I1223
tp96
a(VATPase activity
p97
I1181
tp98
a(Vcellular amino acid metabolic process
p99
I1154
tp100
a(VRNA binding
p101
I1152
tp102
a(Vmitochondrion
p103
I1140
tp104
a(Vmembrane organization
p105
I1126
tp106
a(Vsignal transducer activity
p107
I1108
tp108
a(Vneurological system process
p109
I1106
tp110
a(Vtransmembrane transport
p111
I1089
tp112
a(Vpeptidase activity
p113
I1019
tp114
a(VGolgi apparatus
p115
I975
tp116
a(Vendosome
p117
I957
tp118
a(Vcell-cell signaling
p119
I944
tp120
a(Vcell adhesion
p121
I940
tp122
a(Vcytoplasmic membrane-bounded vesicle
p123
I878
tp124
a(Vcell morphogenesis
p125
I847
tp126
a(Vligase activity
p127
I847
tp128
a(Vendoplasmic reticulum
p129
I846
tp130
a(Vmicrotubule organizing center
p131
I814
tp132
a(Vlipid binding
p133
I796
tp134
a(Vhelicase activity
p135
I764
tp136
a(Venzyme regulator activity
p137
I747
tp138
a(Vnucleoplasm
p139
I727
tp140
a(Vcell proliferation
p141
I704
tp142
a(Vprotein targeting
p143
I695
tp144
a(Vcell cycle
p145
I652
tp146
a(Vtranscription factor binding
p147
I647
tp148
a(Vphosphatase activity
p149
I607
tp150
a(Vsulfur compound metabolic process
p151
I584
tp152
a(Vprotein binding transcription factor activity
p153
I559
tp154
a(Vstructural molecule activity
p155
I539
tp156
a(Vplasma membrane organization
p157
I539
tp158
a(Vreproduction
p159
I526
tp160
a(Vsymbiosis, encompassing mutualism through parasitism
p161
I507
tp162
a(Vcofactor metabolic process
p163
I490
tp164
a(VmRNA processing
p165
I489
tp166
a(Vextracellular region
p167
I476
tp168
a(Vcilium
p169
I473
tp170
a(Vvacuole
p171
I470
tp172
a(Vtransferase activity, transferring acyl groups
p173
I466
tp174
a(Vtransferase activity, transferring glycosyl groups
p175
I428
tp176
a(Vnucleic acid binding transcription factor activity
p177
I421
tp178
a(Vgeneration of precursor metabolites and energy
p179
I406
tp180
a(Vmethyltransferase activity
p181
I402
tp182
a(Vplastid
p183
I379
tp184
a(Vcell division
p185
I378
tp186
a(Vnuclease activity
p187
I361
tp188
a(Vaging
p189
I345
tp190
a(Vlyase activity
p191
I340
tp192
a(Vextracellular matrix organization
p193
I332
tp194
a(Vchromosome
p195
I327
tp196
a(Vcell junction organization
p197
I311
tp198
a(Vcytoskeleton-dependent intracellular transport
p199
I304
tp200
a(Vribonucleoprotein complex assembly
p201
I302
tp202
a(Vnucleocytoplasmic transport
p203
I293
tp204
a(Vprotein folding
p205
I278
tp206
a(Vextracellular space
p207
I268
tp208
a(VGTPase activity
p209
I266
tp210
a(Vnuclear envelope
p211
I264
tp212
a(Vlysosome
p213
I257
tp214
a(Vmitochondrion organization
p215
I253
tp216
a(Visomerase activity
p217
I246
tp218
a(VtRNA metabolic process
p219
I237
tp220
a(Vdevelopmental maturation
p221
I237
tp222
a(Vhydrolase activity, acting on glycosyl bonds
p223
I232
tp224
a(Vexternal encapsulating structure
p225
I225
tp226
a(Vchromosome segregation
p227
I224
tp228
a(Vcell wall
p229
I223
tp230
a(Vmitosis
p231
I219
tp232
a(Vhistone binding
p233
I215
tp234
a(Vproteinaceous extracellular matrix
p235
I214
tp236
a(Vsecondary metabolic process
p237
I213
tp238
a(Vnucleotidyltransferase activity
p239
I198
tp240
a(Vcirculatory system process
p241
I185
tp242
a(Vhydrolase activity, acting on carbon-nitrogen (but not peptide) bonds
p243
I185
tp244
a(Vprotein binding, bridging
p245
I176
tp246
a(Vcell wall organization or biogenesis
p247
I174
tp248
a(Vstructural constituent of ribosome
p249
I171
tp250
a(Vvacuolar transport
p251
I171
tp252
a(VmRNA binding
p253
I159
tp254
a(Vperoxisome
p255
I143
tp256
a(Vintracellular
p257
I129
tp258
a(Vtranslation
p259
I121
tp260
a(Vsmall conjugating protein binding
p261
I114
tp262
a(Vtranslation factor activity, nucleic acid binding
p263
I114
tp264
a(Vunfolded protein binding
p265
I103
tp266
a(Vlipid particle
p267
I98
tp268
a(Vnuclear chromosome
p269
I93
tp270
a(Vribosome biogenesis
p271
I93
tp272
a(Vtransferase activity, transferring alkyl or aryl (other than methyl) groups
p273
I93
tp274
a(Vribosome
p275
I84
tp276
a(Vprotein transporter activity
p277
I67
tp278
a(Vpigmentation
p279
I56
tp280
a(VrRNA binding
p281
I53
tp282
a(Vthylakoid
p283
I29
tp284
a(Vnitrogen cycle metabolic process
p285
I14
tp286
a(Vcell
p287
I5
tp288
a(Vphotosynthesis
p289
I3
tp290
a(Vtransposition
p291
I1
tp292
a(VRNA modification guide activity
p293
I1
tp294
aa(lp295
(g3
L6372L
tp296
a(g5
L4365L
tp297
a(g7
L2787L
tp298
a(g9
L21685L
tp299
a(g11
L26888L
tp300
a(g13
L5491L
tp301
a(g15
L18268L
tp302
a(g17
L5801L
tp303
a(g19
L5613L
tp304
a(g21
L21693L
tp305
a(g23
L7192L
tp306
a(g25
L22689L
tp307
a(g27
L5168L
tp308
a(g29
L21630L
tp309
a(g31
L1781L
tp310
a(g33
L7190L
tp311
a(g35
L13633L
tp312
a(g37
L13924L
tp313
a(g39
L4995L
tp314
a(g41
L12968L
tp315
a(g43
L4599L
tp316
a(g45
L5326L
tp317
a(g47
L10381L
tp318
a(g49
L4422L
tp319
a(g51
L4644L
tp320
a(g53
L4514L
tp321
a(g55
L20507L
tp322
a(g57
L28228L
tp323
a(g59
L4507L
tp324
a(g61
L10466L
tp325
a(g63
L21086L
tp326
a(g65
L31581L
tp327
a(g67
L4725L
tp328
a(g69
L2790L
tp329
a(g71
L18282L
tp330
a(g73
L26682L
tp331
a(g75
L6320L
tp332
a(g77
L7881L
tp333
a(g79
L10598L
tp334
a(g81
L4621L
tp335
a(g83
L5165L
tp336
a(g85
L5663L
tp337
a(g87
L28535L
tp338
a(g89
L20503L
tp339
a(g91
L13690L
tp340
a(g93
L26901L
tp341
a(g95
L6436L
tp342
a(g97
L10963L
tp343
a(g99
L5218L
tp344
a(g101
L2830L
tp345
a(g103
L4515L
tp346
a(g105
L30984L
tp347
a(g107
L3827L
tp348
a(g109
L27837L
tp349
a(g111
L29927L
tp350
a(g113
L6448L
tp351
a(g115
L4567L
tp352
a(g117
L4542L
tp353
a(g119
L5896L
tp354
a(g121
L5791L
tp355
a(g123
L10229L
tp356
a(g125
L594L
tp357
a(g127
L10950L
tp358
a(g129
L4556L
tp359
a(g131
L4586L
tp360
a(g133
L6500L
tp361
a(g135
L3404L
tp362
a(g137
L14001L
tp363
a(g139
L4439L
tp364
a(g141
L6494L
tp365
a(g143
L5302L
tp366
a(g145
L5695L
tp367
a(g147
L6357L
tp368
a(g149
L10870L
tp369
a(g151
L5471L
tp370
a(g153
L677L
tp371
a(g155
L4118L
tp372
a(g157
L5662L
tp373
a(g159
L3L
tp374
a(g161
L22810L
tp375
a(g163
L28144L
tp376
a(g165
L5112L
tp377
a(g167
L4366L
tp378
a(g169
L4684L
tp379
a(g171
L4546L
tp380
a(g173
L10829L
tp381
a(g175
L10840L
tp382
a(g177
L759L
tp383
a(g179
L4838L
tp384
a(g181
L6389L
tp385
a(g183
L7644L
tp386
a(g185
L28251L
tp387
a(g187
L3518L
tp388
a(g189
L6169L
tp389
a(g191
L10905L
tp390
a(g193
L13967L
tp391
a(g195
L4475L
tp392
a(g197
L17965L
tp393
a(g199
L14427L
tp394
a(g201
L13644L
tp395
a(g203
L5582L
tp396
a(g205
L5161L
tp397
a(g207
L4405L
tp398
a(g209
L2991L
tp399
a(g211
L4423L
tp400
a(g213
L4538L
tp401
a(g215
L5658L
tp402
a(g217
L10929L
tp403
a(g219
L5114L
tp404
a(g221
L13274L
tp405
a(g223
L10876L
tp406
a(g225
L14078L
tp407
a(g227
L5705L
tp408
a(g229
L4408L
tp409
a(g231
L5712L
tp410
a(g233
L20900L
tp411
a(g235
L4368L
tp412
a(g237
L12827L
tp413
a(g239
L10860L
tp414
a(g241
L2364L
tp415
a(g243
L10886L
tp416
a(g245
L14396L
tp417
a(g247
L33137L
tp418
a(g249
L2841L
tp419
a(g251
L5682L
tp420
a(g253
L2835L
tp421
a(g255
L4550L
tp422
a(g257
L4411L
tp423
a(g259
L5126L
tp424
a(g261
L15840L
tp425
a(g263
L6358L
tp426
a(g265
L28040L
tp427
a(g267
L4583L
tp428
a(g269
L201L
tp429
a(g271
L20770L
tp430
a(g273
L10848L
tp431
a(g275
L4609L
tp432
a(g277
L6747L
tp433
a(g279
L21900L
tp434
a(g281
L12918L
tp435
a(g283
L7683L
tp436
a(g285
L33512L
tp437
a(g287
L4412L
tp438
a(g289
L10192L
tp439
a(g291
L15852L
tp440
a(g293
L14288L
tp441
aaI530273
a.