(lp1
(lp2
(Vbiological_process
p3
I291980
tp4
a(Vcellular_component
p5
I94198
tp6
a(Vmolecular_function
p7
I75234
tp8
a(Vorganelle
p9
I25485
tp10
a(Vanatomical structure development
p11
I20742
tp12
a(Vtransport
p13
I16542
tp14
a(Vsignal transduction
p15
I14266
tp16
a(Vcellular nitrogen compound metabolic process
p17
I12891
tp18
a(Vresponse to stress
p19
I10797
tp20
a(Vprotein complex
p21
I9819
tp22
a(Vion binding
p23
I8355
tp24
a(Vsmall molecule metabolic process
p25
I8290
tp26
a(Vbiosynthetic process
p27
I8190
tp28
a(Vcellular protein modification process
p29
I7836
tp30
a(Vimmune system process
p31
I6960
tp32
a(Vcatabolic process
p33
I5990
tp34
a(Vcell differentiation
p35
I4937
tp36
a(Vcellular component assembly
p37
I4647
tp38
a(Venzyme binding
p39
I4381
tp40
a(Vlipid metabolic process
p41
I3934
tp42
a(Vcytosol
p43
I3855
tp44
a(VDNA metabolic process
p45
I3472
tp46
a(Vvesicle-mediated transport
p47
I3375
tp48
a(Vlocomotion
p49
I3349
tp50
a(Vnucleus
p51
I3256
tp52
a(Vplasma membrane
p53
I3255
tp54
a(Vcytoplasm
p55
I3057
tp56
a(Vnucleolus
p57
I2986
tp58
a(Vanatomical structure formation involved in morphogenesis
p59
I2807
tp60
a(Vhomeostatic process
p61
I2793
tp62
a(VDNA binding
p63
I2714
tp64
a(Vchromosome organization
p65
I2654
tp66
a(Vtransmembrane transporter activity
p67
I2573
tp68
a(Vmacromolecular complex assembly
p69
I2473
tp70
a(Vcytoskeletal protein binding
p71
I2340
tp72
a(Vkinase activity
p73
I2309
tp74
a(Voxidoreductase activity
p75
I2280
tp76
a(Vcell motility
p77
I2263
tp78
a(Vprotein maturation
p79
I2192
tp80
a(Vcarbohydrate metabolic process
p81
I2177
tp82
a(Vneurological system process
p83
I2124
tp84
a(Vembryo development
p85
I2124
tp86
a(Vnucleobase-containing compound catabolic process
p87
I2121
tp88
a(Vtransmembrane transport
p89
I2035
tp90
a(Vprotein complex assembly
p91
I1988
tp92
a(Vsignal transducer activity
p93
I1976
tp94
a(Vgrowth
p95
I1964
tp96
a(Vcytoskeleton organization
p97
I1893
tp98
a(Vcytoskeleton
p99
I1873
tp100
a(Vcell death
p101
I1622
tp102
a(VRNA binding
p103
I1607
tp104
a(Vmitochondrion
p105
I1598
tp106
a(Vmembrane organization
p107
I1594
tp108
a(Vcell-cell signaling
p109
I1531
tp110
a(Vcell adhesion
p111
I1524
tp112
a(VGolgi apparatus
p113
I1503
tp114
a(Vpeptidase activity
p115
I1492
tp116
a(Vcytoplasmic membrane-bounded vesicle
p117
I1479
tp118
a(VATPase activity
p119
I1479
tp120
a(Vcellular amino acid metabolic process
p121
I1438
tp122
a(Vendosome
p123
I1403
tp124
a(Vlipid binding
p125
I1403
tp126
a(Vligase activity
p127
I1328
tp128
a(Vendoplasmic reticulum
p129
I1284
tp130
a(Venzyme regulator activity
p131
I1256
tp132
a(Vcell proliferation
p133
I1228
tp134
a(Vcell morphogenesis
p135
I1170
tp136
a(Vmicrotubule organizing center
p137
I1114
tp138
a(Vtranscription factor binding
p139
I1094
tp140
a(Vnucleoplasm
p141
I1058
tp142
a(Vprotein binding transcription factor activity
p143
I1021
tp144
a(Vprotein targeting
p145
I896
tp146
a(Vnucleic acid binding transcription factor activity
p147
I871
tp148
a(Vhelicase activity
p149
I862
tp150
a(Vextracellular region
p151
I811
tp152
a(Vsulfur compound metabolic process
p153
I801
tp154
a(Vstructural molecule activity
p155
I792
tp156
a(Vphosphatase activity
p157
I780
tp158
a(Vsymbiosis, encompassing mutualism through parasitism
p159
I755
tp160
a(Vcell cycle
p161
I730
tp162
a(Vvacuole
p163
I713
tp164
a(VmRNA processing
p165
I691
tp166
a(Vcilium
p167
I689
tp168
a(Vcofactor metabolic process
p169
I679
tp170
a(Vtransferase activity, transferring acyl groups
p171
I662
tp172
a(Vextracellular matrix organization
p173
I659
tp174
a(Vextracellular space
p175
I647
tp176
a(Vplasma membrane organization
p177
I643
tp178
a(Vreproduction
p179
I586
tp180
a(Vtransferase activity, transferring glycosyl groups
p181
I585
tp182
a(Vgeneration of precursor metabolites and energy
p183
I582
tp184
a(Vaging
p185
I515
tp186
a(Vmethyltransferase activity
p187
I503
tp188
a(Vcell division
p189
I488
tp190
a(Vcell junction organization
p191
I484
tp192
a(Vnucleocytoplasmic transport
p193
I476
tp194
a(Vnuclease activity
p195
I464
tp196
a(Vplastid
p197
I440
tp198
a(Vdevelopmental maturation
p199
I439
tp200
a(Vlysosome
p201
I427
tp202
a(Vcytoskeleton-dependent intracellular transport
p203
I405
tp204
a(Vmitochondrion organization
p205
I401
tp206
a(Vlyase activity
p207
I399
tp208
a(Vribonucleoprotein complex assembly
p209
I398
tp210
a(Vcirculatory system process
p211
I383
tp212
a(Vchromosome
p213
I378
tp214
a(Vproteinaceous extracellular matrix
p215
I370
tp216
a(Vnuclear envelope
p217
I351
tp218
a(Vprotein folding
p219
I350
tp220
a(VGTPase activity
p221
I343
tp222
a(Vhistone binding
p223
I338
tp224
a(Vsecondary metabolic process
p225
I290
tp226
a(Vhydrolase activity, acting on glycosyl bonds
p227
I276
tp228
a(Visomerase activity
p229
I269
tp230
a(Vmitosis
p231
I264
tp232
a(Vhydrolase activity, acting on carbon-nitrogen (but not peptide) bonds
p233
I260
tp234
a(Vexternal encapsulating structure
p235
I257
tp236
a(Vcell wall
p237
I251
tp238
a(Vprotein binding, bridging
p239
I250
tp240
a(Vvacuolar transport
p241
I242
tp242
a(VmRNA binding
p243
I239
tp244
a(Vnucleotidyltransferase activity
p245
I238
tp246
a(VtRNA metabolic process
p247
I236
tp248
a(Vchromosome segregation
p249
I231
tp250
a(Vperoxisome
p251
I214
tp252
a(Vcell wall organization or biogenesis
p253
I210
tp254
a(Vsmall conjugating protein binding
p255
I180
tp256
a(Vintracellular
p257
I168
tp258
a(Vstructural constituent of ribosome
p259
I161
tp260
a(Vtranslation factor activity, nucleic acid binding
p261
I152
tp262
a(Vtranslation
p263
I147
tp264
a(Vunfolded protein binding
p265
I142
tp266
a(Vlipid particle
p267
I134
tp268
a(Vribosome
p269
I124
tp270
a(Vprotein transporter activity
p271
I119
tp272
a(Vtransferase activity, transferring alkyl or aryl (other than methyl) groups
p273
I116
tp274
a(Vnuclear chromosome
p275
I112
tp276
a(Vribosome biogenesis
p277
I94
tp278
a(Vpigmentation
p279
I94
tp280
a(VrRNA binding
p281
I61
tp282
a(Vthylakoid
p283
I36
tp284
a(Vnitrogen cycle metabolic process
p285
I23
tp286
a(Vphotosynthesis
p287
I10
tp288
a(Vcell
p289
I8
tp290
a(Vtransposition
p291
I6
tp292
aa(lp293
(g3
L6372L
tp294
a(g5
L4365L
tp295
a(g7
L2787L
tp296
a(g9
L21685L
tp297
a(g11
L26888L
tp298
a(g13
L5491L
tp299
a(g15
L5801L
tp300
a(g17
L18268L
tp301
a(g19
L5613L
tp302
a(g21
L21693L
tp303
a(g23
L21630L
tp304
a(g25
L22689L
tp305
a(g27
L7192L
tp306
a(g29
L5168L
tp307
a(g31
L1781L
tp308
a(g33
L7190L
tp309
a(g35
L13924L
tp310
a(g37
L13633L
tp311
a(g39
L12968L
tp312
a(g41
L5326L
tp313
a(g43
L4599L
tp314
a(g45
L4995L
tp315
a(g47
L10381L
tp316
a(g49
L20507L
tp317
a(g51
L4422L
tp318
a(g53
L4644L
tp319
a(g55
L4514L
tp320
a(g57
L4507L
tp321
a(g59
L26682L
tp322
a(g61
L21086L
tp323
a(g63
L2790L
tp324
a(g65
L28228L
tp325
a(g67
L13690L
tp326
a(g69
L31581L
tp327
a(g71
L6320L
tp328
a(g73
L10466L
tp329
a(g75
L10598L
tp330
a(g77
L26901L
tp331
a(g79
L28535L
tp332
a(g81
L4725L
tp333
a(g83
L27837L
tp334
a(g85
L7881L
tp335
a(g87
L18282L
tp336
a(g89
L29927L
tp337
a(g91
L5165L
tp338
a(g93
L3827L
tp339
a(g95
L20503L
tp340
a(g97
L5663L
tp341
a(g99
L4621L
tp342
a(g101
L6436L
tp343
a(g103
L2830L
tp344
a(g105
L4515L
tp345
a(g107
L30984L
tp346
a(g109
L5896L
tp347
a(g111
L5791L
tp348
a(g113
L4567L
tp349
a(g115
L6448L
tp350
a(g117
L10229L
tp351
a(g119
L10963L
tp352
a(g121
L5218L
tp353
a(g123
L4542L
tp354
a(g125
L6500L
tp355
a(g127
L10950L
tp356
a(g129
L4556L
tp357
a(g131
L14001L
tp358
a(g133
L6494L
tp359
a(g135
L594L
tp360
a(g137
L4586L
tp361
a(g139
L6357L
tp362
a(g141
L4439L
tp363
a(g143
L677L
tp364
a(g145
L5302L
tp365
a(g147
L759L
tp366
a(g149
L3404L
tp367
a(g151
L4366L
tp368
a(g153
L5471L
tp369
a(g155
L4118L
tp370
a(g157
L10870L
tp371
a(g159
L22810L
tp372
a(g161
L5695L
tp373
a(g163
L4546L
tp374
a(g165
L5112L
tp375
a(g167
L4684L
tp376
a(g169
L28144L
tp377
a(g171
L10829L
tp378
a(g173
L13967L
tp379
a(g175
L4405L
tp380
a(g177
L5662L
tp381
a(g179
L3L
tp382
a(g181
L10840L
tp383
a(g183
L4838L
tp384
a(g185
L6169L
tp385
a(g187
L6389L
tp386
a(g189
L28251L
tp387
a(g191
L17965L
tp388
a(g193
L5582L
tp389
a(g195
L3518L
tp390
a(g197
L7644L
tp391
a(g199
L13274L
tp392
a(g201
L4538L
tp393
a(g203
L14427L
tp394
a(g205
L5658L
tp395
a(g207
L10905L
tp396
a(g209
L13644L
tp397
a(g211
L2364L
tp398
a(g213
L4475L
tp399
a(g215
L4368L
tp400
a(g217
L4423L
tp401
a(g219
L5161L
tp402
a(g221
L2991L
tp403
a(g223
L20900L
tp404
a(g225
L12827L
tp405
a(g227
L10876L
tp406
a(g229
L10929L
tp407
a(g231
L5712L
tp408
a(g233
L10886L
tp409
a(g235
L14078L
tp410
a(g237
L4408L
tp411
a(g239
L14396L
tp412
a(g241
L5682L
tp413
a(g243
L2835L
tp414
a(g245
L10860L
tp415
a(g247
L5114L
tp416
a(g249
L5705L
tp417
a(g251
L4550L
tp418
a(g253
L33137L
tp419
a(g255
L15840L
tp420
a(g257
L4411L
tp421
a(g259
L2841L
tp422
a(g261
L6358L
tp423
a(g263
L5126L
tp424
a(g265
L28040L
tp425
a(g267
L4583L
tp426
a(g269
L4609L
tp427
a(g271
L6747L
tp428
a(g273
L10848L
tp429
a(g275
L201L
tp430
a(g277
L20770L
tp431
a(g279
L21900L
tp432
a(g281
L12918L
tp433
a(g283
L7683L
tp434
a(g285
L33512L
tp435
a(g287
L10192L
tp436
a(g289
L4412L
tp437
a(g291
L15852L
tp438
aaI768378
a.