(lp1
(lp2
(Vbiological_process
p3
I323590
tp4
a(Vcellular_component
p5
I104952
tp6
a(Vmolecular_function
p7
I85059
tp8
a(Vorganelle
p9
I28316
tp10
a(Vanatomical structure development
p11
I23182
tp12
a(Vtransport
p13
I18230
tp14
a(Vsignal transduction
p15
I15599
tp16
a(Vcellular nitrogen compound metabolic process
p17
I14422
tp18
a(Vresponse to stress
p19
I11994
tp20
a(Vprotein complex
p21
I11179
tp22
a(Vion binding
p23
I9694
tp24
a(Vsmall molecule metabolic process
p25
I9243
tp26
a(Vbiosynthetic process
p27
I8821
tp28
a(Vcellular protein modification process
p29
I8696
tp30
a(Vimmune system process
p31
I7441
tp32
a(Vcatabolic process
p33
I6738
tp34
a(Vcell differentiation
p35
I5554
tp36
a(Vcellular component assembly
p37
I5326
tp38
a(Venzyme binding
p39
I4941
tp40
a(Vcytosol
p41
I4463
tp42
a(Vlipid metabolic process
p43
I4349
tp44
a(VDNA metabolic process
p45
I4001
tp46
a(Vlocomotion
p47
I3902
tp48
a(Vvesicle-mediated transport
p49
I3795
tp50
a(Vnucleus
p51
I3600
tp52
a(Vplasma membrane
p53
I3553
tp54
a(Vnucleolus
p55
I3420
tp56
a(Vcytoplasm
p57
I3411
tp58
a(Vanatomical structure formation involved in morphogenesis
p59
I3342
tp60
a(Vhomeostatic process
p61
I3112
tp62
a(Vchromosome organization
p63
I3095
tp64
a(VDNA binding
p65
I3088
tp66
a(Vtransmembrane transporter activity
p67
I2919
tp68
a(Vmacromolecular complex assembly
p69
I2819
tp70
a(Vcell motility
p71
I2698
tp72
a(Vkinase activity
p73
I2647
tp74
a(Vcytoskeletal protein binding
p75
I2622
tp76
a(Voxidoreductase activity
p77
I2501
tp78
a(Vnucleobase-containing compound catabolic process
p79
I2434
tp80
a(Vneurological system process
p81
I2392
tp82
a(Vcarbohydrate metabolic process
p83
I2389
tp84
a(Vembryo development
p85
I2380
tp86
a(Vprotein maturation
p87
I2342
tp88
a(Vprotein complex assembly
p89
I2274
tp90
a(Vsignal transducer activity
p91
I2261
tp92
a(Vtransmembrane transport
p93
I2249
tp94
a(Vgrowth
p95
I2226
tp96
a(Vcytoskeleton organization
p97
I2223
tp98
a(Vcytoskeleton
p99
I2061
tp100
a(Vcell adhesion
p101
I1869
tp102
a(Vmembrane organization
p103
I1792
tp104
a(Vmitochondrion
p105
I1777
tp106
a(VGolgi apparatus
p107
I1767
tp108
a(VRNA binding
p109
I1759
tp110
a(Vcell death
p111
I1750
tp112
a(VATPase activity
p113
I1713
tp114
a(Vcytoplasmic membrane-bounded vesicle
p115
I1699
tp116
a(Vcell-cell signaling
p117
I1695
tp118
a(Vpeptidase activity
p119
I1669
tp120
a(Vlipid binding
p121
I1642
tp122
a(Vcellular amino acid metabolic process
p123
I1617
tp124
a(Vendosome
p125
I1588
tp126
a(Vligase activity
p127
I1509
tp128
a(Vendoplasmic reticulum
p129
I1426
tp130
a(Vcell morphogenesis
p131
I1380
tp132
a(Venzyme regulator activity
p133
I1370
tp134
a(Vcell proliferation
p135
I1366
tp136
a(Vmicrotubule organizing center
p137
I1286
tp138
a(Vnucleoplasm
p139
I1237
tp140
a(Vtranscription factor binding
p141
I1232
tp142
a(Vprotein binding transcription factor activity
p143
I1152
tp144
a(Vnucleic acid binding transcription factor activity
p145
I1019
tp146
a(Vprotein targeting
p147
I978
tp148
a(Vstructural molecule activity
p149
I958
tp150
a(Vhelicase activity
p151
I946
tp152
a(Vextracellular region
p153
I916
tp154
a(Vsulfur compound metabolic process
p155
I871
tp156
a(Vphosphatase activity
p157
I834
tp158
a(Vsymbiosis, encompassing mutualism through parasitism
p159
I828
tp160
a(Vcilium
p161
I807
tp162
a(Vcell cycle
p163
I800
tp164
a(Vcofactor metabolic process
p165
I790
tp166
a(VmRNA processing
p167
I774
tp168
a(Vextracellular matrix organization
p169
I763
tp170
a(Vvacuole
p171
I753
tp172
a(Vtransferase activity, transferring acyl groups
p173
I729
tp174
a(Vextracellular space
p175
I728
tp176
a(Vplasma membrane organization
p177
I685
tp178
a(Vreproduction
p179
I676
tp180
a(Vtransferase activity, transferring glycosyl groups
p181
I636
tp182
a(Vgeneration of precursor metabolites and energy
p183
I634
tp184
a(Vaging
p185
I625
tp186
a(Vcell junction organization
p187
I591
tp188
a(Vcell division
p189
I570
tp190
a(Vnucleocytoplasmic transport
p191
I549
tp192
a(Vnuclease activity
p193
I547
tp194
a(Vmethyltransferase activity
p195
I544
tp196
a(Vdevelopmental maturation
p197
I474
tp198
a(Vcytoskeleton-dependent intracellular transport
p199
I472
tp200
a(Vplastid
p201
I454
tp202
a(Vlyase activity
p203
I450
tp204
a(Vlysosome
p205
I448
tp206
a(Vribonucleoprotein complex assembly
p207
I439
tp208
a(Vmitochondrion organization
p209
I437
tp210
a(Vcirculatory system process
p211
I434
tp212
a(Vchromosome
p213
I427
tp214
a(Vproteinaceous extracellular matrix
p215
I422
tp216
a(Vnuclear envelope
p217
I398
tp218
a(Vhistone binding
p219
I397
tp220
a(Vprotein folding
p221
I391
tp222
a(VGTPase activity
p223
I359
tp224
a(Vsecondary metabolic process
p225
I331
tp226
a(Visomerase activity
p227
I307
tp228
a(Vmitosis
p229
I302
tp230
a(Vnucleotidyltransferase activity
p231
I294
tp232
a(Vhydrolase activity, acting on carbon-nitrogen (but not peptide) bonds
p233
I287
tp234
a(Vexternal encapsulating structure
p235
I283
tp236
a(Vprotein binding, bridging
p237
I283
tp238
a(Vcell wall
p239
I276
tp240
a(Vvacuolar transport
p241
I270
tp242
a(VtRNA metabolic process
p243
I265
tp244
a(Vhydrolase activity, acting on glycosyl bonds
p245
I260
tp246
a(VmRNA binding
p247
I259
tp248
a(Vchromosome segregation
p249
I258
tp250
a(Vcell wall organization or biogenesis
p251
I232
tp252
a(Vsmall conjugating protein binding
p253
I220
tp254
a(Vperoxisome
p255
I220
tp256
a(Vstructural constituent of ribosome
p257
I179
tp258
a(Vprotein transporter activity
p259
I176
tp260
a(Vtranslation factor activity, nucleic acid binding
p261
I165
tp262
a(Vunfolded protein binding
p263
I159
tp264
a(Vintracellular
p265
I158
tp266
a(Vlipid particle
p267
I157
tp268
a(Vtranslation
p269
I154
tp270
a(Vtransferase activity, transferring alkyl or aryl (other than methyl) groups
p271
I130
tp272
a(Vribosome
p273
I123
tp274
a(Vnuclear chromosome
p275
I121
tp276
a(Vribosome biogenesis
p277
I111
tp278
a(Vpigmentation
p279
I107
tp280
a(VrRNA binding
p281
I63
tp282
a(Vthylakoid
p283
I36
tp284
a(Vnitrogen cycle metabolic process
p285
I26
tp286
a(Vcell
p287
I16
tp288
a(Vphotosynthesis
p289
I6
tp290
a(Vtransposition
p291
I5
tp292
aa(lp293
(g3
L6372L
tp294
a(g5
L4365L
tp295
a(g7
L2787L
tp296
a(g9
L21685L
tp297
a(g11
L26888L
tp298
a(g13
L5491L
tp299
a(g15
L5801L
tp300
a(g17
L18268L
tp301
a(g19
L5613L
tp302
a(g21
L21693L
tp303
a(g23
L21630L
tp304
a(g25
L22689L
tp305
a(g27
L7192L
tp306
a(g29
L5168L
tp307
a(g31
L1781L
tp308
a(g33
L7190L
tp309
a(g35
L13924L
tp310
a(g37
L13633L
tp311
a(g39
L12968L
tp312
a(g41
L4599L
tp313
a(g43
L5326L
tp314
a(g45
L4995L
tp315
a(g47
L20507L
tp316
a(g49
L10381L
tp317
a(g51
L4422L
tp318
a(g53
L4644L
tp319
a(g55
L4507L
tp320
a(g57
L4514L
tp321
a(g59
L26682L
tp322
a(g61
L21086L
tp323
a(g63
L28228L
tp324
a(g65
L2790L
tp325
a(g67
L13690L
tp326
a(g69
L31581L
tp327
a(g71
L26901L
tp328
a(g73
L10466L
tp329
a(g75
L6320L
tp330
a(g77
L10598L
tp331
a(g79
L18282L
tp332
a(g81
L27837L
tp333
a(g83
L4725L
tp334
a(g85
L7881L
tp335
a(g87
L28535L
tp336
a(g89
L5165L
tp337
a(g91
L3827L
tp338
a(g93
L29927L
tp339
a(g95
L20503L
tp340
a(g97
L5663L
tp341
a(g99
L4621L
tp342
a(g101
L5791L
tp343
a(g103
L30984L
tp344
a(g105
L4515L
tp345
a(g107
L4567L
tp346
a(g109
L2830L
tp347
a(g111
L6436L
tp348
a(g113
L10963L
tp349
a(g115
L10229L
tp350
a(g117
L5896L
tp351
a(g119
L6448L
tp352
a(g121
L6500L
tp353
a(g123
L5218L
tp354
a(g125
L4542L
tp355
a(g127
L10950L
tp356
a(g129
L4556L
tp357
a(g131
L594L
tp358
a(g133
L14001L
tp359
a(g135
L6494L
tp360
a(g137
L4586L
tp361
a(g139
L4439L
tp362
a(g141
L6357L
tp363
a(g143
L677L
tp364
a(g145
L759L
tp365
a(g147
L5302L
tp366
a(g149
L4118L
tp367
a(g151
L3404L
tp368
a(g153
L4366L
tp369
a(g155
L5471L
tp370
a(g157
L10870L
tp371
a(g159
L22810L
tp372
a(g161
L4684L
tp373
a(g163
L5695L
tp374
a(g165
L28144L
tp375
a(g167
L5112L
tp376
a(g169
L13967L
tp377
a(g171
L4546L
tp378
a(g173
L10829L
tp379
a(g175
L4405L
tp380
a(g177
L5662L
tp381
a(g179
L3L
tp382
a(g181
L10840L
tp383
a(g183
L4838L
tp384
a(g185
L6169L
tp385
a(g187
L17965L
tp386
a(g189
L28251L
tp387
a(g191
L5582L
tp388
a(g193
L3518L
tp389
a(g195
L6389L
tp390
a(g197
L13274L
tp391
a(g199
L14427L
tp392
a(g201
L7644L
tp393
a(g203
L10905L
tp394
a(g205
L4538L
tp395
a(g207
L13644L
tp396
a(g209
L5658L
tp397
a(g211
L2364L
tp398
a(g213
L4475L
tp399
a(g215
L4368L
tp400
a(g217
L4423L
tp401
a(g219
L20900L
tp402
a(g221
L5161L
tp403
a(g223
L2991L
tp404
a(g225
L12827L
tp405
a(g227
L10929L
tp406
a(g229
L5712L
tp407
a(g231
L10860L
tp408
a(g233
L10886L
tp409
a(g235
L14078L
tp410
a(g237
L14396L
tp411
a(g239
L4408L
tp412
a(g241
L5682L
tp413
a(g243
L5114L
tp414
a(g245
L10876L
tp415
a(g247
L2835L
tp416
a(g249
L5705L
tp417
a(g251
L33137L
tp418
a(g253
L15840L
tp419
a(g255
L4550L
tp420
a(g257
L2841L
tp421
a(g259
L6747L
tp422
a(g261
L6358L
tp423
a(g263
L28040L
tp424
a(g265
L4411L
tp425
a(g267
L4583L
tp426
a(g269
L5126L
tp427
a(g271
L10848L
tp428
a(g273
L4609L
tp429
a(g275
L201L
tp430
a(g277
L20770L
tp431
a(g279
L21900L
tp432
a(g281
L12918L
tp433
a(g283
L7683L
tp434
a(g285
L33512L
tp435
a(g287
L4412L
tp436
a(g289
L10192L
tp437
a(g291
L15852L
tp438
aaI857632
a.