(lp1
(lp2
(Vbiological_process
p3
I313581
tp4
a(Vcellular_component
p5
I101903
tp6
a(Vmolecular_function
p7
I82005
tp8
a(Vorganelle
p9
I27325
tp10
a(Vanatomical structure development
p11
I22230
tp12
a(Vtransport
p13
I18138
tp14
a(Vsignal transduction
p15
I14653
tp16
a(Vcellular nitrogen compound metabolic process
p17
I14601
tp18
a(Vresponse to stress
p19
I11719
tp20
a(Vprotein complex
p21
I10256
tp22
a(Vsmall molecule metabolic process
p23
I9823
tp24
a(Vbiosynthetic process
p25
I9404
tp26
a(Vion binding
p27
I9400
tp28
a(Vcellular protein modification process
p29
I8037
tp30
a(Vimmune system process
p31
I7354
tp32
a(Vcatabolic process
p33
I6848
tp34
a(Vcellular component assembly
p35
I4979
tp36
a(Vcell differentiation
p37
I4869
tp38
a(Venzyme binding
p39
I4417
tp40
a(Vlipid metabolic process
p41
I4236
tp42
a(Vcytosol
p43
I4113
tp44
a(VDNA metabolic process
p45
I4007
tp46
a(Vlocomotion
p47
I3523
tp48
a(Vplasma membrane
p49
I3489
tp50
a(Vvesicle-mediated transport
p51
I3488
tp52
a(Vcytoplasm
p53
I3444
tp54
a(Vnucleus
p55
I3358
tp56
a(Vtransmembrane transporter activity
p57
I3191
tp58
a(Vnucleolus
p59
I3095
tp60
a(Vhomeostatic process
p61
I2901
tp62
a(Vchromosome organization
p63
I2891
tp64
a(Vanatomical structure formation involved in morphogenesis
p65
I2812
tp66
a(VDNA binding
p67
I2754
tp68
a(Voxidoreductase activity
p69
I2750
tp70
a(Vmacromolecular complex assembly
p71
I2679
tp72
a(Vkinase activity
p73
I2645
tp74
a(Vcytoskeletal protein binding
p75
I2545
tp76
a(Vcarbohydrate metabolic process
p77
I2524
tp78
a(Vnucleobase-containing compound catabolic process
p79
I2443
tp80
a(Vembryo development
p81
I2347
tp82
a(Vprotein maturation
p83
I2346
tp84
a(Vcell motility
p85
I2343
tp86
a(Vtransmembrane transport
p87
I2280
tp88
a(Vneurological system process
p89
I2216
tp90
a(Vprotein complex assembly
p91
I2148
tp92
a(Vsignal transducer activity
p93
I2104
tp94
a(Vgrowth
p95
I2073
tp96
a(Vcytoskeleton
p97
I2059
tp98
a(Vcytoskeleton organization
p99
I2059
tp100
a(Vcellular amino acid metabolic process
p101
I1923
tp102
a(VATPase activity
p103
I1840
tp104
a(VRNA binding
p105
I1776
tp106
a(VGolgi apparatus
p107
I1707
tp108
a(Vcell death
p109
I1701
tp110
a(Vcell adhesion
p111
I1698
tp112
a(Vpeptidase activity
p113
I1692
tp114
a(Vmitochondrion
p115
I1634
tp116
a(Vmembrane organization
p117
I1632
tp118
a(Vcell-cell signaling
p119
I1547
tp120
a(Vcytoplasmic membrane-bounded vesicle
p121
I1533
tp122
a(Vendosome
p123
I1376
tp124
a(Vligase activity
p125
I1360
tp126
a(Vlipid binding
p127
I1357
tp128
a(Vendoplasmic reticulum
p129
I1302
tp130
a(Vcell proliferation
p131
I1252
tp132
a(Vcell morphogenesis
p133
I1223
tp134
a(Venzyme regulator activity
p135
I1205
tp136
a(Vmicrotubule organizing center
p137
I1169
tp138
a(Vnucleoplasm
p139
I1085
tp140
a(Vtranscription factor binding
p141
I1029
tp142
a(Vhelicase activity
p143
I1025
tp144
a(Vsulfur compound metabolic process
p145
I979
tp146
a(Vprotein targeting
p147
I906
tp148
a(Vprotein binding transcription factor activity
p149
I905
tp150
a(Vstructural molecule activity
p151
I898
tp152
a(Vcell cycle
p153
I854
tp154
a(Vextracellular region
p155
I845
tp156
a(Vcilium
p157
I832
tp158
a(Vcofactor metabolic process
p159
I826
tp160
a(Vextracellular matrix organization
p161
I822
tp162
a(Vphosphatase activity
p163
I782
tp164
a(Vnucleic acid binding transcription factor activity
p165
I763
tp166
a(VmRNA processing
p167
I756
tp168
a(Vtransferase activity, transferring acyl groups
p169
I754
tp170
a(Vsymbiosis, encompassing mutualism through parasitism
p171
I752
tp172
a(Vvacuole
p173
I738
tp174
a(Vplasma membrane organization
p175
I688
tp176
a(Vextracellular space
p177
I677
tp178
a(Vtransferase activity, transferring glycosyl groups
p179
I657
tp180
a(Vreproduction
p181
I655
tp182
a(Vgeneration of precursor metabolites and energy
p183
I636
tp184
a(Vlyase activity
p185
I590
tp186
a(Vaging
p187
I577
tp188
a(Vcell division
p189
I575
tp190
a(Vmethyltransferase activity
p191
I555
tp192
a(Vnuclease activity
p193
I553
tp194
a(Vplastid
p195
I504
tp196
a(Vcell junction organization
p197
I482
tp198
a(Vnucleocytoplasmic transport
p199
I464
tp200
a(Vcytoskeleton-dependent intracellular transport
p201
I458
tp202
a(Vdevelopmental maturation
p203
I455
tp204
a(Vribonucleoprotein complex assembly
p205
I438
tp206
a(Vproteinaceous extracellular matrix
p207
I412
tp208
a(Vchromosome
p209
I409
tp210
a(Vlysosome
p211
I404
tp212
a(Vmitochondrion organization
p213
I395
tp214
a(Vcirculatory system process
p215
I394
tp216
a(Vnuclear envelope
p217
I387
tp218
a(Vprotein folding
p219
I382
tp220
a(Visomerase activity
p221
I364
tp222
a(VGTPase activity
p223
I364
tp224
a(VtRNA metabolic process
p225
I349
tp226
a(Vexternal encapsulating structure
p227
I348
tp228
a(Vcell wall
p229
I339
tp230
a(Vhistone binding
p231
I338
tp232
a(Vnucleotidyltransferase activity
p233
I337
tp234
a(Vsecondary metabolic process
p235
I323
tp236
a(Vhydrolase activity, acting on glycosyl bonds
p237
I315
tp238
a(Vhydrolase activity, acting on carbon-nitrogen (but not peptide) bonds
p239
I296
tp240
a(VmRNA binding
p241
I269
tp242
a(Vmitosis
p243
I268
tp244
a(Vchromosome segregation
p245
I257
tp246
a(Vprotein binding, bridging
p247
I237
tp248
a(Vvacuolar transport
p249
I231
tp250
a(Vcell wall organization or biogenesis
p251
I231
tp252
a(Vperoxisome
p253
I219
tp254
a(Vstructural constituent of ribosome
p255
I203
tp256
a(Vsmall conjugating protein binding
p257
I182
tp258
a(Vtranslation factor activity, nucleic acid binding
p259
I179
tp260
a(Vunfolded protein binding
p261
I173
tp262
a(Vtranslation
p263
I169
tp264
a(Vintracellular
p265
I160
tp266
a(Vlipid particle
p267
I155
tp268
a(Vtransferase activity, transferring alkyl or aryl (other than methyl) groups
p269
I146
tp270
a(Vprotein transporter activity
p271
I138
tp272
a(Vribosome
p273
I135
tp274
a(Vnuclear chromosome
p275
I122
tp276
a(Vpigmentation
p277
I101
tp278
a(Vribosome biogenesis
p279
I99
tp280
a(VrRNA binding
p281
I81
tp282
a(Vthylakoid
p283
I47
tp284
a(Vnitrogen cycle metabolic process
p285
I34
tp286
a(Vphotosynthesis
p287
I10
tp288
a(Vcell
p289
I9
tp290
a(Vtransposition
p291
I6
tp292
aa(lp293
(g3
L6372L
tp294
a(g5
L4365L
tp295
a(g7
L2787L
tp296
a(g9
L21685L
tp297
a(g11
L26888L
tp298
a(g13
L5491L
tp299
a(g15
L5801L
tp300
a(g17
L18268L
tp301
a(g19
L5613L
tp302
a(g21
L21693L
tp303
a(g23
L22689L
tp304
a(g25
L7192L
tp305
a(g27
L21630L
tp306
a(g29
L5168L
tp307
a(g31
L1781L
tp308
a(g33
L7190L
tp309
a(g35
L13633L
tp310
a(g37
L13924L
tp311
a(g39
L12968L
tp312
a(g41
L5326L
tp313
a(g43
L4599L
tp314
a(g45
L4995L
tp315
a(g47
L20507L
tp316
a(g49
L4644L
tp317
a(g51
L10381L
tp318
a(g53
L4514L
tp319
a(g55
L4422L
tp320
a(g57
L13690L
tp321
a(g59
L4507L
tp322
a(g61
L21086L
tp323
a(g63
L28228L
tp324
a(g65
L26682L
tp325
a(g67
L2790L
tp326
a(g69
L10598L
tp327
a(g71
L31581L
tp328
a(g73
L10466L
tp329
a(g75
L6320L
tp330
a(g77
L4725L
tp331
a(g79
L18282L
tp332
a(g81
L7881L
tp333
a(g83
L28535L
tp334
a(g85
L26901L
tp335
a(g87
L29927L
tp336
a(g89
L27837L
tp337
a(g91
L5165L
tp338
a(g93
L3827L
tp339
a(g95
L20503L
tp340
a(g97
L4621L
tp341
a(g99
L5663L
tp342
a(g101
L5218L
tp343
a(g103
L10963L
tp344
a(g105
L2830L
tp345
a(g107
L4567L
tp346
a(g109
L6436L
tp347
a(g111
L5791L
tp348
a(g113
L6448L
tp349
a(g115
L4515L
tp350
a(g117
L30984L
tp351
a(g119
L5896L
tp352
a(g121
L10229L
tp353
a(g123
L4542L
tp354
a(g125
L10950L
tp355
a(g127
L6500L
tp356
a(g129
L4556L
tp357
a(g131
L6494L
tp358
a(g133
L594L
tp359
a(g135
L14001L
tp360
a(g137
L4586L
tp361
a(g139
L4439L
tp362
a(g141
L6357L
tp363
a(g143
L3404L
tp364
a(g145
L5471L
tp365
a(g147
L5302L
tp366
a(g149
L677L
tp367
a(g151
L4118L
tp368
a(g153
L5695L
tp369
a(g155
L4366L
tp370
a(g157
L4684L
tp371
a(g159
L28144L
tp372
a(g161
L13967L
tp373
a(g163
L10870L
tp374
a(g165
L759L
tp375
a(g167
L5112L
tp376
a(g169
L10829L
tp377
a(g171
L22810L
tp378
a(g173
L4546L
tp379
a(g175
L5662L
tp380
a(g177
L4405L
tp381
a(g179
L10840L
tp382
a(g181
L3L
tp383
a(g183
L4838L
tp384
a(g185
L10905L
tp385
a(g187
L6169L
tp386
a(g189
L28251L
tp387
a(g191
L6389L
tp388
a(g193
L3518L
tp389
a(g195
L7644L
tp390
a(g197
L17965L
tp391
a(g199
L5582L
tp392
a(g201
L14427L
tp393
a(g203
L13274L
tp394
a(g205
L13644L
tp395
a(g207
L4368L
tp396
a(g209
L4475L
tp397
a(g211
L4538L
tp398
a(g213
L5658L
tp399
a(g215
L2364L
tp400
a(g217
L4423L
tp401
a(g219
L5161L
tp402
a(g221
L10929L
tp403
a(g223
L2991L
tp404
a(g225
L5114L
tp405
a(g227
L14078L
tp406
a(g229
L4408L
tp407
a(g231
L20900L
tp408
a(g233
L10860L
tp409
a(g235
L12827L
tp410
a(g237
L10876L
tp411
a(g239
L10886L
tp412
a(g241
L2835L
tp413
a(g243
L5712L
tp414
a(g245
L5705L
tp415
a(g247
L14396L
tp416
a(g249
L5682L
tp417
a(g251
L33137L
tp418
a(g253
L4550L
tp419
a(g255
L2841L
tp420
a(g257
L15840L
tp421
a(g259
L6358L
tp422
a(g261
L28040L
tp423
a(g263
L5126L
tp424
a(g265
L4411L
tp425
a(g267
L4583L
tp426
a(g269
L10848L
tp427
a(g271
L6747L
tp428
a(g273
L4609L
tp429
a(g275
L201L
tp430
a(g277
L21900L
tp431
a(g279
L20770L
tp432
a(g281
L12918L
tp433
a(g283
L7683L
tp434
a(g285
L33512L
tp435
a(g287
L10192L
tp436
a(g289
L4412L
tp437
a(g291
L15852L
tp438
aaI829864
a.