(lp1
(lp2
(Vbiological_process
p3
I235490
tp4
a(Vcellular_component
p5
I76231
tp6
a(Vmolecular_function
p7
I60129
tp8
a(Vorganelle
p9
I20769
tp10
a(Vanatomical structure development
p11
I15998
tp12
a(Vtransport
p13
I13707
tp14
a(Vcellular nitrogen compound metabolic process
p15
I11486
tp16
a(Vsignal transduction
p17
I11212
tp18
a(Vresponse to stress
p19
I8839
tp20
a(Vprotein complex
p21
I7900
tp22
a(Vbiosynthetic process
p23
I7653
tp24
a(Vsmall molecule metabolic process
p25
I7451
tp26
a(Vcellular protein modification process
p27
I6415
tp28
a(Vion binding
p29
I6323
tp30
a(Vimmune system process
p31
I5310
tp32
a(Vcatabolic process
p33
I5261
tp34
a(Vcellular component assembly
p35
I3756
tp36
a(Vcell differentiation
p37
I3692
tp38
a(Vlipid metabolic process
p39
I3465
tp40
a(Venzyme binding
p41
I3322
tp42
a(Vcytosol
p43
I3164
tp44
a(VDNA metabolic process
p45
I3124
tp46
a(Vvesicle-mediated transport
p47
I2689
tp48
a(Vnucleus
p49
I2620
tp50
a(Vplasma membrane
p51
I2579
tp52
a(Vcytoplasm
p53
I2528
tp54
a(Vchromosome organization
p55
I2398
tp56
a(Vlocomotion
p57
I2373
tp58
a(Vnucleolus
p59
I2363
tp60
a(Voxidoreductase activity
p61
I2182
tp62
a(Vhomeostatic process
p63
I2180
tp64
a(VDNA binding
p65
I2140
tp66
a(Vanatomical structure formation involved in morphogenesis
p67
I2019
tp68
a(Vmacromolecular complex assembly
p69
I2012
tp70
a(Vtransmembrane transporter activity
p71
I1955
tp72
a(Vcarbohydrate metabolic process
p73
I1915
tp74
a(Vkinase activity
p75
I1852
tp76
a(Vnucleobase-containing compound catabolic process
p77
I1829
tp78
a(Vembryo development
p79
I1815
tp80
a(Vcytoskeletal protein binding
p81
I1788
tp82
a(Vsignal transducer activity
p83
I1768
tp84
a(Vprotein maturation
p85
I1632
tp86
a(Vgrowth
p87
I1593
tp88
a(Vprotein complex assembly
p89
I1584
tp90
a(Vcytoskeleton organization
p91
I1562
tp92
a(Vtransmembrane transport
p93
I1522
tp94
a(Vcell motility
p95
I1504
tp96
a(Vneurological system process
p97
I1491
tp98
a(Vcytoskeleton
p99
I1488
tp100
a(VRNA binding
p101
I1384
tp102
a(Vmitochondrion
p103
I1382
tp104
a(Vcell death
p105
I1378
tp106
a(Vcellular amino acid metabolic process
p107
I1342
tp108
a(Vcell-cell signaling
p109
I1313
tp110
a(Vmembrane organization
p111
I1268
tp112
a(VATPase activity
p113
I1220
tp114
a(Vpeptidase activity
p115
I1217
tp116
a(Vcytoplasmic membrane-bounded vesicle
p117
I1132
tp118
a(VGolgi apparatus
p119
I1109
tp120
a(Vendosome
p121
I1060
tp122
a(Vendoplasmic reticulum
p123
I1052
tp124
a(Vcell adhesion
p125
I1035
tp126
a(Vligase activity
p127
I980
tp128
a(Vlipid binding
p129
I953
tp130
a(Vmicrotubule organizing center
p131
I927
tp132
a(Venzyme regulator activity
p133
I912
tp134
a(Vcell morphogenesis
p135
I898
tp136
a(Vnucleoplasm
p137
I884
tp138
a(Vtranscription factor binding
p139
I859
tp140
a(Vcell proliferation
p141
I844
tp142
a(Vhelicase activity
p143
I751
tp144
a(Vprotein binding transcription factor activity
p145
I750
tp146
a(Vprotein targeting
p147
I739
tp148
a(Vcell cycle
p149
I726
tp150
a(Vsulfur compound metabolic process
p151
I667
tp152
a(Vphosphatase activity
p153
I661
tp154
a(Vnucleic acid binding transcription factor activity
p155
I635
tp156
a(Vcofactor metabolic process
p157
I631
tp158
a(Vstructural molecule activity
p159
I623
tp160
a(Vtransferase activity, transferring acyl groups
p161
I619
tp162
a(Vextracellular region
p163
I617
tp164
a(Vcilium
p165
I609
tp166
a(Vsymbiosis, encompassing mutualism through parasitism
p167
I602
tp168
a(Vtransferase activity, transferring glycosyl groups
p169
I588
tp170
a(VmRNA processing
p171
I575
tp172
a(Vplasma membrane organization
p173
I573
tp174
a(Vreproduction
p175
I541
tp176
a(Vvacuole
p177
I527
tp178
a(Vgeneration of precursor metabolites and energy
p179
I508
tp180
a(Vmethyltransferase activity
p181
I450
tp182
a(Vcell division
p183
I446
tp184
a(Vaging
p185
I411
tp186
a(Vextracellular matrix organization
p187
I409
tp188
a(Vnuclease activity
p189
I407
tp190
a(Vlyase activity
p191
I397
tp192
a(Vplastid
p193
I388
tp194
a(Vcell junction organization
p195
I363
tp196
a(Vextracellular space
p197
I358
tp198
a(Vchromosome
p199
I353
tp200
a(Vcytoskeleton-dependent intracellular transport
p201
I348
tp202
a(Vnucleocytoplasmic transport
p203
I344
tp204
a(Vribonucleoprotein complex assembly
p205
I343
tp206
a(Vnuclear envelope
p207
I325
tp208
a(Vmitochondrion organization
p209
I321
tp210
a(Vcirculatory system process
p211
I316
tp212
a(Vprotein folding
p213
I309
tp214
a(VGTPase activity
p215
I308
tp216
a(Vlysosome
p217
I294
tp218
a(Vsecondary metabolic process
p219
I274
tp220
a(Vhistone binding
p221
I268
tp222
a(VtRNA metabolic process
p223
I267
tp224
a(Vdevelopmental maturation
p225
I263
tp226
a(Visomerase activity
p227
I255
tp228
a(Vexternal encapsulating structure
p229
I241
tp230
a(Vcell wall
p231
I239
tp232
a(Vproteinaceous extracellular matrix
p233
I234
tp234
a(Vnucleotidyltransferase activity
p235
I228
tp236
a(Vmitosis
p237
I221
tp238
a(Vhydrolase activity, acting on carbon-nitrogen (but not peptide) bonds
p239
I218
tp240
a(Vchromosome segregation
p241
I216
tp242
a(Vhydrolase activity, acting on glycosyl bonds
p243
I208
tp244
a(VmRNA binding
p245
I205
tp246
a(Vvacuolar transport
p247
I193
tp248
a(Vcell wall organization or biogenesis
p249
I191
tp250
a(Vstructural constituent of ribosome
p251
I186
tp252
a(Vperoxisome
p253
I181
tp254
a(Vprotein binding, bridging
p255
I170
tp256
a(Vtranslation factor activity, nucleic acid binding
p257
I147
tp258
a(Vtranslation
p259
I146
tp260
a(Vsmall conjugating protein binding
p261
I142
tp262
a(Vintracellular
p263
I137
tp264
a(Vunfolded protein binding
p265
I128
tp266
a(Vtransferase activity, transferring alkyl or aryl (other than methyl) groups
p267
I125
tp268
a(Vlipid particle
p269
I124
tp270
a(Vribosome
p271
I104
tp272
a(Vnuclear chromosome
p273
I100
tp274
a(Vribosome biogenesis
p275
I93
tp276
a(Vprotein transporter activity
p277
I87
tp278
a(Vpigmentation
p279
I70
tp280
a(VrRNA binding
p281
I61
tp282
a(Vthylakoid
p283
I33
tp284
a(Vnitrogen cycle metabolic process
p285
I12
tp286
a(Vcell
p287
I6
tp288
a(Vphotosynthesis
p289
I5
tp290
a(VRNA modification guide activity
p291
I2
tp292
a(Vtransposition
p293
I1
tp294
aa(lp295
(g3
L6372L
tp296
a(g5
L4365L
tp297
a(g7
L2787L
tp298
a(g9
L21685L
tp299
a(g11
L26888L
tp300
a(g13
L5491L
tp301
a(g15
L18268L
tp302
a(g17
L5801L
tp303
a(g19
L5613L
tp304
a(g21
L21693L
tp305
a(g23
L7192L
tp306
a(g25
L22689L
tp307
a(g27
L5168L
tp308
a(g29
L21630L
tp309
a(g31
L1781L
tp310
a(g33
L7190L
tp311
a(g35
L13633L
tp312
a(g37
L13924L
tp313
a(g39
L5326L
tp314
a(g41
L12968L
tp315
a(g43
L4599L
tp316
a(g45
L4995L
tp317
a(g47
L10381L
tp318
a(g49
L4422L
tp319
a(g51
L4644L
tp320
a(g53
L4514L
tp321
a(g55
L28228L
tp322
a(g57
L20507L
tp323
a(g59
L4507L
tp324
a(g61
L10598L
tp325
a(g63
L21086L
tp326
a(g65
L2790L
tp327
a(g67
L26682L
tp328
a(g69
L31581L
tp329
a(g71
L13690L
tp330
a(g73
L4725L
tp331
a(g75
L10466L
tp332
a(g77
L18282L
tp333
a(g79
L7881L
tp334
a(g81
L6320L
tp335
a(g83
L3827L
tp336
a(g85
L28535L
tp337
a(g87
L20503L
tp338
a(g89
L5165L
tp339
a(g91
L5663L
tp340
a(g93
L29927L
tp341
a(g95
L26901L
tp342
a(g97
L27837L
tp343
a(g99
L4621L
tp344
a(g101
L2830L
tp345
a(g103
L4515L
tp346
a(g105
L6436L
tp347
a(g107
L5218L
tp348
a(g109
L5896L
tp349
a(g111
L30984L
tp350
a(g113
L10963L
tp351
a(g115
L6448L
tp352
a(g117
L10229L
tp353
a(g119
L4567L
tp354
a(g121
L4542L
tp355
a(g123
L4556L
tp356
a(g125
L5791L
tp357
a(g127
L10950L
tp358
a(g129
L6500L
tp359
a(g131
L4586L
tp360
a(g133
L14001L
tp361
a(g135
L594L
tp362
a(g137
L4439L
tp363
a(g139
L6357L
tp364
a(g141
L6494L
tp365
a(g143
L3404L
tp366
a(g145
L677L
tp367
a(g147
L5302L
tp368
a(g149
L5695L
tp369
a(g151
L5471L
tp370
a(g153
L10870L
tp371
a(g155
L759L
tp372
a(g157
L28144L
tp373
a(g159
L4118L
tp374
a(g161
L10829L
tp375
a(g163
L4366L
tp376
a(g165
L4684L
tp377
a(g167
L22810L
tp378
a(g169
L10840L
tp379
a(g171
L5112L
tp380
a(g173
L5662L
tp381
a(g175
L3L
tp382
a(g177
L4546L
tp383
a(g179
L4838L
tp384
a(g181
L6389L
tp385
a(g183
L28251L
tp386
a(g185
L6169L
tp387
a(g187
L13967L
tp388
a(g189
L3518L
tp389
a(g191
L10905L
tp390
a(g193
L7644L
tp391
a(g195
L17965L
tp392
a(g197
L4405L
tp393
a(g199
L4475L
tp394
a(g201
L14427L
tp395
a(g203
L5582L
tp396
a(g205
L13644L
tp397
a(g207
L4423L
tp398
a(g209
L5658L
tp399
a(g211
L2364L
tp400
a(g213
L5161L
tp401
a(g215
L2991L
tp402
a(g217
L4538L
tp403
a(g219
L12827L
tp404
a(g221
L20900L
tp405
a(g223
L5114L
tp406
a(g225
L13274L
tp407
a(g227
L10929L
tp408
a(g229
L14078L
tp409
a(g231
L4408L
tp410
a(g233
L4368L
tp411
a(g235
L10860L
tp412
a(g237
L5712L
tp413
a(g239
L10886L
tp414
a(g241
L5705L
tp415
a(g243
L10876L
tp416
a(g245
L2835L
tp417
a(g247
L5682L
tp418
a(g249
L33137L
tp419
a(g251
L2841L
tp420
a(g253
L4550L
tp421
a(g255
L14396L
tp422
a(g257
L6358L
tp423
a(g259
L5126L
tp424
a(g261
L15840L
tp425
a(g263
L4411L
tp426
a(g265
L28040L
tp427
a(g267
L10848L
tp428
a(g269
L4583L
tp429
a(g271
L4609L
tp430
a(g273
L201L
tp431
a(g275
L20770L
tp432
a(g277
L6747L
tp433
a(g279
L21900L
tp434
a(g281
L12918L
tp435
a(g283
L7683L
tp436
a(g285
L33512L
tp437
a(g287
L4412L
tp438
a(g289
L10192L
tp439
a(g291
L14288L
tp440
a(g293
L15852L
tp441
aaI621840
a.