(lp1
(lp2
(Vbiological_process
p3
I311742
tp4
a(Vcellular_component
p5
I101965
tp6
a(Vmolecular_function
p7
I83027
tp8
a(Vorganelle
p9
I27435
tp10
a(Vanatomical structure development
p11
I21950
tp12
a(Vtransport
p13
I17891
tp14
a(Vsignal transduction
p15
I14892
tp16
a(Vcellular nitrogen compound metabolic process
p17
I14416
tp18
a(Vresponse to stress
p19
I11784
tp20
a(Vprotein complex
p21
I10914
tp22
a(Vsmall molecule metabolic process
p23
I9607
tp24
a(Vion binding
p25
I9417
tp26
a(Vbiosynthetic process
p27
I9269
tp28
a(Vcellular protein modification process
p29
I8483
tp30
a(Vimmune system process
p31
I7150
tp32
a(Vcatabolic process
p33
I6909
tp34
a(Vcellular component assembly
p35
I5210
tp36
a(Vcell differentiation
p37
I5027
tp38
a(Venzyme binding
p39
I4706
tp40
a(Vcytosol
p41
I4444
tp42
a(Vlipid metabolic process
p43
I4250
tp44
a(VDNA metabolic process
p45
I3792
tp46
a(Vplasma membrane
p47
I3686
tp48
a(Vvesicle-mediated transport
p49
I3583
tp50
a(Vlocomotion
p51
I3488
tp52
a(Vnucleus
p53
I3446
tp54
a(Vnucleolus
p55
I3286
tp56
a(Vcytoplasm
p57
I3281
tp58
a(VDNA binding
p59
I3103
tp60
a(Vtransmembrane transporter activity
p61
I3006
tp62
a(Vanatomical structure formation involved in morphogenesis
p63
I2989
tp64
a(Vchromosome organization
p65
I2952
tp66
a(Vhomeostatic process
p67
I2869
tp68
a(Vmacromolecular complex assembly
p69
I2848
tp70
a(Vcarbohydrate metabolic process
p71
I2610
tp72
a(Voxidoreductase activity
p73
I2607
tp74
a(Vcytoskeletal protein binding
p75
I2506
tp76
a(Vembryo development
p77
I2454
tp78
a(Vkinase activity
p79
I2446
tp80
a(Vprotein maturation
p81
I2400
tp82
a(Vcell motility
p83
I2353
tp84
a(Vnucleobase-containing compound catabolic process
p85
I2348
tp86
a(Vprotein complex assembly
p87
I2276
tp88
a(Vtransmembrane transport
p89
I2262
tp90
a(Vneurological system process
p91
I2190
tp92
a(Vcytoskeleton organization
p93
I2186
tp94
a(Vgrowth
p95
I2121
tp96
a(Vsignal transducer activity
p97
I2003
tp98
a(Vcytoskeleton
p99
I1974
tp100
a(VRNA binding
p101
I1959
tp102
a(Vmitochondrion
p103
I1799
tp104
a(Vcellular amino acid metabolic process
p105
I1799
tp106
a(Vcell death
p107
I1743
tp108
a(Vmembrane organization
p109
I1738
tp110
a(Vpeptidase activity
p111
I1688
tp112
a(Vcell adhesion
p113
I1648
tp114
a(VGolgi apparatus
p115
I1648
tp116
a(Vcytoplasmic membrane-bounded vesicle
p117
I1617
tp118
a(VATPase activity
p119
I1575
tp120
a(Vcell-cell signaling
p121
I1568
tp122
a(Vendosome
p123
I1457
tp124
a(Vlipid binding
p125
I1452
tp126
a(Vligase activity
p127
I1420
tp128
a(Vendoplasmic reticulum
p129
I1413
tp130
a(Venzyme regulator activity
p131
I1399
tp132
a(Vcell proliferation
p133
I1291
tp134
a(Vmicrotubule organizing center
p135
I1248
tp136
a(Vtranscription factor binding
p137
I1244
tp138
a(Vcell morphogenesis
p139
I1234
tp140
a(Vnucleoplasm
p141
I1196
tp142
a(Vprotein binding transcription factor activity
p143
I1132
tp144
a(Vnucleic acid binding transcription factor activity
p145
I1041
tp146
a(Vsulfur compound metabolic process
p147
I984
tp148
a(Vstructural molecule activity
p149
I949
tp150
a(Vprotein targeting
p151
I941
tp152
a(Vextracellular region
p153
I895
tp154
a(Vhelicase activity
p155
I890
tp156
a(Vsymbiosis, encompassing mutualism through parasitism
p157
I883
tp158
a(Vphosphatase activity
p159
I851
tp160
a(Vcofactor metabolic process
p161
I849
tp162
a(VmRNA processing
p163
I838
tp164
a(Vtransferase activity, transferring acyl groups
p165
I787
tp166
a(Vcell cycle
p167
I776
tp168
a(Vvacuole
p169
I768
tp170
a(Vextracellular matrix organization
p171
I732
tp172
a(Vgeneration of precursor metabolites and energy
p173
I720
tp174
a(Vextracellular space
p175
I691
tp176
a(Vreproduction
p177
I691
tp178
a(Vcilium
p179
I681
tp180
a(Vplasma membrane organization
p181
I669
tp182
a(Vtransferase activity, transferring glycosyl groups
p183
I621
tp184
a(Vmethyltransferase activity
p185
I591
tp186
a(Vaging
p187
I577
tp188
a(Vcell junction organization
p189
I574
tp190
a(Vcell division
p191
I565
tp192
a(Vnucleocytoplasmic transport
p193
I538
tp194
a(Vnuclease activity
p195
I525
tp196
a(Vlyase activity
p197
I515
tp198
a(Vplastid
p199
I499
tp200
a(Vribonucleoprotein complex assembly
p201
I468
tp202
a(Vlysosome
p203
I464
tp204
a(Vmitochondrion organization
p205
I456
tp206
a(Vprotein folding
p207
I445
tp208
a(Vchromosome
p209
I439
tp210
a(Vdevelopmental maturation
p211
I434
tp212
a(Vcytoskeleton-dependent intracellular transport
p213
I418
tp214
a(VGTPase activity
p215
I410
tp216
a(Vcirculatory system process
p217
I387
tp218
a(Vhistone binding
p219
I379
tp220
a(Vnuclear envelope
p221
I364
tp222
a(Vproteinaceous extracellular matrix
p223
I354
tp224
a(Visomerase activity
p225
I345
tp226
a(Vsecondary metabolic process
p227
I345
tp228
a(VmRNA binding
p229
I334
tp230
a(Vhydrolase activity, acting on carbon-nitrogen (but not peptide) bonds
p231
I316
tp232
a(Vhydrolase activity, acting on glycosyl bonds
p233
I312
tp234
a(VtRNA metabolic process
p235
I306
tp236
a(Vexternal encapsulating structure
p237
I298
tp238
a(Vcell wall
p239
I290
tp240
a(Vnucleotidyltransferase activity
p241
I287
tp242
a(Vmitosis
p243
I286
tp244
a(Vprotein binding, bridging
p245
I279
tp246
a(Vchromosome segregation
p247
I277
tp248
a(Vvacuolar transport
p249
I257
tp250
a(Vperoxisome
p251
I232
tp252
a(Vsmall conjugating protein binding
p253
I211
tp254
a(Vcell wall organization or biogenesis
p255
I204
tp256
a(Vtranslation factor activity, nucleic acid binding
p257
I201
tp258
a(Vintracellular
p259
I186
tp260
a(Vunfolded protein binding
p261
I183
tp262
a(Vtranslation
p263
I178
tp264
a(Vstructural constituent of ribosome
p265
I176
tp266
a(Vlipid particle
p267
I159
tp268
a(Vprotein transporter activity
p269
I156
tp270
a(Vtransferase activity, transferring alkyl or aryl (other than methyl) groups
p271
I150
tp272
a(Vribosome
p273
I140
tp274
a(Vnuclear chromosome
p275
I125
tp276
a(Vpigmentation
p277
I94
tp278
a(Vribosome biogenesis
p279
I92
tp280
a(VrRNA binding
p281
I73
tp282
a(Vthylakoid
p283
I42
tp284
a(Vnitrogen cycle metabolic process
p285
I28
tp286
a(Vtransposition
p287
I12
tp288
a(Vcell
p289
I10
tp290
a(Vphotosynthesis
p291
I7
tp292
a(VRNA modification guide activity
p293
I2
tp294
aa(lp295
(g3
L6372L
tp296
a(g5
L4365L
tp297
a(g7
L2787L
tp298
a(g9
L21685L
tp299
a(g11
L26888L
tp300
a(g13
L5491L
tp301
a(g15
L5801L
tp302
a(g17
L18268L
tp303
a(g19
L5613L
tp304
a(g21
L21693L
tp305
a(g23
L22689L
tp306
a(g25
L21630L
tp307
a(g27
L7192L
tp308
a(g29
L5168L
tp309
a(g31
L1781L
tp310
a(g33
L7190L
tp311
a(g35
L13633L
tp312
a(g37
L13924L
tp313
a(g39
L12968L
tp314
a(g41
L4599L
tp315
a(g43
L5326L
tp316
a(g45
L4995L
tp317
a(g47
L4644L
tp318
a(g49
L10381L
tp319
a(g51
L20507L
tp320
a(g53
L4422L
tp321
a(g55
L4507L
tp322
a(g57
L4514L
tp323
a(g59
L2790L
tp324
a(g61
L13690L
tp325
a(g63
L26682L
tp326
a(g65
L28228L
tp327
a(g67
L21086L
tp328
a(g69
L31581L
tp329
a(g71
L4725L
tp330
a(g73
L10598L
tp331
a(g75
L6320L
tp332
a(g77
L7881L
tp333
a(g79
L10466L
tp334
a(g81
L28535L
tp335
a(g83
L26901L
tp336
a(g85
L18282L
tp337
a(g87
L5165L
tp338
a(g89
L29927L
tp339
a(g91
L27837L
tp340
a(g93
L5663L
tp341
a(g95
L20503L
tp342
a(g97
L3827L
tp343
a(g99
L4621L
tp344
a(g101
L2830L
tp345
a(g103
L4515L
tp346
a(g105
L5218L
tp347
a(g107
L6436L
tp348
a(g109
L30984L
tp349
a(g111
L6448L
tp350
a(g113
L5791L
tp351
a(g115
L4567L
tp352
a(g117
L10229L
tp353
a(g119
L10963L
tp354
a(g121
L5896L
tp355
a(g123
L4542L
tp356
a(g125
L6500L
tp357
a(g127
L10950L
tp358
a(g129
L4556L
tp359
a(g131
L14001L
tp360
a(g133
L6494L
tp361
a(g135
L4586L
tp362
a(g137
L6357L
tp363
a(g139
L594L
tp364
a(g141
L4439L
tp365
a(g143
L677L
tp366
a(g145
L759L
tp367
a(g147
L5471L
tp368
a(g149
L4118L
tp369
a(g151
L5302L
tp370
a(g153
L4366L
tp371
a(g155
L3404L
tp372
a(g157
L22810L
tp373
a(g159
L10870L
tp374
a(g161
L28144L
tp375
a(g163
L5112L
tp376
a(g165
L10829L
tp377
a(g167
L5695L
tp378
a(g169
L4546L
tp379
a(g171
L13967L
tp380
a(g173
L4838L
tp381
a(g175
L4405L
tp382
a(g177
L3L
tp383
a(g179
L4684L
tp384
a(g181
L5662L
tp385
a(g183
L10840L
tp386
a(g185
L6389L
tp387
a(g187
L6169L
tp388
a(g189
L17965L
tp389
a(g191
L28251L
tp390
a(g193
L5582L
tp391
a(g195
L3518L
tp392
a(g197
L10905L
tp393
a(g199
L7644L
tp394
a(g201
L13644L
tp395
a(g203
L4538L
tp396
a(g205
L5658L
tp397
a(g207
L5161L
tp398
a(g209
L4475L
tp399
a(g211
L13274L
tp400
a(g213
L14427L
tp401
a(g215
L2991L
tp402
a(g217
L2364L
tp403
a(g219
L20900L
tp404
a(g221
L4423L
tp405
a(g223
L4368L
tp406
a(g225
L10929L
tp407
a(g227
L12827L
tp408
a(g229
L2835L
tp409
a(g231
L10886L
tp410
a(g233
L10876L
tp411
a(g235
L5114L
tp412
a(g237
L14078L
tp413
a(g239
L4408L
tp414
a(g241
L10860L
tp415
a(g243
L5712L
tp416
a(g245
L14396L
tp417
a(g247
L5705L
tp418
a(g249
L5682L
tp419
a(g251
L4550L
tp420
a(g253
L15840L
tp421
a(g255
L33137L
tp422
a(g257
L6358L
tp423
a(g259
L4411L
tp424
a(g261
L28040L
tp425
a(g263
L5126L
tp426
a(g265
L2841L
tp427
a(g267
L4583L
tp428
a(g269
L6747L
tp429
a(g271
L10848L
tp430
a(g273
L4609L
tp431
a(g275
L201L
tp432
a(g277
L21900L
tp433
a(g279
L20770L
tp434
a(g281
L12918L
tp435
a(g283
L7683L
tp436
a(g285
L33512L
tp437
a(g287
L15852L
tp438
a(g289
L4412L
tp439
a(g291
L10192L
tp440
a(g293
L14288L
tp441
aaI833073
a.