(lp1
(lp2
(Vbiological_process
p3
I155898
tp4
a(Vcellular_component
p5
I52570
tp6
a(Vmolecular_function
p7
I41316
tp8
a(Vorganelle
p9
I14668
tp10
a(Vanatomical structure development
p11
I10511
tp12
a(Vtransport
p13
I9093
tp14
a(Vsignal transduction
p15
I7753
tp16
a(Vcellular nitrogen compound metabolic process
p17
I7382
tp18
a(Vresponse to stress
p19
I6158
tp20
a(Vprotein complex
p21
I5424
tp22
a(Vsmall molecule metabolic process
p23
I4939
tp24
a(Vbiosynthetic process
p25
I4836
tp26
a(Vion binding
p27
I4715
tp28
a(Vcellular protein modification process
p29
I4462
tp30
a(Vcatabolic process
p31
I3771
tp32
a(Vimmune system process
p33
I3721
tp34
a(Vcellular component assembly
p35
I2715
tp36
a(Vcell differentiation
p37
I2546
tp38
a(Vlipid metabolic process
p39
I2503
tp40
a(Venzyme binding
p41
I2397
tp42
a(Vcytosol
p43
I2382
tp44
a(Vvesicle-mediated transport
p45
I2041
tp46
a(Vlocomotion
p47
I1918
tp48
a(VDNA metabolic process
p49
I1872
tp50
a(Vnucleus
p51
I1846
tp52
a(Vplasma membrane
p53
I1791
tp54
a(Vnucleolus
p55
I1719
tp56
a(Vchromosome organization
p57
I1588
tp58
a(Vtransmembrane transporter activity
p59
I1538
tp60
a(Vanatomical structure formation involved in morphogenesis
p61
I1538
tp62
a(Vkinase activity
p63
I1510
tp64
a(Vhomeostatic process
p65
I1473
tp66
a(Vnucleobase-containing compound catabolic process
p67
I1460
tp68
a(Vcytoplasm
p69
I1429
tp70
a(Vcarbohydrate metabolic process
p71
I1391
tp72
a(Vmacromolecular complex assembly
p73
I1372
tp74
a(VDNA binding
p75
I1343
tp76
a(Voxidoreductase activity
p77
I1335
tp78
a(Vcell motility
p79
I1305
tp80
a(Vembryo development
p81
I1262
tp82
a(Vtransmembrane transport
p83
I1225
tp84
a(Vcytoskeletal protein binding
p85
I1200
tp86
a(Vcytoskeleton organization
p87
I1143
tp88
a(Vprotein maturation
p89
I1135
tp90
a(Vprotein complex assembly
p91
I1124
tp92
a(Vgrowth
p93
I1090
tp94
a(Vsignal transducer activity
p95
I1036
tp96
a(Vcytoplasmic membrane-bounded vesicle
p97
I1028
tp98
a(VRNA binding
p99
I990
tp100
a(Vmitochondrion
p101
I988
tp102
a(Vcytoskeleton
p103
I966
tp104
a(Vendosome
p105
I950
tp106
a(VGolgi apparatus
p107
I894
tp108
a(Vneurological system process
p109
I874
tp110
a(Vcell death
p111
I834
tp112
a(VATPase activity
p113
I814
tp114
a(Vlipid binding
p115
I813
tp116
a(Vmembrane organization
p117
I807
tp118
a(Vcell adhesion
p119
I797
tp120
a(Vcellular amino acid metabolic process
p121
I791
tp122
a(Vendoplasmic reticulum
p123
I739
tp124
a(Vpeptidase activity
p125
I705
tp126
a(Vcell proliferation
p127
I705
tp128
a(Venzyme regulator activity
p129
I702
tp130
a(Vmicrotubule organizing center
p131
I688
tp132
a(Vcell morphogenesis
p133
I669
tp134
a(Vligase activity
p135
I664
tp136
a(Vcell-cell signaling
p137
I654
tp138
a(Vnucleoplasm
p139
I608
tp140
a(Vprotein targeting
p141
I603
tp142
a(Vtranscription factor binding
p143
I578
tp144
a(Vprotein binding transcription factor activity
p145
I544
tp146
a(Vstructural molecule activity
p147
I538
tp148
a(Vphosphatase activity
p149
I496
tp150
a(Vvacuole
p151
I490
tp152
a(Vsymbiosis, encompassing mutualism through parasitism
p153
I470
tp154
a(Vnucleic acid binding transcription factor activity
p155
I440
tp156
a(Vsulfur compound metabolic process
p157
I433
tp158
a(VmRNA processing
p159
I418
tp160
a(Vcell cycle
p161
I411
tp162
a(Vextracellular region
p163
I399
tp164
a(Vcofactor metabolic process
p165
I394
tp166
a(Vtransferase activity, transferring acyl groups
p167
I377
tp168
a(Vtransferase activity, transferring glycosyl groups
p169
I360
tp170
a(Vreproduction
p171
I352
tp172
a(Vgeneration of precursor metabolites and energy
p173
I352
tp174
a(Vcell junction organization
p175
I336
tp176
a(Vcilium
p177
I334
tp178
a(Vhelicase activity
p179
I311
tp180
a(VGTPase activity
p181
I309
tp182
a(Vcell division
p183
I302
tp184
a(Vextracellular space
p185
I295
tp186
a(Vnuclease activity
p187
I292
tp188
a(Vextracellular matrix organization
p189
I291
tp190
a(Vplastid
p191
I271
tp192
a(Vlysosome
p193
I266
tp194
a(Vaging
p195
I264
tp196
a(Vmethyltransferase activity
p197
I252
tp198
a(Vnucleocytoplasmic transport
p199
I242
tp200
a(Vprotein folding
p201
I241
tp202
a(Vlyase activity
p203
I239
tp204
a(Vdevelopmental maturation
p205
I239
tp206
a(Vsecondary metabolic process
p207
I225
tp208
a(Vhistone binding
p209
I216
tp210
a(Vchromosome
p211
I213
tp212
a(Vplasma membrane organization
p213
I213
tp214
a(Vcytoskeleton-dependent intracellular transport
p215
I208
tp216
a(Vmitochondrion organization
p217
I197
tp218
a(Vribonucleoprotein complex assembly
p219
I193
tp220
a(Vvacuolar transport
p221
I183
tp222
a(Visomerase activity
p223
I167
tp224
a(Vexternal encapsulating structure
p225
I163
tp226
a(Vcell wall
p227
I161
tp228
a(VmRNA binding
p229
I160
tp230
a(VtRNA metabolic process
p231
I157
tp232
a(Vnucleotidyltransferase activity
p233
I157
tp234
a(Vhydrolase activity, acting on glycosyl bonds
p235
I156
tp236
a(Vmitosis
p237
I154
tp238
a(Vprotein binding, bridging
p239
I154
tp240
a(Vnuclear envelope
p241
I149
tp242
a(Vcell wall organization or biogenesis
p243
I147
tp244
a(Vhydrolase activity, acting on carbon-nitrogen (but not peptide) bonds
p245
I145
tp246
a(Vperoxisome
p247
I145
tp248
a(Vcirculatory system process
p249
I141
tp250
a(Vsmall conjugating protein binding
p251
I134
tp252
a(Vstructural constituent of ribosome
p253
I131
tp254
a(Vchromosome segregation
p255
I128
tp256
a(Vtranslation factor activity, nucleic acid binding
p257
I113
tp258
a(Vproteinaceous extracellular matrix
p259
I103
tp260
a(Vlipid particle
p261
I102
tp262
a(Vintracellular
p263
I92
tp264
a(Vtranslation
p265
I89
tp266
a(Vunfolded protein binding
p267
I86
tp268
a(Vprotein transporter activity
p269
I77
tp270
a(Vtransferase activity, transferring alkyl or aryl (other than methyl) groups
p271
I73
tp272
a(Vribosome
p273
I66
tp274
a(Vnuclear chromosome
p275
I63
tp276
a(Vribosome biogenesis
p277
I60
tp278
a(Vpigmentation
p279
I45
tp280
a(VrRNA binding
p281
I38
tp282
a(Vthylakoid
p283
I18
tp284
a(Vcell
p285
I16
tp286
a(Vnitrogen cycle metabolic process
p287
I9
tp288
a(Vphotosynthesis
p289
I3
tp290
a(Vtransposition
p291
I2
tp292
aa(lp293
(g3
L6372L
tp294
a(g5
L4365L
tp295
a(g7
L2787L
tp296
a(g9
L21685L
tp297
a(g11
L26888L
tp298
a(g13
L5491L
tp299
a(g15
L5801L
tp300
a(g17
L18268L
tp301
a(g19
L5613L
tp302
a(g21
L21693L
tp303
a(g23
L22689L
tp304
a(g25
L7192L
tp305
a(g27
L21630L
tp306
a(g29
L5168L
tp307
a(g31
L7190L
tp308
a(g33
L1781L
tp309
a(g35
L13633L
tp310
a(g37
L13924L
tp311
a(g39
L5326L
tp312
a(g41
L12968L
tp313
a(g43
L4599L
tp314
a(g45
L10381L
tp315
a(g47
L20507L
tp316
a(g49
L4995L
tp317
a(g51
L4422L
tp318
a(g53
L4644L
tp319
a(g55
L4507L
tp320
a(g57
L28228L
tp321
a(g59
L13690L
tp322
a(g61
L26682L
tp323
a(g63
L10466L
tp324
a(g65
L21086L
tp325
a(g67
L18282L
tp326
a(g69
L4514L
tp327
a(g71
L4725L
tp328
a(g73
L31581L
tp329
a(g75
L2790L
tp330
a(g77
L10598L
tp331
a(g79
L26901L
tp332
a(g81
L7881L
tp333
a(g83
L29927L
tp334
a(g85
L6320L
tp335
a(g87
L5663L
tp336
a(g89
L28535L
tp337
a(g91
L5165L
tp338
a(g93
L20503L
tp339
a(g95
L3827L
tp340
a(g97
L10229L
tp341
a(g99
L2830L
tp342
a(g101
L4515L
tp343
a(g103
L4621L
tp344
a(g105
L4542L
tp345
a(g107
L4567L
tp346
a(g109
L27837L
tp347
a(g111
L6436L
tp348
a(g113
L10963L
tp349
a(g115
L6500L
tp350
a(g117
L30984L
tp351
a(g119
L5791L
tp352
a(g121
L5218L
tp353
a(g123
L4556L
tp354
a(g125
L6448L
tp355
a(g127
L6494L
tp356
a(g129
L14001L
tp357
a(g131
L4586L
tp358
a(g133
L594L
tp359
a(g135
L10950L
tp360
a(g137
L5896L
tp361
a(g139
L4439L
tp362
a(g141
L5302L
tp363
a(g143
L6357L
tp364
a(g145
L677L
tp365
a(g147
L4118L
tp366
a(g149
L10870L
tp367
a(g151
L4546L
tp368
a(g153
L22810L
tp369
a(g155
L759L
tp370
a(g157
L5471L
tp371
a(g159
L5112L
tp372
a(g161
L5695L
tp373
a(g163
L4366L
tp374
a(g165
L28144L
tp375
a(g167
L10829L
tp376
a(g169
L10840L
tp377
a(g171
L3L
tp378
a(g173
L4838L
tp379
a(g175
L17965L
tp380
a(g177
L4684L
tp381
a(g179
L3404L
tp382
a(g181
L2991L
tp383
a(g183
L28251L
tp384
a(g185
L4405L
tp385
a(g187
L3518L
tp386
a(g189
L13967L
tp387
a(g191
L7644L
tp388
a(g193
L4538L
tp389
a(g195
L6169L
tp390
a(g197
L6389L
tp391
a(g199
L5582L
tp392
a(g201
L5161L
tp393
a(g203
L10905L
tp394
a(g205
L13274L
tp395
a(g207
L12827L
tp396
a(g209
L20900L
tp397
a(g211
L4475L
tp398
a(g213
L5662L
tp399
a(g215
L14427L
tp400
a(g217
L5658L
tp401
a(g219
L13644L
tp402
a(g221
L5682L
tp403
a(g223
L10929L
tp404
a(g225
L14078L
tp405
a(g227
L4408L
tp406
a(g229
L2835L
tp407
a(g231
L5114L
tp408
a(g233
L10860L
tp409
a(g235
L10876L
tp410
a(g237
L5712L
tp411
a(g239
L14396L
tp412
a(g241
L4423L
tp413
a(g243
L33137L
tp414
a(g245
L10886L
tp415
a(g247
L4550L
tp416
a(g249
L2364L
tp417
a(g251
L15840L
tp418
a(g253
L2841L
tp419
a(g255
L5705L
tp420
a(g257
L6358L
tp421
a(g259
L4368L
tp422
a(g261
L4583L
tp423
a(g263
L4411L
tp424
a(g265
L5126L
tp425
a(g267
L28040L
tp426
a(g269
L6747L
tp427
a(g271
L10848L
tp428
a(g273
L4609L
tp429
a(g275
L201L
tp430
a(g277
L20770L
tp431
a(g279
L21900L
tp432
a(g281
L12918L
tp433
a(g283
L7683L
tp434
a(g285
L4412L
tp435
a(g287
L33512L
tp436
a(g289
L10192L
tp437
a(g291
L15852L
tp438
aaI422515
a.