(lp1
(lp2
(Vbiological_process
p3
I209082
tp4
a(Vcellular_component
p5
I70033
tp6
a(Vmolecular_function
p7
I57325
tp8
a(Vorganelle
p9
I18628
tp10
a(Vanatomical structure development
p11
I15468
tp12
a(Vtransport
p13
I12096
tp14
a(Vcellular nitrogen compound metabolic process
p15
I9812
tp16
a(Vsignal transduction
p17
I9807
tp18
a(Vprotein complex
p19
I8219
tp20
a(Vresponse to stress
p21
I8103
tp22
a(Vion binding
p23
I6910
tp24
a(Vsmall molecule metabolic process
p25
I6465
tp26
a(Vbiosynthetic process
p27
I6172
tp28
a(Vcellular protein modification process
p29
I5475
tp30
a(Vcatabolic process
p31
I4969
tp32
a(Vimmune system process
p33
I4592
tp34
a(Vcell differentiation
p35
I3712
tp36
a(Vcellular component assembly
p37
I3600
tp38
a(Vcytosol
p39
I3395
tp40
a(Venzyme binding
p41
I3128
tp42
a(Vlipid metabolic process
p43
I2999
tp44
a(Vlocomotion
p45
I2726
tp46
a(Vvesicle-mediated transport
p47
I2638
tp48
a(Vnucleolus
p49
I2632
tp50
a(Vplasma membrane
p51
I2527
tp52
a(Vanatomical structure formation involved in morphogenesis
p53
I2465
tp54
a(VDNA metabolic process
p55
I2396
tp56
a(Vtransmembrane transporter activity
p57
I2368
tp58
a(Vnucleus
p59
I2270
tp60
a(Vhomeostatic process
p61
I2130
tp62
a(Vchromosome organization
p63
I2041
tp64
a(Vmacromolecular complex assembly
p65
I2016
tp66
a(VDNA binding
p67
I1972
tp68
a(Vcell motility
p69
I1911
tp70
a(Vnucleobase-containing compound catabolic process
p71
I1896
tp72
a(Vcarbohydrate metabolic process
p73
I1859
tp74
a(Vcytoplasm
p75
I1842
tp76
a(Vcytoskeletal protein binding
p77
I1836
tp78
a(Vtransmembrane transport
p79
I1818
tp80
a(Vembryo development
p81
I1816
tp82
a(Vcytoskeleton organization
p83
I1724
tp84
a(Vprotein maturation
p85
I1706
tp86
a(Vsignal transducer activity
p87
I1685
tp88
a(Vgrowth
p89
I1679
tp90
a(Voxidoreductase activity
p91
I1668
tp92
a(Vneurological system process
p93
I1660
tp94
a(Vkinase activity
p95
I1629
tp96
a(Vprotein complex assembly
p97
I1601
tp98
a(VRNA binding
p99
I1516
tp100
a(VGolgi apparatus
p101
I1343
tp102
a(Vlipid binding
p103
I1290
tp104
a(Vcytoplasmic membrane-bounded vesicle
p105
I1278
tp106
a(Vmitochondrion
p107
I1246
tp108
a(Vcytoskeleton
p109
I1214
tp110
a(Vcellular amino acid metabolic process
p111
I1147
tp112
a(Vcell adhesion
p113
I1141
tp114
a(VATPase activity
p115
I1127
tp116
a(Vendoplasmic reticulum
p117
I1101
tp118
a(Vcell death
p119
I1089
tp120
a(Vmembrane organization
p121
I1064
tp122
a(Vligase activity
p123
I1060
tp124
a(Vcell proliferation
p125
I1048
tp126
a(Vendosome
p127
I1031
tp128
a(Vcell-cell signaling
p129
I1022
tp130
a(Vpeptidase activity
p131
I1008
tp132
a(Venzyme regulator activity
p133
I977
tp134
a(Vstructural molecule activity
p135
I939
tp136
a(Vnucleoplasm
p137
I925
tp138
a(Vmicrotubule organizing center
p139
I860
tp140
a(Vprotein targeting
p141
I839
tp142
a(Vtranscription factor binding
p143
I839
tp144
a(Vcell morphogenesis
p145
I827
tp146
a(Vprotein binding transcription factor activity
p147
I827
tp148
a(Vnucleic acid binding transcription factor activity
p149
I718
tp150
a(Vextracellular region
p151
I658
tp152
a(Vsulfur compound metabolic process
p153
I640
tp154
a(Vsymbiosis, encompassing mutualism through parasitism
p155
I638
tp156
a(VmRNA processing
p157
I589
tp158
a(Vvacuole
p159
I586
tp160
a(Vextracellular space
p161
I557
tp162
a(Vgeneration of precursor metabolites and energy
p163
I541
tp164
a(Vcofactor metabolic process
p165
I526
tp166
a(Vtransferase activity, transferring acyl groups
p167
I524
tp168
a(Vextracellular matrix organization
p169
I515
tp170
a(Vphosphatase activity
p171
I501
tp172
a(Vreproduction
p173
I485
tp174
a(Vcilium
p175
I484
tp176
a(Vhelicase activity
p177
I451
tp178
a(Vnucleocytoplasmic transport
p179
I448
tp180
a(Vtransferase activity, transferring glycosyl groups
p181
I447
tp182
a(Vcell cycle
p183
I430
tp184
a(Vcell division
p185
I413
tp186
a(Vcell junction organization
p187
I413
tp188
a(Vplastid
p189
I387
tp190
a(Vaging
p191
I368
tp192
a(Vnuclease activity
p193
I366
tp194
a(Vmitochondrion organization
p195
I352
tp196
a(Vdevelopmental maturation
p197
I350
tp198
a(Vlysosome
p199
I335
tp200
a(Vcirculatory system process
p201
I330
tp202
a(Vribonucleoprotein complex assembly
p203
I322
tp204
a(Vchromosome
p205
I314
tp206
a(Vcytoskeleton-dependent intracellular transport
p207
I310
tp208
a(Vmethyltransferase activity
p209
I310
tp210
a(Vprotein folding
p211
I307
tp212
a(Vlyase activity
p213
I300
tp214
a(Vhistone binding
p215
I276
tp216
a(Vstructural constituent of ribosome
p217
I270
tp218
a(Vnuclear envelope
p219
I263
tp220
a(Vsecondary metabolic process
p221
I258
tp222
a(VmRNA binding
p223
I254
tp224
a(VGTPase activity
p225
I252
tp226
a(Vnucleotidyltransferase activity
p227
I243
tp228
a(Vexternal encapsulating structure
p229
I242
tp230
a(Vcell wall
p231
I238
tp232
a(Vplasma membrane organization
p233
I234
tp234
a(Vvacuolar transport
p235
I225
tp236
a(Visomerase activity
p237
I218
tp238
a(Vmitosis
p239
I213
tp240
a(Vproteinaceous extracellular matrix
p241
I202
tp242
a(Vchromosome segregation
p243
I202
tp244
a(Vcell wall organization or biogenesis
p245
I195
tp246
a(Vhydrolase activity, acting on carbon-nitrogen (but not peptide) bonds
p247
I181
tp248
a(Vhydrolase activity, acting on glycosyl bonds
p249
I170
tp250
a(VtRNA metabolic process
p251
I166
tp252
a(Vsmall conjugating protein binding
p253
I165
tp254
a(Vperoxisome
p255
I163
tp256
a(Vprotein transporter activity
p257
I158
tp258
a(Vtranslation factor activity, nucleic acid binding
p259
I156
tp260
a(Vprotein binding, bridging
p261
I156
tp262
a(Vunfolded protein binding
p263
I144
tp264
a(Vtranslation
p265
I126
tp266
a(Vlipid particle
p267
I116
tp268
a(Vribosome
p269
I107
tp270
a(Vnuclear chromosome
p271
I96
tp272
a(Vintracellular
p273
I84
tp274
a(Vtransferase activity, transferring alkyl or aryl (other than methyl) groups
p275
I82
tp276
a(Vribosome biogenesis
p277
I81
tp278
a(Vpigmentation
p279
I67
tp280
a(VrRNA binding
p281
I65
tp282
a(Vtransposition
p283
I33
tp284
a(Vthylakoid
p285
I32
tp286
a(Vnitrogen cycle metabolic process
p287
I16
tp288
a(Vphotosynthesis
p289
I7
tp290
a(Vcell
p291
I5
tp292
a(VRNA modification guide activity
p293
I1
tp294
aa(lp295
(g3
L6372L
tp296
a(g5
L4365L
tp297
a(g7
L2787L
tp298
a(g9
L21685L
tp299
a(g11
L26888L
tp300
a(g13
L5491L
tp301
a(g15
L18268L
tp302
a(g17
L5801L
tp303
a(g19
L21693L
tp304
a(g21
L5613L
tp305
a(g23
L21630L
tp306
a(g25
L22689L
tp307
a(g27
L7192L
tp308
a(g29
L5168L
tp309
a(g31
L7190L
tp310
a(g33
L1781L
tp311
a(g35
L13924L
tp312
a(g37
L13633L
tp313
a(g39
L4599L
tp314
a(g41
L12968L
tp315
a(g43
L5326L
tp316
a(g45
L20507L
tp317
a(g47
L10381L
tp318
a(g49
L4507L
tp319
a(g51
L4644L
tp320
a(g53
L26682L
tp321
a(g55
L4995L
tp322
a(g57
L13690L
tp323
a(g59
L4422L
tp324
a(g61
L21086L
tp325
a(g63
L28228L
tp326
a(g65
L31581L
tp327
a(g67
L2790L
tp328
a(g69
L26901L
tp329
a(g71
L18282L
tp330
a(g73
L4725L
tp331
a(g75
L4514L
tp332
a(g77
L6320L
tp333
a(g79
L29927L
tp334
a(g81
L7881L
tp335
a(g83
L5663L
tp336
a(g85
L28535L
tp337
a(g87
L3827L
tp338
a(g89
L20503L
tp339
a(g91
L10598L
tp340
a(g93
L27837L
tp341
a(g95
L10466L
tp342
a(g97
L5165L
tp343
a(g99
L2830L
tp344
a(g101
L4567L
tp345
a(g103
L6500L
tp346
a(g105
L10229L
tp347
a(g107
L4515L
tp348
a(g109
L4621L
tp349
a(g111
L5218L
tp350
a(g113
L5791L
tp351
a(g115
L10963L
tp352
a(g117
L4556L
tp353
a(g119
L6436L
tp354
a(g121
L30984L
tp355
a(g123
L10950L
tp356
a(g125
L6494L
tp357
a(g127
L4542L
tp358
a(g129
L5896L
tp359
a(g131
L6448L
tp360
a(g133
L14001L
tp361
a(g135
L4118L
tp362
a(g137
L4439L
tp363
a(g139
L4586L
tp364
a(g141
L5302L
tp365
a(g143
L6357L
tp366
a(g145
L594L
tp367
a(g147
L677L
tp368
a(g149
L759L
tp369
a(g151
L4366L
tp370
a(g153
L5471L
tp371
a(g155
L22810L
tp372
a(g157
L5112L
tp373
a(g159
L4546L
tp374
a(g161
L4405L
tp375
a(g163
L4838L
tp376
a(g165
L28144L
tp377
a(g167
L10829L
tp378
a(g169
L13967L
tp379
a(g171
L10870L
tp380
a(g173
L3L
tp381
a(g175
L4684L
tp382
a(g177
L3404L
tp383
a(g179
L5582L
tp384
a(g181
L10840L
tp385
a(g183
L5695L
tp386
a(g185
L28251L
tp387
a(g187
L17965L
tp388
a(g189
L7644L
tp389
a(g191
L6169L
tp390
a(g193
L3518L
tp391
a(g195
L5658L
tp392
a(g197
L13274L
tp393
a(g199
L4538L
tp394
a(g201
L2364L
tp395
a(g203
L13644L
tp396
a(g205
L4475L
tp397
a(g207
L14427L
tp398
a(g209
L6389L
tp399
a(g211
L5161L
tp400
a(g213
L10905L
tp401
a(g215
L20900L
tp402
a(g217
L2841L
tp403
a(g219
L4423L
tp404
a(g221
L12827L
tp405
a(g223
L2835L
tp406
a(g225
L2991L
tp407
a(g227
L10860L
tp408
a(g229
L14078L
tp409
a(g231
L4408L
tp410
a(g233
L5662L
tp411
a(g235
L5682L
tp412
a(g237
L10929L
tp413
a(g239
L5712L
tp414
a(g241
L4368L
tp415
a(g243
L5705L
tp416
a(g245
L33137L
tp417
a(g247
L10886L
tp418
a(g249
L10876L
tp419
a(g251
L5114L
tp420
a(g253
L15840L
tp421
a(g255
L4550L
tp422
a(g257
L6747L
tp423
a(g259
L6358L
tp424
a(g261
L14396L
tp425
a(g263
L28040L
tp426
a(g265
L5126L
tp427
a(g267
L4583L
tp428
a(g269
L4609L
tp429
a(g271
L201L
tp430
a(g273
L4411L
tp431
a(g275
L10848L
tp432
a(g277
L20770L
tp433
a(g279
L21900L
tp434
a(g281
L12918L
tp435
a(g283
L15852L
tp436
a(g285
L7683L
tp437
a(g287
L33512L
tp438
a(g289
L10192L
tp439
a(g291
L4412L
tp440
a(g293
L14288L
tp441
aaI572336
a.