(lp1
(lp2
(Vbiological_process
p3
I206906
tp4
a(Vcellular_component
p5
I68987
tp6
a(Vmolecular_function
p7
I55858
tp8
a(Vorganelle
p9
I18439
tp10
a(Vanatomical structure development
p11
I15484
tp12
a(Vtransport
p13
I11717
tp14
a(Vsignal transduction
p15
I9434
tp16
a(Vcellular nitrogen compound metabolic process
p17
I9162
tp18
a(Vresponse to stress
p19
I7771
tp20
a(Vprotein complex
p21
I7465
tp22
a(Vion binding
p23
I6765
tp24
a(Vsmall molecule metabolic process
p25
I6554
tp26
a(Vbiosynthetic process
p27
I5906
tp28
a(Vcellular protein modification process
p29
I5228
tp30
a(Vcatabolic process
p31
I4652
tp32
a(Vimmune system process
p33
I4449
tp34
a(Vcell differentiation
p35
I3742
tp36
a(Vcellular component assembly
p37
I3359
tp38
a(Vlipid metabolic process
p39
I3196
tp40
a(Vcytosol
p41
I3019
tp42
a(Venzyme binding
p43
I3010
tp44
a(Vlocomotion
p45
I2604
tp46
a(Vtransmembrane transporter activity
p47
I2556
tp48
a(Vanatomical structure formation involved in morphogenesis
p49
I2424
tp50
a(Vvesicle-mediated transport
p51
I2407
tp52
a(Vplasma membrane
p53
I2405
tp54
a(Vnucleolus
p55
I2371
tp56
a(VDNA metabolic process
p57
I2329
tp58
a(Vnucleus
p59
I2305
tp60
a(Vhomeostatic process
p61
I2042
tp62
a(VDNA binding
p63
I1912
tp64
a(Vchromosome organization
p65
I1890
tp66
a(Vcytoplasm
p67
I1889
tp68
a(Vtransmembrane transport
p69
I1856
tp70
a(Vcell motility
p71
I1843
tp72
a(Vmacromolecular complex assembly
p73
I1806
tp74
a(Voxidoreductase activity
p75
I1790
tp76
a(Vcytoskeletal protein binding
p77
I1708
tp78
a(Vneurological system process
p79
I1699
tp80
a(Vcarbohydrate metabolic process
p81
I1693
tp82
a(Vprotein maturation
p83
I1673
tp84
a(Vnucleobase-containing compound catabolic process
p85
I1647
tp86
a(Vgrowth
p87
I1552
tp88
a(Vembryo development
p89
I1546
tp90
a(Vcytoskeleton organization
p91
I1537
tp92
a(Vprotein complex assembly
p93
I1502
tp94
a(Vsignal transducer activity
p95
I1497
tp96
a(Vkinase activity
p97
I1464
tp98
a(Vcytoplasmic membrane-bounded vesicle
p99
I1298
tp100
a(VGolgi apparatus
p101
I1270
tp102
a(Vlipid binding
p103
I1229
tp104
a(Vcytoskeleton
p105
I1219
tp106
a(Vmitochondrion
p107
I1209
tp108
a(VRNA binding
p109
I1177
tp110
a(Vcell adhesion
p111
I1161
tp112
a(Vcellular amino acid metabolic process
p113
I1103
tp114
a(Vpeptidase activity
p115
I1064
tp116
a(Vendoplasmic reticulum
p117
I1059
tp118
a(VATPase activity
p119
I1043
tp120
a(Vmembrane organization
p121
I1043
tp122
a(Vcell-cell signaling
p123
I1027
tp124
a(Vendosome
p125
I1012
tp126
a(Vcell death
p127
I983
tp128
a(Vcell proliferation
p129
I954
tp130
a(Venzyme regulator activity
p131
I953
tp132
a(Vligase activity
p133
I933
tp134
a(Vnucleoplasm
p135
I882
tp136
a(Vcell morphogenesis
p137
I872
tp138
a(Vmicrotubule organizing center
p139
I865
tp140
a(Vprotein binding transcription factor activity
p141
I809
tp142
a(Vtranscription factor binding
p143
I801
tp144
a(Vstructural molecule activity
p145
I791
tp146
a(Vextracellular region
p147
I749
tp148
a(Vnucleic acid binding transcription factor activity
p149
I715
tp150
a(Vsulfur compound metabolic process
p151
I670
tp152
a(Vprotein targeting
p153
I647
tp154
a(Vextracellular space
p155
I607
tp156
a(Vextracellular matrix organization
p157
I600
tp158
a(Vvacuole
p159
I593
tp160
a(Vcilium
p161
I544
tp162
a(Vtransferase activity, transferring acyl groups
p163
I544
tp164
a(Vsymbiosis, encompassing mutualism through parasitism
p165
I535
tp166
a(VmRNA processing
p167
I516
tp168
a(Vphosphatase activity
p169
I498
tp170
a(Vcofactor metabolic process
p171
I497
tp172
a(Vtransferase activity, transferring glycosyl groups
p173
I457
tp174
a(Vcell cycle
p175
I437
tp176
a(Vgeneration of precursor metabolites and energy
p177
I434
tp178
a(Vcell division
p179
I398
tp180
a(Vaging
p181
I397
tp182
a(Vcell junction organization
p183
I394
tp184
a(Vreproduction
p185
I389
tp186
a(Vhelicase activity
p187
I373
tp188
a(Vnuclease activity
p189
I361
tp190
a(Vnucleocytoplasmic transport
p191
I358
tp192
a(Vlysosome
p193
I352
tp194
a(Vcirculatory system process
p195
I347
tp196
a(Vdevelopmental maturation
p197
I339
tp198
a(Vlyase activity
p199
I328
tp200
a(Vmethyltransferase activity
p201
I310
tp202
a(Vplastid
p203
I297
tp204
a(Vcytoskeleton-dependent intracellular transport
p205
I293
tp206
a(Vmitochondrion organization
p207
I286
tp208
a(Vchromosome
p209
I283
tp210
a(Vproteinaceous extracellular matrix
p211
I268
tp212
a(Vprotein folding
p213
I267
tp214
a(VGTPase activity
p215
I250
tp216
a(Vhistone binding
p217
I248
tp218
a(Vplasma membrane organization
p219
I242
tp220
a(Vnuclear envelope
p221
I241
tp222
a(Vribonucleoprotein complex assembly
p223
I241
tp224
a(Vnucleotidyltransferase activity
p225
I232
tp226
a(Vsecondary metabolic process
p227
I228
tp228
a(VmRNA binding
p229
I199
tp230
a(Vhydrolase activity, acting on carbon-nitrogen (but not peptide) bonds
p231
I198
tp232
a(Vmitosis
p233
I196
tp234
a(Vexternal encapsulating structure
p235
I195
tp236
a(Visomerase activity
p237
I191
tp238
a(Vhydrolase activity, acting on glycosyl bonds
p239
I189
tp240
a(Vcell wall
p241
I187
tp242
a(Vvacuolar transport
p243
I185
tp244
a(Vcell wall organization or biogenesis
p245
I169
tp246
a(Vchromosome segregation
p247
I167
tp248
a(Vprotein binding, bridging
p249
I164
tp250
a(Vstructural constituent of ribosome
p251
I162
tp252
a(Vsmall conjugating protein binding
p253
I156
tp254
a(VtRNA metabolic process
p255
I151
tp256
a(Vperoxisome
p257
I145
tp258
a(Vprotein transporter activity
p259
I119
tp260
a(Vunfolded protein binding
p261
I118
tp262
a(Vtranslation factor activity, nucleic acid binding
p263
I112
tp264
a(Vlipid particle
p265
I112
tp266
a(Vtranslation
p267
I112
tp268
a(Vnuclear chromosome
p269
I97
tp270
a(Vintracellular
p271
I83
tp272
a(Vribosome
p273
I80
tp274
a(Vpigmentation
p275
I77
tp276
a(Vtransferase activity, transferring alkyl or aryl (other than methyl) groups
p277
I73
tp278
a(Vribosome biogenesis
p279
I66
tp280
a(VrRNA binding
p281
I51
tp282
a(Vtransposition
p283
I28
tp284
a(Vthylakoid
p285
I27
tp286
a(Vnitrogen cycle metabolic process
p287
I26
tp288
a(Vcell
p289
I10
tp290
a(Vphotosynthesis
p291
I8
tp292
a(VRNA modification guide activity
p293
I2
tp294
aa(lp295
(g3
L6372L
tp296
a(g5
L4365L
tp297
a(g7
L2787L
tp298
a(g9
L21685L
tp299
a(g11
L26888L
tp300
a(g13
L5491L
tp301
a(g15
L5801L
tp302
a(g17
L18268L
tp303
a(g19
L5613L
tp304
a(g21
L21693L
tp305
a(g23
L21630L
tp306
a(g25
L22689L
tp307
a(g27
L7192L
tp308
a(g29
L5168L
tp309
a(g31
L7190L
tp310
a(g33
L1781L
tp311
a(g35
L13924L
tp312
a(g37
L13633L
tp313
a(g39
L5326L
tp314
a(g41
L4599L
tp315
a(g43
L12968L
tp316
a(g45
L20507L
tp317
a(g47
L13690L
tp318
a(g49
L26682L
tp319
a(g51
L10381L
tp320
a(g53
L4644L
tp321
a(g55
L4507L
tp322
a(g57
L4995L
tp323
a(g59
L4422L
tp324
a(g61
L21086L
tp325
a(g63
L2790L
tp326
a(g65
L28228L
tp327
a(g67
L4514L
tp328
a(g69
L29927L
tp329
a(g71
L26901L
tp330
a(g73
L31581L
tp331
a(g75
L10598L
tp332
a(g77
L6320L
tp333
a(g79
L27837L
tp334
a(g81
L4725L
tp335
a(g83
L28535L
tp336
a(g85
L18282L
tp337
a(g87
L20503L
tp338
a(g89
L7881L
tp339
a(g91
L5663L
tp340
a(g93
L5165L
tp341
a(g95
L3827L
tp342
a(g97
L10466L
tp343
a(g99
L10229L
tp344
a(g101
L4567L
tp345
a(g103
L6500L
tp346
a(g105
L4621L
tp347
a(g107
L4515L
tp348
a(g109
L2830L
tp349
a(g111
L5791L
tp350
a(g113
L5218L
tp351
a(g115
L6448L
tp352
a(g117
L4556L
tp353
a(g119
L10963L
tp354
a(g121
L30984L
tp355
a(g123
L5896L
tp356
a(g125
L4542L
tp357
a(g127
L6436L
tp358
a(g129
L6494L
tp359
a(g131
L14001L
tp360
a(g133
L10950L
tp361
a(g135
L4439L
tp362
a(g137
L594L
tp363
a(g139
L4586L
tp364
a(g141
L677L
tp365
a(g143
L6357L
tp366
a(g145
L4118L
tp367
a(g147
L4366L
tp368
a(g149
L759L
tp369
a(g151
L5471L
tp370
a(g153
L5302L
tp371
a(g155
L4405L
tp372
a(g157
L13967L
tp373
a(g159
L4546L
tp374
a(g161
L4684L
tp375
a(g163
L10829L
tp376
a(g165
L22810L
tp377
a(g167
L5112L
tp378
a(g169
L10870L
tp379
a(g171
L28144L
tp380
a(g173
L10840L
tp381
a(g175
L5695L
tp382
a(g177
L4838L
tp383
a(g179
L28251L
tp384
a(g181
L6169L
tp385
a(g183
L17965L
tp386
a(g185
L3L
tp387
a(g187
L3404L
tp388
a(g189
L3518L
tp389
a(g191
L5582L
tp390
a(g193
L4538L
tp391
a(g195
L2364L
tp392
a(g197
L13274L
tp393
a(g199
L10905L
tp394
a(g201
L6389L
tp395
a(g203
L7644L
tp396
a(g205
L14427L
tp397
a(g207
L5658L
tp398
a(g209
L4475L
tp399
a(g211
L4368L
tp400
a(g213
L5161L
tp401
a(g215
L2991L
tp402
a(g217
L20900L
tp403
a(g219
L5662L
tp404
a(g221
L4423L
tp405
a(g223
L13644L
tp406
a(g225
L10860L
tp407
a(g227
L12827L
tp408
a(g229
L2835L
tp409
a(g231
L10886L
tp410
a(g233
L5712L
tp411
a(g235
L14078L
tp412
a(g237
L10929L
tp413
a(g239
L10876L
tp414
a(g241
L4408L
tp415
a(g243
L5682L
tp416
a(g245
L33137L
tp417
a(g247
L5705L
tp418
a(g249
L14396L
tp419
a(g251
L2841L
tp420
a(g253
L15840L
tp421
a(g255
L5114L
tp422
a(g257
L4550L
tp423
a(g259
L6747L
tp424
a(g261
L28040L
tp425
a(g263
L6358L
tp426
a(g265
L4583L
tp427
a(g267
L5126L
tp428
a(g269
L201L
tp429
a(g271
L4411L
tp430
a(g273
L4609L
tp431
a(g275
L21900L
tp432
a(g277
L10848L
tp433
a(g279
L20770L
tp434
a(g281
L12918L
tp435
a(g283
L15852L
tp436
a(g285
L7683L
tp437
a(g287
L33512L
tp438
a(g289
L4412L
tp439
a(g291
L10192L
tp440
a(g293
L14288L
tp441
aaI558427
a.