(lp1
(lp2
(Vbiological_process
p3
I266484
tp4
a(Vcellular_component
p5
I88786
tp6
a(Vmolecular_function
p7
I71840
tp8
a(Vorganelle
p9
I23702
tp10
a(Vanatomical structure development
p11
I19249
tp12
a(Vtransport
p13
I15242
tp14
a(Vcellular nitrogen compound metabolic process
p15
I12575
tp16
a(Vsignal transduction
p17
I12566
tp18
a(Vresponse to stress
p19
I10638
tp20
a(Vprotein complex
p21
I9422
tp22
a(Vbiosynthetic process
p23
I9105
tp24
a(Vsmall molecule metabolic process
p25
I9074
tp26
a(Vion binding
p27
I8751
tp28
a(Vcatabolic process
p29
I6806
tp30
a(Vcellular protein modification process
p31
I6334
tp32
a(Vimmune system process
p33
I5671
tp34
a(Vcell differentiation
p35
I4358
tp36
a(Vcellular component assembly
p37
I4353
tp38
a(Vlipid metabolic process
p39
I4180
tp40
a(Vcytosol
p41
I4179
tp42
a(Venzyme binding
p43
I3661
tp44
a(Vplasma membrane
p45
I3426
tp46
a(Vlocomotion
p47
I3221
tp48
a(Vnucleolus
p49
I3097
tp50
a(Vtransmembrane transporter activity
p51
I3055
tp52
a(Vvesicle-mediated transport
p53
I3039
tp54
a(Vnucleus
p55
I2868
tp56
a(Vanatomical structure formation involved in morphogenesis
p57
I2751
tp58
a(Vhomeostatic process
p59
I2709
tp60
a(Voxidoreductase activity
p61
I2647
tp62
a(Vcarbohydrate metabolic process
p63
I2575
tp64
a(Vmacromolecular complex assembly
p65
I2544
tp66
a(VDNA metabolic process
p67
I2538
tp68
a(Vnucleobase-containing compound catabolic process
p69
I2468
tp70
a(VDNA binding
p71
I2418
tp72
a(Vsignal transducer activity
p73
I2403
tp74
a(Vtransmembrane transport
p75
I2302
tp76
a(Vembryo development
p77
I2275
tp78
a(Vcytoplasm
p79
I2275
tp80
a(Vneurological system process
p81
I2274
tp82
a(Vcell motility
p83
I2268
tp84
a(Vprotein maturation
p85
I2198
tp86
a(Vchromosome organization
p87
I2172
tp88
a(Vgrowth
p89
I2170
tp90
a(Vprotein complex assembly
p91
I2104
tp92
a(Vcytoskeletal protein binding
p93
I2062
tp94
a(VRNA binding
p95
I1880
tp96
a(Vkinase activity
p97
I1807
tp98
a(Vcytoskeleton organization
p99
I1791
tp100
a(VGolgi apparatus
p101
I1747
tp102
a(Vcytoplasmic membrane-bounded vesicle
p103
I1696
tp104
a(Vcellular amino acid metabolic process
p105
I1680
tp106
a(Vmitochondrion
p107
I1679
tp108
a(Vcell-cell signaling
p109
I1553
tp110
a(Vpeptidase activity
p111
I1439
tp112
a(Vendoplasmic reticulum
p113
I1431
tp114
a(Vlipid binding
p115
I1401
tp116
a(Vcell death
p117
I1398
tp118
a(Vcytoskeleton
p119
I1342
tp120
a(Vstructural molecule activity
p121
I1321
tp122
a(Vmembrane organization
p123
I1304
tp124
a(Vcell adhesion
p125
I1285
tp126
a(Vendosome
p127
I1257
tp128
a(Vprotein targeting
p129
I1232
tp130
a(VATPase activity
p131
I1216
tp132
a(Vcell proliferation
p133
I1202
tp134
a(Vligase activity
p135
I1191
tp136
a(Venzyme regulator activity
p137
I1175
tp138
a(Vextracellular region
p139
I1090
tp140
a(Vnucleoplasm
p141
I1073
tp142
a(Vsulfur compound metabolic process
p143
I1026
tp144
a(Vcell morphogenesis
p145
I1024
tp146
a(Vmicrotubule organizing center
p147
I975
tp148
a(Vtranscription factor binding
p149
I975
tp150
a(Vnucleic acid binding transcription factor activity
p151
I910
tp152
a(Vprotein binding transcription factor activity
p153
I900
tp154
a(Vgeneration of precursor metabolites and energy
p155
I877
tp156
a(Vextracellular space
p157
I874
tp158
a(Vcofactor metabolic process
p159
I849
tp160
a(Vvacuole
p161
I795
tp162
a(Vextracellular matrix organization
p163
I771
tp164
a(Vsymbiosis, encompassing mutualism through parasitism
p165
I753
tp166
a(Vplastid
p167
I735
tp168
a(VmRNA processing
p169
I677
tp170
a(Vtransferase activity, transferring acyl groups
p171
I673
tp172
a(Vcilium
p173
I620
tp174
a(Vreproduction
p175
I608
tp176
a(Vcirculatory system process
p177
I575
tp178
a(Vphosphatase activity
p179
I565
tp180
a(Vstructural constituent of ribosome
p181
I551
tp182
a(Vaging
p183
I529
tp184
a(Vcell cycle
p185
I510
tp186
a(Vnucleocytoplasmic transport
p187
I508
tp188
a(Vtransferase activity, transferring glycosyl groups
p189
I492
tp190
a(Vlyase activity
p191
I491
tp192
a(Vexternal encapsulating structure
p193
I489
tp194
a(Vcell wall
p195
I483
tp196
a(Vprotein folding
p197
I474
tp198
a(Vcell junction organization
p199
I450
tp200
a(Vmethyltransferase activity
p201
I444
tp202
a(Vcell division
p203
I437
tp204
a(Vlysosome
p205
I416
tp206
a(Vsecondary metabolic process
p207
I414
tp208
a(VGTPase activity
p209
I404
tp210
a(Vhelicase activity
p211
I394
tp212
a(Vdevelopmental maturation
p213
I391
tp214
a(Vnuclease activity
p215
I388
tp216
a(Vmitochondrion organization
p217
I376
tp218
a(Vribonucleoprotein complex assembly
p219
I354
tp220
a(Vcytoskeleton-dependent intracellular transport
p221
I339
tp222
a(Vnuclear envelope
p223
I331
tp224
a(Vchromosome
p225
I329
tp226
a(Visomerase activity
p227
I322
tp228
a(VmRNA binding
p229
I311
tp230
a(Vproteinaceous extracellular matrix
p231
I302
tp232
a(Vcell wall organization or biogenesis
p233
I301
tp234
a(Vhydrolase activity, acting on glycosyl bonds
p235
I278
tp236
a(Vhistone binding
p237
I276
tp238
a(Vnucleotidyltransferase activity
p239
I273
tp240
a(Vvacuolar transport
p241
I267
tp242
a(Vplasma membrane organization
p243
I253
tp244
a(Vmitosis
p245
I239
tp246
a(Vperoxisome
p247
I236
tp248
a(Vtranslation factor activity, nucleic acid binding
p249
I232
tp250
a(Vprotein binding, bridging
p251
I227
tp252
a(Vhydrolase activity, acting on carbon-nitrogen (but not peptide) bonds
p253
I213
tp254
a(VtRNA metabolic process
p255
I213
tp256
a(Vchromosome segregation
p257
I202
tp258
a(Vunfolded protein binding
p259
I194
tp260
a(Vribosome
p261
I187
tp262
a(Vtranslation
p263
I183
tp264
a(Vlipid particle
p265
I172
tp266
a(Vsmall conjugating protein binding
p267
I166
tp268
a(Vribosome biogenesis
p269
I150
tp270
a(Vprotein transporter activity
p271
I143
tp272
a(Vtransferase activity, transferring alkyl or aryl (other than methyl) groups
p273
I126
tp274
a(Vnuclear chromosome
p275
I120
tp276
a(Vintracellular
p277
I108
tp278
a(VrRNA binding
p279
I105
tp280
a(Vthylakoid
p281
I105
tp282
a(Vpigmentation
p283
I89
tp284
a(Vnitrogen cycle metabolic process
p285
I36
tp286
a(Vphotosynthesis
p287
I35
tp288
a(Vtransposition
p289
I19
tp290
a(Vcell
p291
I12
tp292
a(Vcytoplasmic chromosome
p293
I1
tp294
aa(lp295
(g3
L6372L
tp296
a(g5
L4365L
tp297
a(g7
L2787L
tp298
a(g9
L21685L
tp299
a(g11
L26888L
tp300
a(g13
L5491L
tp301
a(g15
L18268L
tp302
a(g17
L5801L
tp303
a(g19
L5613L
tp304
a(g21
L21693L
tp305
a(g23
L7192L
tp306
a(g25
L22689L
tp307
a(g27
L21630L
tp308
a(g29
L7190L
tp309
a(g31
L5168L
tp310
a(g33
L1781L
tp311
a(g35
L13924L
tp312
a(g37
L13633L
tp313
a(g39
L5326L
tp314
a(g41
L4599L
tp315
a(g43
L12968L
tp316
a(g45
L4644L
tp317
a(g47
L20507L
tp318
a(g49
L4507L
tp319
a(g51
L13690L
tp320
a(g53
L10381L
tp321
a(g55
L4422L
tp322
a(g57
L26682L
tp323
a(g59
L21086L
tp324
a(g61
L10598L
tp325
a(g63
L4725L
tp326
a(g65
L31581L
tp327
a(g67
L4995L
tp328
a(g69
L18282L
tp329
a(g71
L2790L
tp330
a(g73
L3827L
tp331
a(g75
L29927L
tp332
a(g77
L7881L
tp333
a(g79
L4514L
tp334
a(g81
L27837L
tp335
a(g83
L26901L
tp336
a(g85
L28535L
tp337
a(g87
L28228L
tp338
a(g89
L20503L
tp339
a(g91
L5165L
tp340
a(g93
L6320L
tp341
a(g95
L2830L
tp342
a(g97
L10466L
tp343
a(g99
L5663L
tp344
a(g101
L4567L
tp345
a(g103
L10229L
tp346
a(g105
L5218L
tp347
a(g107
L4515L
tp348
a(g109
L5896L
tp349
a(g111
L6448L
tp350
a(g113
L4556L
tp351
a(g115
L6500L
tp352
a(g117
L6436L
tp353
a(g119
L4621L
tp354
a(g121
L4118L
tp355
a(g123
L30984L
tp356
a(g125
L5791L
tp357
a(g127
L4542L
tp358
a(g129
L5302L
tp359
a(g131
L10963L
tp360
a(g133
L6494L
tp361
a(g135
L10950L
tp362
a(g137
L14001L
tp363
a(g139
L4366L
tp364
a(g141
L4439L
tp365
a(g143
L5471L
tp366
a(g145
L594L
tp367
a(g147
L4586L
tp368
a(g149
L6357L
tp369
a(g151
L759L
tp370
a(g153
L677L
tp371
a(g155
L4838L
tp372
a(g157
L4405L
tp373
a(g159
L28144L
tp374
a(g161
L4546L
tp375
a(g163
L13967L
tp376
a(g165
L22810L
tp377
a(g167
L7644L
tp378
a(g169
L5112L
tp379
a(g171
L10829L
tp380
a(g173
L4684L
tp381
a(g175
L3L
tp382
a(g177
L2364L
tp383
a(g179
L10870L
tp384
a(g181
L2841L
tp385
a(g183
L6169L
tp386
a(g185
L5695L
tp387
a(g187
L5582L
tp388
a(g189
L10840L
tp389
a(g191
L10905L
tp390
a(g193
L14078L
tp391
a(g195
L4408L
tp392
a(g197
L5161L
tp393
a(g199
L17965L
tp394
a(g201
L6389L
tp395
a(g203
L28251L
tp396
a(g205
L4538L
tp397
a(g207
L12827L
tp398
a(g209
L2991L
tp399
a(g211
L3404L
tp400
a(g213
L13274L
tp401
a(g215
L3518L
tp402
a(g217
L5658L
tp403
a(g219
L13644L
tp404
a(g221
L14427L
tp405
a(g223
L4423L
tp406
a(g225
L4475L
tp407
a(g227
L10929L
tp408
a(g229
L2835L
tp409
a(g231
L4368L
tp410
a(g233
L33137L
tp411
a(g235
L10876L
tp412
a(g237
L20900L
tp413
a(g239
L10860L
tp414
a(g241
L5682L
tp415
a(g243
L5662L
tp416
a(g245
L5712L
tp417
a(g247
L4550L
tp418
a(g249
L6358L
tp419
a(g251
L14396L
tp420
a(g253
L10886L
tp421
a(g255
L5114L
tp422
a(g257
L5705L
tp423
a(g259
L28040L
tp424
a(g261
L4609L
tp425
a(g263
L5126L
tp426
a(g265
L4583L
tp427
a(g267
L15840L
tp428
a(g269
L20770L
tp429
a(g271
L6747L
tp430
a(g273
L10848L
tp431
a(g275
L201L
tp432
a(g277
L4411L
tp433
a(g279
L12918L
tp434
a(g281
L7683L
tp435
a(g283
L21900L
tp436
a(g285
L33512L
tp437
a(g287
L10192L
tp438
a(g289
L15852L
tp439
a(g291
L4412L
tp440
a(g293
L202L
tp441
aaI726297
a.