(lp1
(lp2
(Vbiological_process
p3
I255554
tp4
a(Vcellular_component
p5
I83510
tp6
a(Vmolecular_function
p7
I68135
tp8
a(Vorganelle
p9
I22166
tp10
a(Vanatomical structure development
p11
I19658
tp12
a(Vtransport
p13
I13967
tp14
a(Vsignal transduction
p15
I11650
tp16
a(Vcellular nitrogen compound metabolic process
p17
I11530
tp18
a(Vresponse to stress
p19
I9854
tp20
a(Vprotein complex
p21
I8901
tp22
a(Vion binding
p23
I8356
tp24
a(Vsmall molecule metabolic process
p25
I7939
tp26
a(Vbiosynthetic process
p27
I7816
tp28
a(Vcellular protein modification process
p29
I6320
tp30
a(Vcatabolic process
p31
I5958
tp32
a(Vimmune system process
p33
I5310
tp34
a(Vcell differentiation
p35
I4634
tp36
a(Vcellular component assembly
p37
I3842
tp38
a(Vcytosol
p39
I3828
tp40
a(Vlipid metabolic process
p41
I3705
tp42
a(Venzyme binding
p43
I3580
tp44
a(Vlocomotion
p45
I3062
tp46
a(Vplasma membrane
p47
I3050
tp48
a(Vanatomical structure formation involved in morphogenesis
p49
I3036
tp50
a(Vtransmembrane transporter activity
p51
I2955
tp52
a(VDNA metabolic process
p53
I2905
tp54
a(Vvesicle-mediated transport
p55
I2804
tp56
a(Vnucleolus
p57
I2757
tp58
a(Vnucleus
p59
I2717
tp60
a(Vhomeostatic process
p61
I2400
tp62
a(Vcarbohydrate metabolic process
p63
I2364
tp64
a(Voxidoreductase activity
p65
I2351
tp66
a(VDNA binding
p67
I2239
tp68
a(Vtransmembrane transport
p69
I2188
tp70
a(Vchromosome organization
p71
I2177
tp72
a(Vcytoplasm
p73
I2171
tp74
a(Vmacromolecular complex assembly
p75
I2170
tp76
a(Vcell motility
p77
I2140
tp78
a(Vgrowth
p79
I2090
tp80
a(Vembryo development
p81
I2083
tp82
a(Vnucleobase-containing compound catabolic process
p83
I2081
tp84
a(Vprotein maturation
p85
I2016
tp86
a(Vsignal transducer activity
p87
I2013
tp88
a(Vneurological system process
p89
I1971
tp90
a(Vcytoskeletal protein binding
p91
I1837
tp92
a(Vkinase activity
p93
I1820
tp94
a(Vprotein complex assembly
p95
I1775
tp96
a(Vcytoskeleton organization
p97
I1699
tp98
a(VRNA binding
p99
I1691
tp100
a(VGolgi apparatus
p101
I1545
tp102
a(Vcytoplasmic membrane-bounded vesicle
p103
I1509
tp104
a(Vmitochondrion
p105
I1473
tp106
a(Vlipid binding
p107
I1472
tp108
a(Vcellular amino acid metabolic process
p109
I1440
tp110
a(Vcell adhesion
p111
I1380
tp112
a(Vpeptidase activity
p113
I1311
tp114
a(Vcytoskeleton
p115
I1310
tp116
a(Vendoplasmic reticulum
p117
I1276
tp118
a(Vcell death
p119
I1250
tp120
a(Vcell-cell signaling
p121
I1231
tp122
a(Vcell proliferation
p123
I1230
tp124
a(Vmembrane organization
p125
I1159
tp126
a(Vligase activity
p127
I1150
tp128
a(Vendosome
p129
I1145
tp130
a(Venzyme regulator activity
p131
I1122
tp132
a(VATPase activity
p133
I1115
tp134
a(Vcell morphogenesis
p135
I1059
tp136
a(Vnucleoplasm
p137
I1055
tp138
a(Vmicrotubule organizing center
p139
I1054
tp140
a(Vextracellular region
p141
I957
tp142
a(Vtranscription factor binding
p143
I943
tp144
a(Vstructural molecule activity
p145
I937
tp146
a(Vprotein targeting
p147
I873
tp148
a(Vsulfur compound metabolic process
p149
I870
tp150
a(Vprotein binding transcription factor activity
p151
I851
tp152
a(Vnucleic acid binding transcription factor activity
p153
I801
tp154
a(Vextracellular space
p155
I751
tp156
a(Vextracellular matrix organization
p157
I727
tp158
a(Vcofactor metabolic process
p159
I718
tp160
a(Vvacuole
p161
I695
tp162
a(Vcilium
p163
I687
tp164
a(Vgeneration of precursor metabolites and energy
p165
I666
tp166
a(Vtransferase activity, transferring acyl groups
p167
I636
tp168
a(VmRNA processing
p169
I632
tp170
a(Vsymbiosis, encompassing mutualism through parasitism
p171
I612
tp172
a(Vplastid
p173
I552
tp174
a(Vphosphatase activity
p175
I548
tp176
a(Vcell cycle
p177
I534
tp178
a(Vreproduction
p179
I531
tp180
a(Vaging
p181
I504
tp182
a(Vtransferase activity, transferring glycosyl groups
p183
I491
tp184
a(Vhelicase activity
p185
I486
tp186
a(Vcell division
p187
I472
tp188
a(Vlyase activity
p189
I466
tp190
a(Vnuclease activity
p191
I442
tp192
a(Vnucleocytoplasmic transport
p193
I425
tp194
a(Vcirculatory system process
p195
I417
tp196
a(Vdevelopmental maturation
p197
I383
tp198
a(Vcell junction organization
p199
I383
tp200
a(Vlysosome
p201
I382
tp202
a(Vexternal encapsulating structure
p203
I375
tp204
a(Vcell wall
p205
I367
tp206
a(Vprotein folding
p207
I362
tp208
a(Vmethyltransferase activity
p209
I356
tp210
a(Vcytoskeleton-dependent intracellular transport
p211
I340
tp212
a(Vsecondary metabolic process
p213
I339
tp214
a(Vproteinaceous extracellular matrix
p215
I332
tp216
a(Vchromosome
p217
I329
tp218
a(VGTPase activity
p219
I318
tp220
a(Vribonucleoprotein complex assembly
p221
I316
tp222
a(Vmitochondrion organization
p223
I316
tp224
a(Vnuclear envelope
p225
I298
tp226
a(Vstructural constituent of ribosome
p227
I288
tp228
a(Vhydrolase activity, acting on glycosyl bonds
p229
I273
tp230
a(Visomerase activity
p231
I266
tp232
a(Vcell wall organization or biogenesis
p233
I260
tp234
a(VmRNA binding
p235
I256
tp236
a(Vplasma membrane organization
p237
I251
tp238
a(Vnucleotidyltransferase activity
p239
I250
tp240
a(Vhistone binding
p241
I248
tp242
a(Vmitosis
p243
I230
tp244
a(Vhydrolase activity, acting on carbon-nitrogen (but not peptide) bonds
p245
I221
tp246
a(VtRNA metabolic process
p247
I215
tp248
a(Vchromosome segregation
p249
I211
tp250
a(Vperoxisome
p251
I206
tp252
a(Vvacuolar transport
p253
I202
tp254
a(Vprotein binding, bridging
p255
I196
tp256
a(Vsmall conjugating protein binding
p257
I192
tp258
a(Vtranslation factor activity, nucleic acid binding
p259
I187
tp260
a(Vunfolded protein binding
p261
I162
tp262
a(Vlipid particle
p263
I154
tp264
a(Vprotein transporter activity
p265
I147
tp266
a(Vribosome
p267
I146
tp268
a(Vtranslation
p269
I139
tp270
a(Vnuclear chromosome
p271
I115
tp272
a(Vribosome biogenesis
p273
I104
tp274
a(Vtransferase activity, transferring alkyl or aryl (other than methyl) groups
p275
I103
tp276
a(Vintracellular
p277
I97
tp278
a(Vpigmentation
p279
I86
tp280
a(Vthylakoid
p281
I76
tp282
a(VrRNA binding
p283
I74
tp284
a(Vnitrogen cycle metabolic process
p285
I29
tp286
a(Vtransposition
p287
I29
tp288
a(Vphotosynthesis
p289
I26
tp290
a(Vcell
p291
I11
tp292
a(VRNA modification guide activity
p293
I2
tp294
aa(lp295
(g3
L6372L
tp296
a(g5
L4365L
tp297
a(g7
L2787L
tp298
a(g9
L21685L
tp299
a(g11
L26888L
tp300
a(g13
L5491L
tp301
a(g15
L5801L
tp302
a(g17
L18268L
tp303
a(g19
L5613L
tp304
a(g21
L21693L
tp305
a(g23
L21630L
tp306
a(g25
L22689L
tp307
a(g27
L7192L
tp308
a(g29
L5168L
tp309
a(g31
L7190L
tp310
a(g33
L1781L
tp311
a(g35
L13924L
tp312
a(g37
L13633L
tp313
a(g39
L4599L
tp314
a(g41
L5326L
tp315
a(g43
L12968L
tp316
a(g45
L20507L
tp317
a(g47
L4644L
tp318
a(g49
L26682L
tp319
a(g51
L13690L
tp320
a(g53
L4995L
tp321
a(g55
L10381L
tp322
a(g57
L4507L
tp323
a(g59
L4422L
tp324
a(g61
L21086L
tp325
a(g63
L4725L
tp326
a(g65
L10598L
tp327
a(g67
L2790L
tp328
a(g69
L29927L
tp329
a(g71
L28228L
tp330
a(g73
L4514L
tp331
a(g75
L31581L
tp332
a(g77
L26901L
tp333
a(g79
L20503L
tp334
a(g81
L7881L
tp335
a(g83
L18282L
tp336
a(g85
L28535L
tp337
a(g87
L3827L
tp338
a(g89
L27837L
tp339
a(g91
L6320L
tp340
a(g93
L10466L
tp341
a(g95
L5165L
tp342
a(g97
L5663L
tp343
a(g99
L2830L
tp344
a(g101
L4567L
tp345
a(g103
L10229L
tp346
a(g105
L4515L
tp347
a(g107
L6500L
tp348
a(g109
L5218L
tp349
a(g111
L5791L
tp350
a(g113
L6448L
tp351
a(g115
L4621L
tp352
a(g117
L4556L
tp353
a(g119
L6436L
tp354
a(g121
L5896L
tp355
a(g123
L6494L
tp356
a(g125
L30984L
tp357
a(g127
L10950L
tp358
a(g129
L4542L
tp359
a(g131
L14001L
tp360
a(g133
L10963L
tp361
a(g135
L594L
tp362
a(g137
L4439L
tp363
a(g139
L4586L
tp364
a(g141
L4366L
tp365
a(g143
L6357L
tp366
a(g145
L4118L
tp367
a(g147
L5302L
tp368
a(g149
L5471L
tp369
a(g151
L677L
tp370
a(g153
L759L
tp371
a(g155
L4405L
tp372
a(g157
L13967L
tp373
a(g159
L28144L
tp374
a(g161
L4546L
tp375
a(g163
L4684L
tp376
a(g165
L4838L
tp377
a(g167
L10829L
tp378
a(g169
L5112L
tp379
a(g171
L22810L
tp380
a(g173
L7644L
tp381
a(g175
L10870L
tp382
a(g177
L5695L
tp383
a(g179
L3L
tp384
a(g181
L6169L
tp385
a(g183
L10840L
tp386
a(g185
L3404L
tp387
a(g187
L28251L
tp388
a(g189
L10905L
tp389
a(g191
L3518L
tp390
a(g193
L5582L
tp391
a(g195
L2364L
tp392
a(g197
L13274L
tp393
a(g199
L17965L
tp394
a(g201
L4538L
tp395
a(g203
L14078L
tp396
a(g205
L4408L
tp397
a(g207
L5161L
tp398
a(g209
L6389L
tp399
a(g211
L14427L
tp400
a(g213
L12827L
tp401
a(g215
L4368L
tp402
a(g217
L4475L
tp403
a(g219
L2991L
tp404
a(g221
L13644L
tp405
a(g223
L5658L
tp406
a(g225
L4423L
tp407
a(g227
L2841L
tp408
a(g229
L10876L
tp409
a(g231
L10929L
tp410
a(g233
L33137L
tp411
a(g235
L2835L
tp412
a(g237
L5662L
tp413
a(g239
L10860L
tp414
a(g241
L20900L
tp415
a(g243
L5712L
tp416
a(g245
L10886L
tp417
a(g247
L5114L
tp418
a(g249
L5705L
tp419
a(g251
L4550L
tp420
a(g253
L5682L
tp421
a(g255
L14396L
tp422
a(g257
L15840L
tp423
a(g259
L6358L
tp424
a(g261
L28040L
tp425
a(g263
L4583L
tp426
a(g265
L6747L
tp427
a(g267
L4609L
tp428
a(g269
L5126L
tp429
a(g271
L201L
tp430
a(g273
L20770L
tp431
a(g275
L10848L
tp432
a(g277
L4411L
tp433
a(g279
L21900L
tp434
a(g281
L7683L
tp435
a(g283
L12918L
tp436
a(g285
L33512L
tp437
a(g287
L15852L
tp438
a(g289
L10192L
tp439
a(g291
L4412L
tp440
a(g293
L14288L
tp441
aaI684933
a.