(lp1
(lp2
(Vbiological_process
p3
I135029
tp4
a(Vcellular_component
p5
I45719
tp6
a(Vmolecular_function
p7
I37899
tp8
a(Vorganelle
p9
I11916
tp10
a(Vanatomical structure development
p11
I9876
tp12
a(Vtransport
p13
I7711
tp14
a(Vsignal transduction
p15
I6682
tp16
a(Vcellular nitrogen compound metabolic process
p17
I5893
tp18
a(Vprotein complex
p19
I5371
tp20
a(Vresponse to stress
p21
I5267
tp22
a(Vion binding
p23
I4773
tp24
a(Vsmall molecule metabolic process
p25
I4557
tp26
a(Vbiosynthetic process
p27
I3931
tp28
a(Vcellular protein modification process
p29
I3430
tp30
a(Vcatabolic process
p31
I3244
tp32
a(Vimmune system process
p33
I3119
tp34
a(Vcellular component assembly
p35
I2404
tp36
a(Vcytosol
p37
I2384
tp38
a(Vcell differentiation
p39
I2329
tp40
a(Venzyme binding
p41
I2170
tp42
a(Vlipid metabolic process
p43
I2058
tp44
a(Vlocomotion
p45
I1788
tp46
a(Vvesicle-mediated transport
p47
I1693
tp48
a(Vplasma membrane
p49
I1686
tp50
a(Vnucleolus
p51
I1617
tp52
a(Vanatomical structure formation involved in morphogenesis
p53
I1597
tp54
a(Vnucleus
p55
I1511
tp56
a(Vtransmembrane transporter activity
p57
I1425
tp58
a(Vhomeostatic process
p59
I1411
tp60
a(Vmacromolecular complex assembly
p61
I1393
tp62
a(Vcarbohydrate metabolic process
p63
I1368
tp64
a(VDNA binding
p65
I1346
tp66
a(Vcell motility
p67
I1335
tp68
a(VDNA metabolic process
p69
I1319
tp70
a(Voxidoreductase activity
p71
I1234
tp72
a(Vchromosome organization
p73
I1222
tp74
a(Vneurological system process
p75
I1190
tp76
a(Vtransmembrane transport
p77
I1157
tp78
a(Vembryo development
p79
I1150
tp80
a(Vcytoskeletal protein binding
p81
I1145
tp82
a(Vprotein maturation
p83
I1141
tp84
a(Vcytoplasm
p85
I1127
tp86
a(Vnucleobase-containing compound catabolic process
p87
I1109
tp88
a(Vcytoskeleton organization
p89
I1103
tp90
a(Vprotein complex assembly
p91
I1100
tp92
a(Vgrowth
p93
I1099
tp94
a(Vsignal transducer activity
p95
I1031
tp96
a(Vkinase activity
p97
I975
tp98
a(VRNA binding
p99
I926
tp100
a(Vcytoplasmic membrane-bounded vesicle
p101
I915
tp102
a(Vcellular amino acid metabolic process
p103
I904
tp104
a(Vmitochondrion
p105
I846
tp106
a(VGolgi apparatus
p107
I843
tp108
a(Vlipid binding
p109
I792
tp110
a(Vmembrane organization
p111
I774
tp112
a(Venzyme regulator activity
p113
I746
tp114
a(Vcell adhesion
p115
I744
tp116
a(Vcytoskeleton
p117
I740
tp118
a(Vpeptidase activity
p119
I716
tp120
a(Vendoplasmic reticulum
p121
I697
tp122
a(VATPase activity
p123
I680
tp124
a(Vcell death
p125
I674
tp126
a(Vendosome
p127
I666
tp128
a(Vcell-cell signaling
p129
I660
tp130
a(Vcell proliferation
p131
I652
tp132
a(Vstructural molecule activity
p133
I651
tp134
a(Vligase activity
p135
I629
tp136
a(Vtranscription factor binding
p137
I587
tp138
a(Vnucleoplasm
p139
I578
tp140
a(Vmicrotubule organizing center
p141
I572
tp142
a(Vprotein binding transcription factor activity
p143
I569
tp144
a(Vcell morphogenesis
p145
I562
tp146
a(Vsulfur compound metabolic process
p147
I502
tp148
a(Vextracellular region
p149
I474
tp150
a(Vnucleic acid binding transcription factor activity
p151
I469
tp152
a(Vprotein targeting
p153
I468
tp154
a(Vextracellular matrix organization
p155
I447
tp156
a(Vextracellular space
p157
I435
tp158
a(Vgeneration of precursor metabolites and energy
p159
I416
tp160
a(Vsymbiosis, encompassing mutualism through parasitism
p161
I401
tp162
a(Vvacuole
p163
I400
tp164
a(Vcofactor metabolic process
p165
I391
tp166
a(VmRNA processing
p167
I384
tp168
a(Vcilium
p169
I351
tp170
a(Vtransferase activity, transferring acyl groups
p171
I350
tp172
a(Vphosphatase activity
p173
I303
tp174
a(Vnucleocytoplasmic transport
p175
I288
tp176
a(Vaging
p177
I284
tp178
a(Vreproduction
p179
I282
tp180
a(Vcell junction organization
p181
I272
tp182
a(Vtransferase activity, transferring glycosyl groups
p183
I270
tp184
a(Vlyase activity
p185
I264
tp186
a(Vplastid
p187
I256
tp188
a(Vcell cycle
p189
I237
tp190
a(Vlysosome
p191
I236
tp192
a(Vprotein folding
p193
I233
tp194
a(Vmitochondrion organization
p195
I233
tp196
a(Vribonucleoprotein complex assembly
p197
I232
tp198
a(Vdevelopmental maturation
p199
I231
tp200
a(Vhelicase activity
p201
I230
tp202
a(Vcytoskeleton-dependent intracellular transport
p203
I222
tp204
a(Vcirculatory system process
p205
I221
tp206
a(Vcell division
p207
I220
tp208
a(Vmethyltransferase activity
p209
I193
tp210
a(VGTPase activity
p211
I189
tp212
a(Vnuclease activity
p213
I186
tp214
a(Vsecondary metabolic process
p215
I171
tp216
a(Vnuclear envelope
p217
I169
tp218
a(Vproteinaceous extracellular matrix
p219
I167
tp220
a(VmRNA binding
p221
I165
tp222
a(Vhistone binding
p223
I164
tp224
a(Vexternal encapsulating structure
p225
I160
tp226
a(Vcell wall
p227
I156
tp228
a(Visomerase activity
p229
I151
tp230
a(Vchromosome
p231
I149
tp232
a(Vplasma membrane organization
p233
I148
tp234
a(Vstructural constituent of ribosome
p235
I147
tp236
a(Vhydrolase activity, acting on glycosyl bonds
p237
I144
tp238
a(Vcell wall organization or biogenesis
p239
I130
tp240
a(Vhydrolase activity, acting on carbon-nitrogen (but not peptide) bonds
p241
I128
tp242
a(VtRNA metabolic process
p243
I126
tp244
a(Vvacuolar transport
p245
I126
tp246
a(Vnucleotidyltransferase activity
p247
I126
tp248
a(Vsmall conjugating protein binding
p249
I121
tp250
a(Vprotein binding, bridging
p251
I119
tp252
a(Vperoxisome
p253
I112
tp254
a(Vunfolded protein binding
p255
I111
tp256
a(Vmitosis
p257
I106
tp258
a(Vchromosome segregation
p259
I104
tp260
a(Vtranslation factor activity, nucleic acid binding
p261
I101
tp262
a(Vlipid particle
p263
I89
tp264
a(Vprotein transporter activity
p265
I88
tp266
a(Vtranslation
p267
I82
tp268
a(Vribosome
p269
I65
tp270
a(Vintracellular
p271
I56
tp272
a(Vnuclear chromosome
p273
I54
tp274
a(Vtransferase activity, transferring alkyl or aryl (other than methyl) groups
p275
I46
tp276
a(Vribosome biogenesis
p277
I43
tp278
a(Vpigmentation
p279
I43
tp280
a(VrRNA binding
p281
I37
tp282
a(Vnitrogen cycle metabolic process
p283
I24
tp284
a(Vthylakoid
p285
I18
tp286
a(Vcell
p287
I8
tp288
a(Vphotosynthesis
p289
I6
tp290
a(Vtransposition
p291
I1
tp292
aa(lp293
(g3
L6372L
tp294
a(g5
L4365L
tp295
a(g7
L2787L
tp296
a(g9
L21685L
tp297
a(g11
L26888L
tp298
a(g13
L5491L
tp299
a(g15
L5801L
tp300
a(g17
L18268L
tp301
a(g19
L21693L
tp302
a(g21
L5613L
tp303
a(g23
L21630L
tp304
a(g25
L22689L
tp305
a(g27
L7192L
tp306
a(g29
L5168L
tp307
a(g31
L7190L
tp308
a(g33
L1781L
tp309
a(g35
L13633L
tp310
a(g37
L4599L
tp311
a(g39
L13924L
tp312
a(g41
L12968L
tp313
a(g43
L5326L
tp314
a(g45
L20507L
tp315
a(g47
L10381L
tp316
a(g49
L4644L
tp317
a(g51
L4507L
tp318
a(g53
L26682L
tp319
a(g55
L4422L
tp320
a(g57
L13690L
tp321
a(g59
L21086L
tp322
a(g61
L31581L
tp323
a(g63
L4725L
tp324
a(g65
L2790L
tp325
a(g67
L26901L
tp326
a(g69
L4995L
tp327
a(g71
L10598L
tp328
a(g73
L28228L
tp329
a(g75
L27837L
tp330
a(g77
L29927L
tp331
a(g79
L7881L
tp332
a(g81
L6320L
tp333
a(g83
L28535L
tp334
a(g85
L4514L
tp335
a(g87
L18282L
tp336
a(g89
L5663L
tp337
a(g91
L5165L
tp338
a(g93
L20503L
tp339
a(g95
L3827L
tp340
a(g97
L10466L
tp341
a(g99
L2830L
tp342
a(g101
L10229L
tp343
a(g103
L5218L
tp344
a(g105
L4515L
tp345
a(g107
L4567L
tp346
a(g109
L6500L
tp347
a(g111
L30984L
tp348
a(g113
L14001L
tp349
a(g115
L5791L
tp350
a(g117
L4621L
tp351
a(g119
L6448L
tp352
a(g121
L4556L
tp353
a(g123
L10963L
tp354
a(g125
L6436L
tp355
a(g127
L4542L
tp356
a(g129
L5896L
tp357
a(g131
L6494L
tp358
a(g133
L4118L
tp359
a(g135
L10950L
tp360
a(g137
L6357L
tp361
a(g139
L4439L
tp362
a(g141
L4586L
tp363
a(g143
L677L
tp364
a(g145
L594L
tp365
a(g147
L5471L
tp366
a(g149
L4366L
tp367
a(g151
L759L
tp368
a(g153
L5302L
tp369
a(g155
L13967L
tp370
a(g157
L4405L
tp371
a(g159
L4838L
tp372
a(g161
L22810L
tp373
a(g163
L4546L
tp374
a(g165
L28144L
tp375
a(g167
L5112L
tp376
a(g169
L4684L
tp377
a(g171
L10829L
tp378
a(g173
L10870L
tp379
a(g175
L5582L
tp380
a(g177
L6169L
tp381
a(g179
L3L
tp382
a(g181
L17965L
tp383
a(g183
L10840L
tp384
a(g185
L10905L
tp385
a(g187
L7644L
tp386
a(g189
L5695L
tp387
a(g191
L4538L
tp388
a(g193
L5161L
tp389
a(g195
L5658L
tp390
a(g197
L13644L
tp391
a(g199
L13274L
tp392
a(g201
L3404L
tp393
a(g203
L14427L
tp394
a(g205
L2364L
tp395
a(g207
L28251L
tp396
a(g209
L6389L
tp397
a(g211
L2991L
tp398
a(g213
L3518L
tp399
a(g215
L12827L
tp400
a(g217
L4423L
tp401
a(g219
L4368L
tp402
a(g221
L2835L
tp403
a(g223
L20900L
tp404
a(g225
L14078L
tp405
a(g227
L4408L
tp406
a(g229
L10929L
tp407
a(g231
L4475L
tp408
a(g233
L5662L
tp409
a(g235
L2841L
tp410
a(g237
L10876L
tp411
a(g239
L33137L
tp412
a(g241
L10886L
tp413
a(g243
L5114L
tp414
a(g245
L5682L
tp415
a(g247
L10860L
tp416
a(g249
L15840L
tp417
a(g251
L14396L
tp418
a(g253
L4550L
tp419
a(g255
L28040L
tp420
a(g257
L5712L
tp421
a(g259
L5705L
tp422
a(g261
L6358L
tp423
a(g263
L4583L
tp424
a(g265
L6747L
tp425
a(g267
L5126L
tp426
a(g269
L4609L
tp427
a(g271
L4411L
tp428
a(g273
L201L
tp429
a(g275
L10848L
tp430
a(g277
L20770L
tp431
a(g279
L21900L
tp432
a(g281
L12918L
tp433
a(g283
L33512L
tp434
a(g285
L7683L
tp435
a(g287
L4412L
tp436
a(g289
L10192L
tp437
a(g291
L15852L
tp438
aaI372688
a.