(lp1
(lp2
(Vbiological_process
p3
I185576
tp4
a(Vcellular_component
p5
I63390
tp6
a(Vmolecular_function
p7
I52053
tp8
a(Vorganelle
p9
I17002
tp10
a(Vanatomical structure development
p11
I13575
tp12
a(Vtransport
p13
I10304
tp14
a(Vsignal transduction
p15
I8841
tp16
a(Vcellular nitrogen compound metabolic process
p17
I8422
tp18
a(Vprotein complex
p19
I7341
tp20
a(Vresponse to stress
p21
I7170
tp22
a(Vion binding
p23
I6624
tp24
a(Vsmall molecule metabolic process
p25
I6103
tp26
a(Vbiosynthetic process
p27
I5561
tp28
a(Vcellular protein modification process
p29
I4735
tp30
a(Vcatabolic process
p31
I4428
tp32
a(Vimmune system process
p33
I3985
tp34
a(Vcell differentiation
p35
I3287
tp36
a(Vcellular component assembly
p37
I3269
tp38
a(Vcytosol
p39
I3224
tp40
a(Venzyme binding
p41
I2875
tp42
a(Vlipid metabolic process
p43
I2873
tp44
a(Vlocomotion
p45
I2380
tp46
a(Vnucleolus
p47
I2366
tp48
a(Vvesicle-mediated transport
p49
I2347
tp50
a(Vplasma membrane
p51
I2279
tp52
a(Vanatomical structure formation involved in morphogenesis
p53
I2123
tp54
a(Vnucleus
p55
I2073
tp56
a(Vhomeostatic process
p57
I1912
tp58
a(Vtransmembrane transporter activity
p59
I1896
tp60
a(VDNA metabolic process
p61
I1895
tp62
a(VDNA binding
p63
I1819
tp64
a(Vchromosome organization
p65
I1789
tp66
a(Voxidoreductase activity
p67
I1782
tp68
a(Vmacromolecular complex assembly
p69
I1773
tp70
a(Vcell motility
p71
I1725
tp72
a(Vcytoskeletal protein binding
p73
I1665
tp74
a(Vcytoplasm
p75
I1656
tp76
a(Vneurological system process
p77
I1650
tp78
a(Vcarbohydrate metabolic process
p79
I1622
tp80
a(Vembryo development
p81
I1564
tp82
a(Vnucleobase-containing compound catabolic process
p83
I1561
tp84
a(Vcytoskeleton organization
p85
I1506
tp86
a(Vprotein maturation
p87
I1502
tp88
a(Vtransmembrane transport
p89
I1472
tp90
a(Vsignal transducer activity
p91
I1458
tp92
a(Vgrowth
p93
I1455
tp94
a(Vprotein complex assembly
p95
I1420
tp96
a(Vkinase activity
p97
I1366
tp98
a(VRNA binding
p99
I1317
tp100
a(Vlipid binding
p101
I1254
tp102
a(Vcytoplasmic membrane-bounded vesicle
p103
I1242
tp104
a(VGolgi apparatus
p105
I1204
tp106
a(Vmitochondrion
p107
I1178
tp108
a(Vcellular amino acid metabolic process
p109
I1155
tp110
a(Vcytoskeleton
p111
I1089
tp112
a(Vendoplasmic reticulum
p113
I999
tp114
a(Vcell adhesion
p115
I989
tp116
a(Vmembrane organization
p117
I985
tp118
a(Venzyme regulator activity
p119
I982
tp120
a(Vcell death
p121
I976
tp122
a(Vendosome
p123
I962
tp124
a(Vpeptidase activity
p125
I957
tp126
a(Vcell-cell signaling
p127
I941
tp128
a(Vcell proliferation
p129
I885
tp130
a(Vmicrotubule organizing center
p131
I849
tp132
a(Vligase activity
p133
I846
tp134
a(VATPase activity
p135
I843
tp136
a(Vnucleoplasm
p137
I841
tp138
a(Vstructural molecule activity
p139
I833
tp140
a(Vtranscription factor binding
p141
I781
tp142
a(Vprotein binding transcription factor activity
p143
I774
tp144
a(Vnucleic acid binding transcription factor activity
p145
I729
tp146
a(Vcell morphogenesis
p147
I713
tp148
a(Vprotein targeting
p149
I706
tp150
a(Vsulfur compound metabolic process
p151
I656
tp152
a(Vextracellular region
p153
I628
tp154
a(Vextracellular space
p155
I570
tp156
a(Vextracellular matrix organization
p157
I567
tp158
a(Vvacuole
p159
I548
tp160
a(VmRNA processing
p161
I539
tp162
a(Vgeneration of precursor metabolites and energy
p163
I532
tp164
a(Vcofactor metabolic process
p165
I530
tp166
a(Vsymbiosis, encompassing mutualism through parasitism
p167
I522
tp168
a(Vtransferase activity, transferring acyl groups
p169
I515
tp170
a(Vcilium
p171
I476
tp172
a(Vphosphatase activity
p173
I427
tp174
a(Vreproduction
p175
I400
tp176
a(Vaging
p177
I397
tp178
a(Vcell cycle
p179
I388
tp180
a(Vnucleocytoplasmic transport
p181
I382
tp182
a(Vcell junction organization
p183
I380
tp184
a(Vplastid
p185
I356
tp186
a(Vtransferase activity, transferring glycosyl groups
p187
I356
tp188
a(Vcell division
p189
I354
tp190
a(Vcirculatory system process
p191
I350
tp192
a(Vlysosome
p193
I323
tp194
a(Vlyase activity
p195
I317
tp196
a(Vdevelopmental maturation
p197
I311
tp198
a(Vcytoskeleton-dependent intracellular transport
p199
I302
tp200
a(Vmitochondrion organization
p201
I295
tp202
a(Vnuclease activity
p203
I293
tp204
a(Vhelicase activity
p205
I292
tp206
a(Vmethyltransferase activity
p207
I285
tp208
a(Vprotein folding
p209
I282
tp210
a(Vribonucleoprotein complex assembly
p211
I279
tp212
a(VGTPase activity
p213
I253
tp214
a(Vexternal encapsulating structure
p215
I244
tp216
a(Vhistone binding
p217
I243
tp218
a(Vnuclear envelope
p219
I242
tp220
a(Vchromosome
p221
I241
tp222
a(Vcell wall
p223
I239
tp224
a(Vstructural constituent of ribosome
p225
I239
tp226
a(Vsecondary metabolic process
p227
I233
tp228
a(VmRNA binding
p229
I225
tp230
a(Vproteinaceous extracellular matrix
p231
I218
tp232
a(Visomerase activity
p233
I211
tp234
a(Vvacuolar transport
p235
I192
tp236
a(Vmitosis
p237
I186
tp238
a(Vcell wall organization or biogenesis
p239
I186
tp240
a(Vplasma membrane organization
p241
I186
tp242
a(Vhydrolase activity, acting on carbon-nitrogen (but not peptide) bonds
p243
I176
tp244
a(VtRNA metabolic process
p245
I172
tp246
a(Vnucleotidyltransferase activity
p247
I172
tp248
a(Vprotein binding, bridging
p249
I161
tp250
a(Vperoxisome
p251
I160
tp252
a(Vhydrolase activity, acting on glycosyl bonds
p253
I159
tp254
a(Vtranslation factor activity, nucleic acid binding
p255
I151
tp256
a(Vchromosome segregation
p257
I150
tp258
a(Vsmall conjugating protein binding
p259
I145
tp260
a(Vunfolded protein binding
p261
I129
tp262
a(Vprotein transporter activity
p263
I119
tp264
a(Vlipid particle
p265
I118
tp266
a(Vtranslation
p267
I117
tp268
a(Vribosome
p269
I101
tp270
a(Vnuclear chromosome
p271
I82
tp272
a(Vribosome biogenesis
p273
I80
tp274
a(Vtransferase activity, transferring alkyl or aryl (other than methyl) groups
p275
I77
tp276
a(Vintracellular
p277
I67
tp278
a(VrRNA binding
p279
I62
tp280
a(Vpigmentation
p281
I60
tp282
a(Vthylakoid
p283
I27
tp284
a(Vnitrogen cycle metabolic process
p285
I21
tp286
a(Vtransposition
p287
I8
tp288
a(Vphotosynthesis
p289
I7
tp290
a(Vcell
p291
I6
tp292
aa(lp293
(g3
L6372L
tp294
a(g5
L4365L
tp295
a(g7
L2787L
tp296
a(g9
L21685L
tp297
a(g11
L26888L
tp298
a(g13
L5491L
tp299
a(g15
L5801L
tp300
a(g17
L18268L
tp301
a(g19
L21693L
tp302
a(g21
L5613L
tp303
a(g23
L21630L
tp304
a(g25
L22689L
tp305
a(g27
L7192L
tp306
a(g29
L5168L
tp307
a(g31
L7190L
tp308
a(g33
L1781L
tp309
a(g35
L13924L
tp310
a(g37
L13633L
tp311
a(g39
L4599L
tp312
a(g41
L12968L
tp313
a(g43
L5326L
tp314
a(g45
L20507L
tp315
a(g47
L4507L
tp316
a(g49
L10381L
tp317
a(g51
L4644L
tp318
a(g53
L26682L
tp319
a(g55
L4422L
tp320
a(g57
L21086L
tp321
a(g59
L13690L
tp322
a(g61
L4995L
tp323
a(g63
L2790L
tp324
a(g65
L28228L
tp325
a(g67
L10598L
tp326
a(g69
L31581L
tp327
a(g71
L26901L
tp328
a(g73
L6320L
tp329
a(g75
L4514L
tp330
a(g77
L27837L
tp331
a(g79
L4725L
tp332
a(g81
L7881L
tp333
a(g83
L18282L
tp334
a(g85
L5663L
tp335
a(g87
L28535L
tp336
a(g89
L29927L
tp337
a(g91
L3827L
tp338
a(g93
L20503L
tp339
a(g95
L5165L
tp340
a(g97
L10466L
tp341
a(g99
L2830L
tp342
a(g101
L6500L
tp343
a(g103
L10229L
tp344
a(g105
L4567L
tp345
a(g107
L4515L
tp346
a(g109
L5218L
tp347
a(g111
L4621L
tp348
a(g113
L4556L
tp349
a(g115
L5791L
tp350
a(g117
L30984L
tp351
a(g119
L14001L
tp352
a(g121
L6436L
tp353
a(g123
L4542L
tp354
a(g125
L6448L
tp355
a(g127
L5896L
tp356
a(g129
L6494L
tp357
a(g131
L4586L
tp358
a(g133
L10950L
tp359
a(g135
L10963L
tp360
a(g137
L4439L
tp361
a(g139
L4118L
tp362
a(g141
L6357L
tp363
a(g143
L677L
tp364
a(g145
L759L
tp365
a(g147
L594L
tp366
a(g149
L5302L
tp367
a(g151
L5471L
tp368
a(g153
L4366L
tp369
a(g155
L4405L
tp370
a(g157
L13967L
tp371
a(g159
L4546L
tp372
a(g161
L5112L
tp373
a(g163
L4838L
tp374
a(g165
L28144L
tp375
a(g167
L22810L
tp376
a(g169
L10829L
tp377
a(g171
L4684L
tp378
a(g173
L10870L
tp379
a(g175
L3L
tp380
a(g177
L6169L
tp381
a(g179
L5695L
tp382
a(g181
L5582L
tp383
a(g183
L17965L
tp384
a(g185
L7644L
tp385
a(g187
L10840L
tp386
a(g189
L28251L
tp387
a(g191
L2364L
tp388
a(g193
L4538L
tp389
a(g195
L10905L
tp390
a(g197
L13274L
tp391
a(g199
L14427L
tp392
a(g201
L5658L
tp393
a(g203
L3518L
tp394
a(g205
L3404L
tp395
a(g207
L6389L
tp396
a(g209
L5161L
tp397
a(g211
L13644L
tp398
a(g213
L2991L
tp399
a(g215
L14078L
tp400
a(g217
L20900L
tp401
a(g219
L4423L
tp402
a(g221
L4475L
tp403
a(g223
L4408L
tp404
a(g225
L2841L
tp405
a(g227
L12827L
tp406
a(g229
L2835L
tp407
a(g231
L4368L
tp408
a(g233
L10929L
tp409
a(g235
L5682L
tp410
a(g237
L5712L
tp411
a(g239
L33137L
tp412
a(g241
L5662L
tp413
a(g243
L10886L
tp414
a(g245
L5114L
tp415
a(g247
L10860L
tp416
a(g249
L14396L
tp417
a(g251
L4550L
tp418
a(g253
L10876L
tp419
a(g255
L6358L
tp420
a(g257
L5705L
tp421
a(g259
L15840L
tp422
a(g261
L28040L
tp423
a(g263
L6747L
tp424
a(g265
L4583L
tp425
a(g267
L5126L
tp426
a(g269
L4609L
tp427
a(g271
L201L
tp428
a(g273
L20770L
tp429
a(g275
L10848L
tp430
a(g277
L4411L
tp431
a(g279
L12918L
tp432
a(g281
L21900L
tp433
a(g283
L7683L
tp434
a(g285
L33512L
tp435
a(g287
L15852L
tp436
a(g289
L10192L
tp437
a(g291
L4412L
tp438
aaI512441
a.