(lp1
(lp2
(Vbiological_process
p3
I203415
tp4
a(Vcellular_component
p5
I67269
tp6
a(Vmolecular_function
p7
I55660
tp8
a(Vorganelle
p9
I17882
tp10
a(Vanatomical structure development
p11
I15406
tp12
a(Vtransport
p13
I11191
tp14
a(Vsignal transduction
p15
I9696
tp16
a(Vcellular nitrogen compound metabolic process
p17
I8520
tp18
a(Vprotein complex
p19
I7650
tp20
a(Vresponse to stress
p21
I7611
tp22
a(Vion binding
p23
I6842
tp24
a(Vsmall molecule metabolic process
p25
I6032
tp26
a(Vbiosynthetic process
p27
I5285
tp28
a(Vcellular protein modification process
p29
I5187
tp30
a(Vimmune system process
p31
I4490
tp32
a(Vcatabolic process
p33
I4429
tp34
a(Vcell differentiation
p35
I3788
tp36
a(Vcellular component assembly
p37
I3403
tp38
a(Vcytosol
p39
I3194
tp40
a(Venzyme binding
p41
I3184
tp42
a(Vlipid metabolic process
p43
I2958
tp44
a(Vlocomotion
p45
I2739
tp46
a(Vvesicle-mediated transport
p47
I2455
tp48
a(Vanatomical structure formation involved in morphogenesis
p49
I2433
tp50
a(Vnucleolus
p51
I2356
tp52
a(Vplasma membrane
p53
I2318
tp54
a(Vnucleus
p55
I2274
tp56
a(Vtransmembrane transporter activity
p57
I2254
tp58
a(VDNA metabolic process
p59
I2066
tp60
a(Vhomeostatic process
p61
I2054
tp62
a(Vcell motility
p63
I1981
tp64
a(VDNA binding
p65
I1944
tp66
a(Vcytoplasm
p67
I1914
tp68
a(Vchromosome organization
p69
I1870
tp70
a(Vmacromolecular complex assembly
p71
I1831
tp72
a(Vneurological system process
p73
I1756
tp74
a(Voxidoreductase activity
p75
I1725
tp76
a(Vtransmembrane transport
p77
I1706
tp78
a(Vcytoskeletal protein binding
p79
I1699
tp80
a(Vcarbohydrate metabolic process
p81
I1604
tp82
a(Vprotein maturation
p83
I1582
tp84
a(Vnucleobase-containing compound catabolic process
p85
I1581
tp86
a(Vsignal transducer activity
p87
I1578
tp88
a(Vembryo development
p89
I1570
tp90
a(Vkinase activity
p91
I1570
tp92
a(Vgrowth
p93
I1562
tp94
a(Vprotein complex assembly
p95
I1509
tp96
a(Vcytoskeleton organization
p97
I1498
tp98
a(Vcytoplasmic membrane-bounded vesicle
p99
I1280
tp100
a(Vlipid binding
p101
I1279
tp102
a(Vcell adhesion
p103
I1278
tp104
a(VGolgi apparatus
p105
I1271
tp106
a(VRNA binding
p107
I1198
tp108
a(Vmitochondrion
p109
I1189
tp110
a(Vcytoskeleton
p111
I1144
tp112
a(Vcellular amino acid metabolic process
p113
I1061
tp114
a(Vendosome
p115
I1056
tp116
a(Vmembrane organization
p117
I1053
tp118
a(Vcell-cell signaling
p119
I1050
tp120
a(Vligase activity
p121
I1016
tp122
a(Vendoplasmic reticulum
p123
I1013
tp124
a(Vcell proliferation
p125
I1005
tp126
a(Vpeptidase activity
p127
I999
tp128
a(Venzyme regulator activity
p129
I996
tp130
a(Vcell death
p131
I995
tp132
a(VATPase activity
p133
I954
tp134
a(Vcell morphogenesis
p135
I889
tp136
a(Vmicrotubule organizing center
p137
I856
tp138
a(Vnucleoplasm
p139
I851
tp140
a(Vtranscription factor binding
p141
I836
tp142
a(Vprotein binding transcription factor activity
p143
I821
tp144
a(Vnucleic acid binding transcription factor activity
p145
I767
tp146
a(Vstructural molecule activity
p147
I746
tp148
a(Vextracellular region
p149
I674
tp150
a(Vprotein targeting
p151
I625
tp152
a(Vextracellular space
p153
I587
tp154
a(Vextracellular matrix organization
p155
I567
tp156
a(Vsymbiosis, encompassing mutualism through parasitism
p157
I552
tp158
a(Vsulfur compound metabolic process
p159
I549
tp160
a(Vvacuole
p161
I547
tp162
a(Vcilium
p163
I542
tp164
a(Vcofactor metabolic process
p165
I525
tp166
a(VmRNA processing
p167
I504
tp168
a(Vphosphatase activity
p169
I482
tp170
a(Vgeneration of precursor metabolites and energy
p171
I480
tp172
a(Vtransferase activity, transferring acyl groups
p173
I475
tp174
a(Vcell cycle
p175
I431
tp176
a(Vcell junction organization
p177
I430
tp178
a(Vreproduction
p179
I424
tp180
a(Vaging
p181
I410
tp182
a(Vnucleocytoplasmic transport
p183
I401
tp184
a(Vtransferase activity, transferring glycosyl groups
p185
I389
tp186
a(Vcell division
p187
I377
tp188
a(Vhelicase activity
p189
I355
tp190
a(Vdevelopmental maturation
p191
I347
tp192
a(Vcirculatory system process
p193
I340
tp194
a(Vnuclease activity
p195
I334
tp196
a(Vlysosome
p197
I328
tp198
a(Vcytoskeleton-dependent intracellular transport
p199
I325
tp200
a(Vmitochondrion organization
p201
I313
tp202
a(Vlyase activity
p203
I303
tp204
a(Vmethyltransferase activity
p205
I284
tp206
a(Vplastid
p207
I283
tp208
a(Vprotein folding
p209
I276
tp210
a(Vhistone binding
p211
I259
tp212
a(Vproteinaceous extracellular matrix
p213
I250
tp214
a(Vribonucleoprotein complex assembly
p215
I250
tp216
a(Vnuclear envelope
p217
I241
tp218
a(Vchromosome
p219
I239
tp220
a(VGTPase activity
p221
I235
tp222
a(Vplasma membrane organization
p223
I228
tp224
a(Vsecondary metabolic process
p225
I227
tp226
a(VmRNA binding
p227
I191
tp228
a(Vvacuolar transport
p229
I191
tp230
a(Vmitosis
p231
I188
tp232
a(Visomerase activity
p233
I187
tp234
a(Vnucleotidyltransferase activity
p235
I185
tp236
a(Vexternal encapsulating structure
p237
I183
tp238
a(Vhydrolase activity, acting on carbon-nitrogen (but not peptide) bonds
p239
I177
tp240
a(Vcell wall
p241
I177
tp242
a(Vprotein binding, bridging
p243
I174
tp244
a(Vcell wall organization or biogenesis
p245
I165
tp246
a(Vsmall conjugating protein binding
p247
I162
tp248
a(Vhydrolase activity, acting on glycosyl bonds
p249
I154
tp250
a(Vprotein transporter activity
p251
I147
tp252
a(Vstructural constituent of ribosome
p253
I146
tp254
a(Vchromosome segregation
p255
I144
tp256
a(VtRNA metabolic process
p257
I141
tp258
a(Vperoxisome
p259
I140
tp260
a(Vunfolded protein binding
p261
I117
tp262
a(Vlipid particle
p263
I113
tp264
a(Vtranslation factor activity, nucleic acid binding
p265
I110
tp266
a(Vtranslation
p267
I102
tp268
a(Vribosome
p269
I82
tp270
a(Vtransferase activity, transferring alkyl or aryl (other than methyl) groups
p271
I75
tp272
a(Vintracellular
p273
I74
tp274
a(Vpigmentation
p275
I72
tp276
a(Vnuclear chromosome
p277
I69
tp278
a(Vribosome biogenesis
p279
I67
tp280
a(VrRNA binding
p281
I42
tp282
a(Vnitrogen cycle metabolic process
p283
I24
tp284
a(Vthylakoid
p285
I23
tp286
a(Vcell
p287
I13
tp288
a(Vphotosynthesis
p289
I7
tp290
a(Vtransposition
p291
I4
tp292
aa(lp293
(g3
L6372L
tp294
a(g5
L4365L
tp295
a(g7
L2787L
tp296
a(g9
L21685L
tp297
a(g11
L26888L
tp298
a(g13
L5491L
tp299
a(g15
L5801L
tp300
a(g17
L18268L
tp301
a(g19
L21693L
tp302
a(g21
L5613L
tp303
a(g23
L21630L
tp304
a(g25
L22689L
tp305
a(g27
L7192L
tp306
a(g29
L5168L
tp307
a(g31
L1781L
tp308
a(g33
L7190L
tp309
a(g35
L13924L
tp310
a(g37
L13633L
tp311
a(g39
L4599L
tp312
a(g41
L12968L
tp313
a(g43
L5326L
tp314
a(g45
L20507L
tp315
a(g47
L10381L
tp316
a(g49
L26682L
tp317
a(g51
L4507L
tp318
a(g53
L4644L
tp319
a(g55
L4422L
tp320
a(g57
L13690L
tp321
a(g59
L4995L
tp322
a(g61
L21086L
tp323
a(g63
L26901L
tp324
a(g65
L2790L
tp325
a(g67
L4514L
tp326
a(g69
L28228L
tp327
a(g71
L31581L
tp328
a(g73
L27837L
tp329
a(g75
L10598L
tp330
a(g77
L29927L
tp331
a(g79
L6320L
tp332
a(g81
L4725L
tp333
a(g83
L28535L
tp334
a(g85
L18282L
tp335
a(g87
L3827L
tp336
a(g89
L7881L
tp337
a(g91
L10466L
tp338
a(g93
L20503L
tp339
a(g95
L5165L
tp340
a(g97
L5663L
tp341
a(g99
L10229L
tp342
a(g101
L6500L
tp343
a(g103
L5791L
tp344
a(g105
L4567L
tp345
a(g107
L2830L
tp346
a(g109
L4515L
tp347
a(g111
L4621L
tp348
a(g113
L5218L
tp349
a(g115
L4542L
tp350
a(g117
L30984L
tp351
a(g119
L5896L
tp352
a(g121
L10950L
tp353
a(g123
L4556L
tp354
a(g125
L6494L
tp355
a(g127
L6448L
tp356
a(g129
L14001L
tp357
a(g131
L6436L
tp358
a(g133
L10963L
tp359
a(g135
L594L
tp360
a(g137
L4586L
tp361
a(g139
L4439L
tp362
a(g141
L6357L
tp363
a(g143
L677L
tp364
a(g145
L759L
tp365
a(g147
L4118L
tp366
a(g149
L4366L
tp367
a(g151
L5302L
tp368
a(g153
L4405L
tp369
a(g155
L13967L
tp370
a(g157
L22810L
tp371
a(g159
L5471L
tp372
a(g161
L4546L
tp373
a(g163
L4684L
tp374
a(g165
L28144L
tp375
a(g167
L5112L
tp376
a(g169
L10870L
tp377
a(g171
L4838L
tp378
a(g173
L10829L
tp379
a(g175
L5695L
tp380
a(g177
L17965L
tp381
a(g179
L3L
tp382
a(g181
L6169L
tp383
a(g183
L5582L
tp384
a(g185
L10840L
tp385
a(g187
L28251L
tp386
a(g189
L3404L
tp387
a(g191
L13274L
tp388
a(g193
L2364L
tp389
a(g195
L3518L
tp390
a(g197
L4538L
tp391
a(g199
L14427L
tp392
a(g201
L5658L
tp393
a(g203
L10905L
tp394
a(g205
L6389L
tp395
a(g207
L7644L
tp396
a(g209
L5161L
tp397
a(g211
L20900L
tp398
a(g213
L4368L
tp399
a(g215
L13644L
tp400
a(g217
L4423L
tp401
a(g219
L4475L
tp402
a(g221
L2991L
tp403
a(g223
L5662L
tp404
a(g225
L12827L
tp405
a(g227
L2835L
tp406
a(g229
L5682L
tp407
a(g231
L5712L
tp408
a(g233
L10929L
tp409
a(g235
L10860L
tp410
a(g237
L14078L
tp411
a(g239
L10886L
tp412
a(g241
L4408L
tp413
a(g243
L14396L
tp414
a(g245
L33137L
tp415
a(g247
L15840L
tp416
a(g249
L10876L
tp417
a(g251
L6747L
tp418
a(g253
L2841L
tp419
a(g255
L5705L
tp420
a(g257
L5114L
tp421
a(g259
L4550L
tp422
a(g261
L28040L
tp423
a(g263
L4583L
tp424
a(g265
L6358L
tp425
a(g267
L5126L
tp426
a(g269
L4609L
tp427
a(g271
L10848L
tp428
a(g273
L4411L
tp429
a(g275
L21900L
tp430
a(g277
L201L
tp431
a(g279
L20770L
tp432
a(g281
L12918L
tp433
a(g283
L33512L
tp434
a(g285
L7683L
tp435
a(g287
L4412L
tp436
a(g289
L10192L
tp437
a(g291
L15852L
tp438
aaI549358
a.