(lp1
(lp2
(Vbiological_process
p3
I193406
tp4
a(Vcellular_component
p5
I64220
tp6
a(Vmolecular_function
p7
I52606
tp8
a(Vorganelle
p9
I16891
tp10
a(Vanatomical structure development
p11
I14454
tp12
a(Vtransport
p13
I11099
tp14
a(Vsignal transduction
p15
I8750
tp16
a(Vcellular nitrogen compound metabolic process
p17
I8699
tp18
a(Vresponse to stress
p19
I7336
tp20
a(Vprotein complex
p21
I6727
tp22
a(Vsmall molecule metabolic process
p23
I6612
tp24
a(Vion binding
p25
I6548
tp26
a(Vbiosynthetic process
p27
I5868
tp28
a(Vcatabolic process
p29
I4539
tp30
a(Vcellular protein modification process
p31
I4528
tp32
a(Vimmune system process
p33
I4403
tp34
a(Vcell differentiation
p35
I3103
tp36
a(Vcellular component assembly
p37
I3056
tp38
a(Vlipid metabolic process
p39
I2845
tp40
a(Vcytosol
p41
I2844
tp42
a(Venzyme binding
p43
I2660
tp44
a(Vtransmembrane transporter activity
p45
I2526
tp46
a(Vlocomotion
p47
I2360
tp48
a(Vplasma membrane
p49
I2254
tp50
a(Vvesicle-mediated transport
p51
I2148
tp52
a(VDNA metabolic process
p53
I2072
tp54
a(Vnucleus
p55
I2032
tp56
a(Vnucleolus
p57
I2031
tp58
a(Voxidoreductase activity
p59
I1974
tp60
a(Vcytoplasm
p61
I1947
tp62
a(Vanatomical structure formation involved in morphogenesis
p63
I1903
tp64
a(Vhomeostatic process
p65
I1843
tp66
a(Vcarbohydrate metabolic process
p67
I1739
tp68
a(Vtransmembrane transport
p69
I1737
tp70
a(Vmacromolecular complex assembly
p71
I1691
tp72
a(Vchromosome organization
p73
I1666
tp74
a(Vcell motility
p75
I1626
tp76
a(Vcytoskeletal protein binding
p77
I1622
tp78
a(VDNA binding
p79
I1610
tp80
a(Vnucleobase-containing compound catabolic process
p81
I1590
tp82
a(Vprotein maturation
p83
I1586
tp84
a(Vneurological system process
p85
I1580
tp86
a(Vkinase activity
p87
I1568
tp88
a(Vembryo development
p89
I1537
tp90
a(Vsignal transducer activity
p91
I1421
tp92
a(Vgrowth
p93
I1409
tp94
a(Vprotein complex assembly
p95
I1383
tp96
a(Vcellular amino acid metabolic process
p97
I1367
tp98
a(Vcytoskeleton organization
p99
I1334
tp100
a(VRNA binding
p101
I1215
tp102
a(VGolgi apparatus
p103
I1211
tp104
a(Vcytoskeleton
p105
I1142
tp106
a(Vcytoplasmic membrane-bounded vesicle
p107
I1114
tp108
a(Vcell adhesion
p109
I1107
tp110
a(VATPase activity
p111
I1081
tp112
a(Vmitochondrion
p113
I1046
tp114
a(Vpeptidase activity
p115
I1022
tp116
a(Vlipid binding
p117
I994
tp118
a(Vcell death
p119
I946
tp120
a(Vcell-cell signaling
p121
I902
tp122
a(Vmembrane organization
p123
I893
tp124
a(Vcell proliferation
p125
I891
tp126
a(Vendoplasmic reticulum
p127
I889
tp128
a(Vligase activity
p129
I867
tp130
a(Vendosome
p131
I844
tp132
a(Venzyme regulator activity
p133
I831
tp134
a(Vmicrotubule organizing center
p135
I739
tp136
a(Vcell morphogenesis
p137
I732
tp138
a(Vnucleoplasm
p139
I699
tp140
a(Vstructural molecule activity
p141
I686
tp142
a(Vsulfur compound metabolic process
p143
I657
tp144
a(Vtranscription factor binding
p145
I633
tp146
a(Vextracellular matrix organization
p147
I626
tp148
a(Vextracellular region
p149
I603
tp150
a(Vprotein binding transcription factor activity
p151
I574
tp152
a(Vcilium
p153
I567
tp154
a(Vcofactor metabolic process
p155
I561
tp156
a(Vprotein targeting
p157
I553
tp158
a(Vextracellular space
p159
I536
tp160
a(Vvacuole
p161
I532
tp162
a(Vnucleic acid binding transcription factor activity
p163
I511
tp164
a(Vtransferase activity, transferring acyl groups
p165
I500
tp166
a(VmRNA processing
p167
I486
tp168
a(Vcell cycle
p169
I485
tp170
a(Vgeneration of precursor metabolites and energy
p171
I482
tp172
a(Vsymbiosis, encompassing mutualism through parasitism
p173
I476
tp174
a(Vlyase activity
p175
I443
tp176
a(Vhelicase activity
p177
I434
tp178
a(Vphosphatase activity
p179
I430
tp180
a(Vtransferase activity, transferring glycosyl groups
p181
I410
tp182
a(Vreproduction
p183
I403
tp184
a(Vcell division
p185
I382
tp186
a(Vaging
p187
I362
tp188
a(Vnuclease activity
p189
I340
tp190
a(Vplastid
p191
I333
tp192
a(Vdevelopmental maturation
p193
I328
tp194
a(Vcell junction organization
p195
I321
tp196
a(Vnucleocytoplasmic transport
p197
I316
tp198
a(Vcytoskeleton-dependent intracellular transport
p199
I311
tp200
a(Vcirculatory system process
p201
I300
tp202
a(Vmethyltransferase activity
p203
I295
tp204
a(Vlysosome
p205
I284
tp206
a(Vmitochondrion organization
p207
I271
tp208
a(Vprotein folding
p209
I267
tp210
a(Vribonucleoprotein complex assembly
p211
I249
tp212
a(Vexternal encapsulating structure
p213
I248
tp214
a(Visomerase activity
p215
I244
tp216
a(Vproteinaceous extracellular matrix
p217
I240
tp218
a(Vcell wall
p219
I240
tp220
a(VGTPase activity
p221
I240
tp222
a(Vplasma membrane organization
p223
I231
tp224
a(Vnuclear envelope
p225
I230
tp226
a(Vnucleotidyltransferase activity
p227
I228
tp228
a(VtRNA metabolic process
p229
I225
tp230
a(Vchromosome
p231
I221
tp232
a(Vsecondary metabolic process
p233
I219
tp234
a(Vhydrolase activity, acting on glycosyl bonds
p235
I209
tp236
a(VmRNA binding
p237
I201
tp238
a(Vhistone binding
p239
I200
tp240
a(Vhydrolase activity, acting on carbon-nitrogen (but not peptide) bonds
p241
I186
tp242
a(Vstructural constituent of ribosome
p243
I170
tp244
a(Vcell wall organization or biogenesis
p245
I164
tp246
a(Vmitosis
p247
I154
tp248
a(Vvacuolar transport
p249
I152
tp250
a(Vchromosome segregation
p251
I143
tp252
a(Vperoxisome
p253
I139
tp254
a(Vunfolded protein binding
p255
I131
tp256
a(Vprotein binding, bridging
p257
I128
tp258
a(Vtranslation factor activity, nucleic acid binding
p259
I124
tp260
a(Vsmall conjugating protein binding
p261
I124
tp262
a(Vtranslation
p263
I117
tp264
a(Vlipid particle
p265
I111
tp266
a(Vprotein transporter activity
p267
I109
tp268
a(Vribosome
p269
I94
tp270
a(Vtransferase activity, transferring alkyl or aryl (other than methyl) groups
p271
I91
tp272
a(Vintracellular
p273
I76
tp274
a(Vnuclear chromosome
p275
I70
tp276
a(Vpigmentation
p277
I66
tp278
a(VrRNA binding
p279
I60
tp280
a(Vribosome biogenesis
p281
I55
tp282
a(Vthylakoid
p283
I34
tp284
a(Vnitrogen cycle metabolic process
p285
I32
tp286
a(Vphotosynthesis
p287
I11
tp288
a(Vcell
p289
I6
tp290
a(Vtransposition
p291
I5
tp292
aa(lp293
(g3
L6372L
tp294
a(g5
L4365L
tp295
a(g7
L2787L
tp296
a(g9
L21685L
tp297
a(g11
L26888L
tp298
a(g13
L5491L
tp299
a(g15
L5801L
tp300
a(g17
L18268L
tp301
a(g19
L5613L
tp302
a(g21
L21693L
tp303
a(g23
L22689L
tp304
a(g25
L21630L
tp305
a(g27
L7192L
tp306
a(g29
L7190L
tp307
a(g31
L5168L
tp308
a(g33
L1781L
tp309
a(g35
L13924L
tp310
a(g37
L13633L
tp311
a(g39
L5326L
tp312
a(g41
L4599L
tp313
a(g43
L12968L
tp314
a(g45
L13690L
tp315
a(g47
L20507L
tp316
a(g49
L4644L
tp317
a(g51
L10381L
tp318
a(g53
L4995L
tp319
a(g55
L4422L
tp320
a(g57
L4507L
tp321
a(g59
L10598L
tp322
a(g61
L4514L
tp323
a(g63
L26682L
tp324
a(g65
L21086L
tp325
a(g67
L4725L
tp326
a(g69
L29927L
tp327
a(g71
L31581L
tp328
a(g73
L28228L
tp329
a(g75
L26901L
tp330
a(g77
L6320L
tp331
a(g79
L2790L
tp332
a(g81
L18282L
tp333
a(g83
L28535L
tp334
a(g85
L27837L
tp335
a(g87
L10466L
tp336
a(g89
L7881L
tp337
a(g91
L3827L
tp338
a(g93
L20503L
tp339
a(g95
L5165L
tp340
a(g97
L5218L
tp341
a(g99
L5663L
tp342
a(g101
L2830L
tp343
a(g103
L4567L
tp344
a(g105
L4621L
tp345
a(g107
L10229L
tp346
a(g109
L5791L
tp347
a(g111
L10963L
tp348
a(g113
L4515L
tp349
a(g115
L6448L
tp350
a(g117
L6500L
tp351
a(g119
L6436L
tp352
a(g121
L5896L
tp353
a(g123
L30984L
tp354
a(g125
L6494L
tp355
a(g127
L4556L
tp356
a(g129
L10950L
tp357
a(g131
L4542L
tp358
a(g133
L14001L
tp359
a(g135
L4586L
tp360
a(g137
L594L
tp361
a(g139
L4439L
tp362
a(g141
L4118L
tp363
a(g143
L5471L
tp364
a(g145
L6357L
tp365
a(g147
L13967L
tp366
a(g149
L4366L
tp367
a(g151
L677L
tp368
a(g153
L4684L
tp369
a(g155
L28144L
tp370
a(g157
L5302L
tp371
a(g159
L4405L
tp372
a(g161
L4546L
tp373
a(g163
L759L
tp374
a(g165
L10829L
tp375
a(g167
L5112L
tp376
a(g169
L5695L
tp377
a(g171
L4838L
tp378
a(g173
L22810L
tp379
a(g175
L10905L
tp380
a(g177
L3404L
tp381
a(g179
L10870L
tp382
a(g181
L10840L
tp383
a(g183
L3L
tp384
a(g185
L28251L
tp385
a(g187
L6169L
tp386
a(g189
L3518L
tp387
a(g191
L7644L
tp388
a(g193
L13274L
tp389
a(g195
L17965L
tp390
a(g197
L5582L
tp391
a(g199
L14427L
tp392
a(g201
L2364L
tp393
a(g203
L6389L
tp394
a(g205
L4538L
tp395
a(g207
L5658L
tp396
a(g209
L5161L
tp397
a(g211
L13644L
tp398
a(g213
L14078L
tp399
a(g215
L10929L
tp400
a(g217
L4368L
tp401
a(g219
L4408L
tp402
a(g221
L2991L
tp403
a(g223
L5662L
tp404
a(g225
L4423L
tp405
a(g227
L10860L
tp406
a(g229
L5114L
tp407
a(g231
L4475L
tp408
a(g233
L12827L
tp409
a(g235
L10876L
tp410
a(g237
L2835L
tp411
a(g239
L20900L
tp412
a(g241
L10886L
tp413
a(g243
L2841L
tp414
a(g245
L33137L
tp415
a(g247
L5712L
tp416
a(g249
L5682L
tp417
a(g251
L5705L
tp418
a(g253
L4550L
tp419
a(g255
L28040L
tp420
a(g257
L14396L
tp421
a(g259
L6358L
tp422
a(g261
L15840L
tp423
a(g263
L5126L
tp424
a(g265
L4583L
tp425
a(g267
L6747L
tp426
a(g269
L4609L
tp427
a(g271
L10848L
tp428
a(g273
L4411L
tp429
a(g275
L201L
tp430
a(g277
L21900L
tp431
a(g279
L12918L
tp432
a(g281
L20770L
tp433
a(g283
L7683L
tp434
a(g285
L33512L
tp435
a(g287
L10192L
tp436
a(g289
L4412L
tp437
a(g291
L15852L
tp438
aaI521590
a.