(lp1
(lp2
(Vbiological_process
p3
I25379
tp4
a(Vcellular_component
p5
I8752
tp6
a(Vmolecular_function
p7
I6928
tp8
a(Vorganelle
p9
I2348
tp10
a(Vanatomical structure development
p11
I1720
tp12
a(Vtransport
p13
I1495
tp14
a(Vsignal transduction
p15
I1403
tp16
a(Vresponse to stress
p17
I1189
tp18
a(Vcellular nitrogen compound metabolic process
p19
I1129
tp20
a(Vprotein complex
p21
I1008
tp22
a(Vion binding
p23
I856
tp24
a(Vsmall molecule metabolic process
p25
I821
tp26
a(Vimmune system process
p27
I802
tp28
a(Vbiosynthetic process
p29
I794
tp30
a(Vcatabolic process
p31
I711
tp32
a(Vcellular protein modification process
p33
I596
tp34
a(Vcytosol
p35
I512
tp36
a(Vcellular component assembly
p37
I460
tp38
a(Vcell differentiation
p39
I413
tp40
a(Venzyme binding
p41
I412
tp42
a(Vlipid metabolic process
p43
I377
tp44
a(Vvesicle-mediated transport
p45
I372
tp46
a(Vplasma membrane
p47
I320
tp48
a(Vlocomotion
p49
I311
tp50
a(Vnucleolus
p51
I306
tp52
a(Vnucleus
p53
I305
tp54
a(Vembryo development
p55
I277
tp56
a(Vhomeostatic process
p57
I267
tp58
a(Voxidoreductase activity
p59
I266
tp60
a(Vmacromolecular complex assembly
p61
I259
tp62
a(Vcarbohydrate metabolic process
p63
I255
tp64
a(Vnucleobase-containing compound catabolic process
p65
I254
tp66
a(Vanatomical structure formation involved in morphogenesis
p67
I254
tp68
a(Vprotein maturation
p69
I244
tp70
a(Vcytoskeletal protein binding
p71
I241
tp72
a(Vtransmembrane transporter activity
p73
I239
tp74
a(VRNA binding
p75
I229
tp76
a(Vcell motility
p77
I223
tp78
a(Vtransmembrane transport
p79
I212
tp80
a(Vprotein complex assembly
p81
I211
tp82
a(Vgrowth
p83
I209
tp84
a(Vcytoplasm
p85
I202
tp86
a(VDNA binding
p87
I198
tp88
a(Vcytoskeleton organization
p89
I198
tp90
a(Vcytoplasmic membrane-bounded vesicle
p91
I192
tp92
a(VDNA metabolic process
p93
I191
tp94
a(Vneurological system process
p95
I182
tp96
a(Vcell death
p97
I175
tp98
a(Vcellular amino acid metabolic process
p99
I173
tp100
a(Vkinase activity
p101
I173
tp102
a(Vmitochondrion
p103
I168
tp104
a(Vstructural molecule activity
p105
I167
tp106
a(VGolgi apparatus
p107
I160
tp108
a(Vchromosome organization
p109
I159
tp110
a(Vsignal transducer activity
p111
I158
tp112
a(Vcell proliferation
p113
I148
tp114
a(Venzyme regulator activity
p115
I147
tp116
a(Vendoplasmic reticulum
p117
I138
tp118
a(Vcytoskeleton
p119
I136
tp120
a(Vlipid binding
p121
I135
tp122
a(Vmembrane organization
p123
I135
tp124
a(Vendosome
p125
I132
tp126
a(Vprotein targeting
p127
I129
tp128
a(Vligase activity
p129
I126
tp130
a(Vpeptidase activity
p131
I125
tp132
a(Vcell adhesion
p133
I119
tp134
a(VATPase activity
p135
I114
tp136
a(Vcell-cell signaling
p137
I110
tp138
a(Vvacuole
p139
I109
tp140
a(Vnucleoplasm
p141
I108
tp142
a(Vmicrotubule organizing center
p143
I104
tp144
a(Vextracellular region
p145
I97
tp146
a(Vsymbiosis, encompassing mutualism through parasitism
p147
I95
tp148
a(Vgeneration of precursor metabolites and energy
p149
I93
tp150
a(Vcell morphogenesis
p151
I92
tp152
a(Vprotein binding transcription factor activity
p153
I92
tp154
a(Vtranscription factor binding
p155
I81
tp156
a(Vextracellular matrix organization
p157
I80
tp158
a(Vreproduction
p159
I80
tp160
a(Vnucleic acid binding transcription factor activity
p161
I80
tp162
a(Vextracellular space
p163
I73
tp164
a(VmRNA processing
p165
I69
tp166
a(Vsulfur compound metabolic process
p167
I69
tp168
a(Vstructural constituent of ribosome
p169
I66
tp170
a(Vlysosome
p171
I66
tp172
a(Vplastid
p173
I64
tp174
a(Vcofactor metabolic process
p175
I63
tp176
a(Vprotein folding
p177
I59
tp178
a(Vphosphatase activity
p179
I54
tp180
a(Vcell division
p181
I54
tp182
a(VGTPase activity
p183
I54
tp184
a(Vlyase activity
p185
I52
tp186
a(Vnucleocytoplasmic transport
p187
I51
tp188
a(Vcell junction organization
p189
I50
tp190
a(Vmitochondrion organization
p191
I48
tp192
a(Vaging
p193
I45
tp194
a(Vcytoskeleton-dependent intracellular transport
p195
I45
tp196
a(Vtransferase activity, transferring acyl groups
p197
I45
tp198
a(Vdevelopmental maturation
p199
I41
tp200
a(Vtransferase activity, transferring glycosyl groups
p201
I41
tp202
a(VmRNA binding
p203
I40
tp204
a(Vribonucleoprotein complex assembly
p205
I40
tp206
a(Vcell cycle
p207
I40
tp208
a(Vnuclease activity
p209
I40
tp210
a(Vexternal encapsulating structure
p211
I39
tp212
a(Vcilium
p213
I39
tp214
a(Vcell wall
p215
I38
tp216
a(Vsecondary metabolic process
p217
I37
tp218
a(Vcell wall organization or biogenesis
p219
I33
tp220
a(Vunfolded protein binding
p221
I31
tp222
a(Vnuclear envelope
p223
I30
tp224
a(Vvacuolar transport
p225
I29
tp226
a(Visomerase activity
p227
I28
tp228
a(VtRNA metabolic process
p229
I28
tp230
a(Vhelicase activity
p231
I28
tp232
a(Vplasma membrane organization
p233
I27
tp234
a(Vcirculatory system process
p235
I27
tp236
a(Vmethyltransferase activity
p237
I27
tp238
a(Vmitosis
p239
I26
tp240
a(Vtranslation
p241
I26
tp242
a(Vnucleotidyltransferase activity
p243
I26
tp244
a(Vtranslation factor activity, nucleic acid binding
p245
I24
tp246
a(Vhistone binding
p247
I23
tp248
a(Vhydrolase activity, acting on carbon-nitrogen (but not peptide) bonds
p249
I22
tp250
a(Vproteinaceous extracellular matrix
p251
I22
tp252
a(Vchromosome
p253
I22
tp254
a(Vperoxisome
p255
I21
tp256
a(Vsmall conjugating protein binding
p257
I21
tp258
a(Vlipid particle
p259
I18
tp260
a(Vprotein binding, bridging
p261
I18
tp262
a(Vhydrolase activity, acting on glycosyl bonds
p263
I17
tp264
a(Vchromosome segregation
p265
I14
tp266
a(Vprotein transporter activity
p267
I14
tp268
a(Vribosome
p269
I14
tp270
a(VrRNA binding
p271
I13
tp272
a(Vnuclear chromosome
p273
I12
tp274
a(Vribosome biogenesis
p275
I12
tp276
a(Vintracellular
p277
I12
tp278
a(Vpigmentation
p279
I7
tp280
a(Vtransferase activity, transferring alkyl or aryl (other than methyl) groups
p281
I7
tp282
a(Vthylakoid
p283
I4
tp284
a(Vnitrogen cycle metabolic process
p285
I3
tp286
a(Vphotosynthesis
p287
I2
tp288
a(Vcell
p289
I1
tp290
aa(lp291
(g3
L6372L
tp292
a(g5
L4365L
tp293
a(g7
L2787L
tp294
a(g9
L21685L
tp295
a(g11
L26888L
tp296
a(g13
L5491L
tp297
a(g15
L5801L
tp298
a(g17
L5613L
tp299
a(g19
L18268L
tp300
a(g21
L21693L
tp301
a(g23
L21630L
tp302
a(g25
L22689L
tp303
a(g27
L1781L
tp304
a(g29
L7192L
tp305
a(g31
L7190L
tp306
a(g33
L5168L
tp307
a(g35
L4599L
tp308
a(g37
L13633L
tp309
a(g39
L13924L
tp310
a(g41
L12968L
tp311
a(g43
L5326L
tp312
a(g45
L10381L
tp313
a(g47
L4644L
tp314
a(g49
L20507L
tp315
a(g51
L4507L
tp316
a(g53
L4422L
tp317
a(g55
L7881L
tp318
a(g57
L21086L
tp319
a(g59
L10598L
tp320
a(g61
L31581L
tp321
a(g63
L4725L
tp322
a(g65
L18282L
tp323
a(g67
L26682L
tp324
a(g69
L28535L
tp325
a(g71
L6320L
tp326
a(g73
L13690L
tp327
a(g75
L2830L
tp328
a(g77
L26901L
tp329
a(g79
L29927L
tp330
a(g81
L5165L
tp331
a(g83
L20503L
tp332
a(g85
L4514L
tp333
a(g87
L2790L
tp334
a(g89
L5663L
tp335
a(g91
L10229L
tp336
a(g93
L4995L
tp337
a(g95
L27837L
tp338
a(g97
L6436L
tp339
a(g99
L5218L
tp340
a(g101
L10466L
tp341
a(g103
L4515L
tp342
a(g105
L4118L
tp343
a(g107
L4567L
tp344
a(g109
L28228L
tp345
a(g111
L3827L
tp346
a(g113
L6494L
tp347
a(g115
L14001L
tp348
a(g117
L4556L
tp349
a(g119
L4621L
tp350
a(g121
L6500L
tp351
a(g123
L30984L
tp352
a(g125
L4542L
tp353
a(g127
L5302L
tp354
a(g129
L10950L
tp355
a(g131
L6448L
tp356
a(g133
L5791L
tp357
a(g135
L10963L
tp358
a(g137
L5896L
tp359
a(g139
L4546L
tp360
a(g141
L4439L
tp361
a(g143
L4586L
tp362
a(g145
L4366L
tp363
a(g147
L22810L
tp364
a(g149
L4838L
tp365
a(g151
L594L
tp366
a(g153
L677L
tp367
a(g155
L6357L
tp368
a(g157
L13967L
tp369
a(g159
L3L
tp370
a(g161
L759L
tp371
a(g163
L4405L
tp372
a(g165
L5112L
tp373
a(g167
L5471L
tp374
a(g169
L2841L
tp375
a(g171
L4538L
tp376
a(g173
L7644L
tp377
a(g175
L28144L
tp378
a(g177
L5161L
tp379
a(g179
L10870L
tp380
a(g181
L28251L
tp381
a(g183
L2991L
tp382
a(g185
L10905L
tp383
a(g187
L5582L
tp384
a(g189
L17965L
tp385
a(g191
L5658L
tp386
a(g193
L6169L
tp387
a(g195
L14427L
tp388
a(g197
L10829L
tp389
a(g199
L13274L
tp390
a(g201
L10840L
tp391
a(g203
L2835L
tp392
a(g205
L13644L
tp393
a(g207
L5695L
tp394
a(g209
L3518L
tp395
a(g211
L14078L
tp396
a(g213
L4684L
tp397
a(g215
L4408L
tp398
a(g217
L12827L
tp399
a(g219
L33137L
tp400
a(g221
L28040L
tp401
a(g223
L4423L
tp402
a(g225
L5682L
tp403
a(g227
L10929L
tp404
a(g229
L5114L
tp405
a(g231
L3404L
tp406
a(g233
L5662L
tp407
a(g235
L2364L
tp408
a(g237
L6389L
tp409
a(g239
L5712L
tp410
a(g241
L5126L
tp411
a(g243
L10860L
tp412
a(g245
L6358L
tp413
a(g247
L20900L
tp414
a(g249
L10886L
tp415
a(g251
L4368L
tp416
a(g253
L4475L
tp417
a(g255
L4550L
tp418
a(g257
L15840L
tp419
a(g259
L4583L
tp420
a(g261
L14396L
tp421
a(g263
L10876L
tp422
a(g265
L5705L
tp423
a(g267
L6747L
tp424
a(g269
L4609L
tp425
a(g271
L12918L
tp426
a(g273
L201L
tp427
a(g275
L20770L
tp428
a(g277
L4411L
tp429
a(g279
L21900L
tp430
a(g281
L10848L
tp431
a(g283
L7683L
tp432
a(g285
L33512L
tp433
a(g287
L10192L
tp434
a(g289
L4412L
tp435
aaI70771
a.