(lp1
(lp2
(Vbiological_process
p3
I223547
tp4
a(Vcellular_component
p5
I74597
tp6
a(Vmolecular_function
p7
I59850
tp8
a(Vorganelle
p9
I19432
tp10
a(Vanatomical structure development
p11
I17242
tp12
a(Vtransport
p13
I12894
tp14
a(Vsignal transduction
p15
I10426
tp16
a(Vcellular nitrogen compound metabolic process
p17
I9415
tp18
a(Vresponse to stress
p19
I8336
tp20
a(Vprotein complex
p21
I7914
tp22
a(Vion binding
p23
I7351
tp24
a(Vsmall molecule metabolic process
p25
I6446
tp26
a(Vbiosynthetic process
p27
I5939
tp28
a(Vcellular protein modification process
p29
I5298
tp30
a(Vcatabolic process
p31
I4773
tp32
a(Vimmune system process
p33
I4750
tp34
a(Vcell differentiation
p35
I4174
tp36
a(Vcellular component assembly
p37
I3614
tp38
a(Vcytosol
p39
I3174
tp40
a(Venzyme binding
p41
I3157
tp42
a(Vlipid metabolic process
p43
I3107
tp44
a(Vlocomotion
p45
I2869
tp46
a(Vplasma membrane
p47
I2777
tp48
a(Vtransmembrane transporter activity
p49
I2727
tp50
a(Vvesicle-mediated transport
p51
I2727
tp52
a(Vanatomical structure formation involved in morphogenesis
p53
I2674
tp54
a(Vnucleolus
p55
I2467
tp56
a(Vnucleus
p57
I2447
tp58
a(Vhomeostatic process
p59
I2198
tp60
a(VDNA metabolic process
p61
I2132
tp62
a(Vcell motility
p63
I2057
tp64
a(Vsignal transducer activity
p65
I2057
tp66
a(Vtransmembrane transport
p67
I2048
tp68
a(VDNA binding
p69
I1996
tp70
a(Vcytoplasm
p71
I1989
tp72
a(Vmacromolecular complex assembly
p73
I1969
tp74
a(Vneurological system process
p75
I1931
tp76
a(Vchromosome organization
p77
I1905
tp78
a(Voxidoreductase activity
p79
I1781
tp80
a(Vgrowth
p81
I1771
tp82
a(Vprotein maturation
p83
I1764
tp84
a(Vembryo development
p85
I1745
tp86
a(Vcytoskeletal protein binding
p87
I1739
tp88
a(Vnucleobase-containing compound catabolic process
p89
I1696
tp90
a(Vcarbohydrate metabolic process
p91
I1677
tp92
a(Vkinase activity
p93
I1628
tp94
a(Vprotein complex assembly
p95
I1614
tp96
a(Vcytoskeleton organization
p97
I1552
tp98
a(Vlipid binding
p99
I1418
tp100
a(Vcytoplasmic membrane-bounded vesicle
p101
I1403
tp102
a(Vcell adhesion
p103
I1374
tp104
a(VRNA binding
p105
I1368
tp106
a(VGolgi apparatus
p107
I1339
tp108
a(Vcell-cell signaling
p109
I1274
tp110
a(Vpeptidase activity
p111
I1272
tp112
a(Vcytoskeleton
p113
I1224
tp114
a(Vmitochondrion
p115
I1173
tp116
a(Vcellular amino acid metabolic process
p117
I1172
tp118
a(Vcell death
p119
I1125
tp120
a(Vendoplasmic reticulum
p121
I1107
tp122
a(Vcell proliferation
p123
I1078
tp124
a(Vendosome
p125
I1066
tp126
a(Vmembrane organization
p127
I1055
tp128
a(Venzyme regulator activity
p129
I1048
tp130
a(Vligase activity
p131
I922
tp132
a(Vmicrotubule organizing center
p133
I906
tp134
a(VATPase activity
p135
I903
tp136
a(Vcell morphogenesis
p137
I885
tp138
a(Vextracellular region
p139
I870
tp140
a(Vstructural molecule activity
p141
I861
tp142
a(Vprotein binding transcription factor activity
p143
I857
tp144
a(Vnucleoplasm
p145
I841
tp146
a(Vtranscription factor binding
p147
I819
tp148
a(Vnucleic acid binding transcription factor activity
p149
I760
tp150
a(Vprotein targeting
p151
I739
tp152
a(Vextracellular space
p153
I737
tp154
a(Vextracellular matrix organization
p155
I658
tp156
a(Vsulfur compound metabolic process
p157
I615
tp158
a(Vcilium
p159
I604
tp160
a(Vvacuole
p161
I580
tp162
a(Vphosphatase activity
p163
I577
tp164
a(VmRNA processing
p165
I558
tp166
a(Vsymbiosis, encompassing mutualism through parasitism
p167
I530
tp168
a(Vtransferase activity, transferring acyl groups
p169
I527
tp170
a(Vcofactor metabolic process
p171
I523
tp172
a(Vgeneration of precursor metabolites and energy
p173
I511
tp174
a(Vcirculatory system process
p175
I481
tp176
a(Vreproduction
p177
I449
tp178
a(Vcell cycle
p179
I446
tp180
a(Vaging
p181
I426
tp182
a(Vnucleocytoplasmic transport
p183
I414
tp184
a(Vcell junction organization
p185
I409
tp186
a(Vtransferase activity, transferring glycosyl groups
p187
I390
tp188
a(Vcell division
p189
I378
tp190
a(Vnuclease activity
p191
I366
tp192
a(Vplastid
p193
I364
tp194
a(Vproteinaceous extracellular matrix
p195
I357
tp196
a(Vlyase activity
p197
I352
tp198
a(Vlysosome
p199
I345
tp200
a(Vdevelopmental maturation
p201
I343
tp202
a(Vhelicase activity
p203
I317
tp204
a(Vcytoskeleton-dependent intracellular transport
p205
I314
tp206
a(Vmitochondrion organization
p207
I294
tp208
a(Vprotein folding
p209
I281
tp210
a(Vribonucleoprotein complex assembly
p211
I279
tp212
a(Vmethyltransferase activity
p213
I277
tp214
a(VGTPase activity
p215
I268
tp216
a(Vchromosome
p217
I264
tp218
a(Vhistone binding
p219
I246
tp220
a(Vnuclear envelope
p221
I244
tp222
a(Vstructural constituent of ribosome
p223
I242
tp224
a(VmRNA binding
p225
I233
tp226
a(Vsecondary metabolic process
p227
I223
tp228
a(Vplasma membrane organization
p229
I220
tp230
a(Vnucleotidyltransferase activity
p231
I218
tp232
a(Vexternal encapsulating structure
p233
I209
tp234
a(Vcell wall
p235
I206
tp236
a(Visomerase activity
p237
I195
tp238
a(Vhydrolase activity, acting on glycosyl bonds
p239
I192
tp240
a(Vhydrolase activity, acting on carbon-nitrogen (but not peptide) bonds
p241
I183
tp242
a(Vmitosis
p243
I182
tp244
a(Vvacuolar transport
p245
I179
tp246
a(Vcell wall organization or biogenesis
p247
I178
tp248
a(Vprotein binding, bridging
p249
I177
tp250
a(Vsmall conjugating protein binding
p251
I165
tp252
a(Vchromosome segregation
p253
I160
tp254
a(Vperoxisome
p255
I153
tp256
a(VtRNA metabolic process
p257
I149
tp258
a(Vprotein transporter activity
p259
I130
tp260
a(Vtranslation factor activity, nucleic acid binding
p261
I124
tp262
a(Vlipid particle
p263
I123
tp264
a(Vunfolded protein binding
p265
I122
tp266
a(Vtranslation
p267
I112
tp268
a(Vribosome biogenesis
p269
I97
tp270
a(Vtransferase activity, transferring alkyl or aryl (other than methyl) groups
p271
I91
tp272
a(Vribosome
p273
I89
tp274
a(Vnuclear chromosome
p275
I87
tp276
a(Vintracellular
p277
I83
tp278
a(Vpigmentation
p279
I68
tp280
a(VrRNA binding
p281
I62
tp282
a(Vthylakoid
p283
I22
tp284
a(Vnitrogen cycle metabolic process
p285
I16
tp286
a(Vphotosynthesis
p287
I6
tp288
a(Vcell
p289
I6
tp290
a(Vtransposition
p291
I4
tp292
a(VRNA modification guide activity
p293
I1
tp294
aa(lp295
(g3
L6372L
tp296
a(g5
L4365L
tp297
a(g7
L2787L
tp298
a(g9
L21685L
tp299
a(g11
L26888L
tp300
a(g13
L5491L
tp301
a(g15
L5801L
tp302
a(g17
L18268L
tp303
a(g19
L5613L
tp304
a(g21
L21693L
tp305
a(g23
L21630L
tp306
a(g25
L22689L
tp307
a(g27
L7192L
tp308
a(g29
L5168L
tp309
a(g31
L7190L
tp310
a(g33
L1781L
tp311
a(g35
L13924L
tp312
a(g37
L13633L
tp313
a(g39
L4599L
tp314
a(g41
L12968L
tp315
a(g43
L5326L
tp316
a(g45
L20507L
tp317
a(g47
L4644L
tp318
a(g49
L13690L
tp319
a(g51
L10381L
tp320
a(g53
L26682L
tp321
a(g55
L4507L
tp322
a(g57
L4422L
tp323
a(g59
L21086L
tp324
a(g61
L4995L
tp325
a(g63
L26901L
tp326
a(g65
L3827L
tp327
a(g67
L29927L
tp328
a(g69
L2790L
tp329
a(g71
L4514L
tp330
a(g73
L31581L
tp331
a(g75
L27837L
tp332
a(g77
L28228L
tp333
a(g79
L10598L
tp334
a(g81
L20503L
tp335
a(g83
L28535L
tp336
a(g85
L7881L
tp337
a(g87
L6320L
tp338
a(g89
L18282L
tp339
a(g91
L4725L
tp340
a(g93
L10466L
tp341
a(g95
L5165L
tp342
a(g97
L5663L
tp343
a(g99
L6500L
tp344
a(g101
L10229L
tp345
a(g103
L5791L
tp346
a(g105
L2830L
tp347
a(g107
L4567L
tp348
a(g109
L5896L
tp349
a(g111
L6448L
tp350
a(g113
L4621L
tp351
a(g115
L4515L
tp352
a(g117
L5218L
tp353
a(g119
L6436L
tp354
a(g121
L4556L
tp355
a(g123
L6494L
tp356
a(g125
L4542L
tp357
a(g127
L30984L
tp358
a(g129
L14001L
tp359
a(g131
L10950L
tp360
a(g133
L4586L
tp361
a(g135
L10963L
tp362
a(g137
L594L
tp363
a(g139
L4366L
tp364
a(g141
L4118L
tp365
a(g143
L677L
tp366
a(g145
L4439L
tp367
a(g147
L6357L
tp368
a(g149
L759L
tp369
a(g151
L5302L
tp370
a(g153
L4405L
tp371
a(g155
L13967L
tp372
a(g157
L5471L
tp373
a(g159
L4684L
tp374
a(g161
L4546L
tp375
a(g163
L10870L
tp376
a(g165
L5112L
tp377
a(g167
L22810L
tp378
a(g169
L10829L
tp379
a(g171
L28144L
tp380
a(g173
L4838L
tp381
a(g175
L2364L
tp382
a(g177
L3L
tp383
a(g179
L5695L
tp384
a(g181
L6169L
tp385
a(g183
L5582L
tp386
a(g185
L17965L
tp387
a(g187
L10840L
tp388
a(g189
L28251L
tp389
a(g191
L3518L
tp390
a(g193
L7644L
tp391
a(g195
L4368L
tp392
a(g197
L10905L
tp393
a(g199
L4538L
tp394
a(g201
L13274L
tp395
a(g203
L3404L
tp396
a(g205
L14427L
tp397
a(g207
L5658L
tp398
a(g209
L5161L
tp399
a(g211
L13644L
tp400
a(g213
L6389L
tp401
a(g215
L2991L
tp402
a(g217
L4475L
tp403
a(g219
L20900L
tp404
a(g221
L4423L
tp405
a(g223
L2841L
tp406
a(g225
L2835L
tp407
a(g227
L12827L
tp408
a(g229
L5662L
tp409
a(g231
L10860L
tp410
a(g233
L14078L
tp411
a(g235
L4408L
tp412
a(g237
L10929L
tp413
a(g239
L10876L
tp414
a(g241
L10886L
tp415
a(g243
L5712L
tp416
a(g245
L5682L
tp417
a(g247
L33137L
tp418
a(g249
L14396L
tp419
a(g251
L15840L
tp420
a(g253
L5705L
tp421
a(g255
L4550L
tp422
a(g257
L5114L
tp423
a(g259
L6747L
tp424
a(g261
L6358L
tp425
a(g263
L4583L
tp426
a(g265
L28040L
tp427
a(g267
L5126L
tp428
a(g269
L20770L
tp429
a(g271
L10848L
tp430
a(g273
L4609L
tp431
a(g275
L201L
tp432
a(g277
L4411L
tp433
a(g279
L21900L
tp434
a(g281
L12918L
tp435
a(g283
L7683L
tp436
a(g285
L33512L
tp437
a(g287
L10192L
tp438
a(g289
L4412L
tp439
a(g291
L15852L
tp440
a(g293
L14288L
tp441
aaI599663
a.