(lp1
(lp2
(Vbiological_process
p3
I191567
tp4
a(Vcellular_component
p5
I64282
tp6
a(Vmolecular_function
p7
I53628
tp8
a(Vorganelle
p9
I17001
tp10
a(Vanatomical structure development
p11
I14174
tp12
a(Vtransport
p13
I10852
tp14
a(Vsignal transduction
p15
I8989
tp16
a(Vcellular nitrogen compound metabolic process
p17
I8514
tp18
a(Vresponse to stress
p19
I7401
tp20
a(Vprotein complex
p21
I7385
tp22
a(Vion binding
p23
I6565
tp24
a(Vsmall molecule metabolic process
p25
I6396
tp26
a(Vbiosynthetic process
p27
I5733
tp28
a(Vcellular protein modification process
p29
I4974
tp30
a(Vcatabolic process
p31
I4600
tp32
a(Vimmune system process
p33
I4199
tp34
a(Vcellular component assembly
p35
I3287
tp36
a(Vcell differentiation
p37
I3261
tp38
a(Vcytosol
p39
I3175
tp40
a(Venzyme binding
p41
I2949
tp42
a(Vlipid metabolic process
p43
I2859
tp44
a(Vplasma membrane
p45
I2451
tp46
a(Vtransmembrane transporter activity
p47
I2341
tp48
a(Vlocomotion
p49
I2325
tp50
a(Vvesicle-mediated transport
p51
I2243
tp52
a(Vnucleolus
p53
I2222
tp54
a(Vnucleus
p55
I2120
tp56
a(Vanatomical structure formation involved in morphogenesis
p57
I2080
tp58
a(VDNA binding
p59
I1959
tp60
a(Vmacromolecular complex assembly
p61
I1860
tp62
a(VDNA metabolic process
p63
I1857
tp64
a(Voxidoreductase activity
p65
I1831
tp66
a(Vcarbohydrate metabolic process
p67
I1825
tp68
a(Vhomeostatic process
p69
I1811
tp70
a(Vcytoplasm
p71
I1784
tp72
a(Vchromosome organization
p73
I1727
tp74
a(Vtransmembrane transport
p75
I1719
tp76
a(Vembryo development
p77
I1644
tp78
a(Vprotein maturation
p79
I1640
tp80
a(Vcell motility
p81
I1636
tp82
a(Vcytoskeletal protein binding
p83
I1583
tp84
a(Vneurological system process
p85
I1554
tp86
a(Vprotein complex assembly
p87
I1511
tp88
a(Vnucleobase-containing compound catabolic process
p89
I1495
tp90
a(Vcytoskeleton organization
p91
I1461
tp92
a(Vgrowth
p93
I1457
tp94
a(VRNA binding
p95
I1398
tp96
a(Vkinase activity
p97
I1369
tp98
a(Vsignal transducer activity
p99
I1320
tp100
a(Vcellular amino acid metabolic process
p101
I1243
tp102
a(Vmitochondrion
p103
I1211
tp104
a(Vcytoplasmic membrane-bounded vesicle
p105
I1198
tp106
a(VGolgi apparatus
p107
I1152
tp108
a(Vlipid binding
p109
I1089
tp110
a(Vcell adhesion
p111
I1057
tp112
a(Vcytoskeleton
p113
I1057
tp114
a(Venzyme regulator activity
p115
I1025
tp116
a(Vpeptidase activity
p117
I1018
tp118
a(Vendoplasmic reticulum
p119
I1000
tp120
a(Vmembrane organization
p121
I999
tp122
a(Vcell death
p123
I988
tp124
a(Vcell proliferation
p125
I930
tp126
a(Vligase activity
p127
I927
tp128
a(Vendosome
p129
I925
tp130
a(Vcell-cell signaling
p131
I923
tp132
a(Vtranscription factor binding
p133
I848
tp134
a(Vmicrotubule organizing center
p135
I818
tp136
a(VATPase activity
p137
I816
tp138
a(Vnucleoplasm
p139
I810
tp140
a(Vprotein binding transcription factor activity
p141
I801
tp142
a(Vnucleic acid binding transcription factor activity
p143
I789
tp144
a(Vcell morphogenesis
p145
I743
tp146
a(Vstructural molecule activity
p147
I737
tp148
a(Vsulfur compound metabolic process
p149
I662
tp150
a(Vextracellular region
p151
I653
tp152
a(Vsymbiosis, encompassing mutualism through parasitism
p153
I607
tp154
a(Vprotein targeting
p155
I588
tp156
a(Vcofactor metabolic process
p157
I584
tp158
a(VmRNA processing
p159
I568
tp160
a(Vgeneration of precursor metabolites and energy
p161
I566
tp162
a(Vvacuole
p163
I562
tp164
a(Vextracellular space
p165
I550
tp166
a(Vextracellular matrix organization
p167
I536
tp168
a(Vtransferase activity, transferring acyl groups
p169
I533
tp170
a(Vphosphatase activity
p171
I499
tp172
a(Vreproduction
p173
I439
tp174
a(Vcilium
p175
I416
tp176
a(Vcell junction organization
p177
I413
tp178
a(Vcell cycle
p179
I407
tp180
a(Vnucleocytoplasmic transport
p181
I390
tp182
a(Vtransferase activity, transferring glycosyl groups
p183
I374
tp184
a(Vcell division
p185
I372
tp186
a(Vlyase activity
p187
I368
tp188
a(Vaging
p189
I362
tp190
a(Vlysosome
p191
I344
tp192
a(Vmitochondrion organization
p193
I332
tp194
a(Vmethyltransferase activity
p195
I331
tp196
a(Vprotein folding
p197
I330
tp198
a(Vplastid
p199
I328
tp200
a(Vnuclease activity
p201
I312
tp202
a(Vdevelopmental maturation
p203
I307
tp204
a(Vhelicase activity
p205
I299
tp206
a(Vcirculatory system process
p207
I293
tp208
a(VGTPase activity
p209
I286
tp210
a(Vribonucleoprotein complex assembly
p211
I279
tp212
a(Vcytoskeleton-dependent intracellular transport
p213
I271
tp214
a(VmRNA binding
p215
I266
tp216
a(Vchromosome
p217
I251
tp218
a(Vsecondary metabolic process
p219
I241
tp220
a(Vhistone binding
p221
I241
tp222
a(Visomerase activity
p223
I225
tp224
a(Vplasma membrane organization
p225
I212
tp226
a(Vnuclear envelope
p227
I207
tp228
a(Vhydrolase activity, acting on carbon-nitrogen (but not peptide) bonds
p229
I206
tp230
a(Vhydrolase activity, acting on glycosyl bonds
p231
I206
tp232
a(Vexternal encapsulating structure
p233
I198
tp234
a(Vcell wall
p235
I191
tp236
a(Vproteinaceous extracellular matrix
p237
I182
tp238
a(VtRNA metabolic process
p239
I182
tp240
a(Vvacuolar transport
p241
I178
tp242
a(Vnucleotidyltransferase activity
p243
I178
tp244
a(Vmitosis
p245
I172
tp246
a(Vprotein binding, bridging
p247
I170
tp248
a(Vchromosome segregation
p249
I163
tp250
a(Vsmall conjugating protein binding
p251
I153
tp252
a(Vperoxisome
p253
I152
tp254
a(Vtranslation factor activity, nucleic acid binding
p255
I146
tp256
a(Vstructural constituent of ribosome
p257
I143
tp258
a(Vunfolded protein binding
p259
I141
tp260
a(Vcell wall organization or biogenesis
p261
I137
tp262
a(Vprotein transporter activity
p263
I127
tp264
a(Vtranslation
p265
I126
tp266
a(Vlipid particle
p267
I115
tp268
a(Vintracellular
p269
I102
tp270
a(Vribosome
p271
I99
tp272
a(Vtransferase activity, transferring alkyl or aryl (other than methyl) groups
p273
I95
tp274
a(Vnuclear chromosome
p275
I73
tp276
a(Vpigmentation
p277
I59
tp278
a(VrRNA binding
p279
I52
tp280
a(Vribosome biogenesis
p281
I48
tp282
a(Vthylakoid
p283
I29
tp284
a(Vnitrogen cycle metabolic process
p285
I26
tp286
a(Vtransposition
p287
I11
tp288
a(Vphotosynthesis
p289
I8
tp290
a(Vcell
p291
I7
tp292
a(VRNA modification guide activity
p293
I2
tp294
aa(lp295
(g3
L6372L
tp296
a(g5
L4365L
tp297
a(g7
L2787L
tp298
a(g9
L21685L
tp299
a(g11
L26888L
tp300
a(g13
L5491L
tp301
a(g15
L5801L
tp302
a(g17
L18268L
tp303
a(g19
L5613L
tp304
a(g21
L21693L
tp305
a(g23
L21630L
tp306
a(g25
L22689L
tp307
a(g27
L7192L
tp308
a(g29
L5168L
tp309
a(g31
L7190L
tp310
a(g33
L1781L
tp311
a(g35
L13633L
tp312
a(g37
L13924L
tp313
a(g39
L4599L
tp314
a(g41
L12968L
tp315
a(g43
L5326L
tp316
a(g45
L4644L
tp317
a(g47
L13690L
tp318
a(g49
L20507L
tp319
a(g51
L10381L
tp320
a(g53
L4507L
tp321
a(g55
L4422L
tp322
a(g57
L26682L
tp323
a(g59
L2790L
tp324
a(g61
L31581L
tp325
a(g63
L4995L
tp326
a(g65
L10598L
tp327
a(g67
L4725L
tp328
a(g69
L21086L
tp329
a(g71
L4514L
tp330
a(g73
L28228L
tp331
a(g75
L29927L
tp332
a(g77
L7881L
tp333
a(g79
L28535L
tp334
a(g81
L26901L
tp335
a(g83
L6320L
tp336
a(g85
L27837L
tp337
a(g87
L5165L
tp338
a(g89
L18282L
tp339
a(g91
L5663L
tp340
a(g93
L20503L
tp341
a(g95
L2830L
tp342
a(g97
L10466L
tp343
a(g99
L3827L
tp344
a(g101
L5218L
tp345
a(g103
L4515L
tp346
a(g105
L10229L
tp347
a(g107
L4567L
tp348
a(g109
L6500L
tp349
a(g111
L5791L
tp350
a(g113
L4621L
tp351
a(g115
L14001L
tp352
a(g117
L6448L
tp353
a(g119
L4556L
tp354
a(g121
L30984L
tp355
a(g123
L6436L
tp356
a(g125
L6494L
tp357
a(g127
L10950L
tp358
a(g129
L4542L
tp359
a(g131
L5896L
tp360
a(g133
L6357L
tp361
a(g135
L4586L
tp362
a(g137
L10963L
tp363
a(g139
L4439L
tp364
a(g141
L677L
tp365
a(g143
L759L
tp366
a(g145
L594L
tp367
a(g147
L4118L
tp368
a(g149
L5471L
tp369
a(g151
L4366L
tp370
a(g153
L22810L
tp371
a(g155
L5302L
tp372
a(g157
L28144L
tp373
a(g159
L5112L
tp374
a(g161
L4838L
tp375
a(g163
L4546L
tp376
a(g165
L4405L
tp377
a(g167
L13967L
tp378
a(g169
L10829L
tp379
a(g171
L10870L
tp380
a(g173
L3L
tp381
a(g175
L4684L
tp382
a(g177
L17965L
tp383
a(g179
L5695L
tp384
a(g181
L5582L
tp385
a(g183
L10840L
tp386
a(g185
L28251L
tp387
a(g187
L10905L
tp388
a(g189
L6169L
tp389
a(g191
L4538L
tp390
a(g193
L5658L
tp391
a(g195
L6389L
tp392
a(g197
L5161L
tp393
a(g199
L7644L
tp394
a(g201
L3518L
tp395
a(g203
L13274L
tp396
a(g205
L3404L
tp397
a(g207
L2364L
tp398
a(g209
L2991L
tp399
a(g211
L13644L
tp400
a(g213
L14427L
tp401
a(g215
L2835L
tp402
a(g217
L4475L
tp403
a(g219
L12827L
tp404
a(g221
L20900L
tp405
a(g223
L10929L
tp406
a(g225
L5662L
tp407
a(g227
L4423L
tp408
a(g229
L10886L
tp409
a(g231
L10876L
tp410
a(g233
L14078L
tp411
a(g235
L4408L
tp412
a(g237
L4368L
tp413
a(g239
L5114L
tp414
a(g241
L5682L
tp415
a(g243
L10860L
tp416
a(g245
L5712L
tp417
a(g247
L14396L
tp418
a(g249
L5705L
tp419
a(g251
L15840L
tp420
a(g253
L4550L
tp421
a(g255
L6358L
tp422
a(g257
L2841L
tp423
a(g259
L28040L
tp424
a(g261
L33137L
tp425
a(g263
L6747L
tp426
a(g265
L5126L
tp427
a(g267
L4583L
tp428
a(g269
L4411L
tp429
a(g271
L4609L
tp430
a(g273
L10848L
tp431
a(g275
L201L
tp432
a(g277
L21900L
tp433
a(g279
L12918L
tp434
a(g281
L20770L
tp435
a(g283
L7683L
tp436
a(g285
L33512L
tp437
a(g287
L15852L
tp438
a(g289
L10192L
tp439
a(g291
L4412L
tp440
a(g293
L14288L
tp441
aaI524799
a.