(lp1
(lp2
(Vbiological_process
p3
I134345
tp4
a(Vcellular_component
p5
I49136
tp6
a(Vmolecular_function
p7
I41380
tp8
a(Vorganelle
p9
I13055
tp10
a(Vanatomical structure development
p11
I9829
tp12
a(Vtransport
p13
I8542
tp14
a(Vcellular nitrogen compound metabolic process
p15
I6871
tp16
a(Vsignal transduction
p17
I6361
tp18
a(Vprotein complex
p19
I5365
tp20
a(Vion binding
p21
I5109
tp22
a(Vresponse to stress
p23
I4838
tp24
a(Vsmall molecule metabolic process
p25
I4716
tp26
a(Vbiosynthetic process
p27
I4144
tp28
a(Vcellular protein modification process
p29
I3602
tp30
a(Vcatabolic process
p31
I3341
tp32
a(Vimmune system process
p33
I2916
tp34
a(Vcytosol
p35
I2521
tp36
a(Vcellular component assembly
p37
I2309
tp38
a(Vcell differentiation
p39
I2280
tp40
a(Vlipid metabolic process
p41
I2194
tp42
a(Venzyme binding
p43
I2017
tp44
a(Vtransmembrane transporter activity
p45
I1963
tp46
a(Vplasma membrane
p47
I1904
tp48
a(Vnucleus
p49
I1864
tp50
a(Vnucleolus
p51
I1759
tp52
a(Vvesicle-mediated transport
p53
I1673
tp54
a(VDNA metabolic process
p55
I1667
tp56
a(Vcytoplasm
p57
I1632
tp58
a(Vtransmembrane transport
p59
I1608
tp60
a(Vlocomotion
p61
I1450
tp62
a(Voxidoreductase activity
p63
I1411
tp64
a(Vanatomical structure formation involved in morphogenesis
p65
I1410
tp66
a(VDNA binding
p67
I1399
tp68
a(Vhomeostatic process
p69
I1331
tp70
a(Vchromosome organization
p71
I1322
tp72
a(Vmacromolecular complex assembly
p73
I1321
tp74
a(Vcarbohydrate metabolic process
p75
I1231
tp76
a(Vprotein maturation
p77
I1215
tp78
a(Vnucleobase-containing compound catabolic process
p79
I1209
tp80
a(Vembryo development
p81
I1118
tp82
a(Vneurological system process
p83
I1110
tp84
a(Vcytoskeletal protein binding
p85
I1089
tp86
a(Vkinase activity
p87
I1077
tp88
a(Vprotein complex assembly
p89
I1061
tp90
a(Vcell motility
p91
I1056
tp92
a(Vsignal transducer activity
p93
I1048
tp94
a(Vcytoskeleton organization
p95
I1022
tp96
a(VRNA binding
p97
I968
tp98
a(Vcellular amino acid metabolic process
p99
I906
tp100
a(Vmitochondrion
p101
I905
tp102
a(Vpeptidase activity
p103
I903
tp104
a(Vlipid binding
p105
I888
tp106
a(Vgrowth
p107
I874
tp108
a(Vcytoplasmic membrane-bounded vesicle
p109
I871
tp110
a(VGolgi apparatus
p111
I818
tp112
a(Vcytoskeleton
p113
I776
tp114
a(Vendoplasmic reticulum
p115
I742
tp116
a(Vcell-cell signaling
p117
I740
tp118
a(Venzyme regulator activity
p119
I734
tp120
a(Vmembrane organization
p121
I727
tp122
a(Vendosome
p123
I695
tp124
a(Vnucleoplasm
p125
I678
tp126
a(Vligase activity
p127
I640
tp128
a(Vcell death
p129
I637
tp130
a(Vcell adhesion
p131
I632
tp132
a(Vmicrotubule organizing center
p133
I620
tp134
a(VATPase activity
p135
I613
tp136
a(Vcell proliferation
p137
I604
tp138
a(Vtranscription factor binding
p139
I574
tp140
a(Vextracellular region
p141
I572
tp142
a(Vnucleic acid binding transcription factor activity
p143
I535
tp144
a(Vstructural molecule activity
p145
I525
tp146
a(Vprotein binding transcription factor activity
p147
I519
tp148
a(Vsulfur compound metabolic process
p149
I495
tp150
a(Vcell morphogenesis
p151
I470
tp152
a(Vprotein targeting
p153
I457
tp154
a(Vsymbiosis, encompassing mutualism through parasitism
p155
I427
tp156
a(Vcofactor metabolic process
p157
I422
tp158
a(VmRNA processing
p159
I420
tp160
a(Vextracellular space
p161
I412
tp162
a(Vphosphatase activity
p163
I407
tp164
a(Vvacuole
p165
I400
tp166
a(Vextracellular matrix organization
p167
I397
tp168
a(Vgeneration of precursor metabolites and energy
p169
I397
tp170
a(Vtransferase activity, transferring acyl groups
p171
I387
tp172
a(Vcilium
p173
I348
tp174
a(Vtransferase activity, transferring glycosyl groups
p175
I335
tp176
a(Vnucleocytoplasmic transport
p177
I313
tp178
a(Vcell cycle
p179
I295
tp180
a(Vlyase activity
p181
I274
tp182
a(Vlysosome
p183
I263
tp184
a(Vreproduction
p185
I252
tp186
a(Vaging
p187
I249
tp188
a(Vmethyltransferase activity
p189
I249
tp190
a(Vcell junction organization
p191
I239
tp192
a(Vhelicase activity
p193
I233
tp194
a(Vprotein folding
p195
I230
tp196
a(Vcirculatory system process
p197
I228
tp198
a(Vcell division
p199
I226
tp200
a(Vnuclease activity
p201
I225
tp202
a(VGTPase activity
p203
I222
tp204
a(Vmitochondrion organization
p205
I212
tp206
a(Vcytoskeleton-dependent intracellular transport
p207
I211
tp208
a(Vribonucleoprotein complex assembly
p209
I209
tp210
a(Vplastid
p211
I190
tp212
a(Vhistone binding
p213
I186
tp214
a(Vdevelopmental maturation
p215
I184
tp216
a(Vchromosome
p217
I174
tp218
a(Vplasma membrane organization
p219
I166
tp220
a(Vproteinaceous extracellular matrix
p221
I162
tp222
a(Vnucleotidyltransferase activity
p223
I162
tp224
a(Visomerase activity
p225
I160
tp226
a(Vhydrolase activity, acting on glycosyl bonds
p227
I160
tp228
a(Vstructural constituent of ribosome
p229
I148
tp230
a(VmRNA binding
p231
I145
tp232
a(Vhydrolase activity, acting on carbon-nitrogen (but not peptide) bonds
p233
I143
tp234
a(Vnuclear envelope
p235
I140
tp236
a(Vsecondary metabolic process
p237
I136
tp238
a(Vmitosis
p239
I126
tp240
a(VtRNA metabolic process
p241
I122
tp242
a(Vperoxisome
p243
I121
tp244
a(Vprotein binding, bridging
p245
I112
tp246
a(Vvacuolar transport
p247
I112
tp248
a(Vunfolded protein binding
p249
I108
tp250
a(Vtranslation factor activity, nucleic acid binding
p251
I105
tp252
a(Vintracellular
p253
I103
tp254
a(Vchromosome segregation
p255
I99
tp256
a(Vtranslation
p257
I94
tp258
a(Vsmall conjugating protein binding
p259
I92
tp260
a(Vexternal encapsulating structure
p261
I91
tp262
a(Vcell wall
p263
I88
tp264
a(Vprotein transporter activity
p265
I88
tp266
a(Vlipid particle
p267
I77
tp268
a(Vcell wall organization or biogenesis
p269
I77
tp270
a(Vtransferase activity, transferring alkyl or aryl (other than methyl) groups
p271
I77
tp272
a(Vnuclear chromosome
p273
I63
tp274
a(Vribosome
p275
I57
tp276
a(Vribosome biogenesis
p277
I51
tp278
a(Vpigmentation
p279
I40
tp280
a(VrRNA binding
p281
I37
tp282
a(Vthylakoid
p283
I16
tp284
a(Vnitrogen cycle metabolic process
p285
I15
tp286
a(Vcell
p287
I8
tp288
a(Vtransposition
p289
I6
tp290
a(Vphotosynthesis
p291
I2
tp292
aa(lp293
(g3
L6372L
tp294
a(g5
L4365L
tp295
a(g7
L2787L
tp296
a(g9
L21685L
tp297
a(g11
L26888L
tp298
a(g13
L5491L
tp299
a(g15
L18268L
tp300
a(g17
L5801L
tp301
a(g19
L21693L
tp302
a(g21
L21630L
tp303
a(g23
L5613L
tp304
a(g25
L22689L
tp305
a(g27
L7192L
tp306
a(g29
L5168L
tp307
a(g31
L7190L
tp308
a(g33
L1781L
tp309
a(g35
L4599L
tp310
a(g37
L13633L
tp311
a(g39
L13924L
tp312
a(g41
L5326L
tp313
a(g43
L12968L
tp314
a(g45
L13690L
tp315
a(g47
L4644L
tp316
a(g49
L4422L
tp317
a(g51
L4507L
tp318
a(g53
L10381L
tp319
a(g55
L4995L
tp320
a(g57
L4514L
tp321
a(g59
L29927L
tp322
a(g61
L20507L
tp323
a(g63
L10598L
tp324
a(g65
L26682L
tp325
a(g67
L2790L
tp326
a(g69
L21086L
tp327
a(g71
L28228L
tp328
a(g73
L31581L
tp329
a(g75
L4725L
tp330
a(g77
L28535L
tp331
a(g79
L18282L
tp332
a(g81
L7881L
tp333
a(g83
L27837L
tp334
a(g85
L6320L
tp335
a(g87
L10466L
tp336
a(g89
L5165L
tp337
a(g91
L26901L
tp338
a(g93
L3827L
tp339
a(g95
L5663L
tp340
a(g97
L2830L
tp341
a(g99
L5218L
tp342
a(g101
L4515L
tp343
a(g103
L6448L
tp344
a(g105
L6500L
tp345
a(g107
L20503L
tp346
a(g109
L10229L
tp347
a(g111
L4567L
tp348
a(g113
L4621L
tp349
a(g115
L4556L
tp350
a(g117
L5896L
tp351
a(g119
L14001L
tp352
a(g121
L30984L
tp353
a(g123
L4542L
tp354
a(g125
L4439L
tp355
a(g127
L10950L
tp356
a(g129
L6436L
tp357
a(g131
L5791L
tp358
a(g133
L4586L
tp359
a(g135
L10963L
tp360
a(g137
L6494L
tp361
a(g139
L6357L
tp362
a(g141
L4366L
tp363
a(g143
L759L
tp364
a(g145
L4118L
tp365
a(g147
L677L
tp366
a(g149
L5471L
tp367
a(g151
L594L
tp368
a(g153
L5302L
tp369
a(g155
L22810L
tp370
a(g157
L28144L
tp371
a(g159
L5112L
tp372
a(g161
L4405L
tp373
a(g163
L10870L
tp374
a(g165
L4546L
tp375
a(g167
L13967L
tp376
a(g169
L4838L
tp377
a(g171
L10829L
tp378
a(g173
L4684L
tp379
a(g175
L10840L
tp380
a(g177
L5582L
tp381
a(g179
L5695L
tp382
a(g181
L10905L
tp383
a(g183
L4538L
tp384
a(g185
L3L
tp385
a(g187
L6169L
tp386
a(g189
L6389L
tp387
a(g191
L17965L
tp388
a(g193
L3404L
tp389
a(g195
L5161L
tp390
a(g197
L2364L
tp391
a(g199
L28251L
tp392
a(g201
L3518L
tp393
a(g203
L2991L
tp394
a(g205
L5658L
tp395
a(g207
L14427L
tp396
a(g209
L13644L
tp397
a(g211
L7644L
tp398
a(g213
L20900L
tp399
a(g215
L13274L
tp400
a(g217
L4475L
tp401
a(g219
L5662L
tp402
a(g221
L4368L
tp403
a(g223
L10860L
tp404
a(g225
L10929L
tp405
a(g227
L10876L
tp406
a(g229
L2841L
tp407
a(g231
L2835L
tp408
a(g233
L10886L
tp409
a(g235
L4423L
tp410
a(g237
L12827L
tp411
a(g239
L5712L
tp412
a(g241
L5114L
tp413
a(g243
L4550L
tp414
a(g245
L14396L
tp415
a(g247
L5682L
tp416
a(g249
L28040L
tp417
a(g251
L6358L
tp418
a(g253
L4411L
tp419
a(g255
L5705L
tp420
a(g257
L5126L
tp421
a(g259
L15840L
tp422
a(g261
L14078L
tp423
a(g263
L4408L
tp424
a(g265
L6747L
tp425
a(g267
L4583L
tp426
a(g269
L33137L
tp427
a(g271
L10848L
tp428
a(g273
L201L
tp429
a(g275
L4609L
tp430
a(g277
L20770L
tp431
a(g279
L21900L
tp432
a(g281
L12918L
tp433
a(g283
L7683L
tp434
a(g285
L33512L
tp435
a(g287
L4412L
tp436
a(g289
L15852L
tp437
a(g291
L10192L
tp438
aaI383664
a.