(lp1
(lp2
(Vbiological_process
p3
I381871
tp4
a(Vcellular_component
p5
I127126
tp6
a(Vmolecular_function
p7
I103319
tp8
a(Vorganelle
p9
I33364
tp10
a(Vanatomical structure development
p11
I29270
tp12
a(Vtransport
p13
I22000
tp14
a(Vsignal transduction
p15
I17427
tp16
a(Vcellular nitrogen compound metabolic process
p17
I16969
tp18
a(Vprotein complex
p19
I14117
tp20
a(Vresponse to stress
p21
I14061
tp22
a(Vion binding
p23
I12549
tp24
a(Vsmall molecule metabolic process
p25
I11269
tp26
a(Vbiosynthetic process
p27
I10523
tp28
a(Vcellular protein modification process
p29
I9581
tp30
a(Vcatabolic process
p31
I8320
tp32
a(Vimmune system process
p33
I7738
tp34
a(Vcell differentiation
p35
I7060
tp36
a(Vcellular component assembly
p37
I6294
tp38
a(Vcytosol
p39
I5545
tp40
a(Venzyme binding
p41
I5461
tp42
a(Vlipid metabolic process
p43
I5352
tp44
a(Vlocomotion
p45
I4973
tp46
a(Vplasma membrane
p47
I4664
tp48
a(Vanatomical structure formation involved in morphogenesis
p49
I4631
tp50
a(Vvesicle-mediated transport
p51
I4621
tp52
a(Vtransmembrane transporter activity
p53
I4617
tp54
a(Vnucleolus
p55
I4487
tp56
a(VDNA metabolic process
p57
I4146
tp58
a(Vnucleus
p59
I4107
tp60
a(Vhomeostatic process
p61
I3794
tp62
a(Vchromosome organization
p63
I3628
tp64
a(VDNA binding
p65
I3572
tp66
a(Vcell motility
p67
I3522
tp68
a(Vmacromolecular complex assembly
p69
I3467
tp70
a(Vtransmembrane transport
p71
I3442
tp72
a(Vcytoplasm
p73
I3427
tp74
a(Vsignal transducer activity
p75
I3426
tp76
a(Vneurological system process
p77
I3227
tp78
a(Vcytoskeletal protein binding
p79
I3093
tp80
a(Vnucleobase-containing compound catabolic process
p81
I3084
tp82
a(Vgrowth
p83
I3032
tp84
a(Vcarbohydrate metabolic process
p85
I3026
tp86
a(Vembryo development
p87
I3007
tp88
a(Vprotein maturation
p89
I2982
tp90
a(Voxidoreductase activity
p91
I2917
tp92
a(Vkinase activity
p93
I2911
tp94
a(Vcytoskeleton organization
p95
I2880
tp96
a(Vprotein complex assembly
p97
I2793
tp98
a(Vlipid binding
p99
I2438
tp100
a(VRNA binding
p101
I2426
tp102
a(VGolgi apparatus
p103
I2362
tp104
a(Vcytoplasmic membrane-bounded vesicle
p105
I2297
tp106
a(Vcell adhesion
p107
I2277
tp108
a(Vcytoskeleton
p109
I2166
tp110
a(Vmitochondrion
p111
I2083
tp112
a(Vcell-cell signaling
p113
I2076
tp114
a(Vpeptidase activity
p115
I2030
tp116
a(Vcellular amino acid metabolic process
p117
I1973
tp118
a(Vendoplasmic reticulum
p119
I1932
tp120
a(Vcell death
p121
I1864
tp122
a(Vmembrane organization
p123
I1849
tp124
a(Vendosome
p125
I1833
tp126
a(Vcell proliferation
p127
I1830
tp128
a(VATPase activity
p129
I1802
tp130
a(Venzyme regulator activity
p131
I1731
tp132
a(Vligase activity
p133
I1730
tp134
a(Vmicrotubule organizing center
p135
I1558
tp136
a(Vnucleoplasm
p137
I1550
tp138
a(Vcell morphogenesis
p139
I1528
tp140
a(Vprotein binding transcription factor activity
p141
I1500
tp142
a(Vtranscription factor binding
p143
I1496
tp144
a(Vstructural molecule activity
p145
I1466
tp146
a(Vextracellular region
p147
I1334
tp148
a(Vprotein targeting
p149
I1320
tp150
a(Vnucleic acid binding transcription factor activity
p151
I1318
tp152
a(Vextracellular space
p153
I1148
tp154
a(Vsulfur compound metabolic process
p155
I1117
tp156
a(Vextracellular matrix organization
p157
I1013
tp158
a(Vcilium
p159
I1010
tp160
a(VmRNA processing
p161
I1009
tp162
a(Vsymbiosis, encompassing mutualism through parasitism
p163
I978
tp164
a(Vphosphatase activity
p165
I970
tp166
a(Vtransferase activity, transferring acyl groups
p167
I961
tp168
a(Vvacuole
p169
I948
tp170
a(Vcofactor metabolic process
p171
I923
tp172
a(Vgeneration of precursor metabolites and energy
p173
I866
tp174
a(Vcell cycle
p175
I796
tp176
a(Vreproduction
p177
I774
tp178
a(Vnucleocytoplasmic transport
p179
I760
tp180
a(Vcirculatory system process
p181
I757
tp182
a(Vtransferase activity, transferring glycosyl groups
p183
I755
tp184
a(Vcell junction organization
p185
I722
tp186
a(Vhelicase activity
p187
I712
tp188
a(Vaging
p189
I704
tp190
a(Vcell division
p191
I683
tp192
a(Vnuclease activity
p193
I652
tp194
a(Vplastid
p195
I623
tp196
a(Vdevelopmental maturation
p197
I611
tp198
a(Vmitochondrion organization
p199
I550
tp200
a(Vlysosome
p201
I548
tp202
a(Vlyase activity
p203
I548
tp204
a(Vchromosome
p205
I534
tp206
a(Vcytoskeleton-dependent intracellular transport
p207
I534
tp208
a(Vmethyltransferase activity
p209
I533
tp210
a(Vribonucleoprotein complex assembly
p211
I521
tp212
a(Vproteinaceous extracellular matrix
p213
I515
tp214
a(Vhistone binding
p215
I476
tp216
a(Vprotein folding
p217
I470
tp218
a(Vnuclear envelope
p219
I447
tp220
a(VGTPase activity
p221
I412
tp222
a(Vnucleotidyltransferase activity
p223
I409
tp224
a(Vsecondary metabolic process
p225
I407
tp226
a(VmRNA binding
p227
I407
tp228
a(Vplasma membrane organization
p229
I400
tp230
a(Vstructural constituent of ribosome
p231
I380
tp232
a(Vexternal encapsulating structure
p233
I373
tp234
a(Vcell wall
p235
I368
tp236
a(Visomerase activity
p237
I357
tp238
a(Vvacuolar transport
p239
I346
tp240
a(Vmitosis
p241
I343
tp242
a(Vchromosome segregation
p243
I334
tp244
a(Vhydrolase activity, acting on glycosyl bonds
p245
I328
tp246
a(Vhydrolase activity, acting on carbon-nitrogen (but not peptide) bonds
p247
I320
tp248
a(Vcell wall organization or biogenesis
p249
I307
tp250
a(Vprotein binding, bridging
p251
I297
tp252
a(Vsmall conjugating protein binding
p253
I288
tp254
a(Vperoxisome
p255
I274
tp256
a(Vprotein transporter activity
p257
I260
tp258
a(VtRNA metabolic process
p259
I259
tp260
a(Vtranslation factor activity, nucleic acid binding
p261
I232
tp262
a(Vunfolded protein binding
p263
I204
tp264
a(Vlipid particle
p265
I203
tp266
a(Vtranslation
p267
I186
tp268
a(Vribosome
p269
I168
tp270
a(Vnuclear chromosome
p271
I159
tp272
a(Vtransferase activity, transferring alkyl or aryl (other than methyl) groups
p273
I159
tp274
a(Vribosome biogenesis
p275
I154
tp276
a(Vintracellular
p277
I143
tp278
a(Vpigmentation
p279
I121
tp280
a(VrRNA binding
p281
I101
tp282
a(Vthylakoid
p283
I46
tp284
a(Vtransposition
p285
I37
tp286
a(Vnitrogen cycle metabolic process
p287
I26
tp288
a(Vphotosynthesis
p289
I9
tp290
a(Vcell
p291
I9
tp292
a(VRNA modification guide activity
p293
I2
tp294
aa(lp295
(g3
L6372L
tp296
a(g5
L4365L
tp297
a(g7
L2787L
tp298
a(g9
L21685L
tp299
a(g11
L26888L
tp300
a(g13
L5491L
tp301
a(g15
L5801L
tp302
a(g17
L18268L
tp303
a(g19
L21693L
tp304
a(g21
L5613L
tp305
a(g23
L21630L
tp306
a(g25
L22689L
tp307
a(g27
L7192L
tp308
a(g29
L5168L
tp309
a(g31
L7190L
tp310
a(g33
L1781L
tp311
a(g35
L13924L
tp312
a(g37
L13633L
tp313
a(g39
L4599L
tp314
a(g41
L12968L
tp315
a(g43
L5326L
tp316
a(g45
L20507L
tp317
a(g47
L4644L
tp318
a(g49
L26682L
tp319
a(g51
L10381L
tp320
a(g53
L13690L
tp321
a(g55
L4507L
tp322
a(g57
L4995L
tp323
a(g59
L4422L
tp324
a(g61
L21086L
tp325
a(g63
L28228L
tp326
a(g65
L2790L
tp327
a(g67
L26901L
tp328
a(g69
L31581L
tp329
a(g71
L29927L
tp330
a(g73
L4514L
tp331
a(g75
L3827L
tp332
a(g77
L27837L
tp333
a(g79
L6320L
tp334
a(g81
L18282L
tp335
a(g83
L20503L
tp336
a(g85
L4725L
tp337
a(g87
L7881L
tp338
a(g89
L28535L
tp339
a(g91
L10598L
tp340
a(g93
L10466L
tp341
a(g95
L5663L
tp342
a(g97
L5165L
tp343
a(g99
L6500L
tp344
a(g101
L2830L
tp345
a(g103
L4567L
tp346
a(g105
L10229L
tp347
a(g107
L5791L
tp348
a(g109
L4621L
tp349
a(g111
L4515L
tp350
a(g113
L5896L
tp351
a(g115
L6448L
tp352
a(g117
L5218L
tp353
a(g119
L4556L
tp354
a(g121
L6436L
tp355
a(g123
L30984L
tp356
a(g125
L4542L
tp357
a(g127
L6494L
tp358
a(g129
L10963L
tp359
a(g131
L14001L
tp360
a(g133
L10950L
tp361
a(g135
L4586L
tp362
a(g137
L4439L
tp363
a(g139
L594L
tp364
a(g141
L677L
tp365
a(g143
L6357L
tp366
a(g145
L4118L
tp367
a(g147
L4366L
tp368
a(g149
L5302L
tp369
a(g151
L759L
tp370
a(g153
L4405L
tp371
a(g155
L5471L
tp372
a(g157
L13967L
tp373
a(g159
L4684L
tp374
a(g161
L5112L
tp375
a(g163
L22810L
tp376
a(g165
L10870L
tp377
a(g167
L10829L
tp378
a(g169
L4546L
tp379
a(g171
L28144L
tp380
a(g173
L4838L
tp381
a(g175
L5695L
tp382
a(g177
L3L
tp383
a(g179
L5582L
tp384
a(g181
L2364L
tp385
a(g183
L10840L
tp386
a(g185
L17965L
tp387
a(g187
L3404L
tp388
a(g189
L6169L
tp389
a(g191
L28251L
tp390
a(g193
L3518L
tp391
a(g195
L7644L
tp392
a(g197
L13274L
tp393
a(g199
L5658L
tp394
a(g201
L4538L
tp395
a(g203
L10905L
tp396
a(g205
L4475L
tp397
a(g207
L14427L
tp398
a(g209
L6389L
tp399
a(g211
L13644L
tp400
a(g213
L4368L
tp401
a(g215
L20900L
tp402
a(g217
L5161L
tp403
a(g219
L4423L
tp404
a(g221
L2991L
tp405
a(g223
L10860L
tp406
a(g225
L12827L
tp407
a(g227
L2835L
tp408
a(g229
L5662L
tp409
a(g231
L2841L
tp410
a(g233
L14078L
tp411
a(g235
L4408L
tp412
a(g237
L10929L
tp413
a(g239
L5682L
tp414
a(g241
L5712L
tp415
a(g243
L5705L
tp416
a(g245
L10876L
tp417
a(g247
L10886L
tp418
a(g249
L33137L
tp419
a(g251
L14396L
tp420
a(g253
L15840L
tp421
a(g255
L4550L
tp422
a(g257
L6747L
tp423
a(g259
L5114L
tp424
a(g261
L6358L
tp425
a(g263
L28040L
tp426
a(g265
L4583L
tp427
a(g267
L5126L
tp428
a(g269
L4609L
tp429
a(g271
L201L
tp430
a(g273
L10848L
tp431
a(g275
L20770L
tp432
a(g277
L4411L
tp433
a(g279
L21900L
tp434
a(g281
L12918L
tp435
a(g283
L7683L
tp436
a(g285
L15852L
tp437
a(g287
L33512L
tp438
a(g289
L10192L
tp439
a(g291
L4412L
tp440
a(g293
L14288L
tp441
aaI1030457
a.