(lp1
(lp2
(Vbiological_process
p3
I379695
tp4
a(Vcellular_component
p5
I126080
tp6
a(Vmolecular_function
p7
I101852
tp8
a(Vorganelle
p9
I33175
tp10
a(Vanatomical structure development
p11
I29286
tp12
a(Vtransport
p13
I21621
tp14
a(Vsignal transduction
p15
I17054
tp16
a(Vcellular nitrogen compound metabolic process
p17
I16319
tp18
a(Vresponse to stress
p19
I13729
tp20
a(Vprotein complex
p21
I13363
tp22
a(Vion binding
p23
I12404
tp24
a(Vsmall molecule metabolic process
p25
I11358
tp26
a(Vbiosynthetic process
p27
I10257
tp28
a(Vcellular protein modification process
p29
I9334
tp30
a(Vcatabolic process
p31
I8003
tp32
a(Vimmune system process
p33
I7595
tp34
a(Vcell differentiation
p35
I7090
tp36
a(Vcellular component assembly
p37
I6053
tp38
a(Vlipid metabolic process
p39
I5549
tp40
a(Venzyme binding
p41
I5343
tp42
a(Vcytosol
p43
I5169
tp44
a(Vlocomotion
p45
I4851
tp46
a(Vtransmembrane transporter activity
p47
I4805
tp48
a(Vanatomical structure formation involved in morphogenesis
p49
I4590
tp50
a(Vplasma membrane
p51
I4542
tp52
a(Vvesicle-mediated transport
p53
I4390
tp54
a(Vnucleolus
p55
I4226
tp56
a(Vnucleus
p57
I4142
tp58
a(VDNA metabolic process
p59
I4079
tp60
a(Vhomeostatic process
p61
I3706
tp62
a(VDNA binding
p63
I3512
tp64
a(Vtransmembrane transport
p65
I3480
tp66
a(Vchromosome organization
p67
I3477
tp68
a(Vcytoplasm
p69
I3474
tp70
a(Vcell motility
p71
I3454
tp72
a(Vneurological system process
p73
I3266
tp74
a(Vmacromolecular complex assembly
p75
I3257
tp76
a(Vsignal transducer activity
p77
I3238
tp78
a(Voxidoreductase activity
p79
I3039
tp80
a(Vcytoskeletal protein binding
p81
I2965
tp82
a(Vprotein maturation
p83
I2949
tp84
a(Vgrowth
p85
I2905
tp86
a(Vcarbohydrate metabolic process
p87
I2860
tp88
a(Vnucleobase-containing compound catabolic process
p89
I2835
tp90
a(Vkinase activity
p91
I2746
tp92
a(Vembryo development
p93
I2737
tp94
a(Vprotein complex assembly
p95
I2694
tp96
a(Vcytoskeleton organization
p97
I2693
tp98
a(Vlipid binding
p99
I2377
tp100
a(Vcytoplasmic membrane-bounded vesicle
p101
I2317
tp102
a(Vcell adhesion
p103
I2297
tp104
a(VGolgi apparatus
p105
I2289
tp106
a(Vcytoskeleton
p107
I2171
tp108
a(VRNA binding
p109
I2087
tp110
a(Vpeptidase activity
p111
I2086
tp112
a(Vcell-cell signaling
p113
I2081
tp114
a(Vmitochondrion
p115
I2046
tp116
a(Vcellular amino acid metabolic process
p117
I1929
tp118
a(Vendoplasmic reticulum
p119
I1890
tp120
a(Vmembrane organization
p121
I1828
tp122
a(Vendosome
p123
I1814
tp124
a(Vcell death
p125
I1758
tp126
a(Vcell proliferation
p127
I1736
tp128
a(VATPase activity
p129
I1718
tp130
a(Venzyme regulator activity
p131
I1707
tp132
a(Vligase activity
p133
I1603
tp134
a(Vcell morphogenesis
p135
I1573
tp136
a(Vmicrotubule organizing center
p137
I1563
tp138
a(Vnucleoplasm
p139
I1507
tp140
a(Vprotein binding transcription factor activity
p141
I1482
tp142
a(Vtranscription factor binding
p143
I1458
tp144
a(Vextracellular region
p145
I1425
tp146
a(Vstructural molecule activity
p147
I1318
tp148
a(Vnucleic acid binding transcription factor activity
p149
I1315
tp150
a(Vextracellular space
p151
I1198
tp152
a(Vsulfur compound metabolic process
p153
I1147
tp154
a(Vprotein targeting
p155
I1128
tp156
a(Vextracellular matrix organization
p157
I1098
tp158
a(Vcilium
p159
I1070
tp160
a(Vtransferase activity, transferring acyl groups
p161
I981
tp162
a(Vphosphatase activity
p163
I967
tp164
a(Vvacuole
p165
I955
tp166
a(VmRNA processing
p167
I936
tp168
a(Vcofactor metabolic process
p169
I894
tp170
a(Vsymbiosis, encompassing mutualism through parasitism
p171
I875
tp172
a(Vcell cycle
p173
I803
tp174
a(Vcirculatory system process
p175
I774
tp176
a(Vtransferase activity, transferring glycosyl groups
p177
I765
tp178
a(Vgeneration of precursor metabolites and energy
p179
I759
tp180
a(Vaging
p181
I733
tp182
a(Vcell junction organization
p183
I703
tp184
a(Vreproduction
p185
I678
tp186
a(Vnucleocytoplasmic transport
p187
I670
tp188
a(Vcell division
p189
I668
tp190
a(Vnuclease activity
p191
I647
tp192
a(Vhelicase activity
p193
I634
tp194
a(Vdevelopmental maturation
p195
I600
tp196
a(Vproteinaceous extracellular matrix
p197
I581
tp198
a(Vlyase activity
p199
I576
tp200
a(Vlysosome
p201
I565
tp202
a(Vmethyltransferase activity
p203
I533
tp204
a(Vplastid
p205
I533
tp206
a(Vcytoskeleton-dependent intracellular transport
p207
I517
tp208
a(Vchromosome
p209
I503
tp210
a(Vmitochondrion organization
p211
I484
tp212
a(Vhistone binding
p213
I448
tp214
a(Vribonucleoprotein complex assembly
p215
I440
tp216
a(Vprotein folding
p217
I430
tp218
a(Vnuclear envelope
p219
I425
tp220
a(VGTPase activity
p221
I410
tp222
a(Vplasma membrane organization
p223
I408
tp224
a(Vnucleotidyltransferase activity
p225
I398
tp226
a(Vsecondary metabolic process
p227
I377
tp228
a(VmRNA binding
p229
I352
tp230
a(Vhydrolase activity, acting on glycosyl bonds
p231
I347
tp232
a(Vhydrolase activity, acting on carbon-nitrogen (but not peptide) bonds
p233
I337
tp234
a(Visomerase activity
p235
I330
tp236
a(Vexternal encapsulating structure
p237
I326
tp238
a(Vmitosis
p239
I326
tp240
a(Vcell wall
p241
I317
tp242
a(Vvacuolar transport
p243
I306
tp244
a(Vprotein binding, bridging
p245
I305
tp246
a(Vchromosome segregation
p247
I299
tp248
a(Vcell wall organization or biogenesis
p249
I281
tp250
a(Vsmall conjugating protein binding
p251
I279
tp252
a(Vstructural constituent of ribosome
p253
I272
tp254
a(Vperoxisome
p255
I256
tp256
a(VtRNA metabolic process
p257
I244
tp258
a(Vprotein transporter activity
p259
I221
tp260
a(Vlipid particle
p261
I199
tp262
a(Vtranslation factor activity, nucleic acid binding
p263
I188
tp264
a(Vunfolded protein binding
p265
I178
tp266
a(Vtranslation
p267
I172
tp268
a(Vnuclear chromosome
p269
I160
tp270
a(Vtransferase activity, transferring alkyl or aryl (other than methyl) groups
p271
I150
tp272
a(Vintracellular
p273
I142
tp274
a(Vribosome
p275
I141
tp276
a(Vribosome biogenesis
p277
I139
tp278
a(Vpigmentation
p279
I131
tp280
a(VrRNA binding
p281
I87
tp282
a(Vthylakoid
p283
I41
tp284
a(Vnitrogen cycle metabolic process
p285
I36
tp286
a(Vtransposition
p287
I32
tp288
a(Vcell
p289
I14
tp290
a(Vphotosynthesis
p291
I10
tp292
a(VRNA modification guide activity
p293
I3
tp294
aa(lp295
(g3
L6372L
tp296
a(g5
L4365L
tp297
a(g7
L2787L
tp298
a(g9
L21685L
tp299
a(g11
L26888L
tp300
a(g13
L5491L
tp301
a(g15
L5801L
tp302
a(g17
L18268L
tp303
a(g19
L5613L
tp304
a(g21
L21693L
tp305
a(g23
L21630L
tp306
a(g25
L22689L
tp307
a(g27
L7192L
tp308
a(g29
L5168L
tp309
a(g31
L7190L
tp310
a(g33
L1781L
tp311
a(g35
L13924L
tp312
a(g37
L13633L
tp313
a(g39
L5326L
tp314
a(g41
L12968L
tp315
a(g43
L4599L
tp316
a(g45
L20507L
tp317
a(g47
L13690L
tp318
a(g49
L26682L
tp319
a(g51
L4644L
tp320
a(g53
L10381L
tp321
a(g55
L4507L
tp322
a(g57
L4422L
tp323
a(g59
L4995L
tp324
a(g61
L21086L
tp325
a(g63
L2790L
tp326
a(g65
L29927L
tp327
a(g67
L28228L
tp328
a(g69
L4514L
tp329
a(g71
L26901L
tp330
a(g73
L27837L
tp331
a(g75
L31581L
tp332
a(g77
L3827L
tp333
a(g79
L10598L
tp334
a(g81
L6320L
tp335
a(g83
L28535L
tp336
a(g85
L20503L
tp337
a(g87
L4725L
tp338
a(g89
L18282L
tp339
a(g91
L10466L
tp340
a(g93
L7881L
tp341
a(g95
L5165L
tp342
a(g97
L5663L
tp343
a(g99
L6500L
tp344
a(g101
L10229L
tp345
a(g103
L5791L
tp346
a(g105
L4567L
tp347
a(g107
L4621L
tp348
a(g109
L2830L
tp349
a(g111
L6448L
tp350
a(g113
L5896L
tp351
a(g115
L4515L
tp352
a(g117
L5218L
tp353
a(g119
L4556L
tp354
a(g121
L30984L
tp355
a(g123
L4542L
tp356
a(g125
L6436L
tp357
a(g127
L6494L
tp358
a(g129
L10963L
tp359
a(g131
L14001L
tp360
a(g133
L10950L
tp361
a(g135
L594L
tp362
a(g137
L4586L
tp363
a(g139
L4439L
tp364
a(g141
L677L
tp365
a(g143
L6357L
tp366
a(g145
L4366L
tp367
a(g147
L4118L
tp368
a(g149
L759L
tp369
a(g151
L4405L
tp370
a(g153
L5471L
tp371
a(g155
L5302L
tp372
a(g157
L13967L
tp373
a(g159
L4684L
tp374
a(g161
L10829L
tp375
a(g163
L10870L
tp376
a(g165
L4546L
tp377
a(g167
L5112L
tp378
a(g169
L28144L
tp379
a(g171
L22810L
tp380
a(g173
L5695L
tp381
a(g175
L2364L
tp382
a(g177
L10840L
tp383
a(g179
L4838L
tp384
a(g181
L6169L
tp385
a(g183
L17965L
tp386
a(g185
L3L
tp387
a(g187
L5582L
tp388
a(g189
L28251L
tp389
a(g191
L3518L
tp390
a(g193
L3404L
tp391
a(g195
L13274L
tp392
a(g197
L4368L
tp393
a(g199
L10905L
tp394
a(g201
L4538L
tp395
a(g203
L6389L
tp396
a(g205
L7644L
tp397
a(g207
L14427L
tp398
a(g209
L4475L
tp399
a(g211
L5658L
tp400
a(g213
L20900L
tp401
a(g215
L13644L
tp402
a(g217
L5161L
tp403
a(g219
L4423L
tp404
a(g221
L2991L
tp405
a(g223
L5662L
tp406
a(g225
L10860L
tp407
a(g227
L12827L
tp408
a(g229
L2835L
tp409
a(g231
L10876L
tp410
a(g233
L10886L
tp411
a(g235
L10929L
tp412
a(g237
L14078L
tp413
a(g239
L5712L
tp414
a(g241
L4408L
tp415
a(g243
L5682L
tp416
a(g245
L14396L
tp417
a(g247
L5705L
tp418
a(g249
L33137L
tp419
a(g251
L15840L
tp420
a(g253
L2841L
tp421
a(g255
L4550L
tp422
a(g257
L5114L
tp423
a(g259
L6747L
tp424
a(g261
L4583L
tp425
a(g263
L6358L
tp426
a(g265
L28040L
tp427
a(g267
L5126L
tp428
a(g269
L201L
tp429
a(g271
L10848L
tp430
a(g273
L4411L
tp431
a(g275
L4609L
tp432
a(g277
L20770L
tp433
a(g279
L21900L
tp434
a(g281
L12918L
tp435
a(g283
L7683L
tp436
a(g285
L33512L
tp437
a(g287
L15852L
tp438
a(g289
L4412L
tp439
a(g291
L10192L
tp440
a(g293
L14288L
tp441
aaI1016548
a.