(lp1
(lp2
(Vbiological_process
p3
I284886
tp4
a(Vcellular_component
p5
I96542
tp6
a(Vmolecular_function
p7
I77787
tp8
a(Vorganelle
p9
I25483
tp10
a(Vanatomical structure development
p11
I21613
tp12
a(Vtransport
p13
I16463
tp14
a(Vcellular nitrogen compound metabolic process
p15
I13563
tp16
a(Vsignal transduction
p17
I12840
tp18
a(Vprotein complex
p19
I10773
tp20
a(Vresponse to stress
p21
I10681
tp22
a(Vion binding
p23
I9594
tp24
a(Vsmall molecule metabolic process
p25
I8814
tp26
a(Vbiosynthetic process
p27
I8268
tp28
a(Vcellular protein modification process
p29
I7172
tp30
a(Vcatabolic process
p31
I6482
tp32
a(Vimmune system process
p33
I5752
tp34
a(Vcell differentiation
p35
I5104
tp36
a(Vcellular component assembly
p37
I4833
tp38
a(Vcytosol
p39
I4344
tp40
a(Venzyme binding
p41
I4084
tp42
a(Vlipid metabolic process
p43
I3966
tp44
a(Vplasma membrane
p45
I3566
tp46
a(Vlocomotion
p47
I3559
tp48
a(Vvesicle-mediated transport
p49
I3441
tp50
a(Vtransmembrane transporter activity
p51
I3436
tp52
a(Vnucleolus
p53
I3392
tp54
a(Vanatomical structure formation involved in morphogenesis
p55
I3276
tp56
a(Vnucleus
p57
I3244
tp58
a(VDNA metabolic process
p59
I3127
tp60
a(Vchromosome organization
p61
I2847
tp62
a(Vhomeostatic process
p63
I2782
tp64
a(Vmacromolecular complex assembly
p65
I2727
tp66
a(VDNA binding
p67
I2685
tp68
a(Vtransmembrane transport
p69
I2604
tp70
a(Vcytoplasm
p71
I2583
tp72
a(Vcell motility
p73
I2482
tp74
a(Vembryo development
p75
I2391
tp76
a(Vnucleobase-containing compound catabolic process
p77
I2384
tp78
a(Vneurological system process
p79
I2374
tp80
a(Vcarbohydrate metabolic process
p81
I2361
tp82
a(Vsignal transducer activity
p83
I2348
tp84
a(Vprotein maturation
p85
I2278
tp86
a(Vgrowth
p87
I2277
tp88
a(Vcytoskeletal protein binding
p89
I2237
tp90
a(Voxidoreductase activity
p91
I2202
tp92
a(Vprotein complex assembly
p93
I2154
tp94
a(Vkinase activity
p95
I2122
tp96
a(Vcytoskeleton organization
p97
I2107
tp98
a(VRNA binding
p99
I1976
tp100
a(Vlipid binding
p101
I1795
tp102
a(Vcytoplasmic membrane-bounded vesicle
p103
I1778
tp104
a(VGolgi apparatus
p105
I1752
tp106
a(Vpeptidase activity
p107
I1675
tp108
a(Vcell adhesion
p109
I1657
tp110
a(Vcellular amino acid metabolic process
p111
I1647
tp112
a(Vmitochondrion
p113
I1613
tp114
a(Vcytoskeleton
p115
I1551
tp116
a(Vcell-cell signaling
p117
I1533
tp118
a(Vendoplasmic reticulum
p119
I1458
tp120
a(Vcell death
p121
I1455
tp122
a(Vendosome
p123
I1361
tp124
a(Vmembrane organization
p125
I1350
tp126
a(Venzyme regulator activity
p127
I1346
tp128
a(Vcell proliferation
p129
I1315
tp130
a(VATPase activity
p131
I1258
tp132
a(Vmicrotubule organizing center
p133
I1257
tp134
a(Vnucleoplasm
p135
I1230
tp136
a(Vligase activity
p137
I1208
tp138
a(Vtranscription factor binding
p139
I1121
tp140
a(Vprotein binding transcription factor activity
p141
I1120
tp142
a(Vcell morphogenesis
p143
I1099
tp144
a(Vstructural molecule activity
p145
I1094
tp146
a(Vextracellular region
p147
I1087
tp148
a(Vprotein targeting
p149
I1006
tp150
a(Vnucleic acid binding transcription factor activity
p151
I977
tp152
a(VmRNA processing
p153
I865
tp154
a(Vsulfur compound metabolic process
p155
I858
tp156
a(Vextracellular space
p157
I831
tp158
a(Vextracellular matrix organization
p159
I780
tp160
a(Vcilium
p161
I775
tp162
a(Vtransferase activity, transferring acyl groups
p163
I761
tp164
a(Vsymbiosis, encompassing mutualism through parasitism
p165
I742
tp166
a(Vphosphatase activity
p167
I725
tp168
a(Vvacuole
p169
I724
tp170
a(Vcofactor metabolic process
p171
I716
tp172
a(Vgeneration of precursor metabolites and energy
p173
I708
tp174
a(Vcell cycle
p175
I638
tp176
a(Vnucleocytoplasmic transport
p177
I622
tp178
a(Vreproduction
p179
I621
tp180
a(Vcirculatory system process
p181
I572
tp182
a(Vtransferase activity, transferring glycosyl groups
p183
I550
tp184
a(Vaging
p185
I537
tp186
a(Vcell junction organization
p187
I536
tp188
a(Vcell division
p189
I521
tp190
a(Vnuclease activity
p191
I502
tp192
a(Vhelicase activity
p193
I489
tp194
a(Vplastid
p195
I483
tp196
a(Vribonucleoprotein complex assembly
p197
I465
tp198
a(Vlyase activity
p199
I459
tp200
a(Vdevelopmental maturation
p201
I451
tp202
a(Vcytoskeleton-dependent intracellular transport
p203
I424
tp204
a(Vprotein folding
p205
I418
tp206
a(Vlysosome
p207
I416
tp208
a(Vmethyltransferase activity
p209
I396
tp210
a(Vchromosome
p211
I390
tp212
a(Vproteinaceous extracellular matrix
p213
I390
tp214
a(Vmitochondrion organization
p215
I384
tp216
a(VGTPase activity
p217
I366
tp218
a(VmRNA binding
p219
I355
tp220
a(Vnuclear envelope
p221
I345
tp222
a(Vhistone binding
p223
I341
tp224
a(Vstructural constituent of ribosome
p225
I319
tp226
a(Vexternal encapsulating structure
p227
I314
tp228
a(Vcell wall
p229
I309
tp230
a(Vsecondary metabolic process
p231
I306
tp232
a(Vnucleotidyltransferase activity
p233
I302
tp234
a(Visomerase activity
p235
I299
tp236
a(Vhydrolase activity, acting on glycosyl bonds
p237
I291
tp238
a(Vmitosis
p239
I279
tp240
a(Vplasma membrane organization
p241
I274
tp242
a(Vchromosome segregation
p243
I269
tp244
a(Vvacuolar transport
p245
I248
tp246
a(Vhydrolase activity, acting on carbon-nitrogen (but not peptide) bonds
p247
I241
tp248
a(Vprotein binding, bridging
p249
I238
tp250
a(Vcell wall organization or biogenesis
p251
I237
tp252
a(VtRNA metabolic process
p253
I229
tp254
a(Vsmall conjugating protein binding
p255
I217
tp256
a(Vperoxisome
p257
I196
tp258
a(Vtranslation factor activity, nucleic acid binding
p259
I187
tp260
a(Vlipid particle
p261
I183
tp262
a(Vprotein transporter activity
p263
I176
tp264
a(Vtranslation
p265
I176
tp266
a(Vunfolded protein binding
p267
I173
tp268
a(Vribosome
p269
I137
tp270
a(Vribosome biogenesis
p271
I136
tp272
a(Vtransferase activity, transferring alkyl or aryl (other than methyl) groups
p273
I136
tp274
a(Vnuclear chromosome
p275
I122
tp276
a(Vintracellular
p277
I112
tp278
a(Vpigmentation
p279
I98
tp280
a(VrRNA binding
p281
I90
tp282
a(Vthylakoid
p283
I34
tp284
a(Vnitrogen cycle metabolic process
p285
I21
tp286
a(Vtransposition
p287
I9
tp288
a(Vcell
p289
I9
tp290
a(Vphotosynthesis
p291
I7
tp292
a(VRNA modification guide activity
p293
I2
tp294
aa(lp295
(g3
L6372L
tp296
a(g5
L4365L
tp297
a(g7
L2787L
tp298
a(g9
L21685L
tp299
a(g11
L26888L
tp300
a(g13
L5491L
tp301
a(g15
L18268L
tp302
a(g17
L5801L
tp303
a(g19
L21693L
tp304
a(g21
L5613L
tp305
a(g23
L21630L
tp306
a(g25
L22689L
tp307
a(g27
L7192L
tp308
a(g29
L5168L
tp309
a(g31
L7190L
tp310
a(g33
L1781L
tp311
a(g35
L13924L
tp312
a(g37
L13633L
tp313
a(g39
L4599L
tp314
a(g41
L12968L
tp315
a(g43
L5326L
tp316
a(g45
L4644L
tp317
a(g47
L20507L
tp318
a(g49
L10381L
tp319
a(g51
L13690L
tp320
a(g53
L4507L
tp321
a(g55
L26682L
tp322
a(g57
L4422L
tp323
a(g59
L4995L
tp324
a(g61
L28228L
tp325
a(g63
L21086L
tp326
a(g65
L31581L
tp327
a(g67
L2790L
tp328
a(g69
L29927L
tp329
a(g71
L4514L
tp330
a(g73
L26901L
tp331
a(g75
L7881L
tp332
a(g77
L18282L
tp333
a(g79
L27837L
tp334
a(g81
L4725L
tp335
a(g83
L3827L
tp336
a(g85
L28535L
tp337
a(g87
L20503L
tp338
a(g89
L6320L
tp339
a(g91
L10598L
tp340
a(g93
L5165L
tp341
a(g95
L10466L
tp342
a(g97
L5663L
tp343
a(g99
L2830L
tp344
a(g101
L6500L
tp345
a(g103
L10229L
tp346
a(g105
L4567L
tp347
a(g107
L6448L
tp348
a(g109
L5791L
tp349
a(g111
L5218L
tp350
a(g113
L4515L
tp351
a(g115
L4621L
tp352
a(g117
L5896L
tp353
a(g119
L4556L
tp354
a(g121
L6436L
tp355
a(g123
L4542L
tp356
a(g125
L30984L
tp357
a(g127
L14001L
tp358
a(g129
L6494L
tp359
a(g131
L10963L
tp360
a(g133
L4586L
tp361
a(g135
L4439L
tp362
a(g137
L10950L
tp363
a(g139
L6357L
tp364
a(g141
L677L
tp365
a(g143
L594L
tp366
a(g145
L4118L
tp367
a(g147
L4366L
tp368
a(g149
L5302L
tp369
a(g151
L759L
tp370
a(g153
L5112L
tp371
a(g155
L5471L
tp372
a(g157
L4405L
tp373
a(g159
L13967L
tp374
a(g161
L4684L
tp375
a(g163
L10829L
tp376
a(g165
L22810L
tp377
a(g167
L10870L
tp378
a(g169
L4546L
tp379
a(g171
L28144L
tp380
a(g173
L4838L
tp381
a(g175
L5695L
tp382
a(g177
L5582L
tp383
a(g179
L3L
tp384
a(g181
L2364L
tp385
a(g183
L10840L
tp386
a(g185
L6169L
tp387
a(g187
L17965L
tp388
a(g189
L28251L
tp389
a(g191
L3518L
tp390
a(g193
L3404L
tp391
a(g195
L7644L
tp392
a(g197
L13644L
tp393
a(g199
L10905L
tp394
a(g201
L13274L
tp395
a(g203
L14427L
tp396
a(g205
L5161L
tp397
a(g207
L4538L
tp398
a(g209
L6389L
tp399
a(g211
L4475L
tp400
a(g213
L4368L
tp401
a(g215
L5658L
tp402
a(g217
L2991L
tp403
a(g219
L2835L
tp404
a(g221
L4423L
tp405
a(g223
L20900L
tp406
a(g225
L2841L
tp407
a(g227
L14078L
tp408
a(g229
L4408L
tp409
a(g231
L12827L
tp410
a(g233
L10860L
tp411
a(g235
L10929L
tp412
a(g237
L10876L
tp413
a(g239
L5712L
tp414
a(g241
L5662L
tp415
a(g243
L5705L
tp416
a(g245
L5682L
tp417
a(g247
L10886L
tp418
a(g249
L14396L
tp419
a(g251
L33137L
tp420
a(g253
L5114L
tp421
a(g255
L15840L
tp422
a(g257
L4550L
tp423
a(g259
L6358L
tp424
a(g261
L4583L
tp425
a(g263
L6747L
tp426
a(g265
L5126L
tp427
a(g267
L28040L
tp428
a(g269
L4609L
tp429
a(g271
L20770L
tp430
a(g273
L10848L
tp431
a(g275
L201L
tp432
a(g277
L4411L
tp433
a(g279
L21900L
tp434
a(g281
L12918L
tp435
a(g283
L7683L
tp436
a(g285
L33512L
tp437
a(g287
L15852L
tp438
a(g289
L4412L
tp439
a(g291
L10192L
tp440
a(g293
L14288L
tp441
aaI776281
a.