(lp1
(lp2
(Vbiological_process
p3
I439273
tp4
a(Vcellular_component
p5
I145879
tp6
a(Vmolecular_function
p7
I117834
tp8
a(Vorganelle
p9
I38438
tp10
a(Vanatomical structure development
p11
I33051
tp12
a(Vtransport
p13
I25146
tp14
a(Vsignal transduction
p15
I20186
tp16
a(Vcellular nitrogen compound metabolic process
p17
I19732
tp18
a(Vresponse to stress
p19
I16596
tp20
a(Vprotein complex
p21
I15320
tp22
a(Vion binding
p23
I14390
tp24
a(Vsmall molecule metabolic process
p25
I13878
tp26
a(Vbiosynthetic process
p27
I13456
tp28
a(Vcellular protein modification process
p29
I10440
tp30
a(Vcatabolic process
p31
I10157
tp32
a(Vimmune system process
p33
I8817
tp34
a(Vcell differentiation
p35
I7706
tp36
a(Vcellular component assembly
p37
I7047
tp38
a(Vlipid metabolic process
p39
I6533
tp40
a(Vcytosol
p41
I6329
tp42
a(Venzyme binding
p43
I5994
tp44
a(Vplasma membrane
p45
I5563
tp46
a(Vlocomotion
p47
I5468
tp48
a(Vtransmembrane transporter activity
p49
I5304
tp50
a(Vvesicle-mediated transport
p51
I5022
tp52
a(Vnucleolus
p53
I4952
tp54
a(Vanatomical structure formation involved in morphogenesis
p55
I4917
tp56
a(Vnucleus
p57
I4705
tp58
a(Vhomeostatic process
p59
I4373
tp60
a(VDNA metabolic process
p61
I4288
tp62
a(Vsignal transducer activity
p63
I4144
tp64
a(VDNA binding
p65
I4018
tp66
a(Vmacromolecular complex assembly
p67
I3995
tp68
a(Vtransmembrane transport
p69
I3926
tp70
a(Voxidoreductase activity
p71
I3896
tp72
a(Vcell motility
p73
I3879
tp74
a(Vcytoplasm
p75
I3860
tp76
a(Vneurological system process
p77
I3841
tp78
a(Vchromosome organization
p79
I3759
tp80
a(Vcarbohydrate metabolic process
p81
I3742
tp82
a(Vnucleobase-containing compound catabolic process
p83
I3656
tp84
a(Vgrowth
p85
I3523
tp86
a(Vprotein maturation
p87
I3474
tp88
a(Vembryo development
p89
I3466
tp90
a(Vcytoskeletal protein binding
p91
I3319
tp92
a(Vprotein complex assembly
p93
I3296
tp94
a(Vkinase activity
p95
I3089
tp96
a(Vcytoskeleton organization
p97
I2947
tp98
a(VRNA binding
p99
I2790
tp100
a(VGolgi apparatus
p101
I2766
tp102
a(Vcytoplasmic membrane-bounded vesicle
p103
I2715
tp104
a(Vcell-cell signaling
p105
I2607
tp106
a(Vlipid binding
p107
I2549
tp108
a(Vmitochondrion
p109
I2516
tp110
a(Vcellular amino acid metabolic process
p111
I2506
tp112
a(Vpeptidase activity
p113
I2461
tp114
a(Vcell adhesion
p115
I2421
tp116
a(Vcytoskeleton
p117
I2294
tp118
a(Vendoplasmic reticulum
p119
I2262
tp120
a(Vcell death
p121
I2173
tp122
a(Vmembrane organization
p123
I2089
tp124
a(Vendosome
p125
I2059
tp126
a(Vcell proliferation
p127
I1984
tp128
a(Venzyme regulator activity
p129
I1929
tp130
a(VATPase activity
p131
I1891
tp132
a(Vligase activity
p133
I1861
tp134
a(Vstructural molecule activity
p135
I1848
tp136
a(Vextracellular region
p137
I1766
tp138
a(Vcell morphogenesis
p139
I1725
tp140
a(Vprotein targeting
p141
I1713
tp142
a(Vnucleoplasm
p143
I1698
tp144
a(Vmicrotubule organizing center
p145
I1673
tp146
a(Vtranscription factor binding
p147
I1632
tp148
a(Vprotein binding transcription factor activity
p149
I1573
tp150
a(Vnucleic acid binding transcription factor activity
p151
I1510
tp152
a(Vsulfur compound metabolic process
p153
I1503
tp154
a(Vextracellular space
p155
I1465
tp156
a(Vextracellular matrix organization
p157
I1269
tp158
a(Vcofactor metabolic process
p159
I1246
tp160
a(Vgeneration of precursor metabolites and energy
p161
I1202
tp162
a(Vvacuole
p163
I1157
tp164
a(Vcilium
p165
I1146
tp166
a(Vtransferase activity, transferring acyl groups
p167
I1110
tp168
a(VmRNA processing
p169
I1097
tp170
a(Vsymbiosis, encompassing mutualism through parasitism
p171
I1093
tp172
a(Vphosphatase activity
p173
I1034
tp174
a(Vcirculatory system process
p175
I1002
tp176
a(Vplastid
p177
I971
tp178
a(Vreproduction
p179
I897
tp180
a(Vcell cycle
p181
I876
tp182
a(Vaging
p183
I865
tp184
a(Vnucleocytoplasmic transport
p185
I820
tp186
a(Vtransferase activity, transferring glycosyl groups
p187
I800
tp188
a(Vcell junction organization
p189
I759
tp190
a(Vlyase activity
p191
I739
tp192
a(Vcell division
p193
I707
tp194
a(Vnuclease activity
p195
I674
tp196
a(Vmethyltransferase activity
p197
I667
tp198
a(Vstructural constituent of ribosome
p199
I661
tp200
a(Vhelicase activity
p201
I655
tp202
a(Vdevelopmental maturation
p203
I652
tp204
a(Vprotein folding
p205
I637
tp206
a(Vlysosome
p207
I629
tp208
a(Vexternal encapsulating structure
p209
I620
tp210
a(Vproteinaceous extracellular matrix
p211
I615
tp212
a(Vcell wall
p213
I613
tp214
a(Vmitochondrion organization
p215
I574
tp216
a(VGTPase activity
p217
I564
tp218
a(Vcytoskeleton-dependent intracellular transport
p219
I563
tp220
a(Vsecondary metabolic process
p221
I563
tp222
a(Vribonucleoprotein complex assembly
p223
I553
tp224
a(Vchromosome
p225
I549
tp226
a(Vnuclear envelope
p227
I515
tp228
a(Vhistone binding
p229
I476
tp230
a(VmRNA binding
p231
I464
tp232
a(Visomerase activity
p233
I461
tp234
a(Vnucleotidyltransferase activity
p235
I439
tp236
a(Vhydrolase activity, acting on glycosyl bonds
p237
I436
tp238
a(Vplasma membrane organization
p239
I419
tp240
a(Vcell wall organization or biogenesis
p241
I413
tp242
a(Vvacuolar transport
p243
I388
tp244
a(Vmitosis
p245
I369
tp246
a(Vprotein binding, bridging
p247
I368
tp248
a(Vhydrolase activity, acting on carbon-nitrogen (but not peptide) bonds
p249
I352
tp250
a(Vperoxisome
p251
I347
tp252
a(Vchromosome segregation
p253
I334
tp254
a(Vtranslation factor activity, nucleic acid binding
p255
I308
tp256
a(VtRNA metabolic process
p257
I306
tp258
a(Vsmall conjugating protein binding
p259
I289
tp260
a(Vlipid particle
p261
I259
tp262
a(Vunfolded protein binding
p263
I254
tp264
a(Vribosome
p265
I248
tp266
a(Vprotein transporter activity
p267
I245
tp268
a(Vtranslation
p269
I243
tp270
a(Vribosome biogenesis
p271
I223
tp272
a(Vtransferase activity, transferring alkyl or aryl (other than methyl) groups
p273
I203
tp274
a(Vnuclear chromosome
p275
I183
tp276
a(Vintracellular
p277
I167
tp278
a(Vpigmentation
p279
I143
tp280
a(VrRNA binding
p281
I141
tp282
a(Vthylakoid
p283
I119
tp284
a(Vnitrogen cycle metabolic process
p285
I46
tp286
a(Vphotosynthesis
p287
I37
tp288
a(Vtransposition
p289
I23
tp290
a(Vcell
p291
I16
tp292
a(VRNA modification guide activity
p293
I1
tp294
a(Vcytoplasmic chromosome
p295
I1
tp296
aa(lp297
(g3
L6372L
tp298
a(g5
L4365L
tp299
a(g7
L2787L
tp300
a(g9
L21685L
tp301
a(g11
L26888L
tp302
a(g13
L5491L
tp303
a(g15
L5801L
tp304
a(g17
L18268L
tp305
a(g19
L5613L
tp306
a(g21
L21693L
tp307
a(g23
L21630L
tp308
a(g25
L22689L
tp309
a(g27
L7192L
tp310
a(g29
L5168L
tp311
a(g31
L7190L
tp312
a(g33
L1781L
tp313
a(g35
L13924L
tp314
a(g37
L13633L
tp315
a(g39
L5326L
tp316
a(g41
L4599L
tp317
a(g43
L12968L
tp318
a(g45
L4644L
tp319
a(g47
L20507L
tp320
a(g49
L13690L
tp321
a(g51
L10381L
tp322
a(g53
L4507L
tp323
a(g55
L26682L
tp324
a(g57
L4422L
tp325
a(g59
L21086L
tp326
a(g61
L4995L
tp327
a(g63
L3827L
tp328
a(g65
L2790L
tp329
a(g67
L31581L
tp330
a(g69
L29927L
tp331
a(g71
L10598L
tp332
a(g73
L26901L
tp333
a(g75
L4514L
tp334
a(g77
L27837L
tp335
a(g79
L28228L
tp336
a(g81
L4725L
tp337
a(g83
L18282L
tp338
a(g85
L20503L
tp339
a(g87
L28535L
tp340
a(g89
L7881L
tp341
a(g91
L6320L
tp342
a(g93
L5165L
tp343
a(g95
L10466L
tp344
a(g97
L5663L
tp345
a(g99
L2830L
tp346
a(g101
L4567L
tp347
a(g103
L10229L
tp348
a(g105
L5896L
tp349
a(g107
L6500L
tp350
a(g109
L4515L
tp351
a(g111
L5218L
tp352
a(g113
L6448L
tp353
a(g115
L5791L
tp354
a(g117
L4621L
tp355
a(g119
L4556L
tp356
a(g121
L6436L
tp357
a(g123
L30984L
tp358
a(g125
L4542L
tp359
a(g127
L6494L
tp360
a(g129
L14001L
tp361
a(g131
L10963L
tp362
a(g133
L10950L
tp363
a(g135
L4118L
tp364
a(g137
L4366L
tp365
a(g139
L594L
tp366
a(g141
L5302L
tp367
a(g143
L4439L
tp368
a(g145
L4586L
tp369
a(g147
L6357L
tp370
a(g149
L677L
tp371
a(g151
L759L
tp372
a(g153
L5471L
tp373
a(g155
L4405L
tp374
a(g157
L13967L
tp375
a(g159
L28144L
tp376
a(g161
L4838L
tp377
a(g163
L4546L
tp378
a(g165
L4684L
tp379
a(g167
L10829L
tp380
a(g169
L5112L
tp381
a(g171
L22810L
tp382
a(g173
L10870L
tp383
a(g175
L2364L
tp384
a(g177
L7644L
tp385
a(g179
L3L
tp386
a(g181
L5695L
tp387
a(g183
L6169L
tp388
a(g185
L5582L
tp389
a(g187
L10840L
tp390
a(g189
L17965L
tp391
a(g191
L10905L
tp392
a(g193
L28251L
tp393
a(g195
L3518L
tp394
a(g197
L6389L
tp395
a(g199
L2841L
tp396
a(g201
L3404L
tp397
a(g203
L13274L
tp398
a(g205
L5161L
tp399
a(g207
L4538L
tp400
a(g209
L14078L
tp401
a(g211
L4368L
tp402
a(g213
L4408L
tp403
a(g215
L5658L
tp404
a(g217
L2991L
tp405
a(g219
L14427L
tp406
a(g221
L12827L
tp407
a(g223
L13644L
tp408
a(g225
L4475L
tp409
a(g227
L4423L
tp410
a(g229
L20900L
tp411
a(g231
L2835L
tp412
a(g233
L10929L
tp413
a(g235
L10860L
tp414
a(g237
L10876L
tp415
a(g239
L5662L
tp416
a(g241
L33137L
tp417
a(g243
L5682L
tp418
a(g245
L5712L
tp419
a(g247
L14396L
tp420
a(g249
L10886L
tp421
a(g251
L4550L
tp422
a(g253
L5705L
tp423
a(g255
L6358L
tp424
a(g257
L5114L
tp425
a(g259
L15840L
tp426
a(g261
L4583L
tp427
a(g263
L28040L
tp428
a(g265
L4609L
tp429
a(g267
L6747L
tp430
a(g269
L5126L
tp431
a(g271
L20770L
tp432
a(g273
L10848L
tp433
a(g275
L201L
tp434
a(g277
L4411L
tp435
a(g279
L21900L
tp436
a(g281
L12918L
tp437
a(g283
L7683L
tp438
a(g285
L33512L
tp439
a(g287
L10192L
tp440
a(g289
L15852L
tp441
a(g291
L4412L
tp442
a(g293
L14288L
tp443
a(g295
L202L
tp444
aaI1184418
a.