(lp1
(lp2
(Vbiological_process
p3
I212180
tp4
a(Vcellular_component
p5
I71076
tp6
a(Vmolecular_function
p7
I56822
tp8
a(Vorganelle
p9
I18661
tp10
a(Vanatomical structure development
p11
I16387
tp12
a(Vtransport
p13
I12244
tp14
a(Vsignal transduction
p15
I9721
tp16
a(Vcellular nitrogen compound metabolic process
p17
I9544
tp18
a(Vresponse to stress
p19
I7845
tp20
a(Vprotein complex
p21
I7691
tp22
a(Vion binding
p23
I6966
tp24
a(Vsmall molecule metabolic process
p25
I6272
tp26
a(Vbiosynthetic process
p27
I5948
tp28
a(Vcellular protein modification process
p29
I5157
tp30
a(Vcatabolic process
p31
I4647
tp32
a(Vimmune system process
p33
I4383
tp34
a(Vcell differentiation
p35
I3937
tp36
a(Vcellular component assembly
p37
I3426
tp38
a(Vcytosol
p39
I3018
tp40
a(Vlipid metabolic process
p41
I2947
tp42
a(Venzyme binding
p43
I2927
tp44
a(Vlocomotion
p45
I2738
tp46
a(Vplasma membrane
p47
I2648
tp48
a(Vtransmembrane transporter activity
p49
I2593
tp50
a(Vvesicle-mediated transport
p51
I2542
tp52
a(Vanatomical structure formation involved in morphogenesis
p53
I2534
tp54
a(Vnucleolus
p55
I2400
tp56
a(Vnucleus
p57
I2383
tp58
a(VDNA metabolic process
p59
I2178
tp60
a(Vhomeostatic process
p61
I2057
tp62
a(Vtransmembrane transport
p63
I1952
tp64
a(Vcytoplasm
p65
I1935
tp66
a(Vcell motility
p67
I1931
tp68
a(Vsignal transducer activity
p69
I1928
tp70
a(VDNA binding
p71
I1924
tp72
a(Vchromosome organization
p73
I1923
tp74
a(Vmacromolecular complex assembly
p75
I1906
tp76
a(Vneurological system process
p77
I1808
tp78
a(Vembryo development
p79
I1711
tp80
a(Vgrowth
p81
I1701
tp82
a(Vnucleobase-containing compound catabolic process
p83
I1691
tp84
a(Vprotein maturation
p85
I1668
tp86
a(Voxidoreductase activity
p87
I1647
tp88
a(Vcarbohydrate metabolic process
p89
I1615
tp90
a(Vcytoskeletal protein binding
p91
I1583
tp92
a(Vkinase activity
p93
I1576
tp94
a(Vprotein complex assembly
p95
I1546
tp96
a(Vcytoskeleton organization
p97
I1447
tp98
a(VRNA binding
p99
I1359
tp100
a(Vlipid binding
p101
I1343
tp102
a(VGolgi apparatus
p103
I1302
tp104
a(Vcytoplasmic membrane-bounded vesicle
p105
I1301
tp106
a(Vcell adhesion
p107
I1285
tp108
a(Vpeptidase activity
p109
I1212
tp110
a(Vcell-cell signaling
p111
I1197
tp112
a(Vcytoskeleton
p113
I1164
tp114
a(Vmitochondrion
p115
I1139
tp116
a(Vcellular amino acid metabolic process
p117
I1137
tp118
a(Vendoplasmic reticulum
p119
I1052
tp120
a(Vcell death
p121
I1048
tp122
a(Vendosome
p123
I997
tp124
a(Vcell proliferation
p125
I992
tp126
a(Vmembrane organization
p127
I975
tp128
a(Venzyme regulator activity
p129
I964
tp130
a(VATPase activity
p131
I882
tp132
a(Vmicrotubule organizing center
p133
I874
tp134
a(Vligase activity
p135
I868
tp136
a(Vnucleoplasm
p137
I845
tp138
a(Vcell morphogenesis
p139
I834
tp140
a(Vprotein binding transcription factor activity
p141
I822
tp142
a(Vextracellular region
p143
I806
tp144
a(Vtranscription factor binding
p145
I801
tp146
a(Vstructural molecule activity
p147
I794
tp148
a(Vprotein targeting
p149
I744
tp150
a(Vnucleic acid binding transcription factor activity
p151
I712
tp152
a(Vextracellular space
p153
I679
tp154
a(Vsulfur compound metabolic process
p155
I602
tp156
a(Vextracellular matrix organization
p157
I588
tp158
a(Vcilium
p159
I588
tp160
a(VmRNA processing
p161
I577
tp162
a(Vphosphatase activity
p163
I564
tp164
a(Vcofactor metabolic process
p165
I526
tp166
a(Vsymbiosis, encompassing mutualism through parasitism
p167
I523
tp168
a(Vgeneration of precursor metabolites and energy
p169
I516
tp170
a(Vvacuole
p171
I513
tp172
a(Vtransferase activity, transferring acyl groups
p173
I512
tp174
a(Vcirculatory system process
p175
I463
tp176
a(Vcell cycle
p177
I447
tp178
a(Vreproduction
p179
I443
tp180
a(Vaging
p181
I410
tp182
a(Vnucleocytoplasmic transport
p183
I408
tp184
a(Vplastid
p185
I378
tp186
a(Vtransferase activity, transferring glycosyl groups
p187
I373
tp188
a(Vcell junction organization
p189
I371
tp190
a(Vnuclease activity
p191
I360
tp192
a(Vcell division
p193
I346
tp194
a(Vproteinaceous extracellular matrix
p195
I335
tp196
a(Vlyase activity
p197
I333
tp198
a(Vhelicase activity
p199
I325
tp200
a(Vdevelopmental maturation
p201
I313
tp202
a(Vlysosome
p203
I297
tp204
a(Vcytoskeleton-dependent intracellular transport
p205
I292
tp206
a(Vprotein folding
p207
I290
tp208
a(Vribonucleoprotein complex assembly
p209
I286
tp210
a(Vmitochondrion organization
p211
I286
tp212
a(Vmethyltransferase activity
p213
I285
tp214
a(Vchromosome
p215
I274
tp216
a(VGTPase activity
p217
I253
tp218
a(Vstructural constituent of ribosome
p219
I247
tp220
a(Vhistone binding
p221
I236
tp222
a(Vnuclear envelope
p223
I228
tp224
a(VmRNA binding
p225
I227
tp226
a(Vexternal encapsulating structure
p227
I217
tp228
a(Vcell wall
p229
I215
tp230
a(Vsecondary metabolic process
p231
I210
tp232
a(Vnucleotidyltransferase activity
p233
I208
tp234
a(Vplasma membrane organization
p235
I204
tp236
a(Visomerase activity
p237
I199
tp238
a(Vmitosis
p239
I187
tp240
a(Vhydrolase activity, acting on glycosyl bonds
p241
I181
tp242
a(Vvacuolar transport
p243
I175
tp244
a(Vhydrolase activity, acting on carbon-nitrogen (but not peptide) bonds
p245
I174
tp246
a(Vchromosome segregation
p247
I170
tp248
a(Vprotein binding, bridging
p249
I167
tp250
a(Vcell wall organization or biogenesis
p251
I167
tp252
a(Vsmall conjugating protein binding
p253
I151
tp254
a(VtRNA metabolic process
p255
I148
tp256
a(Vperoxisome
p257
I145
tp258
a(Vtranslation factor activity, nucleic acid binding
p259
I136
tp260
a(Vprotein transporter activity
p261
I128
tp262
a(Vunfolded protein binding
p263
I119
tp264
a(Vlipid particle
p265
I117
tp266
a(Vribosome biogenesis
p267
I109
tp268
a(Vtransferase activity, transferring alkyl or aryl (other than methyl) groups
p269
I105
tp270
a(Vtranslation
p271
I102
tp272
a(Vribosome
p273
I96
tp274
a(Vnuclear chromosome
p275
I88
tp276
a(Vintracellular
p277
I73
tp278
a(Vpigmentation
p279
I68
tp280
a(VrRNA binding
p281
I59
tp282
a(Vthylakoid
p283
I20
tp284
a(Vnitrogen cycle metabolic process
p285
I14
tp286
a(Vphotosynthesis
p287
I5
tp288
a(Vcell
p289
I5
tp290
a(Vtransposition
p291
I4
tp292
a(VRNA modification guide activity
p293
I2
tp294
aa(lp295
(g3
L6372L
tp296
a(g5
L4365L
tp297
a(g7
L2787L
tp298
a(g9
L21685L
tp299
a(g11
L26888L
tp300
a(g13
L5491L
tp301
a(g15
L5801L
tp302
a(g17
L18268L
tp303
a(g19
L5613L
tp304
a(g21
L21693L
tp305
a(g23
L21630L
tp306
a(g25
L22689L
tp307
a(g27
L7192L
tp308
a(g29
L5168L
tp309
a(g31
L7190L
tp310
a(g33
L1781L
tp311
a(g35
L13924L
tp312
a(g37
L13633L
tp313
a(g39
L4599L
tp314
a(g41
L5326L
tp315
a(g43
L12968L
tp316
a(g45
L20507L
tp317
a(g47
L4644L
tp318
a(g49
L13690L
tp319
a(g51
L10381L
tp320
a(g53
L26682L
tp321
a(g55
L4507L
tp322
a(g57
L4422L
tp323
a(g59
L4995L
tp324
a(g61
L21086L
tp325
a(g63
L29927L
tp326
a(g65
L4514L
tp327
a(g67
L26901L
tp328
a(g69
L3827L
tp329
a(g71
L2790L
tp330
a(g73
L28228L
tp331
a(g75
L31581L
tp332
a(g77
L27837L
tp333
a(g79
L7881L
tp334
a(g81
L20503L
tp335
a(g83
L18282L
tp336
a(g85
L28535L
tp337
a(g87
L10598L
tp338
a(g89
L4725L
tp339
a(g91
L6320L
tp340
a(g93
L10466L
tp341
a(g95
L5165L
tp342
a(g97
L5663L
tp343
a(g99
L2830L
tp344
a(g101
L6500L
tp345
a(g103
L4567L
tp346
a(g105
L10229L
tp347
a(g107
L5791L
tp348
a(g109
L6448L
tp349
a(g111
L5896L
tp350
a(g113
L4621L
tp351
a(g115
L4515L
tp352
a(g117
L5218L
tp353
a(g119
L4556L
tp354
a(g121
L6436L
tp355
a(g123
L4542L
tp356
a(g125
L6494L
tp357
a(g127
L30984L
tp358
a(g129
L14001L
tp359
a(g131
L10963L
tp360
a(g133
L4586L
tp361
a(g135
L10950L
tp362
a(g137
L4439L
tp363
a(g139
L594L
tp364
a(g141
L677L
tp365
a(g143
L4366L
tp366
a(g145
L6357L
tp367
a(g147
L4118L
tp368
a(g149
L5302L
tp369
a(g151
L759L
tp370
a(g153
L4405L
tp371
a(g155
L5471L
tp372
a(g157
L13967L
tp373
a(g159
L4684L
tp374
a(g161
L5112L
tp375
a(g163
L10870L
tp376
a(g165
L28144L
tp377
a(g167
L22810L
tp378
a(g169
L4838L
tp379
a(g171
L4546L
tp380
a(g173
L10829L
tp381
a(g175
L2364L
tp382
a(g177
L5695L
tp383
a(g179
L3L
tp384
a(g181
L6169L
tp385
a(g183
L5582L
tp386
a(g185
L7644L
tp387
a(g187
L10840L
tp388
a(g189
L17965L
tp389
a(g191
L3518L
tp390
a(g193
L28251L
tp391
a(g195
L4368L
tp392
a(g197
L10905L
tp393
a(g199
L3404L
tp394
a(g201
L13274L
tp395
a(g203
L4538L
tp396
a(g205
L14427L
tp397
a(g207
L5161L
tp398
a(g209
L13644L
tp399
a(g211
L5658L
tp400
a(g213
L6389L
tp401
a(g215
L4475L
tp402
a(g217
L2991L
tp403
a(g219
L2841L
tp404
a(g221
L20900L
tp405
a(g223
L4423L
tp406
a(g225
L2835L
tp407
a(g227
L14078L
tp408
a(g229
L4408L
tp409
a(g231
L12827L
tp410
a(g233
L10860L
tp411
a(g235
L5662L
tp412
a(g237
L10929L
tp413
a(g239
L5712L
tp414
a(g241
L10876L
tp415
a(g243
L5682L
tp416
a(g245
L10886L
tp417
a(g247
L5705L
tp418
a(g249
L14396L
tp419
a(g251
L33137L
tp420
a(g253
L15840L
tp421
a(g255
L5114L
tp422
a(g257
L4550L
tp423
a(g259
L6358L
tp424
a(g261
L6747L
tp425
a(g263
L28040L
tp426
a(g265
L4583L
tp427
a(g267
L20770L
tp428
a(g269
L10848L
tp429
a(g271
L5126L
tp430
a(g273
L4609L
tp431
a(g275
L201L
tp432
a(g277
L4411L
tp433
a(g279
L21900L
tp434
a(g281
L12918L
tp435
a(g283
L7683L
tp436
a(g285
L33512L
tp437
a(g287
L10192L
tp438
a(g289
L4412L
tp439
a(g291
L15852L
tp440
a(g293
L14288L
tp441
aaI571675
a.