(lp1
(lp2
(Vbiological_process
p3
I428343
tp4
a(Vcellular_component
p5
I140603
tp6
a(Vmolecular_function
p7
I114129
tp8
a(Vorganelle
p9
I36902
tp10
a(Vanatomical structure development
p11
I33460
tp12
a(Vtransport
p13
I23871
tp14
a(Vsignal transduction
p15
I19270
tp16
a(Vcellular nitrogen compound metabolic process
p17
I18687
tp18
a(Vresponse to stress
p19
I15812
tp20
a(Vprotein complex
p21
I14799
tp22
a(Vion binding
p23
I13995
tp24
a(Vsmall molecule metabolic process
p25
I12743
tp26
a(Vbiosynthetic process
p27
I12167
tp28
a(Vcellular protein modification process
p29
I10426
tp30
a(Vcatabolic process
p31
I9309
tp32
a(Vimmune system process
p33
I8456
tp34
a(Vcell differentiation
p35
I7982
tp36
a(Vcellular component assembly
p37
I6536
tp38
a(Vlipid metabolic process
p39
I6058
tp40
a(Vcytosol
p41
I5978
tp42
a(Venzyme binding
p43
I5913
tp44
a(Vlocomotion
p45
I5309
tp46
a(Vtransmembrane transporter activity
p47
I5204
tp48
a(Vanatomical structure formation involved in morphogenesis
p49
I5202
tp50
a(Vplasma membrane
p51
I5187
tp52
a(Vvesicle-mediated transport
p53
I4787
tp54
a(VDNA metabolic process
p55
I4655
tp56
a(Vnucleolus
p57
I4612
tp58
a(Vnucleus
p59
I4554
tp60
a(Vhomeostatic process
p61
I4064
tp62
a(VDNA binding
p63
I3839
tp64
a(Vtransmembrane transport
p65
I3812
tp66
a(Vchromosome organization
p67
I3764
tp68
a(Vcytoplasm
p69
I3756
tp70
a(Vsignal transducer activity
p71
I3754
tp72
a(Vcell motility
p73
I3751
tp74
a(Vmacromolecular complex assembly
p75
I3621
tp76
a(Voxidoreductase activity
p77
I3600
tp78
a(Vneurological system process
p79
I3538
tp80
a(Vcarbohydrate metabolic process
p81
I3531
tp82
a(Vgrowth
p83
I3443
tp84
a(Vprotein maturation
p85
I3292
tp86
a(Vembryo development
p87
I3274
tp88
a(Vnucleobase-containing compound catabolic process
p89
I3269
tp90
a(Vkinase activity
p91
I3102
tp92
a(Vcytoskeletal protein binding
p93
I3094
tp94
a(Vprotein complex assembly
p95
I2967
tp96
a(Vcytoskeleton organization
p97
I2855
tp98
a(Vlipid binding
p99
I2620
tp100
a(VRNA binding
p101
I2601
tp102
a(VGolgi apparatus
p103
I2564
tp104
a(Vcytoplasmic membrane-bounded vesicle
p105
I2528
tp106
a(Vcell adhesion
p107
I2516
tp108
a(Vpeptidase activity
p109
I2333
tp110
a(Vmitochondrion
p111
I2310
tp112
a(Vcell-cell signaling
p113
I2285
tp114
a(Vcellular amino acid metabolic process
p115
I2266
tp116
a(Vcytoskeleton
p117
I2262
tp118
a(Vendoplasmic reticulum
p119
I2107
tp120
a(Vcell death
p121
I2025
tp122
a(Vcell proliferation
p123
I2012
tp124
a(Vendosome
p125
I1947
tp126
a(Vmembrane organization
p127
I1944
tp128
a(Venzyme regulator activity
p129
I1876
tp130
a(Vligase activity
p131
I1820
tp132
a(VATPase activity
p133
I1790
tp134
a(Vcell morphogenesis
p135
I1760
tp136
a(Vmicrotubule organizing center
p137
I1752
tp138
a(Vnucleoplasm
p139
I1680
tp140
a(Vextracellular region
p141
I1633
tp142
a(Vtranscription factor binding
p143
I1600
tp144
a(Vprotein binding transcription factor activity
p145
I1524
tp146
a(Vstructural molecule activity
p147
I1464
tp148
a(Vnucleic acid binding transcription factor activity
p149
I1401
tp150
a(Vprotein targeting
p151
I1354
tp152
a(Vsulfur compound metabolic process
p153
I1347
tp154
a(Vextracellular space
p155
I1342
tp156
a(Vextracellular matrix organization
p157
I1225
tp158
a(Vcilium
p159
I1213
tp160
a(Vcofactor metabolic process
p161
I1115
tp162
a(Vtransferase activity, transferring acyl groups
p163
I1073
tp164
a(Vvacuole
p165
I1057
tp166
a(VmRNA processing
p167
I1052
tp168
a(Vphosphatase activity
p169
I1017
tp170
a(Vgeneration of precursor metabolites and energy
p171
I991
tp172
a(Vsymbiosis, encompassing mutualism through parasitism
p173
I952
tp174
a(Vcell cycle
p175
I900
tp176
a(Vcirculatory system process
p177
I844
tp178
a(Vaging
p179
I840
tp180
a(Vreproduction
p181
I820
tp182
a(Vtransferase activity, transferring glycosyl groups
p183
I799
tp184
a(Vplastid
p185
I788
tp186
a(Vhelicase activity
p187
I747
tp188
a(Vcell division
p189
I742
tp190
a(Vnucleocytoplasmic transport
p191
I737
tp192
a(Vnuclease activity
p193
I728
tp194
a(Vlyase activity
p195
I714
tp196
a(Vcell junction organization
p197
I692
tp198
a(Vproteinaceous extracellular matrix
p199
I645
tp200
a(Vdevelopmental maturation
p201
I644
tp202
a(Vlysosome
p203
I595
tp204
a(Vmethyltransferase activity
p205
I579
tp206
a(Vcytoskeleton-dependent intracellular transport
p207
I564
tp208
a(Vchromosome
p209
I549
tp210
a(Vprotein folding
p211
I525
tp212
a(Vribonucleoprotein complex assembly
p213
I515
tp214
a(Vmitochondrion organization
p215
I514
tp216
a(Vexternal encapsulating structure
p217
I506
tp218
a(Vcell wall
p219
I497
tp220
a(Vsecondary metabolic process
p221
I488
tp222
a(Vnuclear envelope
p223
I482
tp224
a(VGTPase activity
p225
I478
tp226
a(Vhistone binding
p227
I448
tp228
a(Vhydrolase activity, acting on glycosyl bonds
p229
I431
tp230
a(Vplasma membrane organization
p231
I417
tp232
a(Vnucleotidyltransferase activity
p233
I416
tp234
a(VmRNA binding
p235
I409
tp236
a(Visomerase activity
p237
I405
tp238
a(Vstructural constituent of ribosome
p239
I398
tp240
a(Vcell wall organization or biogenesis
p241
I372
tp242
a(Vhydrolase activity, acting on carbon-nitrogen (but not peptide) bonds
p243
I360
tp244
a(Vmitosis
p245
I360
tp246
a(Vchromosome segregation
p247
I343
tp248
a(Vprotein binding, bridging
p249
I337
tp250
a(Vvacuolar transport
p251
I323
tp252
a(Vperoxisome
p253
I317
tp254
a(Vsmall conjugating protein binding
p255
I315
tp256
a(VtRNA metabolic process
p257
I308
tp258
a(Vtranslation factor activity, nucleic acid binding
p259
I263
tp260
a(Vprotein transporter activity
p261
I249
tp262
a(Vlipid particle
p263
I241
tp264
a(Vunfolded protein binding
p265
I222
tp266
a(Vribosome
p267
I207
tp268
a(Vtranslation
p269
I199
tp270
a(Vtransferase activity, transferring alkyl or aryl (other than methyl) groups
p271
I180
tp272
a(Vnuclear chromosome
p273
I178
tp274
a(Vribosome biogenesis
p275
I177
tp276
a(Vintracellular
p277
I156
tp278
a(Vpigmentation
p279
I140
tp280
a(VrRNA binding
p281
I110
tp282
a(Vthylakoid
p283
I90
tp284
a(Vnitrogen cycle metabolic process
p285
I39
tp286
a(Vtransposition
p287
I33
tp288
a(Vphotosynthesis
p289
I28
tp290
a(Vcell
p291
I15
tp292
a(VRNA modification guide activity
p293
I3
tp294
aa(lp295
(g3
L6372L
tp296
a(g5
L4365L
tp297
a(g7
L2787L
tp298
a(g9
L21685L
tp299
a(g11
L26888L
tp300
a(g13
L5491L
tp301
a(g15
L5801L
tp302
a(g17
L18268L
tp303
a(g19
L5613L
tp304
a(g21
L21693L
tp305
a(g23
L21630L
tp306
a(g25
L22689L
tp307
a(g27
L7192L
tp308
a(g29
L5168L
tp309
a(g31
L7190L
tp310
a(g33
L1781L
tp311
a(g35
L13924L
tp312
a(g37
L13633L
tp313
a(g39
L5326L
tp314
a(g41
L4599L
tp315
a(g43
L12968L
tp316
a(g45
L20507L
tp317
a(g47
L13690L
tp318
a(g49
L26682L
tp319
a(g51
L4644L
tp320
a(g53
L10381L
tp321
a(g55
L4995L
tp322
a(g57
L4507L
tp323
a(g59
L4422L
tp324
a(g61
L21086L
tp325
a(g63
L2790L
tp326
a(g65
L29927L
tp327
a(g67
L28228L
tp328
a(g69
L4514L
tp329
a(g71
L3827L
tp330
a(g73
L26901L
tp331
a(g75
L31581L
tp332
a(g77
L10598L
tp333
a(g79
L27837L
tp334
a(g81
L4725L
tp335
a(g83
L20503L
tp336
a(g85
L28535L
tp337
a(g87
L7881L
tp338
a(g89
L18282L
tp339
a(g91
L10466L
tp340
a(g93
L6320L
tp341
a(g95
L5165L
tp342
a(g97
L5663L
tp343
a(g99
L6500L
tp344
a(g101
L2830L
tp345
a(g103
L4567L
tp346
a(g105
L10229L
tp347
a(g107
L5791L
tp348
a(g109
L6448L
tp349
a(g111
L4515L
tp350
a(g113
L5896L
tp351
a(g115
L5218L
tp352
a(g117
L4621L
tp353
a(g119
L4556L
tp354
a(g121
L6436L
tp355
a(g123
L6494L
tp356
a(g125
L4542L
tp357
a(g127
L30984L
tp358
a(g129
L14001L
tp359
a(g131
L10950L
tp360
a(g133
L10963L
tp361
a(g135
L594L
tp362
a(g137
L4586L
tp363
a(g139
L4439L
tp364
a(g141
L4366L
tp365
a(g143
L6357L
tp366
a(g145
L677L
tp367
a(g147
L4118L
tp368
a(g149
L759L
tp369
a(g151
L5302L
tp370
a(g153
L5471L
tp371
a(g155
L4405L
tp372
a(g157
L13967L
tp373
a(g159
L4684L
tp374
a(g161
L28144L
tp375
a(g163
L10829L
tp376
a(g165
L4546L
tp377
a(g167
L5112L
tp378
a(g169
L10870L
tp379
a(g171
L4838L
tp380
a(g173
L22810L
tp381
a(g175
L5695L
tp382
a(g177
L2364L
tp383
a(g179
L6169L
tp384
a(g181
L3L
tp385
a(g183
L10840L
tp386
a(g185
L7644L
tp387
a(g187
L3404L
tp388
a(g189
L28251L
tp389
a(g191
L5582L
tp390
a(g193
L3518L
tp391
a(g195
L10905L
tp392
a(g197
L17965L
tp393
a(g199
L4368L
tp394
a(g201
L13274L
tp395
a(g203
L4538L
tp396
a(g205
L6389L
tp397
a(g207
L14427L
tp398
a(g209
L4475L
tp399
a(g211
L5161L
tp400
a(g213
L13644L
tp401
a(g215
L5658L
tp402
a(g217
L14078L
tp403
a(g219
L4408L
tp404
a(g221
L12827L
tp405
a(g223
L4423L
tp406
a(g225
L2991L
tp407
a(g227
L20900L
tp408
a(g229
L10876L
tp409
a(g231
L5662L
tp410
a(g233
L10860L
tp411
a(g235
L2835L
tp412
a(g237
L10929L
tp413
a(g239
L2841L
tp414
a(g241
L33137L
tp415
a(g243
L10886L
tp416
a(g245
L5712L
tp417
a(g247
L5705L
tp418
a(g249
L14396L
tp419
a(g251
L5682L
tp420
a(g253
L4550L
tp421
a(g255
L15840L
tp422
a(g257
L5114L
tp423
a(g259
L6358L
tp424
a(g261
L6747L
tp425
a(g263
L4583L
tp426
a(g265
L28040L
tp427
a(g267
L4609L
tp428
a(g269
L5126L
tp429
a(g271
L10848L
tp430
a(g273
L201L
tp431
a(g275
L20770L
tp432
a(g277
L4411L
tp433
a(g279
L21900L
tp434
a(g281
L12918L
tp435
a(g283
L7683L
tp436
a(g285
L33512L
tp437
a(g287
L15852L
tp438
a(g289
L10192L
tp439
a(g291
L4412L
tp440
a(g293
L14288L
tp441
aaI1143054
a.