(lp1
(lp2
(Vbiological_process
p3
I235645
tp4
a(Vcellular_component
p5
I78615
tp6
a(Vmolecular_function
p7
I63302
tp8
a(Vorganelle
p9
I20580
tp10
a(Vanatomical structure development
p11
I18243
tp12
a(Vtransport
p13
I13426
tp14
a(Vsignal transduction
p15
I10817
tp16
a(Vcellular nitrogen compound metabolic process
p17
I10236
tp18
a(Vresponse to stress
p19
I8722
tp20
a(Vprotein complex
p21
I8510
tp22
a(Vion binding
p23
I7784
tp24
a(Vsmall molecule metabolic process
p25
I7127
tp26
a(Vbiosynthetic process
p27
I6560
tp28
a(Vcellular protein modification process
p29
I5637
tp30
a(Vcatabolic process
p31
I5157
tp32
a(Vimmune system process
p33
I4847
tp34
a(Vcell differentiation
p35
I4400
tp36
a(Vcellular component assembly
p37
I3853
tp38
a(Vcytosol
p39
I3415
tp40
a(Vlipid metabolic process
p41
I3351
tp42
a(Venzyme binding
p43
I3288
tp44
a(Vlocomotion
p45
I2965
tp46
a(Vplasma membrane
p47
I2952
tp48
a(Vvesicle-mediated transport
p49
I2844
tp50
a(Vanatomical structure formation involved in morphogenesis
p51
I2788
tp52
a(Vtransmembrane transporter activity
p53
I2779
tp54
a(Vnucleolus
p55
I2685
tp56
a(Vnucleus
p57
I2573
tp58
a(Vhomeostatic process
p59
I2286
tp60
a(VDNA metabolic process
p61
I2247
tp62
a(VDNA binding
p63
I2211
tp64
a(Vsignal transducer activity
p65
I2163
tp66
a(Vmacromolecular complex assembly
p67
I2156
tp68
a(Vcell motility
p69
I2106
tp70
a(Vcytoplasm
p71
I2087
tp72
a(Vtransmembrane transport
p73
I2075
tp74
a(Vchromosome organization
p75
I2059
tp76
a(Vneurological system process
p77
I1952
tp78
a(Voxidoreductase activity
p79
I1931
tp80
a(Vgrowth
p81
I1903
tp82
a(Vembryo development
p83
I1881
tp84
a(Vprotein maturation
p85
I1856
tp86
a(Vnucleobase-containing compound catabolic process
p87
I1836
tp88
a(Vcarbohydrate metabolic process
p89
I1836
tp90
a(Vprotein complex assembly
p91
I1752
tp92
a(Vcytoskeletal protein binding
p93
I1748
tp94
a(Vkinase activity
p95
I1664
tp96
a(Vcytoskeleton organization
p97
I1602
tp98
a(VRNA binding
p99
I1512
tp100
a(Vlipid binding
p101
I1496
tp102
a(Vcytoplasmic membrane-bounded vesicle
p103
I1451
tp104
a(VGolgi apparatus
p105
I1421
tp106
a(Vpeptidase activity
p107
I1400
tp108
a(Vcell adhesion
p109
I1389
tp110
a(Vcell-cell signaling
p111
I1345
tp112
a(Vcellular amino acid metabolic process
p113
I1321
tp114
a(Vmitochondrion
p115
I1298
tp116
a(Vcytoskeleton
p117
I1266
tp118
a(Vcell death
p119
I1179
tp120
a(Vendoplasmic reticulum
p121
I1161
tp122
a(Venzyme regulator activity
p123
I1101
tp124
a(Vcell proliferation
p125
I1101
tp126
a(Vmembrane organization
p127
I1097
tp128
a(Vendosome
p129
I1092
tp130
a(Vmicrotubule organizing center
p131
I948
tp132
a(Vligase activity
p133
I947
tp134
a(Vextracellular region
p135
I946
tp136
a(Vnucleoplasm
p137
I939
tp138
a(VATPase activity
p139
I938
tp140
a(Vcell morphogenesis
p141
I935
tp142
a(Vprotein binding transcription factor activity
p143
I922
tp144
a(Vstructural molecule activity
p145
I917
tp146
a(Vtranscription factor binding
p147
I909
tp148
a(Vnucleic acid binding transcription factor activity
p149
I855
tp150
a(Vprotein targeting
p151
I828
tp152
a(Vextracellular space
p153
I797
tp154
a(Vsulfur compound metabolic process
p155
I714
tp156
a(Vextracellular matrix organization
p157
I687
tp158
a(Vcilium
p159
I641
tp160
a(VmRNA processing
p161
I622
tp162
a(Vvacuole
p163
I611
tp164
a(Vgeneration of precursor metabolites and energy
p165
I605
tp166
a(Vsymbiosis, encompassing mutualism through parasitism
p167
I594
tp168
a(Vphosphatase activity
p169
I590
tp170
a(Vtransferase activity, transferring acyl groups
p171
I590
tp172
a(Vcofactor metabolic process
p173
I587
tp174
a(Vcirculatory system process
p175
I517
tp176
a(Vreproduction
p177
I497
tp178
a(Vcell cycle
p179
I492
tp180
a(Vnucleocytoplasmic transport
p181
I451
tp182
a(Vaging
p183
I441
tp184
a(Vplastid
p185
I419
tp186
a(Vcell junction organization
p187
I414
tp188
a(Vtransferase activity, transferring glycosyl groups
p189
I403
tp190
a(Vcell division
p191
I391
tp192
a(Vlyase activity
p193
I388
tp194
a(Vproteinaceous extracellular matrix
p195
I369
tp196
a(Vdevelopmental maturation
p197
I369
tp198
a(Vnuclease activity
p199
I365
tp200
a(Vlysosome
p201
I349
tp202
a(Vprotein folding
p203
I335
tp204
a(Vhelicase activity
p205
I328
tp206
a(Vribonucleoprotein complex assembly
p207
I326
tp208
a(Vcytoskeleton-dependent intracellular transport
p209
I318
tp210
a(Vmitochondrion organization
p211
I315
tp212
a(Vmethyltransferase activity
p213
I305
tp214
a(Vchromosome
p215
I296
tp216
a(VGTPase activity
p217
I293
tp218
a(Vstructural constituent of ribosome
p219
I285
tp220
a(Vhistone binding
p221
I265
tp222
a(Vnuclear envelope
p223
I259
tp224
a(Vexternal encapsulating structure
p225
I259
tp226
a(VmRNA binding
p227
I259
tp228
a(Vcell wall
p229
I257
tp230
a(Vsecondary metabolic process
p231
I251
tp232
a(Visomerase activity
p233
I237
tp234
a(Vnucleotidyltransferase activity
p235
I231
tp236
a(Vhydrolase activity, acting on glycosyl bonds
p237
I219
tp238
a(Vplasma membrane organization
p239
I219
tp240
a(Vcell wall organization or biogenesis
p241
I200
tp242
a(Vprotein binding, bridging
p243
I196
tp244
a(Vmitosis
p245
I196
tp246
a(Vvacuolar transport
p247
I193
tp248
a(Vhydrolase activity, acting on carbon-nitrogen (but not peptide) bonds
p249
I191
tp250
a(Vsmall conjugating protein binding
p251
I176
tp252
a(Vperoxisome
p253
I175
tp254
a(Vchromosome segregation
p255
I171
tp256
a(Vtranslation factor activity, nucleic acid binding
p257
I158
tp258
a(VtRNA metabolic process
p259
I157
tp260
a(Vprotein transporter activity
p261
I144
tp262
a(Vlipid particle
p263
I144
tp264
a(Vunfolded protein binding
p265
I138
tp266
a(Vtranslation
p267
I124
tp268
a(Vribosome
p269
I115
tp270
a(Vribosome biogenesis
p271
I114
tp272
a(Vtransferase activity, transferring alkyl or aryl (other than methyl) groups
p273
I112
tp274
a(Vnuclear chromosome
p275
I95
tp276
a(Vintracellular
p277
I84
tp278
a(Vpigmentation
p279
I79
tp280
a(VrRNA binding
p281
I70
tp282
a(Vthylakoid
p283
I26
tp284
a(Vnitrogen cycle metabolic process
p285
I23
tp286
a(Vphotosynthesis
p287
I11
tp288
a(Vcell
p289
I5
tp290
a(Vtransposition
p291
I4
tp292
a(VRNA modification guide activity
p293
I1
tp294
a(Vcytoplasmic chromosome
p295
I1
tp296
aa(lp297
(g3
L6372L
tp298
a(g5
L4365L
tp299
a(g7
L2787L
tp300
a(g9
L21685L
tp301
a(g11
L26888L
tp302
a(g13
L5491L
tp303
a(g15
L5801L
tp304
a(g17
L18268L
tp305
a(g19
L5613L
tp306
a(g21
L21693L
tp307
a(g23
L21630L
tp308
a(g25
L22689L
tp309
a(g27
L7192L
tp310
a(g29
L5168L
tp311
a(g31
L7190L
tp312
a(g33
L1781L
tp313
a(g35
L13924L
tp314
a(g37
L13633L
tp315
a(g39
L4599L
tp316
a(g41
L5326L
tp317
a(g43
L12968L
tp318
a(g45
L20507L
tp319
a(g47
L4644L
tp320
a(g49
L10381L
tp321
a(g51
L26682L
tp322
a(g53
L13690L
tp323
a(g55
L4507L
tp324
a(g57
L4422L
tp325
a(g59
L21086L
tp326
a(g61
L4995L
tp327
a(g63
L2790L
tp328
a(g65
L3827L
tp329
a(g67
L31581L
tp330
a(g69
L26901L
tp331
a(g71
L4514L
tp332
a(g73
L29927L
tp333
a(g75
L28228L
tp334
a(g77
L27837L
tp335
a(g79
L10598L
tp336
a(g81
L20503L
tp337
a(g83
L7881L
tp338
a(g85
L28535L
tp339
a(g87
L18282L
tp340
a(g89
L4725L
tp341
a(g91
L5165L
tp342
a(g93
L6320L
tp343
a(g95
L10466L
tp344
a(g97
L5663L
tp345
a(g99
L2830L
tp346
a(g101
L6500L
tp347
a(g103
L10229L
tp348
a(g105
L4567L
tp349
a(g107
L6448L
tp350
a(g109
L5791L
tp351
a(g111
L5896L
tp352
a(g113
L5218L
tp353
a(g115
L4515L
tp354
a(g117
L4621L
tp355
a(g119
L6436L
tp356
a(g121
L4556L
tp357
a(g123
L14001L
tp358
a(g125
L6494L
tp359
a(g127
L30984L
tp360
a(g129
L4542L
tp361
a(g131
L4586L
tp362
a(g133
L10950L
tp363
a(g135
L4366L
tp364
a(g137
L4439L
tp365
a(g139
L10963L
tp366
a(g141
L594L
tp367
a(g143
L677L
tp368
a(g145
L4118L
tp369
a(g147
L6357L
tp370
a(g149
L759L
tp371
a(g151
L5302L
tp372
a(g153
L4405L
tp373
a(g155
L5471L
tp374
a(g157
L13967L
tp375
a(g159
L4684L
tp376
a(g161
L5112L
tp377
a(g163
L4546L
tp378
a(g165
L4838L
tp379
a(g167
L22810L
tp380
a(g169
L10870L
tp381
a(g171
L10829L
tp382
a(g173
L28144L
tp383
a(g175
L2364L
tp384
a(g177
L3L
tp385
a(g179
L5695L
tp386
a(g181
L5582L
tp387
a(g183
L6169L
tp388
a(g185
L7644L
tp389
a(g187
L17965L
tp390
a(g189
L10840L
tp391
a(g191
L28251L
tp392
a(g193
L10905L
tp393
a(g195
L4368L
tp394
a(g197
L13274L
tp395
a(g199
L3518L
tp396
a(g201
L4538L
tp397
a(g203
L5161L
tp398
a(g205
L3404L
tp399
a(g207
L13644L
tp400
a(g209
L14427L
tp401
a(g211
L5658L
tp402
a(g213
L6389L
tp403
a(g215
L4475L
tp404
a(g217
L2991L
tp405
a(g219
L2841L
tp406
a(g221
L20900L
tp407
a(g223
L4423L
tp408
a(g225
L14078L
tp409
a(g227
L2835L
tp410
a(g229
L4408L
tp411
a(g231
L12827L
tp412
a(g233
L10929L
tp413
a(g235
L10860L
tp414
a(g237
L10876L
tp415
a(g239
L5662L
tp416
a(g241
L33137L
tp417
a(g243
L14396L
tp418
a(g245
L5712L
tp419
a(g247
L5682L
tp420
a(g249
L10886L
tp421
a(g251
L15840L
tp422
a(g253
L4550L
tp423
a(g255
L5705L
tp424
a(g257
L6358L
tp425
a(g259
L5114L
tp426
a(g261
L6747L
tp427
a(g263
L4583L
tp428
a(g265
L28040L
tp429
a(g267
L5126L
tp430
a(g269
L4609L
tp431
a(g271
L20770L
tp432
a(g273
L10848L
tp433
a(g275
L201L
tp434
a(g277
L4411L
tp435
a(g279
L21900L
tp436
a(g281
L12918L
tp437
a(g283
L7683L
tp438
a(g285
L33512L
tp439
a(g287
L10192L
tp440
a(g289
L4412L
tp441
a(g291
L15852L
tp442
a(g293
L14288L
tp443
a(g295
L202L
tp444
aaI634429
a.