(lp1
(lp2
(Vbiological_process
p3
I356842
tp4
a(Vcellular_component
p5
I116401
tp6
a(Vmolecular_function
p7
I93869
tp8
a(Vorganelle
p9
I30114
tp10
a(Vanatomical structure development
p11
I27761
tp12
a(Vtransport
p13
I20551
tp14
a(Vsignal transduction
p15
I15958
tp16
a(Vcellular nitrogen compound metabolic process
p17
I14442
tp18
a(Vresponse to stress
p19
I12459
tp20
a(Vprotein complex
p21
I11955
tp22
a(Vion binding
p23
I11512
tp24
a(Vsmall molecule metabolic process
p25
I10383
tp26
a(Vbiosynthetic process
p27
I9585
tp28
a(Vcellular protein modification process
p29
I8124
tp30
a(Vcatabolic process
p31
I7089
tp32
a(Vimmune system process
p33
I6799
tp34
a(Vcell differentiation
p35
I6511
tp36
a(Vcellular component assembly
p37
I5458
tp38
a(Vlipid metabolic process
p39
I4847
tp40
a(Vcytosol
p41
I4704
tp42
a(Venzyme binding
p43
I4685
tp44
a(Vtransmembrane transporter activity
p45
I4643
tp46
a(Vplasma membrane
p47
I4391
tp48
a(Vlocomotion
p49
I4361
tp50
a(Vanatomical structure formation involved in morphogenesis
p51
I4252
tp52
a(Vvesicle-mediated transport
p53
I4042
tp54
a(Vsignal transducer activity
p55
I3941
tp56
a(Vnucleus
p57
I3765
tp58
a(Vnucleolus
p59
I3653
tp60
a(Vhomeostatic process
p61
I3446
tp62
a(VDNA metabolic process
p63
I3360
tp64
a(Vtransmembrane transport
p65
I3291
tp66
a(Vcytoplasm
p67
I3199
tp68
a(Vneurological system process
p69
I3184
tp70
a(VDNA binding
p71
I3178
tp72
a(Vcell motility
p73
I3114
tp74
a(Vchromosome organization
p75
I3017
tp76
a(Vmacromolecular complex assembly
p77
I2946
tp78
a(Voxidoreductase activity
p79
I2809
tp80
a(Vgrowth
p81
I2762
tp82
a(Vcarbohydrate metabolic process
p83
I2632
tp84
a(Vembryo development
p85
I2588
tp86
a(Vprotein maturation
p87
I2576
tp88
a(Vcytoskeletal protein binding
p89
I2485
tp90
a(Vprotein complex assembly
p91
I2428
tp92
a(Vnucleobase-containing compound catabolic process
p93
I2404
tp94
a(Vcell-cell signaling
p95
I2388
tp96
a(Vkinase activity
p97
I2373
tp98
a(Vcytoskeleton organization
p99
I2307
tp100
a(Vlipid binding
p101
I2230
tp102
a(Vcytoplasmic membrane-bounded vesicle
p103
I2199
tp104
a(Vcell adhesion
p105
I2076
tp106
a(Vpeptidase activity
p107
I1987
tp108
a(VGolgi apparatus
p109
I1932
tp110
a(VRNA binding
p111
I1917
tp112
a(Vcellular amino acid metabolic process
p113
I1867
tp114
a(Vcytoskeleton
p115
I1838
tp116
a(Vmitochondrion
p117
I1820
tp118
a(Vendoplasmic reticulum
p119
I1706
tp120
a(Vcell proliferation
p121
I1615
tp122
a(Vmembrane organization
p123
I1597
tp124
a(Vendosome
p125
I1589
tp126
a(Vcell death
p127
I1586
tp128
a(Venzyme regulator activity
p129
I1531
tp130
a(Vcell morphogenesis
p131
I1433
tp132
a(Vextracellular region
p133
I1387
tp134
a(Vmicrotubule organizing center
p135
I1384
tp136
a(Vligase activity
p137
I1372
tp138
a(Vprotein binding transcription factor activity
p139
I1324
tp140
a(Vtranscription factor binding
p141
I1318
tp142
a(VATPase activity
p143
I1290
tp144
a(Vnucleoplasm
p145
I1282
tp146
a(Vnucleic acid binding transcription factor activity
p147
I1174
tp148
a(Vextracellular space
p149
I1147
tp150
a(Vstructural molecule activity
p151
I1123
tp152
a(Vsulfur compound metabolic process
p153
I1084
tp154
a(Vcirculatory system process
p155
I1045
tp156
a(Vextracellular matrix organization
p157
I1026
tp158
a(Vcilium
p159
I983
tp160
a(Vprotein targeting
p161
I980
tp162
a(Vphosphatase activity
p163
I904
tp164
a(Vvacuole
p165
I873
tp166
a(Vtransferase activity, transferring acyl groups
p167
I872
tp168
a(Vcofactor metabolic process
p169
I858
tp170
a(VmRNA processing
p171
I829
tp172
a(Vsymbiosis, encompassing mutualism through parasitism
p173
I759
tp174
a(Vgeneration of precursor metabolites and energy
p175
I726
tp176
a(Vcell cycle
p177
I724
tp178
a(Vtransferase activity, transferring glycosyl groups
p179
I703
tp180
a(Vaging
p181
I638
tp182
a(Vcell junction organization
p183
I636
tp184
a(Vreproduction
p185
I630
tp186
a(Vnucleocytoplasmic transport
p187
I617
tp188
a(Vlyase activity
p189
I584
tp190
a(Vproteinaceous extracellular matrix
p191
I582
tp192
a(Vcell division
p193
I575
tp194
a(Vnuclease activity
p195
I560
tp196
a(Vplastid
p197
I524
tp198
a(Vlysosome
p199
I523
tp200
a(Vdevelopmental maturation
p201
I509
tp202
a(Vhelicase activity
p203
I506
tp204
a(Vmethyltransferase activity
p205
I499
tp206
a(Vcytoskeleton-dependent intracellular transport
p207
I460
tp208
a(Vmitochondrion organization
p209
I432
tp210
a(Vchromosome
p211
I418
tp212
a(VGTPase activity
p213
I413
tp214
a(Vribonucleoprotein complex assembly
p215
I408
tp216
a(Vprotein folding
p217
I400
tp218
a(Vnuclear envelope
p219
I381
tp220
a(Vhistone binding
p221
I376
tp222
a(Vplasma membrane organization
p223
I339
tp224
a(Vsecondary metabolic process
p225
I336
tp226
a(Visomerase activity
p227
I332
tp228
a(VmRNA binding
p229
I325
tp230
a(Vnucleotidyltransferase activity
p231
I320
tp232
a(Vhydrolase activity, acting on glycosyl bonds
p233
I320
tp234
a(Vexternal encapsulating structure
p235
I316
tp236
a(Vcell wall
p237
I311
tp238
a(Vhydrolase activity, acting on carbon-nitrogen (but not peptide) bonds
p239
I305
tp240
a(Vmitosis
p241
I287
tp242
a(Vstructural constituent of ribosome
p243
I267
tp244
a(Vvacuolar transport
p245
I267
tp246
a(Vchromosome segregation
p247
I259
tp248
a(Vperoxisome
p249
I257
tp250
a(Vcell wall organization or biogenesis
p251
I256
tp252
a(Vprotein binding, bridging
p253
I238
tp254
a(VtRNA metabolic process
p255
I235
tp256
a(Vsmall conjugating protein binding
p257
I232
tp258
a(Vprotein transporter activity
p259
I202
tp260
a(Vlipid particle
p261
I195
tp262
a(Vtranslation factor activity, nucleic acid binding
p263
I182
tp264
a(Vtranslation
p265
I170
tp266
a(Vunfolded protein binding
p267
I167
tp268
a(Vribosome
p269
I151
tp270
a(Vtransferase activity, transferring alkyl or aryl (other than methyl) groups
p271
I150
tp272
a(Vintracellular
p273
I132
tp274
a(Vnuclear chromosome
p275
I129
tp276
a(Vribosome biogenesis
p277
I128
tp278
a(Vpigmentation
p279
I110
tp280
a(VrRNA binding
p281
I90
tp282
a(Vthylakoid
p283
I39
tp284
a(Vnitrogen cycle metabolic process
p285
I32
tp286
a(Vcell
p287
I13
tp288
a(Vphotosynthesis
p289
I7
tp290
a(Vtransposition
p291
I7
tp292
a(VRNA modification guide activity
p293
I2
tp294
aa(lp295
(g3
L6372L
tp296
a(g5
L4365L
tp297
a(g7
L2787L
tp298
a(g9
L21685L
tp299
a(g11
L26888L
tp300
a(g13
L5491L
tp301
a(g15
L5801L
tp302
a(g17
L18268L
tp303
a(g19
L5613L
tp304
a(g21
L21693L
tp305
a(g23
L21630L
tp306
a(g25
L22689L
tp307
a(g27
L7192L
tp308
a(g29
L5168L
tp309
a(g31
L7190L
tp310
a(g33
L1781L
tp311
a(g35
L13924L
tp312
a(g37
L13633L
tp313
a(g39
L5326L
tp314
a(g41
L4599L
tp315
a(g43
L12968L
tp316
a(g45
L13690L
tp317
a(g47
L4644L
tp318
a(g49
L20507L
tp319
a(g51
L26682L
tp320
a(g53
L10381L
tp321
a(g55
L3827L
tp322
a(g57
L4422L
tp323
a(g59
L4507L
tp324
a(g61
L21086L
tp325
a(g63
L4995L
tp326
a(g65
L29927L
tp327
a(g67
L4514L
tp328
a(g69
L27837L
tp329
a(g71
L2790L
tp330
a(g73
L26901L
tp331
a(g75
L28228L
tp332
a(g77
L31581L
tp333
a(g79
L10598L
tp334
a(g81
L20503L
tp335
a(g83
L4725L
tp336
a(g85
L7881L
tp337
a(g87
L28535L
tp338
a(g89
L6320L
tp339
a(g91
L5165L
tp340
a(g93
L18282L
tp341
a(g95
L5896L
tp342
a(g97
L10466L
tp343
a(g99
L5663L
tp344
a(g101
L6500L
tp345
a(g103
L10229L
tp346
a(g105
L5791L
tp347
a(g107
L6448L
tp348
a(g109
L4567L
tp349
a(g111
L2830L
tp350
a(g113
L5218L
tp351
a(g115
L4621L
tp352
a(g117
L4515L
tp353
a(g119
L4556L
tp354
a(g121
L6494L
tp355
a(g123
L30984L
tp356
a(g125
L4542L
tp357
a(g127
L6436L
tp358
a(g129
L14001L
tp359
a(g131
L594L
tp360
a(g133
L4366L
tp361
a(g135
L4586L
tp362
a(g137
L10950L
tp363
a(g139
L677L
tp364
a(g141
L6357L
tp365
a(g143
L10963L
tp366
a(g145
L4439L
tp367
a(g147
L759L
tp368
a(g149
L4405L
tp369
a(g151
L4118L
tp370
a(g153
L5471L
tp371
a(g155
L2364L
tp372
a(g157
L13967L
tp373
a(g159
L4684L
tp374
a(g161
L5302L
tp375
a(g163
L10870L
tp376
a(g165
L4546L
tp377
a(g167
L10829L
tp378
a(g169
L28144L
tp379
a(g171
L5112L
tp380
a(g173
L22810L
tp381
a(g175
L4838L
tp382
a(g177
L5695L
tp383
a(g179
L10840L
tp384
a(g181
L6169L
tp385
a(g183
L17965L
tp386
a(g185
L3L
tp387
a(g187
L5582L
tp388
a(g189
L10905L
tp389
a(g191
L4368L
tp390
a(g193
L28251L
tp391
a(g195
L3518L
tp392
a(g197
L7644L
tp393
a(g199
L4538L
tp394
a(g201
L13274L
tp395
a(g203
L3404L
tp396
a(g205
L6389L
tp397
a(g207
L14427L
tp398
a(g209
L5658L
tp399
a(g211
L4475L
tp400
a(g213
L2991L
tp401
a(g215
L13644L
tp402
a(g217
L5161L
tp403
a(g219
L4423L
tp404
a(g221
L20900L
tp405
a(g223
L5662L
tp406
a(g225
L12827L
tp407
a(g227
L10929L
tp408
a(g229
L2835L
tp409
a(g231
L10860L
tp410
a(g233
L10876L
tp411
a(g235
L14078L
tp412
a(g237
L4408L
tp413
a(g239
L10886L
tp414
a(g241
L5712L
tp415
a(g243
L2841L
tp416
a(g245
L5682L
tp417
a(g247
L5705L
tp418
a(g249
L4550L
tp419
a(g251
L33137L
tp420
a(g253
L14396L
tp421
a(g255
L5114L
tp422
a(g257
L15840L
tp423
a(g259
L6747L
tp424
a(g261
L4583L
tp425
a(g263
L6358L
tp426
a(g265
L5126L
tp427
a(g267
L28040L
tp428
a(g269
L4609L
tp429
a(g271
L10848L
tp430
a(g273
L4411L
tp431
a(g275
L201L
tp432
a(g277
L20770L
tp433
a(g279
L21900L
tp434
a(g281
L12918L
tp435
a(g283
L7683L
tp436
a(g285
L33512L
tp437
a(g287
L4412L
tp438
a(g289
L10192L
tp439
a(g291
L15852L
tp440
a(g293
L14288L
tp441
aaI941453
a.