(lp1
(lp2
(Vbiological_process
p3
I267509
tp4
a(Vcellular_component
p5
I87306
tp6
a(Vmolecular_function
p7
I71717
tp8
a(Vorganelle
p9
I22453
tp10
a(Vanatomical structure development
p11
I21187
tp12
a(Vtransport
p13
I14776
tp14
a(Vsignal transduction
p15
I12362
tp16
a(Vcellular nitrogen compound metabolic process
p17
I11390
tp18
a(Vresponse to stress
p19
I9576
tp20
a(Vprotein complex
p21
I9228
tp22
a(Vion binding
p23
I8785
tp24
a(Vsmall molecule metabolic process
p25
I8247
tp26
a(Vbiosynthetic process
p27
I7595
tp28
a(Vcellular protein modification process
p29
I6346
tp30
a(Vcatabolic process
p31
I5564
tp32
a(Vimmune system process
p33
I5551
tp34
a(Vcell differentiation
p35
I5253
tp36
a(Vcellular component assembly
p37
I4215
tp38
a(Vlipid metabolic process
p39
I3715
tp40
a(Venzyme binding
p41
I3658
tp42
a(Vcytosol
p43
I3578
tp44
a(Vlocomotion
p45
I3496
tp46
a(Vanatomical structure formation involved in morphogenesis
p47
I3338
tp48
a(Vplasma membrane
p49
I3230
tp50
a(Vtransmembrane transporter activity
p51
I3109
tp52
a(Vvesicle-mediated transport
p53
I3067
tp54
a(Vnucleus
p55
I2839
tp56
a(Vnucleolus
p57
I2738
tp58
a(VDNA metabolic process
p59
I2684
tp60
a(Vcell motility
p61
I2568
tp62
a(Vhomeostatic process
p63
I2502
tp64
a(Vcytoplasm
p65
I2477
tp66
a(Vsignal transducer activity
p67
I2423
tp68
a(VDNA binding
p69
I2380
tp70
a(Vneurological system process
p71
I2319
tp72
a(Vtransmembrane transport
p73
I2292
tp74
a(Vmacromolecular complex assembly
p75
I2260
tp76
a(Voxidoreductase activity
p77
I2259
tp78
a(Vchromosome organization
p79
I2219
tp80
a(Vkinase activity
p81
I2173
tp82
a(Vgrowth
p83
I2150
tp84
a(Vcarbohydrate metabolic process
p85
I2106
tp86
a(Vcytoskeletal protein binding
p87
I2021
tp88
a(Vnucleobase-containing compound catabolic process
p89
I2000
tp90
a(Vprotein maturation
p91
I1984
tp92
a(Vembryo development
p93
I1955
tp94
a(Vprotein complex assembly
p95
I1855
tp96
a(Vcytoskeleton organization
p97
I1835
tp98
a(Vcell adhesion
p99
I1742
tp100
a(Vcellular amino acid metabolic process
p101
I1580
tp102
a(Vlipid binding
p103
I1575
tp104
a(Vcytoplasmic membrane-bounded vesicle
p105
I1523
tp106
a(VGolgi apparatus
p107
I1488
tp108
a(VRNA binding
p109
I1477
tp110
a(Vcytoskeleton
p111
I1476
tp112
a(Vpeptidase activity
p113
I1461
tp114
a(Vcell-cell signaling
p115
I1425
tp116
a(Vmitochondrion
p117
I1388
tp118
a(Vcell death
p119
I1290
tp120
a(VATPase activity
p121
I1276
tp122
a(Vendoplasmic reticulum
p123
I1262
tp124
a(Vcell proliferation
p125
I1244
tp126
a(Vmembrane organization
p127
I1238
tp128
a(Vendosome
p129
I1227
tp130
a(Vligase activity
p131
I1140
tp132
a(Venzyme regulator activity
p133
I1134
tp134
a(Vcell morphogenesis
p135
I1104
tp136
a(Vprotein binding transcription factor activity
p137
I1028
tp138
a(Vextracellular region
p139
I1021
tp140
a(Vmicrotubule organizing center
p141
I1017
tp142
a(Vtranscription factor binding
p143
I985
tp144
a(Vnucleoplasm
p145
I982
tp146
a(Vstructural molecule activity
p147
I919
tp148
a(Vsulfur compound metabolic process
p149
I869
tp150
a(Vnucleic acid binding transcription factor activity
p151
I867
tp152
a(Vextracellular space
p153
I848
tp154
a(Vcilium
p155
I777
tp156
a(Vextracellular matrix organization
p157
I774
tp158
a(Vprotein targeting
p159
I772
tp160
a(Vcofactor metabolic process
p161
I693
tp162
a(Vphosphatase activity
p163
I659
tp164
a(Vtransferase activity, transferring acyl groups
p165
I639
tp166
a(VmRNA processing
p167
I635
tp168
a(Vvacuole
p169
I632
tp170
a(Vsymbiosis, encompassing mutualism through parasitism
p171
I571
tp172
a(Vgeneration of precursor metabolites and energy
p173
I571
tp174
a(Vcell cycle
p175
I549
tp176
a(Vtransferase activity, transferring glycosyl groups
p177
I547
tp178
a(Vcirculatory system process
p179
I522
tp180
a(Vcell junction organization
p181
I509
tp182
a(Vaging
p183
I500
tp184
a(Vlyase activity
p185
I464
tp186
a(Vreproduction
p187
I456
tp188
a(Vnucleocytoplasmic transport
p189
I452
tp190
a(Vhelicase activity
p191
I444
tp192
a(Vnuclease activity
p193
I441
tp194
a(Vcell division
p195
I440
tp196
a(Vproteinaceous extracellular matrix
p197
I439
tp198
a(Vplastid
p199
I402
tp200
a(Vdevelopmental maturation
p201
I392
tp202
a(Vlysosome
p203
I371
tp204
a(Vmethyltransferase activity
p205
I347
tp206
a(Vmitochondrion organization
p207
I339
tp208
a(Vchromosome
p209
I333
tp210
a(Vcytoskeleton-dependent intracellular transport
p211
I327
tp212
a(Vribonucleoprotein complex assembly
p213
I319
tp214
a(Vprotein folding
p215
I295
tp216
a(Vnucleotidyltransferase activity
p217
I291
tp218
a(VGTPase activity
p219
I290
tp220
a(Vhistone binding
p221
I289
tp222
a(Vnuclear envelope
p223
I283
tp224
a(Vexternal encapsulating structure
p225
I265
tp226
a(Vcell wall
p227
I261
tp228
a(Vhydrolase activity, acting on glycosyl bonds
p229
I260
tp230
a(Visomerase activity
p231
I251
tp232
a(Vplasma membrane organization
p233
I250
tp234
a(Vsecondary metabolic process
p235
I249
tp236
a(VmRNA binding
p237
I247
tp238
a(Vhydrolase activity, acting on carbon-nitrogen (but not peptide) bonds
p239
I243
tp240
a(Vcell wall organization or biogenesis
p241
I215
tp242
a(Vstructural constituent of ribosome
p243
I214
tp244
a(Vprotein binding, bridging
p245
I206
tp246
a(VtRNA metabolic process
p247
I203
tp248
a(Vmitosis
p249
I193
tp250
a(Vchromosome segregation
p251
I192
tp252
a(Vsmall conjugating protein binding
p253
I178
tp254
a(Vvacuolar transport
p255
I178
tp256
a(Vprotein transporter activity
p257
I171
tp258
a(Vperoxisome
p259
I171
tp260
a(Vtranslation
p261
I146
tp262
a(Vlipid particle
p263
I145
tp264
a(Vtranslation factor activity, nucleic acid binding
p265
I143
tp266
a(Vunfolded protein binding
p267
I131
tp268
a(Vtransferase activity, transferring alkyl or aryl (other than methyl) groups
p269
I116
tp270
a(Vintracellular
p271
I115
tp272
a(Vribosome
p273
I107
tp274
a(Vnuclear chromosome
p275
I96
tp276
a(Vpigmentation
p277
I95
tp278
a(Vribosome biogenesis
p279
I92
tp280
a(VrRNA binding
p281
I70
tp282
a(Vthylakoid
p283
I24
tp284
a(Vnitrogen cycle metabolic process
p285
I19
tp286
a(Vtransposition
p287
I6
tp288
a(Vcell
p289
I6
tp290
a(Vphotosynthesis
p291
I5
tp292
a(VRNA modification guide activity
p293
I2
tp294
aa(lp295
(g3
L6372L
tp296
a(g5
L4365L
tp297
a(g7
L2787L
tp298
a(g9
L21685L
tp299
a(g11
L26888L
tp300
a(g13
L5491L
tp301
a(g15
L5801L
tp302
a(g17
L18268L
tp303
a(g19
L5613L
tp304
a(g21
L21693L
tp305
a(g23
L21630L
tp306
a(g25
L22689L
tp307
a(g27
L7192L
tp308
a(g29
L5168L
tp309
a(g31
L7190L
tp310
a(g33
L1781L
tp311
a(g35
L13924L
tp312
a(g37
L13633L
tp313
a(g39
L5326L
tp314
a(g41
L12968L
tp315
a(g43
L4599L
tp316
a(g45
L20507L
tp317
a(g47
L26682L
tp318
a(g49
L4644L
tp319
a(g51
L13690L
tp320
a(g53
L10381L
tp321
a(g55
L4422L
tp322
a(g57
L4507L
tp323
a(g59
L4995L
tp324
a(g61
L26901L
tp325
a(g63
L21086L
tp326
a(g65
L4514L
tp327
a(g67
L3827L
tp328
a(g69
L2790L
tp329
a(g71
L27837L
tp330
a(g73
L29927L
tp331
a(g75
L31581L
tp332
a(g77
L10598L
tp333
a(g79
L28228L
tp334
a(g81
L10466L
tp335
a(g83
L20503L
tp336
a(g85
L4725L
tp337
a(g87
L6320L
tp338
a(g89
L18282L
tp339
a(g91
L28535L
tp340
a(g93
L7881L
tp341
a(g95
L5165L
tp342
a(g97
L5663L
tp343
a(g99
L5791L
tp344
a(g101
L5218L
tp345
a(g103
L6500L
tp346
a(g105
L10229L
tp347
a(g107
L4567L
tp348
a(g109
L2830L
tp349
a(g111
L4621L
tp350
a(g113
L6448L
tp351
a(g115
L5896L
tp352
a(g117
L4515L
tp353
a(g119
L6436L
tp354
a(g121
L10963L
tp355
a(g123
L4556L
tp356
a(g125
L6494L
tp357
a(g127
L30984L
tp358
a(g129
L4542L
tp359
a(g131
L10950L
tp360
a(g133
L14001L
tp361
a(g135
L594L
tp362
a(g137
L677L
tp363
a(g139
L4366L
tp364
a(g141
L4586L
tp365
a(g143
L6357L
tp366
a(g145
L4439L
tp367
a(g147
L4118L
tp368
a(g149
L5471L
tp369
a(g151
L759L
tp370
a(g153
L4405L
tp371
a(g155
L4684L
tp372
a(g157
L13967L
tp373
a(g159
L5302L
tp374
a(g161
L28144L
tp375
a(g163
L10870L
tp376
a(g165
L10829L
tp377
a(g167
L5112L
tp378
a(g169
L4546L
tp379
a(g171
L22810L
tp380
a(g173
L4838L
tp381
a(g175
L5695L
tp382
a(g177
L10840L
tp383
a(g179
L2364L
tp384
a(g181
L17965L
tp385
a(g183
L6169L
tp386
a(g185
L10905L
tp387
a(g187
L3L
tp388
a(g189
L5582L
tp389
a(g191
L3404L
tp390
a(g193
L3518L
tp391
a(g195
L28251L
tp392
a(g197
L4368L
tp393
a(g199
L7644L
tp394
a(g201
L13274L
tp395
a(g203
L4538L
tp396
a(g205
L6389L
tp397
a(g207
L5658L
tp398
a(g209
L4475L
tp399
a(g211
L14427L
tp400
a(g213
L13644L
tp401
a(g215
L5161L
tp402
a(g217
L10860L
tp403
a(g219
L2991L
tp404
a(g221
L20900L
tp405
a(g223
L4423L
tp406
a(g225
L14078L
tp407
a(g227
L4408L
tp408
a(g229
L10876L
tp409
a(g231
L10929L
tp410
a(g233
L5662L
tp411
a(g235
L12827L
tp412
a(g237
L2835L
tp413
a(g239
L10886L
tp414
a(g241
L33137L
tp415
a(g243
L2841L
tp416
a(g245
L14396L
tp417
a(g247
L5114L
tp418
a(g249
L5712L
tp419
a(g251
L5705L
tp420
a(g253
L15840L
tp421
a(g255
L5682L
tp422
a(g257
L6747L
tp423
a(g259
L4550L
tp424
a(g261
L5126L
tp425
a(g263
L4583L
tp426
a(g265
L6358L
tp427
a(g267
L28040L
tp428
a(g269
L10848L
tp429
a(g271
L4411L
tp430
a(g273
L4609L
tp431
a(g275
L201L
tp432
a(g277
L21900L
tp433
a(g279
L20770L
tp434
a(g281
L12918L
tp435
a(g283
L7683L
tp436
a(g285
L33512L
tp437
a(g287
L15852L
tp438
a(g289
L4412L
tp439
a(g291
L10192L
tp440
a(g293
L14288L
tp441
aaI712905
a.