(lp1
(lp2
(Vbiological_process
p3
I449973
tp4
a(Vcellular_component
p5
I152652
tp6
a(Vmolecular_function
p7
I122782
tp8
a(Vorganelle
p9
I41156
tp10
a(Vanatomical structure development
p11
I32191
tp12
a(Vtransport
p13
I26744
tp14
a(Vcellular nitrogen compound metabolic process
p15
I21207
tp16
a(Vsignal transduction
p17
I20050
tp18
a(Vresponse to stress
p19
I17637
tp20
a(Vprotein complex
p21
I16445
tp22
a(Vion binding
p23
I15024
tp24
a(Vsmall molecule metabolic process
p25
I14832
tp26
a(Vbiosynthetic process
p27
I14830
tp28
a(Vcellular protein modification process
p29
I11995
tp30
a(Vcatabolic process
p31
I10785
tp32
a(Vimmune system process
p33
I8796
tp34
a(Vcell differentiation
p35
I7590
tp36
a(Vcellular component assembly
p37
I7402
tp38
a(Vlipid metabolic process
p39
I6985
tp40
a(Vcytosol
p41
I6818
tp42
a(Venzyme binding
p43
I6397
tp44
a(Vplasma membrane
p45
I5803
tp46
a(Vtransmembrane transporter activity
p47
I5777
tp48
a(Vvesicle-mediated transport
p49
I5231
tp50
a(Vlocomotion
p51
I5222
tp52
a(Vnucleus
p53
I5169
tp54
a(VDNA metabolic process
p55
I5134
tp56
a(Vnucleolus
p57
I4936
tp58
a(Vanatomical structure formation involved in morphogenesis
p59
I4832
tp60
a(Vcarbohydrate metabolic process
p61
I4531
tp62
a(Vchromosome organization
p63
I4308
tp64
a(Vhomeostatic process
p65
I4212
tp66
a(Vcytoplasm
p67
I4183
tp68
a(Vtransmembrane transport
p69
I4169
tp70
a(Vmacromolecular complex assembly
p71
I4121
tp72
a(Voxidoreductase activity
p73
I4084
tp74
a(Vkinase activity
p75
I3975
tp76
a(VDNA binding
p77
I3842
tp78
a(Vgrowth
p79
I3736
tp80
a(Vnucleobase-containing compound catabolic process
p81
I3712
tp82
a(Vcell motility
p83
I3678
tp84
a(Vcytoskeletal protein binding
p85
I3601
tp86
a(Vembryo development
p87
I3467
tp88
a(Vprotein maturation
p89
I3428
tp90
a(Vprotein complex assembly
p91
I3369
tp92
a(Vneurological system process
p93
I3356
tp94
a(Vcytoskeleton organization
p95
I3292
tp96
a(Vsignal transducer activity
p97
I3104
tp98
a(VRNA binding
p99
I2910
tp100
a(VGolgi apparatus
p101
I2754
tp102
a(Vmitochondrion
p103
I2705
tp104
a(Vcellular amino acid metabolic process
p105
I2683
tp106
a(Vcytoskeleton
p107
I2596
tp108
a(Vlipid binding
p109
I2550
tp110
a(Vcytoplasmic membrane-bounded vesicle
p111
I2532
tp112
a(VATPase activity
p113
I2416
tp114
a(Vpeptidase activity
p115
I2411
tp116
a(Vcell adhesion
p117
I2318
tp118
a(Vcell-cell signaling
p119
I2302
tp120
a(Vendoplasmic reticulum
p121
I2269
tp122
a(Vmembrane organization
p123
I2165
tp124
a(Vendosome
p125
I2095
tp126
a(Vcell death
p127
I2078
tp128
a(Vmicrotubule organizing center
p129
I2071
tp130
a(Vligase activity
p131
I2042
tp132
a(Venzyme regulator activity
p133
I1946
tp134
a(Vcell proliferation
p135
I1885
tp136
a(Vcell morphogenesis
p137
I1876
tp138
a(Vnucleoplasm
p139
I1789
tp140
a(Vextracellular region
p141
I1644
tp142
a(Vprotein targeting
p143
I1616
tp144
a(Vtranscription factor binding
p145
I1613
tp146
a(Vprotein binding transcription factor activity
p147
I1533
tp148
a(Vsulfur compound metabolic process
p149
I1517
tp150
a(Vstructural molecule activity
p151
I1505
tp152
a(Vcofactor metabolic process
p153
I1449
tp154
a(Vcilium
p155
I1386
tp156
a(Vnucleic acid binding transcription factor activity
p157
I1288
tp158
a(Vtransferase activity, transferring acyl groups
p159
I1266
tp160
a(Vvacuole
p161
I1243
tp162
a(VmRNA processing
p163
I1236
tp164
a(Vphosphatase activity
p165
I1185
tp166
a(Vcell cycle
p167
I1185
tp168
a(Vgeneration of precursor metabolites and energy
p169
I1183
tp170
a(Vextracellular space
p171
I1144
tp172
a(Vplastid
p173
I1136
tp174
a(Vsymbiosis, encompassing mutualism through parasitism
p175
I1052
tp176
a(Vextracellular matrix organization
p177
I1035
tp178
a(Vreproduction
p179
I990
tp180
a(Vhelicase activity
p181
I978
tp182
a(Vtransferase activity, transferring glycosyl groups
p183
I902
tp184
a(Vnucleocytoplasmic transport
p185
I893
tp186
a(Vlyase activity
p187
I889
tp188
a(Vcell division
p189
I857
tp190
a(Vaging
p191
I818
tp192
a(Vcirculatory system process
p193
I806
tp194
a(Vnuclease activity
p195
I754
tp196
a(Vcell junction organization
p197
I745
tp198
a(Vmethyltransferase activity
p199
I743
tp200
a(Vcytoskeleton-dependent intracellular transport
p201
I719
tp202
a(Vdevelopmental maturation
p203
I713
tp204
a(Vprotein folding
p205
I704
tp206
a(Vchromosome
p207
I639
tp208
a(Vexternal encapsulating structure
p209
I616
tp210
a(Vlysosome
p211
I609
tp212
a(Vcell wall
p213
I609
tp214
a(Vsecondary metabolic process
p215
I604
tp216
a(Vribonucleoprotein complex assembly
p217
I593
tp218
a(Vmitochondrion organization
p219
I575
tp220
a(Visomerase activity
p221
I572
tp222
a(Vnuclear envelope
p223
I564
tp224
a(Vhydrolase activity, acting on glycosyl bonds
p225
I536
tp226
a(VGTPase activity
p227
I526
tp228
a(Vcell wall organization or biogenesis
p229
I511
tp230
a(VmRNA binding
p231
I505
tp232
a(Vproteinaceous extracellular matrix
p233
I504
tp234
a(Vnucleotidyltransferase activity
p235
I496
tp236
a(Vhistone binding
p237
I462
tp238
a(Vplasma membrane organization
p239
I456
tp240
a(Vchromosome segregation
p241
I423
tp242
a(Vperoxisome
p243
I408
tp244
a(Vprotein binding, bridging
p245
I404
tp246
a(Vhydrolase activity, acting on carbon-nitrogen (but not peptide) bonds
p247
I403
tp248
a(Vmitosis
p249
I403
tp250
a(Vvacuolar transport
p251
I397
tp252
a(VtRNA metabolic process
p253
I356
tp254
a(Vstructural constituent of ribosome
p255
I352
tp256
a(Vsmall conjugating protein binding
p257
I346
tp258
a(Vtranslation factor activity, nucleic acid binding
p259
I289
tp260
a(Vtranslation
p261
I272
tp262
a(Vunfolded protein binding
p263
I264
tp264
a(Vlipid particle
p265
I251
tp266
a(Vprotein transporter activity
p267
I247
tp268
a(Vribosome
p269
I221
tp270
a(Vtransferase activity, transferring alkyl or aryl (other than methyl) groups
p271
I208
tp272
a(Vribosome biogenesis
p273
I194
tp274
a(Vintracellular
p275
I192
tp276
a(Vnuclear chromosome
p277
I178
tp278
a(Vpigmentation
p279
I159
tp280
a(Vthylakoid
p281
I136
tp282
a(VrRNA binding
p283
I108
tp284
a(Vnitrogen cycle metabolic process
p285
I52
tp286
a(Vtransposition
p287
I42
tp288
a(Vphotosynthesis
p289
I40
tp290
a(Vcell
p291
I9
tp292
a(Vcytoplasmic chromosome
p293
I6
tp294
a(VRNA modification guide activity
p295
I3
tp296
aa(lp297
(g3
L6372L
tp298
a(g5
L4365L
tp299
a(g7
L2787L
tp300
a(g9
L21685L
tp301
a(g11
L26888L
tp302
a(g13
L5491L
tp303
a(g15
L18268L
tp304
a(g17
L5801L
tp305
a(g19
L5613L
tp306
a(g21
L21693L
tp307
a(g23
L21630L
tp308
a(g25
L22689L
tp309
a(g27
L7192L
tp310
a(g29
L5168L
tp311
a(g31
L7190L
tp312
a(g33
L1781L
tp313
a(g35
L13924L
tp314
a(g37
L13633L
tp315
a(g39
L5326L
tp316
a(g41
L4599L
tp317
a(g43
L12968L
tp318
a(g45
L4644L
tp319
a(g47
L13690L
tp320
a(g49
L10381L
tp321
a(g51
L20507L
tp322
a(g53
L4422L
tp323
a(g55
L4995L
tp324
a(g57
L4507L
tp325
a(g59
L26682L
tp326
a(g61
L4725L
tp327
a(g63
L28228L
tp328
a(g65
L21086L
tp329
a(g67
L4514L
tp330
a(g69
L29927L
tp331
a(g71
L31581L
tp332
a(g73
L10598L
tp333
a(g75
L10466L
tp334
a(g77
L2790L
tp335
a(g79
L20503L
tp336
a(g81
L18282L
tp337
a(g83
L26901L
tp338
a(g85
L6320L
tp339
a(g87
L7881L
tp340
a(g89
L28535L
tp341
a(g91
L5165L
tp342
a(g93
L27837L
tp343
a(g95
L5663L
tp344
a(g97
L3827L
tp345
a(g99
L2830L
tp346
a(g101
L4567L
tp347
a(g103
L4515L
tp348
a(g105
L5218L
tp349
a(g107
L4621L
tp350
a(g109
L6500L
tp351
a(g111
L10229L
tp352
a(g113
L10963L
tp353
a(g115
L6448L
tp354
a(g117
L5791L
tp355
a(g119
L5896L
tp356
a(g121
L4556L
tp357
a(g123
L30984L
tp358
a(g125
L4542L
tp359
a(g127
L6436L
tp360
a(g129
L4586L
tp361
a(g131
L10950L
tp362
a(g133
L14001L
tp363
a(g135
L6494L
tp364
a(g137
L594L
tp365
a(g139
L4439L
tp366
a(g141
L4366L
tp367
a(g143
L5302L
tp368
a(g145
L6357L
tp369
a(g147
L677L
tp370
a(g149
L5471L
tp371
a(g151
L4118L
tp372
a(g153
L28144L
tp373
a(g155
L4684L
tp374
a(g157
L759L
tp375
a(g159
L10829L
tp376
a(g161
L4546L
tp377
a(g163
L5112L
tp378
a(g165
L10870L
tp379
a(g167
L5695L
tp380
a(g169
L4838L
tp381
a(g171
L4405L
tp382
a(g173
L7644L
tp383
a(g175
L22810L
tp384
a(g177
L13967L
tp385
a(g179
L3L
tp386
a(g181
L3404L
tp387
a(g183
L10840L
tp388
a(g185
L5582L
tp389
a(g187
L10905L
tp390
a(g189
L28251L
tp391
a(g191
L6169L
tp392
a(g193
L2364L
tp393
a(g195
L3518L
tp394
a(g197
L17965L
tp395
a(g199
L6389L
tp396
a(g201
L14427L
tp397
a(g203
L13274L
tp398
a(g205
L5161L
tp399
a(g207
L4475L
tp400
a(g209
L14078L
tp401
a(g211
L4538L
tp402
a(g213
L4408L
tp403
a(g215
L12827L
tp404
a(g217
L13644L
tp405
a(g219
L5658L
tp406
a(g221
L10929L
tp407
a(g223
L4423L
tp408
a(g225
L10876L
tp409
a(g227
L2991L
tp410
a(g229
L33137L
tp411
a(g231
L2835L
tp412
a(g233
L4368L
tp413
a(g235
L10860L
tp414
a(g237
L20900L
tp415
a(g239
L5662L
tp416
a(g241
L5705L
tp417
a(g243
L4550L
tp418
a(g245
L14396L
tp419
a(g247
L10886L
tp420
a(g249
L5712L
tp421
a(g251
L5682L
tp422
a(g253
L5114L
tp423
a(g255
L2841L
tp424
a(g257
L15840L
tp425
a(g259
L6358L
tp426
a(g261
L5126L
tp427
a(g263
L28040L
tp428
a(g265
L4583L
tp429
a(g267
L6747L
tp430
a(g269
L4609L
tp431
a(g271
L10848L
tp432
a(g273
L20770L
tp433
a(g275
L4411L
tp434
a(g277
L201L
tp435
a(g279
L21900L
tp436
a(g281
L7683L
tp437
a(g283
L12918L
tp438
a(g285
L33512L
tp439
a(g287
L15852L
tp440
a(g289
L10192L
tp441
a(g291
L4412L
tp442
a(g293
L202L
tp443
a(g295
L14288L
tp444
aaI1227423
a.