(lp1
(lp2
(Vbiological_process
p3
I227749
tp4
a(Vcellular_component
p5
I76292
tp6
a(Vmolecular_function
p7
I61015
tp8
a(Vorganelle
p9
I20117
tp10
a(Vanatomical structure development
p11
I17543
tp12
a(Vtransport
p13
I12948
tp14
a(Vsignal transduction
p15
I10342
tp16
a(Vcellular nitrogen compound metabolic process
p17
I9979
tp18
a(Vresponse to stress
p19
I8403
tp20
a(Vprotein complex
p21
I8208
tp22
a(Vion binding
p23
I7462
tp24
a(Vsmall molecule metabolic process
p25
I6833
tp26
a(Vbiosynthetic process
p27
I6221
tp28
a(Vcellular protein modification process
p29
I5621
tp30
a(Vcatabolic process
p31
I4978
tp32
a(Vimmune system process
p33
I4628
tp34
a(Vcell differentiation
p35
I4153
tp36
a(Vcellular component assembly
p37
I3672
tp38
a(Vcytosol
p39
I3271
tp40
a(Vlipid metabolic process
p41
I3165
tp42
a(Venzyme binding
p43
I3148
tp44
a(Vlocomotion
p45
I2898
tp46
a(Vplasma membrane
p47
I2813
tp48
a(Vtransmembrane transporter activity
p49
I2744
tp50
a(Vanatomical structure formation involved in morphogenesis
p51
I2674
tp52
a(Vvesicle-mediated transport
p53
I2665
tp54
a(Vnucleolus
p55
I2598
tp56
a(Vnucleus
p57
I2501
tp58
a(VDNA metabolic process
p59
I2286
tp60
a(Vhomeostatic process
p61
I2171
tp62
a(Vchromosome organization
p63
I2127
tp64
a(Vcell motility
p65
I2049
tp66
a(VDNA binding
p67
I2048
tp68
a(Vtransmembrane transport
p69
I2040
tp70
a(Vcytoplasm
p71
I2027
tp72
a(Vsignal transducer activity
p73
I2013
tp74
a(Vmacromolecular complex assembly
p75
I2004
tp76
a(Vneurological system process
p77
I1911
tp78
a(Vprotein maturation
p79
I1834
tp80
a(Vgrowth
p81
I1812
tp82
a(Vembryo development
p83
I1788
tp84
a(Voxidoreductase activity
p85
I1787
tp86
a(Vcarbohydrate metabolic process
p87
I1764
tp88
a(Vkinase activity
p89
I1721
tp90
a(Vnucleobase-containing compound catabolic process
p91
I1715
tp92
a(Vcytoskeletal protein binding
p93
I1696
tp94
a(Vprotein complex assembly
p95
I1639
tp96
a(Vcytoskeleton organization
p97
I1599
tp98
a(VRNA binding
p99
I1442
tp100
a(Vlipid binding
p101
I1418
tp102
a(Vcytoplasmic membrane-bounded vesicle
p103
I1415
tp104
a(VGolgi apparatus
p105
I1389
tp106
a(Vcell adhesion
p107
I1380
tp108
a(Vpeptidase activity
p109
I1372
tp110
a(Vcellular amino acid metabolic process
p111
I1332
tp112
a(Vcell-cell signaling
p113
I1266
tp114
a(Vcytoskeleton
p115
I1263
tp116
a(Vmitochondrion
p117
I1205
tp118
a(Vcell death
p119
I1152
tp120
a(Vendoplasmic reticulum
p121
I1114
tp122
a(Vendosome
p123
I1075
tp124
a(Vcell proliferation
p125
I1059
tp126
a(Vmembrane organization
p127
I1040
tp128
a(Venzyme regulator activity
p129
I1033
tp130
a(Vligase activity
p131
I978
tp132
a(Vmicrotubule organizing center
p133
I964
tp134
a(VATPase activity
p135
I926
tp136
a(Vcell morphogenesis
p137
I921
tp138
a(Vnucleoplasm
p139
I905
tp140
a(Vextracellular region
p141
I880
tp142
a(Vprotein binding transcription factor activity
p143
I857
tp144
a(Vtranscription factor binding
p145
I851
tp146
a(Vstructural molecule activity
p147
I811
tp148
a(Vnucleic acid binding transcription factor activity
p149
I756
tp150
a(Vprotein targeting
p151
I720
tp152
a(Vextracellular space
p153
I714
tp154
a(Vsulfur compound metabolic process
p155
I674
tp156
a(Vcilium
p157
I635
tp158
a(Vextracellular matrix organization
p159
I625
tp160
a(VmRNA processing
p161
I619
tp162
a(Vvacuole
p163
I606
tp164
a(Vphosphatase activity
p165
I595
tp166
a(Vcofactor metabolic process
p167
I580
tp168
a(Vtransferase activity, transferring acyl groups
p169
I557
tp170
a(Vsymbiosis, encompassing mutualism through parasitism
p171
I538
tp172
a(Vgeneration of precursor metabolites and energy
p173
I517
tp174
a(Vcell cycle
p175
I497
tp176
a(Vcirculatory system process
p177
I489
tp178
a(Vreproduction
p179
I470
tp180
a(Vnucleocytoplasmic transport
p181
I447
tp182
a(Vaging
p183
I427
tp184
a(Vcell junction organization
p185
I417
tp186
a(Vcell division
p187
I401
tp188
a(Vtransferase activity, transferring glycosyl groups
p189
I398
tp190
a(Vnuclease activity
p191
I388
tp192
a(Vplastid
p193
I367
tp194
a(Vhelicase activity
p195
I361
tp196
a(Vlyase activity
p197
I353
tp198
a(Vproteinaceous extracellular matrix
p199
I345
tp200
a(Vdevelopmental maturation
p201
I345
tp202
a(Vlysosome
p203
I340
tp204
a(Vmethyltransferase activity
p205
I318
tp206
a(Vchromosome
p207
I307
tp208
a(Vcytoskeleton-dependent intracellular transport
p209
I306
tp210
a(Vprotein folding
p211
I289
tp212
a(Vmitochondrion organization
p213
I289
tp214
a(Vribonucleoprotein complex assembly
p215
I283
tp216
a(Vhistone binding
p217
I266
tp218
a(VGTPase activity
p219
I262
tp220
a(Vnuclear envelope
p221
I256
tp222
a(VmRNA binding
p223
I240
tp224
a(Vsecondary metabolic process
p225
I236
tp226
a(Vexternal encapsulating structure
p227
I231
tp228
a(Vcell wall
p229
I229
tp230
a(Vplasma membrane organization
p231
I219
tp232
a(Vnucleotidyltransferase activity
p233
I218
tp234
a(Vstructural constituent of ribosome
p235
I213
tp236
a(Vhydrolase activity, acting on glycosyl bonds
p237
I201
tp238
a(Vhydrolase activity, acting on carbon-nitrogen (but not peptide) bonds
p239
I198
tp240
a(Visomerase activity
p241
I197
tp242
a(Vmitosis
p243
I193
tp244
a(Vcell wall organization or biogenesis
p245
I187
tp246
a(Vvacuolar transport
p247
I181
tp248
a(Vsmall conjugating protein binding
p249
I180
tp250
a(VtRNA metabolic process
p251
I180
tp252
a(Vchromosome segregation
p253
I179
tp254
a(Vprotein binding, bridging
p255
I172
tp256
a(Vperoxisome
p257
I156
tp258
a(Vprotein transporter activity
p259
I134
tp260
a(Vtranslation factor activity, nucleic acid binding
p261
I129
tp262
a(Vlipid particle
p263
I124
tp264
a(Vunfolded protein binding
p265
I121
tp266
a(Vtranslation
p267
I114
tp268
a(Vtransferase activity, transferring alkyl or aryl (other than methyl) groups
p269
I103
tp270
a(Vribosome biogenesis
p271
I102
tp272
a(Vribosome
p273
I97
tp274
a(Vnuclear chromosome
p275
I96
tp276
a(Vintracellular
p277
I85
tp278
a(Vpigmentation
p279
I72
tp280
a(VrRNA binding
p281
I60
tp282
a(Vthylakoid
p283
I23
tp284
a(Vnitrogen cycle metabolic process
p285
I15
tp286
a(Vcell
p287
I6
tp288
a(Vphotosynthesis
p289
I4
tp290
a(Vtransposition
p291
I4
tp292
a(VRNA modification guide activity
p293
I1
tp294
aa(lp295
(g3
L6372L
tp296
a(g5
L4365L
tp297
a(g7
L2787L
tp298
a(g9
L21685L
tp299
a(g11
L26888L
tp300
a(g13
L5491L
tp301
a(g15
L5801L
tp302
a(g17
L18268L
tp303
a(g19
L5613L
tp304
a(g21
L21693L
tp305
a(g23
L21630L
tp306
a(g25
L22689L
tp307
a(g27
L7192L
tp308
a(g29
L5168L
tp309
a(g31
L7190L
tp310
a(g33
L1781L
tp311
a(g35
L13924L
tp312
a(g37
L13633L
tp313
a(g39
L4599L
tp314
a(g41
L5326L
tp315
a(g43
L12968L
tp316
a(g45
L20507L
tp317
a(g47
L4644L
tp318
a(g49
L13690L
tp319
a(g51
L26682L
tp320
a(g53
L10381L
tp321
a(g55
L4507L
tp322
a(g57
L4422L
tp323
a(g59
L4995L
tp324
a(g61
L21086L
tp325
a(g63
L28228L
tp326
a(g65
L26901L
tp327
a(g67
L2790L
tp328
a(g69
L29927L
tp329
a(g71
L4514L
tp330
a(g73
L3827L
tp331
a(g75
L31581L
tp332
a(g77
L27837L
tp333
a(g79
L28535L
tp334
a(g81
L20503L
tp335
a(g83
L7881L
tp336
a(g85
L10598L
tp337
a(g87
L4725L
tp338
a(g89
L10466L
tp339
a(g91
L18282L
tp340
a(g93
L6320L
tp341
a(g95
L5165L
tp342
a(g97
L5663L
tp343
a(g99
L2830L
tp344
a(g101
L6500L
tp345
a(g103
L10229L
tp346
a(g105
L4567L
tp347
a(g107
L5791L
tp348
a(g109
L6448L
tp349
a(g111
L5218L
tp350
a(g113
L5896L
tp351
a(g115
L4621L
tp352
a(g117
L4515L
tp353
a(g119
L6436L
tp354
a(g121
L4556L
tp355
a(g123
L4542L
tp356
a(g125
L6494L
tp357
a(g127
L30984L
tp358
a(g129
L14001L
tp359
a(g131
L10950L
tp360
a(g133
L4586L
tp361
a(g135
L10963L
tp362
a(g137
L594L
tp363
a(g139
L4439L
tp364
a(g141
L4366L
tp365
a(g143
L677L
tp366
a(g145
L6357L
tp367
a(g147
L4118L
tp368
a(g149
L759L
tp369
a(g151
L5302L
tp370
a(g153
L4405L
tp371
a(g155
L5471L
tp372
a(g157
L4684L
tp373
a(g159
L13967L
tp374
a(g161
L5112L
tp375
a(g163
L4546L
tp376
a(g165
L10870L
tp377
a(g167
L28144L
tp378
a(g169
L10829L
tp379
a(g171
L22810L
tp380
a(g173
L4838L
tp381
a(g175
L5695L
tp382
a(g177
L2364L
tp383
a(g179
L3L
tp384
a(g181
L5582L
tp385
a(g183
L6169L
tp386
a(g185
L17965L
tp387
a(g187
L28251L
tp388
a(g189
L10840L
tp389
a(g191
L3518L
tp390
a(g193
L7644L
tp391
a(g195
L3404L
tp392
a(g197
L10905L
tp393
a(g199
L4368L
tp394
a(g201
L13274L
tp395
a(g203
L4538L
tp396
a(g205
L6389L
tp397
a(g207
L4475L
tp398
a(g209
L14427L
tp399
a(g211
L5161L
tp400
a(g213
L5658L
tp401
a(g215
L13644L
tp402
a(g217
L20900L
tp403
a(g219
L2991L
tp404
a(g221
L4423L
tp405
a(g223
L2835L
tp406
a(g225
L12827L
tp407
a(g227
L14078L
tp408
a(g229
L4408L
tp409
a(g231
L5662L
tp410
a(g233
L10860L
tp411
a(g235
L2841L
tp412
a(g237
L10876L
tp413
a(g239
L10886L
tp414
a(g241
L10929L
tp415
a(g243
L5712L
tp416
a(g245
L33137L
tp417
a(g247
L5682L
tp418
a(g249
L15840L
tp419
a(g251
L5114L
tp420
a(g253
L5705L
tp421
a(g255
L14396L
tp422
a(g257
L4550L
tp423
a(g259
L6747L
tp424
a(g261
L6358L
tp425
a(g263
L4583L
tp426
a(g265
L28040L
tp427
a(g267
L5126L
tp428
a(g269
L10848L
tp429
a(g271
L20770L
tp430
a(g273
L4609L
tp431
a(g275
L201L
tp432
a(g277
L4411L
tp433
a(g279
L21900L
tp434
a(g281
L12918L
tp435
a(g283
L7683L
tp436
a(g285
L33512L
tp437
a(g287
L4412L
tp438
a(g289
L10192L
tp439
a(g291
L15852L
tp440
a(g293
L14288L
tp441
aaI612377
a.