(lp1
(lp2
(Vbiological_process
p3
I334578
tp4
a(Vcellular_component
p5
I108260
tp6
a(Vmolecular_function
p7
I89032
tp8
a(Vorganelle
p9
I28432
tp10
a(Vanatomical structure development
p11
I26178
tp12
a(Vtransport
p13
I18035
tp14
a(Vsignal transduction
p15
I16021
tp16
a(Vcellular nitrogen compound metabolic process
p17
I14020
tp18
a(Vresponse to stress
p19
I12419
tp20
a(Vprotein complex
p21
I11741
tp22
a(Vion binding
p23
I11197
tp24
a(Vsmall molecule metabolic process
p25
I10236
tp26
a(Vbiosynthetic process
p27
I9146
tp28
a(Vcellular protein modification process
p29
I8168
tp30
a(Vimmune system process
p31
I7357
tp32
a(Vcatabolic process
p33
I7266
tp34
a(Vcell differentiation
p35
I6283
tp36
a(Vcellular component assembly
p37
I5366
tp38
a(Vlipid metabolic process
p39
I4953
tp40
a(Vcytosol
p41
I4786
tp42
a(Venzyme binding
p43
I4646
tp44
a(Vlocomotion
p45
I4248
tp46
a(Vplasma membrane
p47
I3991
tp48
a(Vanatomical structure formation involved in morphogenesis
p49
I3953
tp50
a(Vtransmembrane transporter activity
p51
I3929
tp52
a(Vnucleolus
p53
I3732
tp54
a(Vvesicle-mediated transport
p55
I3662
tp56
a(Vnucleus
p57
I3589
tp58
a(Vhomeostatic process
p59
I3289
tp60
a(VDNA metabolic process
p61
I3165
tp62
a(VDNA binding
p63
I3158
tp64
a(Vsignal transducer activity
p65
I3091
tp66
a(Vmacromolecular complex assembly
p67
I3082
tp68
a(Vcell motility
p69
I3072
tp70
a(Vcytoplasm
p71
I2990
tp72
a(Voxidoreductase activity
p73
I2932
tp74
a(Vtransmembrane transport
p75
I2897
tp76
a(Vchromosome organization
p77
I2864
tp78
a(Vprotein maturation
p79
I2851
tp80
a(Vneurological system process
p81
I2676
tp82
a(Vcarbohydrate metabolic process
p83
I2649
tp84
a(Vgrowth
p85
I2614
tp86
a(Vembryo development
p87
I2577
tp88
a(Vprotein complex assembly
p89
I2544
tp90
a(Vkinase activity
p91
I2490
tp92
a(Vnucleobase-containing compound catabolic process
p93
I2468
tp94
a(Vcytoskeletal protein binding
p95
I2299
tp96
a(Vcytoskeleton organization
p97
I2165
tp98
a(VRNA binding
p99
I2116
tp100
a(Vcell adhesion
p101
I2056
tp102
a(Vlipid binding
p103
I1966
tp104
a(Vcytoplasmic membrane-bounded vesicle
p105
I1963
tp106
a(VGolgi apparatus
p107
I1960
tp108
a(Vcellular amino acid metabolic process
p109
I1929
tp110
a(Vpeptidase activity
p111
I1890
tp112
a(Vmitochondrion
p113
I1879
tp114
a(Vcell-cell signaling
p115
I1845
tp116
a(Vcytoskeleton
p117
I1753
tp118
a(Vcell proliferation
p119
I1719
tp120
a(Vendoplasmic reticulum
p121
I1667
tp122
a(Vcell death
p123
I1619
tp124
a(Vendosome
p125
I1524
tp126
a(Vmembrane organization
p127
I1498
tp128
a(Vligase activity
p129
I1472
tp130
a(Venzyme regulator activity
p131
I1448
tp132
a(VATPase activity
p133
I1340
tp134
a(Vcell morphogenesis
p135
I1308
tp136
a(Vnucleoplasm
p137
I1303
tp138
a(Vmicrotubule organizing center
p139
I1301
tp140
a(Vtranscription factor binding
p141
I1289
tp142
a(Vprotein binding transcription factor activity
p143
I1263
tp144
a(Vextracellular region
p145
I1255
tp146
a(Vnucleic acid binding transcription factor activity
p147
I1248
tp148
a(Vstructural molecule activity
p149
I1177
tp150
a(Vextracellular space
p151
I1046
tp152
a(Vsulfur compound metabolic process
p153
I1028
tp154
a(Vprotein targeting
p155
I1026
tp156
a(Vextracellular matrix organization
p157
I961
tp158
a(Vcofactor metabolic process
p159
I900
tp160
a(Vvacuole
p161
I877
tp162
a(Vtransferase activity, transferring acyl groups
p163
I847
tp164
a(VmRNA processing
p165
I843
tp166
a(Vsymbiosis, encompassing mutualism through parasitism
p167
I842
tp168
a(Vcilium
p169
I838
tp170
a(Vphosphatase activity
p171
I792
tp172
a(Vgeneration of precursor metabolites and energy
p173
I773
tp174
a(Vcirculatory system process
p175
I703
tp176
a(Vaging
p177
I666
tp178
a(Vreproduction
p179
I647
tp180
a(Vcell cycle
p181
I636
tp182
a(Vtransferase activity, transferring glycosyl groups
p183
I633
tp184
a(Vnucleocytoplasmic transport
p185
I614
tp186
a(Vdevelopmental maturation
p187
I602
tp188
a(Vlyase activity
p189
I579
tp190
a(Vcell division
p191
I574
tp192
a(Vplastid
p193
I573
tp194
a(Vcell junction organization
p195
I552
tp196
a(Vlysosome
p197
I521
tp198
a(Vnuclease activity
p199
I496
tp200
a(Vhelicase activity
p201
I495
tp202
a(Vprotein folding
p203
I478
tp204
a(Vproteinaceous extracellular matrix
p205
I454
tp206
a(Vmethyltransferase activity
p207
I454
tp208
a(Vmitochondrion organization
p209
I451
tp210
a(VGTPase activity
p211
I435
tp212
a(Vribonucleoprotein complex assembly
p213
I429
tp214
a(Vcytoskeleton-dependent intracellular transport
p215
I410
tp216
a(Vchromosome
p217
I396
tp218
a(Vexternal encapsulating structure
p219
I379
tp220
a(Vcell wall
p221
I372
tp222
a(Vsecondary metabolic process
p223
I365
tp224
a(Vhistone binding
p225
I355
tp226
a(VmRNA binding
p227
I355
tp228
a(Vnuclear envelope
p229
I346
tp230
a(Visomerase activity
p231
I325
tp232
a(Vhydrolase activity, acting on glycosyl bonds
p233
I311
tp234
a(Vplasma membrane organization
p235
I302
tp236
a(Vstructural constituent of ribosome
p237
I297
tp238
a(Vnucleotidyltransferase activity
p239
I288
tp240
a(Vhydrolase activity, acting on carbon-nitrogen (but not peptide) bonds
p241
I287
tp242
a(Vmitosis
p243
I271
tp244
a(Vcell wall organization or biogenesis
p245
I256
tp246
a(Vchromosome segregation
p247
I255
tp248
a(Vperoxisome
p249
I250
tp250
a(Vprotein binding, bridging
p251
I250
tp252
a(Vvacuolar transport
p253
I245
tp254
a(Vsmall conjugating protein binding
p255
I241
tp256
a(VtRNA metabolic process
p257
I237
tp258
a(Vunfolded protein binding
p259
I214
tp260
a(Vlipid particle
p261
I214
tp262
a(Vtranslation factor activity, nucleic acid binding
p263
I207
tp264
a(Vtranslation
p265
I175
tp266
a(Vprotein transporter activity
p267
I164
tp268
a(Vtransferase activity, transferring alkyl or aryl (other than methyl) groups
p269
I158
tp270
a(Vribosome
p271
I145
tp272
a(Vribosome biogenesis
p273
I131
tp274
a(Vnuclear chromosome
p275
I127
tp276
a(Vintracellular
p277
I120
tp278
a(Vpigmentation
p279
I106
tp280
a(VrRNA binding
p281
I83
tp282
a(Vnitrogen cycle metabolic process
p283
I45
tp284
a(Vthylakoid
p285
I35
tp286
a(Vphotosynthesis
p287
I12
tp288
a(Vtransposition
p289
I12
tp290
a(Vcell
p291
I8
tp292
a(VRNA modification guide activity
p293
I1
tp294
aa(lp295
(g3
L6372L
tp296
a(g5
L4365L
tp297
a(g7
L2787L
tp298
a(g9
L21685L
tp299
a(g11
L26888L
tp300
a(g13
L5491L
tp301
a(g15
L5801L
tp302
a(g17
L18268L
tp303
a(g19
L5613L
tp304
a(g21
L21693L
tp305
a(g23
L21630L
tp306
a(g25
L22689L
tp307
a(g27
L7192L
tp308
a(g29
L5168L
tp309
a(g31
L1781L
tp310
a(g33
L7190L
tp311
a(g35
L13924L
tp312
a(g37
L13633L
tp313
a(g39
L5326L
tp314
a(g41
L4599L
tp315
a(g43
L12968L
tp316
a(g45
L20507L
tp317
a(g47
L4644L
tp318
a(g49
L26682L
tp319
a(g51
L13690L
tp320
a(g53
L4507L
tp321
a(g55
L10381L
tp322
a(g57
L4422L
tp323
a(g59
L21086L
tp324
a(g61
L4995L
tp325
a(g63
L2790L
tp326
a(g65
L3827L
tp327
a(g67
L31581L
tp328
a(g69
L26901L
tp329
a(g71
L4514L
tp330
a(g73
L10598L
tp331
a(g75
L29927L
tp332
a(g77
L28228L
tp333
a(g79
L28535L
tp334
a(g81
L27837L
tp335
a(g83
L4725L
tp336
a(g85
L20503L
tp337
a(g87
L7881L
tp338
a(g89
L5165L
tp339
a(g91
L10466L
tp340
a(g93
L18282L
tp341
a(g95
L6320L
tp342
a(g97
L5663L
tp343
a(g99
L2830L
tp344
a(g101
L5791L
tp345
a(g103
L6500L
tp346
a(g105
L10229L
tp347
a(g107
L4567L
tp348
a(g109
L5218L
tp349
a(g111
L6448L
tp350
a(g113
L4515L
tp351
a(g115
L5896L
tp352
a(g117
L4621L
tp353
a(g119
L6494L
tp354
a(g121
L4556L
tp355
a(g123
L6436L
tp356
a(g125
L4542L
tp357
a(g127
L30984L
tp358
a(g129
L10950L
tp359
a(g131
L14001L
tp360
a(g133
L10963L
tp361
a(g135
L594L
tp362
a(g137
L4439L
tp363
a(g139
L4586L
tp364
a(g141
L6357L
tp365
a(g143
L677L
tp366
a(g145
L4366L
tp367
a(g147
L759L
tp368
a(g149
L4118L
tp369
a(g151
L4405L
tp370
a(g153
L5471L
tp371
a(g155
L5302L
tp372
a(g157
L13967L
tp373
a(g159
L28144L
tp374
a(g161
L4546L
tp375
a(g163
L10829L
tp376
a(g165
L5112L
tp377
a(g167
L22810L
tp378
a(g169
L4684L
tp379
a(g171
L10870L
tp380
a(g173
L4838L
tp381
a(g175
L2364L
tp382
a(g177
L6169L
tp383
a(g179
L3L
tp384
a(g181
L5695L
tp385
a(g183
L10840L
tp386
a(g185
L5582L
tp387
a(g187
L13274L
tp388
a(g189
L10905L
tp389
a(g191
L28251L
tp390
a(g193
L7644L
tp391
a(g195
L17965L
tp392
a(g197
L4538L
tp393
a(g199
L3518L
tp394
a(g201
L3404L
tp395
a(g203
L5161L
tp396
a(g205
L4368L
tp397
a(g207
L6389L
tp398
a(g209
L5658L
tp399
a(g211
L2991L
tp400
a(g213
L13644L
tp401
a(g215
L14427L
tp402
a(g217
L4475L
tp403
a(g219
L14078L
tp404
a(g221
L4408L
tp405
a(g223
L12827L
tp406
a(g225
L20900L
tp407
a(g227
L2835L
tp408
a(g229
L4423L
tp409
a(g231
L10929L
tp410
a(g233
L10876L
tp411
a(g235
L5662L
tp412
a(g237
L2841L
tp413
a(g239
L10860L
tp414
a(g241
L10886L
tp415
a(g243
L5712L
tp416
a(g245
L33137L
tp417
a(g247
L5705L
tp418
a(g249
L4550L
tp419
a(g251
L14396L
tp420
a(g253
L5682L
tp421
a(g255
L15840L
tp422
a(g257
L5114L
tp423
a(g259
L28040L
tp424
a(g261
L4583L
tp425
a(g263
L6358L
tp426
a(g265
L5126L
tp427
a(g267
L6747L
tp428
a(g269
L10848L
tp429
a(g271
L4609L
tp430
a(g273
L20770L
tp431
a(g275
L201L
tp432
a(g277
L4411L
tp433
a(g279
L21900L
tp434
a(g281
L12918L
tp435
a(g283
L33512L
tp436
a(g285
L7683L
tp437
a(g287
L10192L
tp438
a(g289
L15852L
tp439
a(g291
L4412L
tp440
a(g293
L14288L
tp441
aaI893400
a.