(lp1
(lp2
(Vbiological_process
p3
I289744
tp4
a(Vcellular_component
p5
I97875
tp6
a(Vmolecular_function
p7
I79274
tp8
a(Vorganelle
p9
I25736
tp10
a(Vanatomical structure development
p11
I22840
tp12
a(Vtransport
p13
I16448
tp14
a(Vsignal transduction
p15
I13494
tp16
a(Vcellular nitrogen compound metabolic process
p17
I12520
tp18
a(Vresponse to stress
p19
I10262
tp20
a(Vprotein complex
p21
I10181
tp22
a(Vion binding
p23
I9278
tp24
a(Vsmall molecule metabolic process
p25
I8467
tp26
a(Vbiosynthetic process
p27
I7748
tp28
a(Vcellular protein modification process
p29
I7068
tp30
a(Vimmune system process
p31
I5986
tp32
a(Vcatabolic process
p33
I5916
tp34
a(Vcell differentiation
p35
I5419
tp36
a(Vcellular component assembly
p37
I4479
tp38
a(Vlipid metabolic process
p39
I4052
tp40
a(Vcytosol
p41
I4048
tp42
a(Venzyme binding
p43
I3961
tp44
a(Vplasma membrane
p45
I3688
tp46
a(Vtransmembrane transporter activity
p47
I3538
tp48
a(Vlocomotion
p49
I3526
tp50
a(Vanatomical structure formation involved in morphogenesis
p51
I3435
tp52
a(Vnucleus
p53
I3421
tp54
a(Vnucleolus
p55
I3318
tp56
a(Vvesicle-mediated transport
p57
I3288
tp58
a(Vcytoplasm
p59
I3094
tp60
a(VDNA metabolic process
p61
I2962
tp62
a(VDNA binding
p63
I2836
tp64
a(Vsignal transducer activity
p65
I2801
tp66
a(Vhomeostatic process
p67
I2753
tp68
a(Vtransmembrane transport
p69
I2679
tp70
a(Vcell motility
p71
I2531
tp72
a(Vchromosome organization
p73
I2503
tp74
a(Vmacromolecular complex assembly
p75
I2477
tp76
a(Voxidoreductase activity
p77
I2421
tp78
a(Vneurological system process
p79
I2368
tp80
a(Vprotein maturation
p81
I2232
tp82
a(Vcarbohydrate metabolic process
p83
I2141
tp84
a(Vnucleobase-containing compound catabolic process
p85
I2137
tp86
a(Vkinase activity
p87
I2131
tp88
a(Vembryo development
p89
I2129
tp90
a(Vcytoskeletal protein binding
p91
I2124
tp92
a(Vgrowth
p93
I2108
tp94
a(Vprotein complex assembly
p95
I2021
tp96
a(Vcytoskeleton organization
p97
I1925
tp98
a(VRNA binding
p99
I1748
tp100
a(Vlipid binding
p101
I1723
tp102
a(Vcytoplasmic membrane-bounded vesicle
p103
I1696
tp104
a(VGolgi apparatus
p105
I1690
tp106
a(Vcell-cell signaling
p107
I1689
tp108
a(Vpeptidase activity
p109
I1653
tp110
a(Vcell adhesion
p111
I1642
tp112
a(Vcytoskeleton
p113
I1618
tp114
a(Vmitochondrion
p115
I1571
tp116
a(Vcellular amino acid metabolic process
p117
I1525
tp118
a(Vendoplasmic reticulum
p119
I1449
tp120
a(Vmembrane organization
p121
I1354
tp122
a(Vendosome
p123
I1351
tp124
a(Vcell death
p125
I1350
tp126
a(Vcell proliferation
p127
I1347
tp128
a(Venzyme regulator activity
p129
I1307
tp130
a(Vligase activity
p131
I1248
tp132
a(Vmicrotubule organizing center
p133
I1172
tp134
a(Vnucleoplasm
p135
I1152
tp136
a(Vextracellular region
p137
I1144
tp138
a(Vtranscription factor binding
p139
I1129
tp140
a(Vnucleic acid binding transcription factor activity
p141
I1124
tp142
a(VATPase activity
p143
I1110
tp144
a(Vprotein binding transcription factor activity
p145
I1109
tp146
a(Vcell morphogenesis
p147
I1094
tp148
a(Vstructural molecule activity
p149
I983
tp150
a(Vextracellular space
p151
I954
tp152
a(Vsulfur compound metabolic process
p153
I854
tp154
a(Vextracellular matrix organization
p155
I837
tp156
a(Vprotein targeting
p157
I828
tp158
a(Vcilium
p159
I796
tp160
a(Vphosphatase activity
p161
I770
tp162
a(VmRNA processing
p163
I736
tp164
a(Vtransferase activity, transferring acyl groups
p165
I731
tp166
a(Vcofactor metabolic process
p167
I722
tp168
a(Vsymbiosis, encompassing mutualism through parasitism
p169
I669
tp170
a(Vvacuole
p171
I667
tp172
a(Vgeneration of precursor metabolites and energy
p173
I630
tp174
a(Vcirculatory system process
p175
I627
tp176
a(Vcell cycle
p177
I610
tp178
a(Vtransferase activity, transferring glycosyl groups
p179
I588
tp180
a(Vnucleocytoplasmic transport
p181
I534
tp182
a(Vaging
p183
I524
tp184
a(Vreproduction
p185
I520
tp186
a(Vnuclease activity
p187
I508
tp188
a(Vcell junction organization
p189
I506
tp190
a(Vhelicase activity
p191
I458
tp192
a(Vlyase activity
p193
I454
tp194
a(Vcell division
p195
I447
tp196
a(Vproteinaceous extracellular matrix
p197
I446
tp198
a(Vdevelopmental maturation
p199
I429
tp200
a(Vmethyltransferase activity
p201
I420
tp202
a(Vlysosome
p203
I407
tp204
a(Vmitochondrion organization
p205
I387
tp206
a(Vplastid
p207
I385
tp208
a(Vcytoskeleton-dependent intracellular transport
p209
I380
tp210
a(VGTPase activity
p211
I360
tp212
a(Vribonucleoprotein complex assembly
p213
I360
tp214
a(Vprotein folding
p215
I356
tp216
a(Vchromosome
p217
I342
tp218
a(Vhistone binding
p219
I332
tp220
a(Vplasma membrane organization
p221
I332
tp222
a(Vnuclear envelope
p223
I289
tp224
a(Vnucleotidyltransferase activity
p225
I286
tp226
a(VmRNA binding
p227
I281
tp228
a(Vhydrolase activity, acting on glycosyl bonds
p229
I265
tp230
a(Vhydrolase activity, acting on carbon-nitrogen (but not peptide) bonds
p231
I265
tp232
a(Vsecondary metabolic process
p233
I263
tp234
a(Visomerase activity
p235
I254
tp236
a(Vstructural constituent of ribosome
p237
I239
tp238
a(Vprotein binding, bridging
p239
I228
tp240
a(Vmitosis
p241
I225
tp242
a(Vexternal encapsulating structure
p243
I217
tp244
a(Vcell wall
p245
I213
tp246
a(Vchromosome segregation
p247
I213
tp248
a(Vvacuolar transport
p249
I211
tp250
a(Vperoxisome
p251
I201
tp252
a(Vsmall conjugating protein binding
p253
I196
tp254
a(Vcell wall organization or biogenesis
p255
I187
tp256
a(VtRNA metabolic process
p257
I185
tp258
a(Vprotein transporter activity
p259
I165
tp260
a(Vintracellular
p261
I160
tp262
a(Vtranslation factor activity, nucleic acid binding
p263
I155
tp264
a(Vtranslation
p265
I152
tp266
a(Vlipid particle
p267
I146
tp268
a(Vunfolded protein binding
p269
I142
tp270
a(Vtransferase activity, transferring alkyl or aryl (other than methyl) groups
p271
I132
tp272
a(Vribosome
p273
I117
tp274
a(Vribosome biogenesis
p275
I113
tp276
a(Vnuclear chromosome
p277
I108
tp278
a(Vpigmentation
p279
I87
tp280
a(VrRNA binding
p281
I80
tp282
a(Vthylakoid
p283
I27
tp284
a(Vnitrogen cycle metabolic process
p285
I22
tp286
a(Vtransposition
p287
I15
tp288
a(Vcell
p289
I11
tp290
a(Vphotosynthesis
p291
I8
tp292
a(VRNA modification guide activity
p293
I1
tp294
aa(lp295
(g3
L6372L
tp296
a(g5
L4365L
tp297
a(g7
L2787L
tp298
a(g9
L21685L
tp299
a(g11
L26888L
tp300
a(g13
L5491L
tp301
a(g15
L5801L
tp302
a(g17
L18268L
tp303
a(g19
L5613L
tp304
a(g21
L21693L
tp305
a(g23
L21630L
tp306
a(g25
L22689L
tp307
a(g27
L7192L
tp308
a(g29
L5168L
tp309
a(g31
L1781L
tp310
a(g33
L7190L
tp311
a(g35
L13924L
tp312
a(g37
L13633L
tp313
a(g39
L5326L
tp314
a(g41
L4599L
tp315
a(g43
L12968L
tp316
a(g45
L4644L
tp317
a(g47
L13690L
tp318
a(g49
L20507L
tp319
a(g51
L26682L
tp320
a(g53
L4422L
tp321
a(g55
L4507L
tp322
a(g57
L10381L
tp323
a(g59
L4514L
tp324
a(g61
L4995L
tp325
a(g63
L2790L
tp326
a(g65
L3827L
tp327
a(g67
L21086L
tp328
a(g69
L29927L
tp329
a(g71
L26901L
tp330
a(g73
L28228L
tp331
a(g75
L31581L
tp332
a(g77
L10598L
tp333
a(g79
L27837L
tp334
a(g81
L28535L
tp335
a(g83
L4725L
tp336
a(g85
L18282L
tp337
a(g87
L10466L
tp338
a(g89
L7881L
tp339
a(g91
L6320L
tp340
a(g93
L20503L
tp341
a(g95
L5165L
tp342
a(g97
L5663L
tp343
a(g99
L2830L
tp344
a(g101
L6500L
tp345
a(g103
L10229L
tp346
a(g105
L4567L
tp347
a(g107
L5896L
tp348
a(g109
L6448L
tp349
a(g111
L5791L
tp350
a(g113
L4621L
tp351
a(g115
L4515L
tp352
a(g117
L5218L
tp353
a(g119
L4556L
tp354
a(g121
L30984L
tp355
a(g123
L4542L
tp356
a(g125
L6436L
tp357
a(g127
L6494L
tp358
a(g129
L14001L
tp359
a(g131
L10950L
tp360
a(g133
L4586L
tp361
a(g135
L4439L
tp362
a(g137
L4366L
tp363
a(g139
L6357L
tp364
a(g141
L759L
tp365
a(g143
L10963L
tp366
a(g145
L677L
tp367
a(g147
L594L
tp368
a(g149
L4118L
tp369
a(g151
L4405L
tp370
a(g153
L5471L
tp371
a(g155
L13967L
tp372
a(g157
L5302L
tp373
a(g159
L4684L
tp374
a(g161
L10870L
tp375
a(g163
L5112L
tp376
a(g165
L10829L
tp377
a(g167
L28144L
tp378
a(g169
L22810L
tp379
a(g171
L4546L
tp380
a(g173
L4838L
tp381
a(g175
L2364L
tp382
a(g177
L5695L
tp383
a(g179
L10840L
tp384
a(g181
L5582L
tp385
a(g183
L6169L
tp386
a(g185
L3L
tp387
a(g187
L3518L
tp388
a(g189
L17965L
tp389
a(g191
L3404L
tp390
a(g193
L10905L
tp391
a(g195
L28251L
tp392
a(g197
L4368L
tp393
a(g199
L13274L
tp394
a(g201
L6389L
tp395
a(g203
L4538L
tp396
a(g205
L5658L
tp397
a(g207
L7644L
tp398
a(g209
L14427L
tp399
a(g211
L2991L
tp400
a(g213
L13644L
tp401
a(g215
L5161L
tp402
a(g217
L4475L
tp403
a(g219
L20900L
tp404
a(g221
L5662L
tp405
a(g223
L4423L
tp406
a(g225
L10860L
tp407
a(g227
L2835L
tp408
a(g229
L10876L
tp409
a(g231
L10886L
tp410
a(g233
L12827L
tp411
a(g235
L10929L
tp412
a(g237
L2841L
tp413
a(g239
L14396L
tp414
a(g241
L5712L
tp415
a(g243
L14078L
tp416
a(g245
L4408L
tp417
a(g247
L5705L
tp418
a(g249
L5682L
tp419
a(g251
L4550L
tp420
a(g253
L15840L
tp421
a(g255
L33137L
tp422
a(g257
L5114L
tp423
a(g259
L6747L
tp424
a(g261
L4411L
tp425
a(g263
L6358L
tp426
a(g265
L5126L
tp427
a(g267
L4583L
tp428
a(g269
L28040L
tp429
a(g271
L10848L
tp430
a(g273
L4609L
tp431
a(g275
L20770L
tp432
a(g277
L201L
tp433
a(g279
L21900L
tp434
a(g281
L12918L
tp435
a(g283
L7683L
tp436
a(g285
L33512L
tp437
a(g287
L15852L
tp438
a(g289
L4412L
tp439
a(g291
L10192L
tp440
a(g293
L14288L
tp441
aaI779126
a.