(lp1
(lp2
(Vbiological_process
p3
I344594
tp4
a(Vcellular_component
p5
I113608
tp6
a(Vmolecular_function
p7
I91829
tp8
a(Vorganelle
p9
I29787
tp10
a(Vanatomical structure development
p11
I26768
tp12
a(Vtransport
p13
I19407
tp14
a(Vsignal transduction
p15
I15983
tp16
a(Vcellular nitrogen compound metabolic process
p17
I14146
tp18
a(Vresponse to stress
p19
I12372
tp20
a(Vprotein complex
p21
I12188
tp22
a(Vion binding
p23
I11142
tp24
a(Vsmall molecule metabolic process
p25
I9883
tp26
a(Vbiosynthetic process
p27
I9005
tp28
a(Vcellular protein modification process
p29
I8433
tp30
a(Vimmune system process
p31
I7155
tp32
a(Vcatabolic process
p33
I7032
tp34
a(Vcell differentiation
p35
I6519
tp36
a(Vcellular component assembly
p37
I5418
tp38
a(Venzyme binding
p39
I4957
tp40
a(Vlipid metabolic process
p41
I4896
tp42
a(Vcytosol
p43
I4736
tp44
a(Vlocomotion
p45
I4433
tp46
a(Vplasma membrane
p47
I4157
tp48
a(Vtransmembrane transporter activity
p49
I4157
tp50
a(Vanatomical structure formation involved in morphogenesis
p51
I4064
tp52
a(Vvesicle-mediated transport
p53
I4018
tp54
a(Vnucleolus
p55
I3777
tp56
a(Vnucleus
p57
I3767
tp58
a(Vhomeostatic process
p59
I3399
tp60
a(VDNA metabolic process
p61
I3287
tp62
a(VDNA binding
p63
I3170
tp64
a(Vcell motility
p65
I3157
tp66
a(Vcytoplasm
p67
I3145
tp68
a(Vtransmembrane transport
p69
I3116
tp70
a(Vneurological system process
p71
I3055
tp72
a(Vsignal transducer activity
p73
I3034
tp74
a(Vchromosome organization
p75
I3016
tp76
a(Vmacromolecular complex assembly
p77
I2936
tp78
a(Voxidoreductase activity
p79
I2753
tp80
a(Vprotein maturation
p81
I2708
tp82
a(Vcytoskeletal protein binding
p83
I2674
tp84
a(Vgrowth
p85
I2653
tp86
a(Vcarbohydrate metabolic process
p87
I2559
tp88
a(Vkinase activity
p89
I2514
tp90
a(Vembryo development
p91
I2505
tp92
a(Vnucleobase-containing compound catabolic process
p93
I2456
tp94
a(Vprotein complex assembly
p95
I2415
tp96
a(Vcytoskeleton organization
p97
I2324
tp98
a(Vlipid binding
p99
I2188
tp100
a(Vcytoplasmic membrane-bounded vesicle
p101
I2079
tp102
a(Vcell adhesion
p103
I2069
tp104
a(VGolgi apparatus
p105
I2026
tp106
a(VRNA binding
p107
I1956
tp108
a(Vcell-cell signaling
p109
I1940
tp110
a(Vcytoskeleton
p111
I1908
tp112
a(Vmitochondrion
p113
I1847
tp114
a(Vpeptidase activity
p115
I1844
tp116
a(Vcellular amino acid metabolic process
p117
I1708
tp118
a(Vendoplasmic reticulum
p119
I1702
tp120
a(Vendosome
p121
I1673
tp122
a(Vcell proliferation
p123
I1649
tp124
a(Vcell death
p125
I1642
tp126
a(Vmembrane organization
p127
I1640
tp128
a(Venzyme regulator activity
p129
I1636
tp130
a(Vligase activity
p131
I1505
tp132
a(VATPase activity
p133
I1395
tp134
a(Vmicrotubule organizing center
p135
I1382
tp136
a(Vcell morphogenesis
p137
I1380
tp138
a(Vprotein binding transcription factor activity
p139
I1363
tp140
a(Vtranscription factor binding
p141
I1355
tp142
a(Vnucleoplasm
p143
I1297
tp144
a(Vextracellular region
p145
I1245
tp146
a(Vnucleic acid binding transcription factor activity
p147
I1219
tp148
a(Vstructural molecule activity
p149
I1107
tp150
a(Vextracellular space
p151
I1097
tp152
a(Vprotein targeting
p153
I1024
tp154
a(Vextracellular matrix organization
p155
I961
tp156
a(Vsulfur compound metabolic process
p157
I956
tp158
a(Vcilium
p159
I950
tp160
a(Vphosphatase activity
p161
I897
tp162
a(Vvacuole
p163
I869
tp164
a(Vtransferase activity, transferring acyl groups
p165
I845
tp166
a(VmRNA processing
p167
I841
tp168
a(Vsymbiosis, encompassing mutualism through parasitism
p169
I819
tp170
a(Vcofactor metabolic process
p171
I811
tp172
a(Vgeneration of precursor metabolites and energy
p173
I753
tp174
a(Vcell cycle
p175
I727
tp176
a(Vcirculatory system process
p177
I716
tp178
a(Vtransferase activity, transferring glycosyl groups
p179
I646
tp180
a(Vnucleocytoplasmic transport
p181
I640
tp182
a(Vaging
p183
I636
tp184
a(Vcell junction organization
p185
I632
tp186
a(Vreproduction
p187
I623
tp188
a(Vdevelopmental maturation
p189
I573
tp190
a(Vcell division
p191
I565
tp192
a(Vnuclease activity
p193
I537
tp194
a(Vhelicase activity
p195
I532
tp196
a(Vlysosome
p197
I520
tp198
a(Vproteinaceous extracellular matrix
p199
I511
tp200
a(Vplastid
p201
I505
tp202
a(Vlyase activity
p203
I500
tp204
a(Vcytoskeleton-dependent intracellular transport
p205
I482
tp206
a(Vmitochondrion organization
p207
I475
tp208
a(Vmethyltransferase activity
p209
I466
tp210
a(Vchromosome
p211
I410
tp212
a(Vribonucleoprotein complex assembly
p213
I408
tp214
a(Vhistone binding
p215
I400
tp216
a(Vprotein folding
p217
I398
tp218
a(VGTPase activity
p219
I379
tp220
a(Vnuclear envelope
p221
I378
tp222
a(Vplasma membrane organization
p223
I352
tp224
a(Vsecondary metabolic process
p225
I335
tp226
a(Vhydrolase activity, acting on glycosyl bonds
p227
I328
tp228
a(VmRNA binding
p229
I324
tp230
a(Vnucleotidyltransferase activity
p231
I295
tp232
a(Vhydrolase activity, acting on carbon-nitrogen (but not peptide) bonds
p233
I289
tp234
a(Visomerase activity
p235
I288
tp236
a(Vexternal encapsulating structure
p237
I288
tp238
a(Vvacuolar transport
p239
I284
tp240
a(Vprotein binding, bridging
p241
I282
tp242
a(Vcell wall
p243
I282
tp244
a(Vmitosis
p245
I280
tp246
a(Vcell wall organization or biogenesis
p247
I255
tp248
a(Vchromosome segregation
p249
I249
tp250
a(Vsmall conjugating protein binding
p251
I245
tp252
a(Vperoxisome
p253
I245
tp254
a(Vstructural constituent of ribosome
p255
I238
tp256
a(VtRNA metabolic process
p257
I205
tp258
a(Vprotein transporter activity
p259
I192
tp260
a(Vlipid particle
p261
I177
tp262
a(Vtranslation factor activity, nucleic acid binding
p263
I173
tp264
a(Vunfolded protein binding
p265
I160
tp266
a(Vtranslation
p267
I155
tp268
a(Vribosome
p269
I144
tp270
a(Vintracellular
p271
I143
tp272
a(Vtransferase activity, transferring alkyl or aryl (other than methyl) groups
p273
I138
tp274
a(Vnuclear chromosome
p275
I123
tp276
a(Vribosome biogenesis
p277
I123
tp278
a(Vpigmentation
p279
I113
tp280
a(VrRNA binding
p281
I76
tp282
a(Vthylakoid
p283
I37
tp284
a(Vnitrogen cycle metabolic process
p285
I31
tp286
a(Vphotosynthesis
p287
I13
tp288
a(Vtransposition
p289
I9
tp290
a(Vcell
p291
I9
tp292
a(VRNA modification guide activity
p293
I1
tp294
aa(lp295
(g3
L6372L
tp296
a(g5
L4365L
tp297
a(g7
L2787L
tp298
a(g9
L21685L
tp299
a(g11
L26888L
tp300
a(g13
L5491L
tp301
a(g15
L5801L
tp302
a(g17
L18268L
tp303
a(g19
L5613L
tp304
a(g21
L21693L
tp305
a(g23
L21630L
tp306
a(g25
L22689L
tp307
a(g27
L7192L
tp308
a(g29
L5168L
tp309
a(g31
L1781L
tp310
a(g33
L7190L
tp311
a(g35
L13924L
tp312
a(g37
L13633L
tp313
a(g39
L12968L
tp314
a(g41
L5326L
tp315
a(g43
L4599L
tp316
a(g45
L20507L
tp317
a(g47
L4644L
tp318
a(g49
L13690L
tp319
a(g51
L26682L
tp320
a(g53
L10381L
tp321
a(g55
L4507L
tp322
a(g57
L4422L
tp323
a(g59
L21086L
tp324
a(g61
L4995L
tp325
a(g63
L2790L
tp326
a(g65
L26901L
tp327
a(g67
L4514L
tp328
a(g69
L29927L
tp329
a(g71
L27837L
tp330
a(g73
L3827L
tp331
a(g75
L28228L
tp332
a(g77
L31581L
tp333
a(g79
L10598L
tp334
a(g81
L28535L
tp335
a(g83
L6320L
tp336
a(g85
L20503L
tp337
a(g87
L4725L
tp338
a(g89
L10466L
tp339
a(g91
L7881L
tp340
a(g93
L18282L
tp341
a(g95
L5165L
tp342
a(g97
L5663L
tp343
a(g99
L6500L
tp344
a(g101
L10229L
tp345
a(g103
L5791L
tp346
a(g105
L4567L
tp347
a(g107
L2830L
tp348
a(g109
L5896L
tp349
a(g111
L4621L
tp350
a(g113
L4515L
tp351
a(g115
L6448L
tp352
a(g117
L5218L
tp353
a(g119
L4556L
tp354
a(g121
L4542L
tp355
a(g123
L6494L
tp356
a(g125
L6436L
tp357
a(g127
L30984L
tp358
a(g129
L14001L
tp359
a(g131
L10950L
tp360
a(g133
L10963L
tp361
a(g135
L4586L
tp362
a(g137
L594L
tp363
a(g139
L677L
tp364
a(g141
L6357L
tp365
a(g143
L4439L
tp366
a(g145
L4366L
tp367
a(g147
L759L
tp368
a(g149
L4118L
tp369
a(g151
L4405L
tp370
a(g153
L5302L
tp371
a(g155
L13967L
tp372
a(g157
L5471L
tp373
a(g159
L4684L
tp374
a(g161
L10870L
tp375
a(g163
L4546L
tp376
a(g165
L10829L
tp377
a(g167
L5112L
tp378
a(g169
L22810L
tp379
a(g171
L28144L
tp380
a(g173
L4838L
tp381
a(g175
L5695L
tp382
a(g177
L2364L
tp383
a(g179
L10840L
tp384
a(g181
L5582L
tp385
a(g183
L6169L
tp386
a(g185
L17965L
tp387
a(g187
L3L
tp388
a(g189
L13274L
tp389
a(g191
L28251L
tp390
a(g193
L3518L
tp391
a(g195
L3404L
tp392
a(g197
L4538L
tp393
a(g199
L4368L
tp394
a(g201
L7644L
tp395
a(g203
L10905L
tp396
a(g205
L14427L
tp397
a(g207
L5658L
tp398
a(g209
L6389L
tp399
a(g211
L4475L
tp400
a(g213
L13644L
tp401
a(g215
L20900L
tp402
a(g217
L5161L
tp403
a(g219
L2991L
tp404
a(g221
L4423L
tp405
a(g223
L5662L
tp406
a(g225
L12827L
tp407
a(g227
L10876L
tp408
a(g229
L2835L
tp409
a(g231
L10860L
tp410
a(g233
L10886L
tp411
a(g235
L10929L
tp412
a(g237
L14078L
tp413
a(g239
L5682L
tp414
a(g241
L14396L
tp415
a(g243
L4408L
tp416
a(g245
L5712L
tp417
a(g247
L33137L
tp418
a(g249
L5705L
tp419
a(g251
L15840L
tp420
a(g253
L4550L
tp421
a(g255
L2841L
tp422
a(g257
L5114L
tp423
a(g259
L6747L
tp424
a(g261
L4583L
tp425
a(g263
L6358L
tp426
a(g265
L28040L
tp427
a(g267
L5126L
tp428
a(g269
L4609L
tp429
a(g271
L4411L
tp430
a(g273
L10848L
tp431
a(g275
L201L
tp432
a(g277
L20770L
tp433
a(g279
L21900L
tp434
a(g281
L12918L
tp435
a(g283
L7683L
tp436
a(g285
L33512L
tp437
a(g287
L10192L
tp438
a(g289
L15852L
tp439
a(g291
L4412L
tp440
a(g293
L14288L
tp441
aaI918225
a.