(lp1
(lp2
(Vbiological_process
p3
I376204
tp4
a(Vcellular_component
p5
I124362
tp6
a(Vmolecular_function
p7
I101654
tp8
a(Vorganelle
p9
I32618
tp10
a(Vanatomical structure development
p11
I29208
tp12
a(Vtransport
p13
I21095
tp14
a(Vsignal transduction
p15
I17316
tp16
a(Vcellular nitrogen compound metabolic process
p17
I15677
tp18
a(Vresponse to stress
p19
I13569
tp20
a(Vprotein complex
p21
I13548
tp22
a(Vion binding
p23
I12481
tp24
a(Vsmall molecule metabolic process
p25
I10836
tp26
a(Vbiosynthetic process
p27
I9636
tp28
a(Vcellular protein modification process
p29
I9293
tp30
a(Vcatabolic process
p31
I7780
tp32
a(Vimmune system process
p33
I7636
tp34
a(Vcell differentiation
p35
I7136
tp36
a(Vcellular component assembly
p37
I6097
tp38
a(Venzyme binding
p39
I5517
tp40
a(Vcytosol
p41
I5344
tp42
a(Vlipid metabolic process
p43
I5311
tp44
a(Vlocomotion
p45
I4986
tp46
a(Vanatomical structure formation involved in morphogenesis
p47
I4599
tp48
a(Vtransmembrane transporter activity
p49
I4503
tp50
a(Vplasma membrane
p51
I4455
tp52
a(Vvesicle-mediated transport
p53
I4438
tp54
a(Vnucleolus
p55
I4211
tp56
a(Vnucleus
p57
I4111
tp58
a(VDNA metabolic process
p59
I3816
tp60
a(Vhomeostatic process
p61
I3718
tp62
a(Vcell motility
p63
I3592
tp64
a(VDNA binding
p65
I3544
tp66
a(Vcytoplasm
p67
I3499
tp68
a(Vchromosome organization
p69
I3457
tp70
a(Vtransmembrane transport
p71
I3330
tp72
a(Vneurological system process
p73
I3323
tp74
a(Vsignal transducer activity
p75
I3319
tp76
a(Vmacromolecular complex assembly
p77
I3282
tp78
a(Voxidoreductase activity
p79
I2974
tp80
a(Vcytoskeletal protein binding
p81
I2956
tp82
a(Vgrowth
p83
I2915
tp84
a(Vprotein maturation
p85
I2858
tp86
a(Vkinase activity
p87
I2852
tp88
a(Vcarbohydrate metabolic process
p89
I2771
tp90
a(Vnucleobase-containing compound catabolic process
p91
I2769
tp92
a(Vembryo development
p93
I2761
tp94
a(Vprotein complex assembly
p95
I2701
tp96
a(Vcytoskeleton organization
p97
I2654
tp98
a(Vlipid binding
p99
I2427
tp100
a(Vcell adhesion
p101
I2414
tp102
a(Vcytoplasmic membrane-bounded vesicle
p103
I2299
tp104
a(VGolgi apparatus
p105
I2290
tp106
a(VRNA binding
p107
I2108
tp108
a(Vcell-cell signaling
p109
I2104
tp110
a(Vcytoskeleton
p111
I2096
tp112
a(Vmitochondrion
p113
I2026
tp114
a(Vpeptidase activity
p115
I2021
tp116
a(Vcellular amino acid metabolic process
p117
I1887
tp118
a(Vendosome
p119
I1858
tp120
a(Vendoplasmic reticulum
p121
I1844
tp122
a(Vmembrane organization
p123
I1838
tp124
a(Vcell proliferation
p125
I1787
tp126
a(Vcell death
p127
I1770
tp128
a(Venzyme regulator activity
p129
I1750
tp130
a(Vligase activity
p131
I1686
tp132
a(VATPase activity
p133
I1629
tp134
a(Vcell morphogenesis
p135
I1590
tp136
a(Vmicrotubule organizing center
p137
I1554
tp138
a(Vprotein binding transcription factor activity
p139
I1494
tp140
a(Vtranscription factor binding
p141
I1493
tp142
a(Vnucleoplasm
p143
I1476
tp144
a(Vnucleic acid binding transcription factor activity
p145
I1367
tp146
a(Vextracellular region
p147
I1350
tp148
a(Vstructural molecule activity
p149
I1273
tp150
a(Vextracellular space
p151
I1178
tp152
a(Vprotein targeting
p153
I1106
tp154
a(Vcilium
p155
I1068
tp156
a(Vextracellular matrix organization
p157
I1065
tp158
a(Vsulfur compound metabolic process
p159
I1026
tp160
a(Vphosphatase activity
p161
I951
tp162
a(VmRNA processing
p163
I924
tp164
a(Vcofactor metabolic process
p165
I922
tp166
a(Vtransferase activity, transferring acyl groups
p167
I912
tp168
a(Vvacuole
p169
I909
tp170
a(Vsymbiosis, encompassing mutualism through parasitism
p171
I892
tp172
a(Vgeneration of precursor metabolites and energy
p173
I805
tp174
a(Vcell cycle
p175
I797
tp176
a(Vcirculatory system process
p177
I767
tp178
a(Vaging
p179
I746
tp180
a(Vcell junction organization
p181
I739
tp182
a(Vreproduction
p183
I713
tp184
a(Vnucleocytoplasmic transport
p185
I713
tp186
a(Vtransferase activity, transferring glycosyl groups
p187
I697
tp188
a(Vcell division
p189
I647
tp190
a(Vnuclease activity
p191
I620
tp192
a(Vhelicase activity
p193
I616
tp194
a(Vdevelopmental maturation
p195
I608
tp196
a(Vproteinaceous extracellular matrix
p197
I563
tp198
a(Vlyase activity
p199
I551
tp200
a(Vcytoskeleton-dependent intracellular transport
p201
I549
tp202
a(Vlysosome
p203
I541
tp204
a(Vplastid
p205
I519
tp206
a(Vmitochondrion organization
p207
I511
tp208
a(Vmethyltransferase activity
p209
I507
tp210
a(Vchromosome
p211
I459
tp212
a(Vhistone binding
p213
I459
tp214
a(Vribonucleoprotein complex assembly
p215
I449
tp216
a(Vprotein folding
p217
I439
tp218
a(Vnuclear envelope
p219
I425
tp220
a(VGTPase activity
p221
I395
tp222
a(Vplasma membrane organization
p223
I394
tp224
a(Vsecondary metabolic process
p225
I376
tp226
a(Vnucleotidyltransferase activity
p227
I351
tp228
a(VmRNA binding
p229
I344
tp230
a(Visomerase activity
p231
I326
tp232
a(Vmitosis
p233
I318
tp234
a(Vhydrolase activity, acting on carbon-nitrogen (but not peptide) bonds
p235
I316
tp236
a(Vprotein binding, bridging
p237
I315
tp238
a(Vexternal encapsulating structure
p239
I314
tp240
a(Vhydrolase activity, acting on glycosyl bonds
p241
I312
tp242
a(Vvacuolar transport
p243
I312
tp244
a(Vcell wall
p245
I307
tp246
a(Vsmall conjugating protein binding
p247
I285
tp248
a(Vcell wall organization or biogenesis
p249
I277
tp250
a(Vchromosome segregation
p251
I276
tp252
a(Vstructural constituent of ribosome
p253
I256
tp254
a(Vperoxisome
p255
I251
tp256
a(Vprotein transporter activity
p257
I249
tp258
a(VtRNA metabolic process
p259
I234
tp260
a(Vlipid particle
p261
I200
tp262
a(Vtranslation factor activity, nucleic acid binding
p263
I186
tp264
a(Vunfolded protein binding
p265
I177
tp266
a(Vtranslation
p267
I162
tp268
a(Vtransferase activity, transferring alkyl or aryl (other than methyl) groups
p269
I152
tp270
a(Vribosome
p271
I143
tp272
a(Vribosome biogenesis
p273
I140
tp274
a(Vintracellular
p275
I133
tp276
a(Vnuclear chromosome
p277
I132
tp278
a(Vpigmentation
p279
I126
tp280
a(VrRNA binding
p281
I78
tp282
a(Vthylakoid
p283
I37
tp284
a(Vnitrogen cycle metabolic process
p285
I34
tp286
a(Vcell
p287
I17
tp288
a(Vphotosynthesis
p289
I9
tp290
a(Vtransposition
p291
I8
tp292
a(VRNA modification guide activity
p293
I1
tp294
aa(lp295
(g3
L6372L
tp296
a(g5
L4365L
tp297
a(g7
L2787L
tp298
a(g9
L21685L
tp299
a(g11
L26888L
tp300
a(g13
L5491L
tp301
a(g15
L5801L
tp302
a(g17
L18268L
tp303
a(g19
L5613L
tp304
a(g21
L21693L
tp305
a(g23
L21630L
tp306
a(g25
L22689L
tp307
a(g27
L7192L
tp308
a(g29
L5168L
tp309
a(g31
L7190L
tp310
a(g33
L1781L
tp311
a(g35
L13924L
tp312
a(g37
L13633L
tp313
a(g39
L12968L
tp314
a(g41
L4599L
tp315
a(g43
L5326L
tp316
a(g45
L20507L
tp317
a(g47
L26682L
tp318
a(g49
L13690L
tp319
a(g51
L4644L
tp320
a(g53
L10381L
tp321
a(g55
L4507L
tp322
a(g57
L4422L
tp323
a(g59
L4995L
tp324
a(g61
L21086L
tp325
a(g63
L26901L
tp326
a(g65
L2790L
tp327
a(g67
L4514L
tp328
a(g69
L28228L
tp329
a(g71
L29927L
tp330
a(g73
L27837L
tp331
a(g75
L3827L
tp332
a(g77
L31581L
tp333
a(g79
L10598L
tp334
a(g81
L6320L
tp335
a(g83
L20503L
tp336
a(g85
L28535L
tp337
a(g87
L10466L
tp338
a(g89
L4725L
tp339
a(g91
L18282L
tp340
a(g93
L7881L
tp341
a(g95
L5165L
tp342
a(g97
L5663L
tp343
a(g99
L6500L
tp344
a(g101
L5791L
tp345
a(g103
L10229L
tp346
a(g105
L4567L
tp347
a(g107
L2830L
tp348
a(g109
L5896L
tp349
a(g111
L4621L
tp350
a(g113
L4515L
tp351
a(g115
L6448L
tp352
a(g117
L5218L
tp353
a(g119
L4542L
tp354
a(g121
L4556L
tp355
a(g123
L30984L
tp356
a(g125
L6494L
tp357
a(g127
L6436L
tp358
a(g129
L14001L
tp359
a(g131
L10950L
tp360
a(g133
L10963L
tp361
a(g135
L594L
tp362
a(g137
L4586L
tp363
a(g139
L677L
tp364
a(g141
L6357L
tp365
a(g143
L4439L
tp366
a(g145
L759L
tp367
a(g147
L4366L
tp368
a(g149
L4118L
tp369
a(g151
L4405L
tp370
a(g153
L5302L
tp371
a(g155
L4684L
tp372
a(g157
L13967L
tp373
a(g159
L5471L
tp374
a(g161
L10870L
tp375
a(g163
L5112L
tp376
a(g165
L28144L
tp377
a(g167
L10829L
tp378
a(g169
L4546L
tp379
a(g171
L22810L
tp380
a(g173
L4838L
tp381
a(g175
L5695L
tp382
a(g177
L2364L
tp383
a(g179
L6169L
tp384
a(g181
L17965L
tp385
a(g183
L3L
tp386
a(g185
L5582L
tp387
a(g187
L10840L
tp388
a(g189
L28251L
tp389
a(g191
L3518L
tp390
a(g193
L3404L
tp391
a(g195
L13274L
tp392
a(g197
L4368L
tp393
a(g199
L10905L
tp394
a(g201
L14427L
tp395
a(g203
L4538L
tp396
a(g205
L7644L
tp397
a(g207
L5658L
tp398
a(g209
L6389L
tp399
a(g211
L4475L
tp400
a(g213
L20900L
tp401
a(g215
L13644L
tp402
a(g217
L5161L
tp403
a(g219
L4423L
tp404
a(g221
L2991L
tp405
a(g223
L5662L
tp406
a(g225
L12827L
tp407
a(g227
L10860L
tp408
a(g229
L2835L
tp409
a(g231
L10929L
tp410
a(g233
L5712L
tp411
a(g235
L10886L
tp412
a(g237
L14396L
tp413
a(g239
L14078L
tp414
a(g241
L10876L
tp415
a(g243
L5682L
tp416
a(g245
L4408L
tp417
a(g247
L15840L
tp418
a(g249
L33137L
tp419
a(g251
L5705L
tp420
a(g253
L2841L
tp421
a(g255
L4550L
tp422
a(g257
L6747L
tp423
a(g259
L5114L
tp424
a(g261
L4583L
tp425
a(g263
L6358L
tp426
a(g265
L28040L
tp427
a(g267
L5126L
tp428
a(g269
L10848L
tp429
a(g271
L4609L
tp430
a(g273
L20770L
tp431
a(g275
L4411L
tp432
a(g277
L201L
tp433
a(g279
L21900L
tp434
a(g281
L12918L
tp435
a(g283
L7683L
tp436
a(g285
L33512L
tp437
a(g287
L4412L
tp438
a(g289
L10192L
tp439
a(g291
L15852L
tp440
a(g293
L14288L
tp441
aaI1007479
a.