(lp1
(lp2
(Vbiological_process
p3
I366195
tp4
a(Vcellular_component
p5
I121313
tp6
a(Vmolecular_function
p7
I98600
tp8
a(Vorganelle
p9
I31627
tp10
a(Vanatomical structure development
p11
I28256
tp12
a(Vtransport
p13
I21003
tp14
a(Vsignal transduction
p15
I16370
tp16
a(Vcellular nitrogen compound metabolic process
p17
I15856
tp18
a(Vresponse to stress
p19
I13294
tp20
a(Vprotein complex
p21
I12625
tp22
a(Vion binding
p23
I12187
tp24
a(Vsmall molecule metabolic process
p25
I11416
tp26
a(Vbiosynthetic process
p27
I10219
tp28
a(Vcellular protein modification process
p29
I8634
tp30
a(Vcatabolic process
p31
I7890
tp32
a(Vimmune system process
p33
I7549
tp34
a(Vcell differentiation
p35
I6451
tp36
a(Vcellular component assembly
p37
I5750
tp38
a(Vlipid metabolic process
p39
I5198
tp40
a(Vcytosol
p41
I4994
tp42
a(Venzyme binding
p43
I4993
tp44
a(Vtransmembrane transporter activity
p45
I4775
tp46
a(Vlocomotion
p47
I4607
tp48
a(Vplasma membrane
p49
I4391
tp50
a(Vvesicle-mediated transport
p51
I4131
tp52
a(Vanatomical structure formation involved in morphogenesis
p53
I4069
tp54
a(Vnucleolus
p55
I3886
tp56
a(Vnucleus
p57
I3869
tp58
a(VDNA metabolic process
p59
I3822
tp60
a(Vcytoplasm
p61
I3532
tp62
a(Vhomeostatic process
p63
I3507
tp64
a(Vtransmembrane transport
p65
I3361
tp66
a(Vchromosome organization
p67
I3253
tp68
a(Vcell motility
p69
I3237
tp70
a(Voxidoreductase activity
p71
I3223
tp72
a(VDNA binding
p73
I3210
tp74
a(Vsignal transducer activity
p75
I3162
tp76
a(Vneurological system process
p77
I3147
tp78
a(Vmacromolecular complex assembly
p79
I3142
tp80
a(Vcarbohydrate metabolic process
p81
I2906
tp82
a(Vcytoskeletal protein binding
p83
I2879
tp84
a(Vprotein maturation
p85
I2862
tp86
a(Vkinase activity
p87
I2850
tp88
a(Vnucleobase-containing compound catabolic process
p89
I2778
tp90
a(Vgrowth
p91
I2762
tp92
a(Vembryo development
p93
I2728
tp94
a(Vprotein complex assembly
p95
I2575
tp96
a(Vcytoskeleton organization
p97
I2490
tp98
a(Vcell adhesion
p99
I2243
tp100
a(VGolgi apparatus
p101
I2230
tp102
a(Vcellular amino acid metabolic process
p103
I2193
tp104
a(Vlipid binding
p105
I2142
tp106
a(Vcytoplasmic membrane-bounded vesicle
p107
I2133
tp108
a(VRNA binding
p109
I2125
tp110
a(Vcytoskeleton
p111
I2094
tp112
a(Vpeptidase activity
p113
I2044
tp114
a(Vcell-cell signaling
p115
I1956
tp116
a(Vmitochondrion
p117
I1883
tp118
a(VATPase activity
p119
I1756
tp120
a(Vcell death
p121
I1721
tp122
a(Vendoplasmic reticulum
p123
I1720
tp124
a(Vmembrane organization
p125
I1678
tp126
a(Vcell proliferation
p127
I1673
tp128
a(Vendosome
p129
I1646
tp130
a(Venzyme regulator activity
p131
I1585
tp132
a(Vligase activity
p133
I1537
tp134
a(Vmicrotubule organizing center
p135
I1437
tp136
a(Vcell morphogenesis
p137
I1433
tp138
a(Vnucleoplasm
p139
I1324
tp140
a(Vtranscription factor binding
p141
I1290
tp142
a(Vextracellular region
p143
I1279
tp144
a(Vprotein binding transcription factor activity
p145
I1247
tp146
a(Vstructural molecule activity
p147
I1213
tp148
a(Vsulfur compound metabolic process
p149
I1134
tp150
a(Vextracellular space
p151
I1127
tp152
a(Vextracellular matrix organization
p153
I1124
tp154
a(Vnucleic acid binding transcription factor activity
p155
I1111
tp156
a(Vcilium
p157
I1093
tp158
a(Vprotein targeting
p159
I1034
tp160
a(Vcofactor metabolic process
p161
I958
tp162
a(Vtransferase activity, transferring acyl groups
p163
I937
tp164
a(VmRNA processing
p165
I906
tp166
a(Vphosphatase activity
p167
I899
tp168
a(Vvacuole
p169
I894
tp170
a(Vcell cycle
p171
I851
tp172
a(Vsymbiosis, encompassing mutualism through parasitism
p173
I816
tp174
a(Vgeneration of precursor metabolites and energy
p175
I807
tp176
a(Vcirculatory system process
p177
I727
tp178
a(Vtransferase activity, transferring glycosyl groups
p179
I718
tp180
a(Vaging
p181
I698
tp182
a(Vhelicase activity
p183
I695
tp184
a(Vreproduction
p185
I692
tp186
a(Vlyase activity
p187
I691
tp188
a(Vcell division
p189
I652
tp190
a(Vcell junction organization
p191
I630
tp192
a(Vnucleocytoplasmic transport
p193
I628
tp194
a(Vnuclease activity
p195
I626
tp196
a(Vdevelopmental maturation
p197
I589
tp198
a(Vplastid
p199
I569
tp200
a(Vproteinaceous extracellular matrix
p201
I553
tp202
a(Vcytoskeleton-dependent intracellular transport
p203
I535
tp204
a(Vmethyltransferase activity
p205
I518
tp206
a(Vlysosome
p207
I497
tp208
a(Vmitochondrion organization
p209
I469
tp210
a(Vribonucleoprotein complex assembly
p211
I448
tp212
a(Vchromosome
p213
I441
tp214
a(Vprotein folding
p215
I430
tp216
a(Vnuclear envelope
p217
I414
tp218
a(VGTPase activity
p219
I400
tp220
a(Vhistone binding
p221
I400
tp222
a(Vplasma membrane organization
p223
I397
tp224
a(Vnucleotidyltransferase activity
p225
I394
tp226
a(Visomerase activity
p227
I383
tp228
a(Vexternal encapsulating structure
p229
I379
tp230
a(Vcell wall
p231
I370
tp232
a(Vsecondary metabolic process
p233
I368
tp234
a(Vhydrolase activity, acting on glycosyl bonds
p235
I367
tp236
a(VmRNA binding
p237
I354
tp238
a(Vhydrolase activity, acting on carbon-nitrogen (but not peptide) bonds
p239
I325
tp240
a(VtRNA metabolic process
p241
I318
tp242
a(Vmitosis
p243
I284
tp244
a(Vstructural constituent of ribosome
p245
I280
tp246
a(Vcell wall organization or biogenesis
p247
I276
tp248
a(Vchromosome segregation
p249
I275
tp250
a(Vvacuolar transport
p251
I273
tp252
a(Vprotein binding, bridging
p253
I269
tp254
a(Vperoxisome
p255
I250
tp256
a(Vsmall conjugating protein binding
p257
I247
tp258
a(Vprotein transporter activity
p259
I211
tp260
a(Vtranslation factor activity, nucleic acid binding
p261
I200
tp262
a(Vlipid particle
p263
I198
tp264
a(Vunfolded protein binding
p265
I191
tp266
a(Vtranslation
p267
I177
tp268
a(Vtransferase activity, transferring alkyl or aryl (other than methyl) groups
p269
I168
tp270
a(Vribosome
p271
I155
tp272
a(Vintracellular
p273
I135
tp274
a(Vnuclear chromosome
p275
I133
tp276
a(Vribosome biogenesis
p277
I128
tp278
a(Vpigmentation
p279
I120
tp280
a(VrRNA binding
p281
I96
tp282
a(Vthylakoid
p283
I48
tp284
a(Vnitrogen cycle metabolic process
p285
I42
tp286
a(Vphotosynthesis
p287
I13
tp288
a(Vcell
p289
I10
tp290
a(Vtransposition
p291
I9
tp292
a(VRNA modification guide activity
p293
I1
tp294
aa(lp295
(g3
L6372L
tp296
a(g5
L4365L
tp297
a(g7
L2787L
tp298
a(g9
L21685L
tp299
a(g11
L26888L
tp300
a(g13
L5491L
tp301
a(g15
L5801L
tp302
a(g17
L18268L
tp303
a(g19
L5613L
tp304
a(g21
L21693L
tp305
a(g23
L21630L
tp306
a(g25
L22689L
tp307
a(g27
L7192L
tp308
a(g29
L5168L
tp309
a(g31
L7190L
tp310
a(g33
L1781L
tp311
a(g35
L13924L
tp312
a(g37
L13633L
tp313
a(g39
L5326L
tp314
a(g41
L4599L
tp315
a(g43
L12968L
tp316
a(g45
L13690L
tp317
a(g47
L20507L
tp318
a(g49
L4644L
tp319
a(g51
L10381L
tp320
a(g53
L26682L
tp321
a(g55
L4507L
tp322
a(g57
L4422L
tp323
a(g59
L4995L
tp324
a(g61
L4514L
tp325
a(g63
L21086L
tp326
a(g65
L29927L
tp327
a(g67
L28228L
tp328
a(g69
L26901L
tp329
a(g71
L10598L
tp330
a(g73
L2790L
tp331
a(g75
L3827L
tp332
a(g77
L27837L
tp333
a(g79
L31581L
tp334
a(g81
L4725L
tp335
a(g83
L6320L
tp336
a(g85
L28535L
tp337
a(g87
L10466L
tp338
a(g89
L18282L
tp339
a(g91
L20503L
tp340
a(g93
L7881L
tp341
a(g95
L5165L
tp342
a(g97
L5663L
tp343
a(g99
L5791L
tp344
a(g101
L4567L
tp345
a(g103
L5218L
tp346
a(g105
L6500L
tp347
a(g107
L10229L
tp348
a(g109
L2830L
tp349
a(g111
L4621L
tp350
a(g113
L6448L
tp351
a(g115
L5896L
tp352
a(g117
L4515L
tp353
a(g119
L10963L
tp354
a(g121
L6436L
tp355
a(g123
L4556L
tp356
a(g125
L30984L
tp357
a(g127
L6494L
tp358
a(g129
L4542L
tp359
a(g131
L14001L
tp360
a(g133
L10950L
tp361
a(g135
L4586L
tp362
a(g137
L594L
tp363
a(g139
L4439L
tp364
a(g141
L6357L
tp365
a(g143
L4366L
tp366
a(g145
L677L
tp367
a(g147
L4118L
tp368
a(g149
L5471L
tp369
a(g151
L4405L
tp370
a(g153
L13967L
tp371
a(g155
L759L
tp372
a(g157
L4684L
tp373
a(g159
L5302L
tp374
a(g161
L28144L
tp375
a(g163
L10829L
tp376
a(g165
L5112L
tp377
a(g167
L10870L
tp378
a(g169
L4546L
tp379
a(g171
L5695L
tp380
a(g173
L22810L
tp381
a(g175
L4838L
tp382
a(g177
L2364L
tp383
a(g179
L10840L
tp384
a(g181
L6169L
tp385
a(g183
L3404L
tp386
a(g185
L3L
tp387
a(g187
L10905L
tp388
a(g189
L28251L
tp389
a(g191
L17965L
tp390
a(g193
L5582L
tp391
a(g195
L3518L
tp392
a(g197
L13274L
tp393
a(g199
L7644L
tp394
a(g201
L4368L
tp395
a(g203
L14427L
tp396
a(g205
L6389L
tp397
a(g207
L4538L
tp398
a(g209
L5658L
tp399
a(g211
L13644L
tp400
a(g213
L4475L
tp401
a(g215
L5161L
tp402
a(g217
L4423L
tp403
a(g219
L2991L
tp404
a(g221
L20900L
tp405
a(g223
L5662L
tp406
a(g225
L10860L
tp407
a(g227
L10929L
tp408
a(g229
L14078L
tp409
a(g231
L4408L
tp410
a(g233
L12827L
tp411
a(g235
L10876L
tp412
a(g237
L2835L
tp413
a(g239
L10886L
tp414
a(g241
L5114L
tp415
a(g243
L5712L
tp416
a(g245
L2841L
tp417
a(g247
L33137L
tp418
a(g249
L5705L
tp419
a(g251
L5682L
tp420
a(g253
L14396L
tp421
a(g255
L4550L
tp422
a(g257
L15840L
tp423
a(g259
L6747L
tp424
a(g261
L6358L
tp425
a(g263
L4583L
tp426
a(g265
L28040L
tp427
a(g267
L5126L
tp428
a(g269
L10848L
tp429
a(g271
L4609L
tp430
a(g273
L4411L
tp431
a(g275
L201L
tp432
a(g277
L20770L
tp433
a(g279
L21900L
tp434
a(g281
L12918L
tp435
a(g283
L7683L
tp436
a(g285
L33512L
tp437
a(g287
L10192L
tp438
a(g289
L4412L
tp439
a(g291
L15852L
tp440
a(g293
L14288L
tp441
aaI979711
a.