(lp1
(lp2
(Vbiological_process
p3
I353573
tp4
a(Vcellular_component
p5
I113062
tp6
a(Vmolecular_function
p7
I90329
tp8
a(Vorganelle
p9
I29353
tp10
a(Vanatomical structure development
p11
I28047
tp12
a(Vtransport
p13
I19723
tp14
a(Vsignal transduction
p15
I16211
tp16
a(Vcellular nitrogen compound metabolic process
p17
I13514
tp18
a(Vresponse to stress
p19
I12369
tp20
a(Vprotein complex
p21
I11525
tp22
a(Vion binding
p23
I10657
tp24
a(Vsmall molecule metabolic process
p25
I9566
tp26
a(Vbiosynthetic process
p27
I8786
tp28
a(Vcellular protein modification process
p29
I8032
tp30
a(Vimmune system process
p31
I6741
tp32
a(Vcell differentiation
p33
I6698
tp34
a(Vcatabolic process
p35
I6629
tp36
a(Vcellular component assembly
p37
I5227
tp38
a(Venzyme binding
p39
I4655
tp40
a(Vlipid metabolic process
p41
I4641
tp42
a(Vtransmembrane transporter activity
p43
I4451
tp44
a(Vcytosol
p45
I4393
tp46
a(Vlocomotion
p47
I4362
tp48
a(Vplasma membrane
p49
I4197
tp50
a(Vanatomical structure formation involved in morphogenesis
p51
I4117
tp52
a(Vvesicle-mediated transport
p53
I3832
tp54
a(Vsignal transducer activity
p55
I3723
tp56
a(Vnucleus
p57
I3706
tp58
a(Vnucleolus
p59
I3587
tp60
a(Vhomeostatic process
p61
I3448
tp62
a(VDNA metabolic process
p63
I3235
tp64
a(Vneurological system process
p65
I3213
tp66
a(VDNA binding
p67
I3179
tp68
a(Vtransmembrane transport
p69
I3164
tp70
a(Vcytoplasm
p71
I3150
tp72
a(Vcell motility
p73
I3144
tp74
a(Vchromosome organization
p75
I2907
tp76
a(Vmacromolecular complex assembly
p77
I2826
tp78
a(Vgrowth
p79
I2666
tp80
a(Vprotein maturation
p81
I2585
tp82
a(Voxidoreductase activity
p83
I2577
tp84
a(Vcytoskeletal protein binding
p85
I2532
tp86
a(Vembryo development
p87
I2448
tp88
a(Vcarbohydrate metabolic process
p89
I2441
tp90
a(Vkinase activity
p91
I2412
tp92
a(Vprotein complex assembly
p93
I2356
tp94
a(Vcell-cell signaling
p95
I2350
tp96
a(Vnucleobase-containing compound catabolic process
p97
I2230
tp98
a(Vcytoskeleton organization
p99
I2190
tp100
a(Vcell adhesion
p101
I2102
tp102
a(Vcytoplasmic membrane-bounded vesicle
p103
I2084
tp104
a(Vlipid binding
p105
I2082
tp106
a(VGolgi apparatus
p107
I1970
tp108
a(Vcytoskeleton
p109
I1859
tp110
a(Vpeptidase activity
p111
I1851
tp112
a(VRNA binding
p113
I1758
tp114
a(Vmitochondrion
p115
I1669
tp116
a(Vendoplasmic reticulum
p117
I1664
tp118
a(Vcellular amino acid metabolic process
p119
I1639
tp120
a(Vcell proliferation
p121
I1632
tp122
a(Vcell death
p123
I1619
tp124
a(Vendosome
p125
I1576
tp126
a(Vmembrane organization
p127
I1572
tp128
a(Venzyme regulator activity
p129
I1445
tp130
a(Vcell morphogenesis
p131
I1414
tp132
a(Vligase activity
p133
I1359
tp134
a(Vmicrotubule organizing center
p135
I1322
tp136
a(Vtranscription factor binding
p137
I1302
tp138
a(Vnucleic acid binding transcription factor activity
p139
I1301
tp140
a(Vprotein binding transcription factor activity
p141
I1298
tp142
a(Vextracellular region
p143
I1273
tp144
a(VATPase activity
p145
I1247
tp146
a(Vnucleoplasm
p147
I1225
tp148
a(Vextracellular space
p149
I1135
tp150
a(Vstructural molecule activity
p151
I1042
tp152
a(Vsulfur compound metabolic process
p153
I1009
tp154
a(Vextracellular matrix organization
p155
I996
tp156
a(Vcilium
p157
I965
tp158
a(Vcirculatory system process
p159
I939
tp160
a(Vprotein targeting
p161
I898
tp162
a(Vvacuole
p163
I857
tp164
a(Vtransferase activity, transferring acyl groups
p165
I843
tp166
a(Vphosphatase activity
p167
I840
tp168
a(Vcofactor metabolic process
p169
I778
tp170
a(VmRNA processing
p171
I750
tp172
a(Vcell cycle
p173
I729
tp174
a(Vsymbiosis, encompassing mutualism through parasitism
p175
I722
tp176
a(Vtransferase activity, transferring glycosyl groups
p177
I659
tp178
a(Vaging
p179
I657
tp180
a(Vgeneration of precursor metabolites and energy
p181
I648
tp182
a(Vreproduction
p183
I614
tp184
a(Vcell junction organization
p185
I599
tp186
a(Vcell division
p187
I589
tp188
a(Vnucleocytoplasmic transport
p189
I580
tp190
a(Vdevelopmental maturation
p191
I536
tp192
a(Vproteinaceous extracellular matrix
p193
I531
tp194
a(Vnuclease activity
p195
I521
tp196
a(Vlysosome
p197
I516
tp198
a(Vhelicase activity
p199
I502
tp200
a(Vlyase activity
p201
I480
tp202
a(Vmethyltransferase activity
p203
I461
tp204
a(Vplastid
p205
I452
tp206
a(Vcytoskeleton-dependent intracellular transport
p207
I437
tp208
a(Vmitochondrion organization
p209
I432
tp210
a(Vchromosome
p211
I420
tp212
a(Vplasma membrane organization
p213
I376
tp214
a(Vhistone binding
p215
I368
tp216
a(Vprotein folding
p217
I362
tp218
a(Vribonucleoprotein complex assembly
p219
I362
tp220
a(VGTPase activity
p221
I353
tp222
a(Vnuclear envelope
p223
I350
tp224
a(Vsecondary metabolic process
p225
I325
tp226
a(Vhydrolase activity, acting on glycosyl bonds
p227
I317
tp228
a(VmRNA binding
p229
I292
tp230
a(Vnucleotidyltransferase activity
p231
I291
tp232
a(Vhydrolase activity, acting on carbon-nitrogen (but not peptide) bonds
p233
I283
tp234
a(Visomerase activity
p235
I279
tp236
a(Vexternal encapsulating structure
p237
I272
tp238
a(Vprotein binding, bridging
p239
I268
tp240
a(Vcell wall
p241
I264
tp242
a(Vmitosis
p243
I261
tp244
a(Vchromosome segregation
p245
I249
tp246
a(Vvacuolar transport
p247
I244
tp248
a(Vcell wall organization or biogenesis
p249
I235
tp250
a(Vperoxisome
p251
I231
tp252
a(Vsmall conjugating protein binding
p253
I228
tp254
a(VtRNA metabolic process
p255
I202
tp256
a(Vstructural constituent of ribosome
p257
I189
tp258
a(Vprotein transporter activity
p259
I179
tp260
a(Vlipid particle
p261
I176
tp262
a(Vtranslation factor activity, nucleic acid binding
p263
I157
tp264
a(Vunfolded protein binding
p265
I152
tp266
a(Vtransferase activity, transferring alkyl or aryl (other than methyl) groups
p267
I149
tp268
a(Vtranslation
p269
I137
tp270
a(Vintracellular
p271
I135
tp272
a(Vribosome
p273
I131
tp274
a(Vnuclear chromosome
p275
I118
tp276
a(Vpigmentation
p277
I115
tp278
a(Vribosome biogenesis
p279
I111
tp280
a(VrRNA binding
p281
I68
tp282
a(Vthylakoid
p283
I33
tp284
a(Vnitrogen cycle metabolic process
p285
I18
tp286
a(Vtransposition
p287
I8
tp288
a(Vcell
p289
I8
tp290
a(Vphotosynthesis
p291
I6
tp292
a(VRNA modification guide activity
p293
I1
tp294
aa(lp295
(g3
L6372L
tp296
a(g5
L4365L
tp297
a(g7
L2787L
tp298
a(g9
L21685L
tp299
a(g11
L26888L
tp300
a(g13
L5491L
tp301
a(g15
L5801L
tp302
a(g17
L18268L
tp303
a(g19
L5613L
tp304
a(g21
L21693L
tp305
a(g23
L21630L
tp306
a(g25
L22689L
tp307
a(g27
L7192L
tp308
a(g29
L5168L
tp309
a(g31
L1781L
tp310
a(g33
L13924L
tp311
a(g35
L7190L
tp312
a(g37
L13633L
tp313
a(g39
L12968L
tp314
a(g41
L5326L
tp315
a(g43
L13690L
tp316
a(g45
L4599L
tp317
a(g47
L20507L
tp318
a(g49
L4644L
tp319
a(g51
L26682L
tp320
a(g53
L10381L
tp321
a(g55
L3827L
tp322
a(g57
L4422L
tp323
a(g59
L4507L
tp324
a(g61
L21086L
tp325
a(g63
L4995L
tp326
a(g65
L27837L
tp327
a(g67
L2790L
tp328
a(g69
L29927L
tp329
a(g71
L4514L
tp330
a(g73
L26901L
tp331
a(g75
L28228L
tp332
a(g77
L31581L
tp333
a(g79
L20503L
tp334
a(g81
L28535L
tp335
a(g83
L10598L
tp336
a(g85
L6320L
tp337
a(g87
L7881L
tp338
a(g89
L4725L
tp339
a(g91
L10466L
tp340
a(g93
L5165L
tp341
a(g95
L5896L
tp342
a(g97
L18282L
tp343
a(g99
L5663L
tp344
a(g101
L5791L
tp345
a(g103
L10229L
tp346
a(g105
L6500L
tp347
a(g107
L4567L
tp348
a(g109
L4621L
tp349
a(g111
L6448L
tp350
a(g113
L2830L
tp351
a(g115
L4515L
tp352
a(g117
L4556L
tp353
a(g119
L5218L
tp354
a(g121
L6494L
tp355
a(g123
L6436L
tp356
a(g125
L4542L
tp357
a(g127
L30984L
tp358
a(g129
L14001L
tp359
a(g131
L594L
tp360
a(g133
L10950L
tp361
a(g135
L4586L
tp362
a(g137
L6357L
tp363
a(g139
L759L
tp364
a(g141
L677L
tp365
a(g143
L4366L
tp366
a(g145
L10963L
tp367
a(g147
L4439L
tp368
a(g149
L4405L
tp369
a(g151
L4118L
tp370
a(g153
L5471L
tp371
a(g155
L13967L
tp372
a(g157
L4684L
tp373
a(g159
L2364L
tp374
a(g161
L5302L
tp375
a(g163
L4546L
tp376
a(g165
L10829L
tp377
a(g167
L10870L
tp378
a(g169
L28144L
tp379
a(g171
L5112L
tp380
a(g173
L5695L
tp381
a(g175
L22810L
tp382
a(g177
L10840L
tp383
a(g179
L6169L
tp384
a(g181
L4838L
tp385
a(g183
L3L
tp386
a(g185
L17965L
tp387
a(g187
L28251L
tp388
a(g189
L5582L
tp389
a(g191
L13274L
tp390
a(g193
L4368L
tp391
a(g195
L3518L
tp392
a(g197
L4538L
tp393
a(g199
L3404L
tp394
a(g201
L10905L
tp395
a(g203
L6389L
tp396
a(g205
L7644L
tp397
a(g207
L14427L
tp398
a(g209
L5658L
tp399
a(g211
L4475L
tp400
a(g213
L5662L
tp401
a(g215
L20900L
tp402
a(g217
L5161L
tp403
a(g219
L13644L
tp404
a(g221
L2991L
tp405
a(g223
L4423L
tp406
a(g225
L12827L
tp407
a(g227
L10876L
tp408
a(g229
L2835L
tp409
a(g231
L10860L
tp410
a(g233
L10886L
tp411
a(g235
L10929L
tp412
a(g237
L14078L
tp413
a(g239
L14396L
tp414
a(g241
L4408L
tp415
a(g243
L5712L
tp416
a(g245
L5705L
tp417
a(g247
L5682L
tp418
a(g249
L33137L
tp419
a(g251
L4550L
tp420
a(g253
L15840L
tp421
a(g255
L5114L
tp422
a(g257
L2841L
tp423
a(g259
L6747L
tp424
a(g261
L4583L
tp425
a(g263
L6358L
tp426
a(g265
L28040L
tp427
a(g267
L10848L
tp428
a(g269
L5126L
tp429
a(g271
L4411L
tp430
a(g273
L4609L
tp431
a(g275
L201L
tp432
a(g277
L21900L
tp433
a(g279
L20770L
tp434
a(g281
L12918L
tp435
a(g283
L7683L
tp436
a(g285
L33512L
tp437
a(g287
L15852L
tp438
a(g289
L4412L
tp439
a(g291
L10192L
tp440
a(g293
L14288L
tp441
aaI919462
a.