(lp1
(lp2
(Vbiological_process
p3
I288104
tp4
a(Vcellular_component
p5
I95641
tp6
a(Vmolecular_function
p7
I76724
tp8
a(Vorganelle
p9
I25071
tp10
a(Vanatomical structure development
p11
I22024
tp12
a(Vtransport
p13
I16572
tp14
a(Vsignal transduction
p15
I12929
tp16
a(Vcellular nitrogen compound metabolic process
p17
I12741
tp18
a(Vresponse to stress
p19
I10414
tp20
a(Vprotein complex
p21
I10269
tp22
a(Vion binding
p23
I9110
tp24
a(Vsmall molecule metabolic process
p25
I9044
tp26
a(Vbiosynthetic process
p27
I8468
tp28
a(Vcellular protein modification process
p29
I7012
tp30
a(Vcatabolic process
p31
I6303
tp32
a(Vimmune system process
p33
I5505
tp34
a(Vcell differentiation
p35
I5274
tp36
a(Vcellular component assembly
p37
I4527
tp38
a(Vlipid metabolic process
p39
I4427
tp40
a(Vcytosol
p41
I4045
tp42
a(Venzyme binding
p43
I3898
tp44
a(Vtransmembrane transporter activity
p45
I3539
tp46
a(Vplasma membrane
p47
I3481
tp48
a(Vlocomotion
p49
I3457
tp50
a(Vvesicle-mediated transport
p51
I3332
tp52
a(Vanatomical structure formation involved in morphogenesis
p53
I3276
tp54
a(Vnucleolus
p55
I3154
tp56
a(Vnucleus
p57
I3131
tp58
a(VDNA metabolic process
p59
I2939
tp60
a(Vsignal transducer activity
p61
I2826
tp62
a(Vhomeostatic process
p63
I2786
tp64
a(Vchromosome organization
p65
I2760
tp66
a(Voxidoreductase activity
p67
I2655
tp68
a(Vcytoplasm
p69
I2616
tp70
a(Vtransmembrane transport
p71
I2603
tp72
a(VDNA binding
p73
I2596
tp74
a(Vmacromolecular complex assembly
p75
I2475
tp76
a(Vneurological system process
p77
I2422
tp78
a(Vcell motility
p79
I2398
tp80
a(Vcarbohydrate metabolic process
p81
I2297
tp82
a(Vgrowth
p83
I2282
tp84
a(Vembryo development
p85
I2196
tp86
a(Vnucleobase-containing compound catabolic process
p87
I2164
tp88
a(Vprotein maturation
p89
I2148
tp90
a(Vcytoskeletal protein binding
p91
I2122
tp92
a(Vkinase activity
p93
I2057
tp94
a(Vprotein complex assembly
p95
I2011
tp96
a(Vcytoskeleton organization
p97
I1993
tp98
a(Vlipid binding
p99
I1738
tp100
a(VRNA binding
p101
I1733
tp102
a(Vcytoplasmic membrane-bounded vesicle
p103
I1732
tp104
a(Vcell-cell signaling
p105
I1722
tp106
a(VGolgi apparatus
p107
I1632
tp108
a(Vmitochondrion
p109
I1631
tp110
a(Vcellular amino acid metabolic process
p111
I1612
tp112
a(Vcell adhesion
p113
I1580
tp114
a(Vpeptidase activity
p115
I1569
tp116
a(Vcytoskeleton
p117
I1523
tp118
a(Vendoplasmic reticulum
p119
I1470
tp120
a(Vcell death
p121
I1398
tp122
a(Vendosome
p123
I1330
tp124
a(Vmembrane organization
p125
I1314
tp126
a(Venzyme regulator activity
p127
I1292
tp128
a(Vcell proliferation
p129
I1265
tp130
a(Vmicrotubule organizing center
p131
I1195
tp132
a(Vligase activity
p133
I1157
tp134
a(VATPase activity
p135
I1136
tp136
a(Vnucleoplasm
p137
I1123
tp138
a(Vtranscription factor binding
p139
I1120
tp140
a(Vcell morphogenesis
p141
I1108
tp142
a(Vprotein binding transcription factor activity
p143
I1092
tp144
a(Vextracellular region
p145
I1051
tp146
a(Vnucleic acid binding transcription factor activity
p147
I983
tp148
a(Vstructural molecule activity
p149
I938
tp150
a(Vcilium
p151
I870
tp152
a(Vprotein targeting
p153
I867
tp154
a(Vsulfur compound metabolic process
p155
I822
tp156
a(Vextracellular space
p157
I808
tp158
a(Vtransferase activity, transferring acyl groups
p159
I802
tp160
a(Vphosphatase activity
p161
I778
tp162
a(Vcofactor metabolic process
p163
I763
tp164
a(VmRNA processing
p165
I725
tp166
a(Vcell cycle
p167
I723
tp168
a(Vextracellular matrix organization
p169
I711
tp170
a(Vvacuole
p171
I683
tp172
a(Vgeneration of precursor metabolites and energy
p173
I679
tp174
a(Vsymbiosis, encompassing mutualism through parasitism
p175
I666
tp176
a(Vcirculatory system process
p177
I649
tp178
a(Vtransferase activity, transferring glycosyl groups
p179
I649
tp180
a(Vreproduction
p181
I578
tp182
a(Vaging
p183
I532
tp184
a(Vcell division
p185
I523
tp186
a(Vcell junction organization
p187
I511
tp188
a(Vnucleocytoplasmic transport
p189
I508
tp190
a(Vlyase activity
p191
I498
tp192
a(Vnuclease activity
p193
I480
tp194
a(Vplastid
p195
I453
tp196
a(Vcytoskeleton-dependent intracellular transport
p197
I425
tp198
a(Vhelicase activity
p199
I421
tp200
a(Vmethyltransferase activity
p201
I413
tp202
a(Vdevelopmental maturation
p203
I397
tp204
a(Vmitochondrion organization
p205
I395
tp206
a(Vlysosome
p207
I387
tp208
a(Vchromosome
p209
I385
tp210
a(Vproteinaceous extracellular matrix
p211
I375
tp212
a(Vprotein folding
p213
I357
tp214
a(Vribonucleoprotein complex assembly
p215
I353
tp216
a(Vnuclear envelope
p217
I352
tp218
a(VGTPase activity
p219
I344
tp220
a(Vhistone binding
p221
I330
tp222
a(Vsecondary metabolic process
p223
I319
tp224
a(VmRNA binding
p225
I290
tp226
a(Vnucleotidyltransferase activity
p227
I285
tp228
a(Vplasma membrane organization
p229
I282
tp230
a(Visomerase activity
p231
I274
tp232
a(Vexternal encapsulating structure
p233
I272
tp234
a(Vcell wall
p235
I270
tp236
a(Vstructural constituent of ribosome
p237
I263
tp238
a(Vhydrolase activity, acting on glycosyl bonds
p239
I260
tp240
a(Vhydrolase activity, acting on carbon-nitrogen (but not peptide) bonds
p241
I247
tp242
a(Vmitosis
p243
I237
tp244
a(VtRNA metabolic process
p245
I236
tp246
a(Vcell wall organization or biogenesis
p247
I236
tp248
a(Vvacuolar transport
p249
I235
tp250
a(Vchromosome segregation
p251
I234
tp252
a(Vperoxisome
p253
I212
tp254
a(Vsmall conjugating protein binding
p255
I207
tp256
a(Vprotein binding, bridging
p257
I202
tp258
a(Vtranslation factor activity, nucleic acid binding
p259
I168
tp260
a(Vlipid particle
p261
I167
tp262
a(Vprotein transporter activity
p263
I160
tp264
a(Vtranslation
p265
I154
tp266
a(Vtransferase activity, transferring alkyl or aryl (other than methyl) groups
p267
I147
tp268
a(Vunfolded protein binding
p269
I146
tp270
a(Vribosome
p271
I124
tp272
a(Vribosome biogenesis
p273
I122
tp274
a(Vintracellular
p275
I112
tp276
a(Vnuclear chromosome
p277
I111
tp278
a(Vpigmentation
p279
I89
tp280
a(VrRNA binding
p281
I76
tp282
a(Vthylakoid
p283
I34
tp284
a(Vnitrogen cycle metabolic process
p285
I20
tp286
a(Vphotosynthesis
p287
I8
tp288
a(Vcell
p289
I7
tp290
a(Vtransposition
p291
I4
tp292
a(VRNA modification guide activity
p293
I3
tp294
aa(lp295
(g3
L6372L
tp296
a(g5
L4365L
tp297
a(g7
L2787L
tp298
a(g9
L21685L
tp299
a(g11
L26888L
tp300
a(g13
L5491L
tp301
a(g15
L5801L
tp302
a(g17
L18268L
tp303
a(g19
L5613L
tp304
a(g21
L21693L
tp305
a(g23
L21630L
tp306
a(g25
L22689L
tp307
a(g27
L7192L
tp308
a(g29
L5168L
tp309
a(g31
L7190L
tp310
a(g33
L1781L
tp311
a(g35
L13924L
tp312
a(g37
L13633L
tp313
a(g39
L5326L
tp314
a(g41
L4599L
tp315
a(g43
L12968L
tp316
a(g45
L13690L
tp317
a(g47
L4644L
tp318
a(g49
L20507L
tp319
a(g51
L10381L
tp320
a(g53
L26682L
tp321
a(g55
L4507L
tp322
a(g57
L4422L
tp323
a(g59
L4995L
tp324
a(g61
L3827L
tp325
a(g63
L21086L
tp326
a(g65
L28228L
tp327
a(g67
L10598L
tp328
a(g69
L4514L
tp329
a(g71
L29927L
tp330
a(g73
L2790L
tp331
a(g75
L31581L
tp332
a(g77
L27837L
tp333
a(g79
L26901L
tp334
a(g81
L4725L
tp335
a(g83
L20503L
tp336
a(g85
L7881L
tp337
a(g87
L18282L
tp338
a(g89
L28535L
tp339
a(g91
L6320L
tp340
a(g93
L10466L
tp341
a(g95
L5165L
tp342
a(g97
L5663L
tp343
a(g99
L6500L
tp344
a(g101
L2830L
tp345
a(g103
L10229L
tp346
a(g105
L5896L
tp347
a(g107
L4567L
tp348
a(g109
L4515L
tp349
a(g111
L5218L
tp350
a(g113
L5791L
tp351
a(g115
L6448L
tp352
a(g117
L4621L
tp353
a(g119
L4556L
tp354
a(g121
L6436L
tp355
a(g123
L4542L
tp356
a(g125
L30984L
tp357
a(g127
L14001L
tp358
a(g129
L6494L
tp359
a(g131
L4586L
tp360
a(g133
L10950L
tp361
a(g135
L10963L
tp362
a(g137
L4439L
tp363
a(g139
L6357L
tp364
a(g141
L594L
tp365
a(g143
L677L
tp366
a(g145
L4366L
tp367
a(g147
L759L
tp368
a(g149
L4118L
tp369
a(g151
L4684L
tp370
a(g153
L5302L
tp371
a(g155
L5471L
tp372
a(g157
L4405L
tp373
a(g159
L10829L
tp374
a(g161
L10870L
tp375
a(g163
L28144L
tp376
a(g165
L5112L
tp377
a(g167
L5695L
tp378
a(g169
L13967L
tp379
a(g171
L4546L
tp380
a(g173
L4838L
tp381
a(g175
L22810L
tp382
a(g177
L2364L
tp383
a(g179
L10840L
tp384
a(g181
L3L
tp385
a(g183
L6169L
tp386
a(g185
L28251L
tp387
a(g187
L17965L
tp388
a(g189
L5582L
tp389
a(g191
L10905L
tp390
a(g193
L3518L
tp391
a(g195
L7644L
tp392
a(g197
L14427L
tp393
a(g199
L3404L
tp394
a(g201
L6389L
tp395
a(g203
L13274L
tp396
a(g205
L5658L
tp397
a(g207
L4538L
tp398
a(g209
L4475L
tp399
a(g211
L4368L
tp400
a(g213
L5161L
tp401
a(g215
L13644L
tp402
a(g217
L4423L
tp403
a(g219
L2991L
tp404
a(g221
L20900L
tp405
a(g223
L12827L
tp406
a(g225
L2835L
tp407
a(g227
L10860L
tp408
a(g229
L5662L
tp409
a(g231
L10929L
tp410
a(g233
L14078L
tp411
a(g235
L4408L
tp412
a(g237
L2841L
tp413
a(g239
L10876L
tp414
a(g241
L10886L
tp415
a(g243
L5712L
tp416
a(g245
L5114L
tp417
a(g247
L33137L
tp418
a(g249
L5682L
tp419
a(g251
L5705L
tp420
a(g253
L4550L
tp421
a(g255
L15840L
tp422
a(g257
L14396L
tp423
a(g259
L6358L
tp424
a(g261
L4583L
tp425
a(g263
L6747L
tp426
a(g265
L5126L
tp427
a(g267
L10848L
tp428
a(g269
L28040L
tp429
a(g271
L4609L
tp430
a(g273
L20770L
tp431
a(g275
L4411L
tp432
a(g277
L201L
tp433
a(g279
L21900L
tp434
a(g281
L12918L
tp435
a(g283
L7683L
tp436
a(g285
L33512L
tp437
a(g287
L10192L
tp438
a(g289
L4412L
tp439
a(g291
L15852L
tp440
a(g293
L14288L
tp441
aaI771687
a.