(lp1
(lp2
(Vbiological_process
p3
I364356
tp4
a(Vcellular_component
p5
I121375
tp6
a(Vmolecular_function
p7
I99622
tp8
a(Vorganelle
p9
I31737
tp10
a(Vanatomical structure development
p11
I27976
tp12
a(Vtransport
p13
I20756
tp14
a(Vsignal transduction
p15
I16609
tp16
a(Vcellular nitrogen compound metabolic process
p17
I15671
tp18
a(Vresponse to stress
p19
I13359
tp20
a(Vprotein complex
p21
I13283
tp22
a(Vion binding
p23
I12204
tp24
a(Vsmall molecule metabolic process
p25
I11200
tp26
a(Vbiosynthetic process
p27
I10084
tp28
a(Vcellular protein modification process
p29
I9080
tp30
a(Vcatabolic process
p31
I7951
tp32
a(Vimmune system process
p33
I7345
tp34
a(Vcell differentiation
p35
I6609
tp36
a(Vcellular component assembly
p37
I5981
tp38
a(Vcytosol
p39
I5325
tp40
a(Venzyme binding
p41
I5282
tp42
a(Vlipid metabolic process
p43
I5212
tp44
a(Vtransmembrane transporter activity
p45
I4590
tp46
a(Vplasma membrane
p47
I4588
tp48
a(Vlocomotion
p49
I4572
tp50
a(Vanatomical structure formation involved in morphogenesis
p51
I4246
tp52
a(Vvesicle-mediated transport
p53
I4226
tp54
a(Vnucleolus
p55
I4077
tp56
a(Vnucleus
p57
I3957
tp58
a(VDNA metabolic process
p59
I3607
tp60
a(VDNA binding
p61
I3559
tp62
a(Vhomeostatic process
p63
I3475
tp64
a(Vcytoplasm
p65
I3369
tp66
a(Vtransmembrane transport
p67
I3343
tp68
a(Vchromosome organization
p69
I3314
tp70
a(Vmacromolecular complex assembly
p71
I3311
tp72
a(Vcell motility
p73
I3247
tp74
a(Vneurological system process
p75
I3121
tp76
a(Voxidoreductase activity
p77
I3080
tp78
a(Vsignal transducer activity
p79
I3061
tp80
a(Vcarbohydrate metabolic process
p81
I2992
tp82
a(Vprotein maturation
p83
I2916
tp84
a(Vcytoskeletal protein binding
p85
I2840
tp86
a(Vembryo development
p87
I2835
tp88
a(Vgrowth
p89
I2810
tp90
a(Vprotein complex assembly
p91
I2703
tp92
a(Vnucleobase-containing compound catabolic process
p93
I2683
tp94
a(Vkinase activity
p95
I2651
tp96
a(Vcytoskeleton organization
p97
I2617
tp98
a(VRNA binding
p99
I2308
tp100
a(Vlipid binding
p101
I2237
tp102
a(Vcytoplasmic membrane-bounded vesicle
p103
I2217
tp104
a(Vcell adhesion
p105
I2193
tp106
a(VGolgi apparatus
p107
I2171
tp108
a(Vcellular amino acid metabolic process
p109
I2069
tp110
a(Vmitochondrion
p111
I2048
tp112
a(Vpeptidase activity
p113
I2040
tp114
a(Vcytoskeleton
p115
I2009
tp116
a(Vcell-cell signaling
p117
I1977
tp118
a(Vendoplasmic reticulum
p119
I1831
tp120
a(Vmembrane organization
p121
I1784
tp122
a(Venzyme regulator activity
p123
I1779
tp124
a(Vcell death
p125
I1763
tp126
a(Vendosome
p127
I1727
tp128
a(Vcell proliferation
p129
I1712
tp130
a(Vligase activity
p131
I1597
tp132
a(Vmicrotubule organizing center
p133
I1516
tp134
a(Vtranscription factor binding
p135
I1505
tp136
a(VATPase activity
p137
I1491
tp138
a(Vprotein binding transcription factor activity
p139
I1474
tp140
a(Vcell morphogenesis
p141
I1444
tp142
a(Vnucleoplasm
p143
I1435
tp144
a(Vnucleic acid binding transcription factor activity
p145
I1389
tp146
a(Vextracellular region
p147
I1329
tp148
a(Vstructural molecule activity
p149
I1264
tp150
a(Vextracellular space
p151
I1141
tp152
a(Vsulfur compound metabolic process
p153
I1139
tp154
a(Vprotein targeting
p155
I1069
tp156
a(Vextracellular matrix organization
p157
I1034
tp158
a(VmRNA processing
p159
I988
tp160
a(Vcofactor metabolic process
p161
I981
tp162
a(Vtransferase activity, transferring acyl groups
p163
I970
tp164
a(Vphosphatase activity
p165
I968
tp166
a(Vsymbiosis, encompassing mutualism through parasitism
p167
I947
tp168
a(Vcilium
p169
I942
tp170
a(Vvacuole
p171
I924
tp172
a(Vgeneration of precursor metabolites and energy
p173
I891
tp174
a(Vcell cycle
p175
I773
tp176
a(Vreproduction
p177
I728
tp178
a(Vcell junction organization
p179
I722
tp180
a(Vcirculatory system process
p181
I720
tp182
a(Vnucleocytoplasmic transport
p183
I702
tp184
a(Vaging
p185
I698
tp186
a(Vtransferase activity, transferring glycosyl groups
p187
I682
tp188
a(Vcell division
p189
I642
tp190
a(Vlyase activity
p191
I616
tp192
a(Vnuclease activity
p193
I598
tp194
a(Vdevelopmental maturation
p195
I568
tp196
a(Vplastid
p197
I564
tp198
a(Vhelicase activity
p199
I560
tp200
a(Vlysosome
p201
I557
tp202
a(Vmethyltransferase activity
p203
I554
tp204
a(Vmitochondrion organization
p205
I530
tp206
a(Vproteinaceous extracellular matrix
p207
I495
tp208
a(Vcytoskeleton-dependent intracellular transport
p209
I495
tp210
a(Vprotein folding
p211
I493
tp212
a(Vribonucleoprotein complex assembly
p213
I478
tp214
a(Vchromosome
p215
I471
tp216
a(VGTPase activity
p217
I446
tp218
a(Vhistone binding
p219
I441
tp220
a(VmRNA binding
p221
I419
tp222
a(Vnuclear envelope
p223
I391
tp224
a(Vsecondary metabolic process
p225
I390
tp226
a(Vplasma membrane organization
p227
I378
tp228
a(Visomerase activity
p229
I364
tp230
a(Vhydrolase activity, acting on glycosyl bonds
p231
I364
tp232
a(Vhydrolase activity, acting on carbon-nitrogen (but not peptide) bonds
p233
I345
tp234
a(Vnucleotidyltransferase activity
p235
I344
tp236
a(Vexternal encapsulating structure
p237
I329
tp238
a(Vcell wall
p239
I321
tp240
a(Vprotein binding, bridging
p241
I311
tp242
a(Vmitosis
p243
I302
tp244
a(Vvacuolar transport
p245
I299
tp246
a(Vchromosome segregation
p247
I295
tp248
a(Vsmall conjugating protein binding
p249
I276
tp250
a(VtRNA metabolic process
p251
I275
tp252
a(Vperoxisome
p253
I263
tp254
a(Vstructural constituent of ribosome
p255
I253
tp256
a(Vcell wall organization or biogenesis
p257
I249
tp258
a(Vprotein transporter activity
p259
I229
tp260
a(Vtranslation factor activity, nucleic acid binding
p261
I222
tp262
a(Vlipid particle
p263
I202
tp264
a(Vunfolded protein binding
p265
I201
tp266
a(Vtranslation
p267
I186
tp268
a(Vtransferase activity, transferring alkyl or aryl (other than methyl) groups
p269
I172
tp270
a(Vintracellular
p271
I161
tp272
a(Vribosome
p273
I160
tp274
a(Vnuclear chromosome
p275
I136
tp276
a(Vribosome biogenesis
p277
I121
tp278
a(Vpigmentation
p279
I113
tp280
a(VrRNA binding
p281
I88
tp282
a(Vthylakoid
p283
I43
tp284
a(Vnitrogen cycle metabolic process
p285
I36
tp286
a(Vtransposition
p287
I15
tp288
a(Vcell
p289
I11
tp290
a(Vphotosynthesis
p291
I10
tp292
a(VRNA modification guide activity
p293
I3
tp294
aa(lp295
(g3
L6372L
tp296
a(g5
L4365L
tp297
a(g7
L2787L
tp298
a(g9
L21685L
tp299
a(g11
L26888L
tp300
a(g13
L5491L
tp301
a(g15
L5801L
tp302
a(g17
L18268L
tp303
a(g19
L5613L
tp304
a(g21
L21693L
tp305
a(g23
L21630L
tp306
a(g25
L22689L
tp307
a(g27
L7192L
tp308
a(g29
L5168L
tp309
a(g31
L7190L
tp310
a(g33
L1781L
tp311
a(g35
L13924L
tp312
a(g37
L13633L
tp313
a(g39
L4599L
tp314
a(g41
L12968L
tp315
a(g43
L5326L
tp316
a(g45
L13690L
tp317
a(g47
L4644L
tp318
a(g49
L20507L
tp319
a(g51
L26682L
tp320
a(g53
L10381L
tp321
a(g55
L4507L
tp322
a(g57
L4422L
tp323
a(g59
L4995L
tp324
a(g61
L2790L
tp325
a(g63
L21086L
tp326
a(g65
L4514L
tp327
a(g67
L29927L
tp328
a(g69
L28228L
tp329
a(g71
L31581L
tp330
a(g73
L26901L
tp331
a(g75
L27837L
tp332
a(g77
L10598L
tp333
a(g79
L3827L
tp334
a(g81
L4725L
tp335
a(g83
L28535L
tp336
a(g85
L6320L
tp337
a(g87
L7881L
tp338
a(g89
L20503L
tp339
a(g91
L5165L
tp340
a(g93
L18282L
tp341
a(g95
L10466L
tp342
a(g97
L5663L
tp343
a(g99
L2830L
tp344
a(g101
L6500L
tp345
a(g103
L10229L
tp346
a(g105
L5791L
tp347
a(g107
L4567L
tp348
a(g109
L5218L
tp349
a(g111
L4515L
tp350
a(g113
L6448L
tp351
a(g115
L4621L
tp352
a(g117
L5896L
tp353
a(g119
L4556L
tp354
a(g121
L30984L
tp355
a(g123
L14001L
tp356
a(g125
L6436L
tp357
a(g127
L4542L
tp358
a(g129
L6494L
tp359
a(g131
L10950L
tp360
a(g133
L4586L
tp361
a(g135
L6357L
tp362
a(g137
L10963L
tp363
a(g139
L677L
tp364
a(g141
L594L
tp365
a(g143
L4439L
tp366
a(g145
L759L
tp367
a(g147
L4366L
tp368
a(g149
L4118L
tp369
a(g151
L4405L
tp370
a(g153
L5471L
tp371
a(g155
L5302L
tp372
a(g157
L13967L
tp373
a(g159
L5112L
tp374
a(g161
L28144L
tp375
a(g163
L10829L
tp376
a(g165
L10870L
tp377
a(g167
L22810L
tp378
a(g169
L4684L
tp379
a(g171
L4546L
tp380
a(g173
L4838L
tp381
a(g175
L5695L
tp382
a(g177
L3L
tp383
a(g179
L17965L
tp384
a(g181
L2364L
tp385
a(g183
L5582L
tp386
a(g185
L6169L
tp387
a(g187
L10840L
tp388
a(g189
L28251L
tp389
a(g191
L10905L
tp390
a(g193
L3518L
tp391
a(g195
L13274L
tp392
a(g197
L7644L
tp393
a(g199
L3404L
tp394
a(g201
L4538L
tp395
a(g203
L6389L
tp396
a(g205
L5658L
tp397
a(g207
L4368L
tp398
a(g209
L14427L
tp399
a(g211
L5161L
tp400
a(g213
L13644L
tp401
a(g215
L4475L
tp402
a(g217
L2991L
tp403
a(g219
L20900L
tp404
a(g221
L2835L
tp405
a(g223
L4423L
tp406
a(g225
L12827L
tp407
a(g227
L5662L
tp408
a(g229
L10929L
tp409
a(g231
L10876L
tp410
a(g233
L10886L
tp411
a(g235
L10860L
tp412
a(g237
L14078L
tp413
a(g239
L4408L
tp414
a(g241
L14396L
tp415
a(g243
L5712L
tp416
a(g245
L5682L
tp417
a(g247
L5705L
tp418
a(g249
L15840L
tp419
a(g251
L5114L
tp420
a(g253
L4550L
tp421
a(g255
L2841L
tp422
a(g257
L33137L
tp423
a(g259
L6747L
tp424
a(g261
L6358L
tp425
a(g263
L4583L
tp426
a(g265
L28040L
tp427
a(g267
L5126L
tp428
a(g269
L10848L
tp429
a(g271
L4411L
tp430
a(g273
L4609L
tp431
a(g275
L201L
tp432
a(g277
L20770L
tp433
a(g279
L21900L
tp434
a(g281
L12918L
tp435
a(g283
L7683L
tp436
a(g285
L33512L
tp437
a(g287
L15852L
tp438
a(g289
L4412L
tp439
a(g291
L10192L
tp440
a(g293
L14288L
tp441
aaI982920
a.