(lp1
(lp2
(Vbiological_process
p3
I296707
tp4
a(Vcellular_component
p5
I99348
tp6
a(Vmolecular_function
p7
I81088
tp8
a(Vorganelle
p9
I26973
tp10
a(Vanatomical structure development
p11
I21245
tp12
a(Vtransport
p13
I16955
tp14
a(Vsignal transduction
p15
I13936
tp16
a(Vcellular nitrogen compound metabolic process
p17
I13638
tp18
a(Vresponse to stress
p19
I11181
tp20
a(Vprotein complex
p21
I10793
tp22
a(Vsmall molecule metabolic process
p23
I9693
tp24
a(Vion binding
p25
I9568
tp26
a(Vbiosynthetic process
p27
I8981
tp28
a(Vcellular protein modification process
p29
I8244
tp30
a(Vcatabolic process
p31
I6949
tp32
a(Vimmune system process
p33
I6316
tp34
a(Vcellular component assembly
p35
I5082
tp36
a(Vcell differentiation
p37
I4981
tp38
a(Vlipid metabolic process
p39
I4608
tp40
a(Vcytosol
p41
I4533
tp42
a(Venzyme binding
p43
I4522
tp44
a(Vlocomotion
p45
I3621
tp46
a(Vplasma membrane
p47
I3602
tp48
a(Vvesicle-mediated transport
p49
I3540
tp50
a(Vtransmembrane transporter activity
p51
I3401
tp52
a(Vnucleus
p53
I3356
tp54
a(VDNA metabolic process
p55
I3347
tp56
a(Vnucleolus
p57
I3329
tp58
a(Vanatomical structure formation involved in morphogenesis
p59
I3110
tp60
a(Vchromosome organization
p61
I2997
tp62
a(VDNA binding
p63
I2906
tp64
a(Vcytoplasm
p65
I2809
tp66
a(Vhomeostatic process
p67
I2750
tp68
a(Vmacromolecular complex assembly
p69
I2714
tp70
a(Vcarbohydrate metabolic process
p71
I2706
tp72
a(Voxidoreductase activity
p73
I2634
tp74
a(Vkinase activity
p75
I2533
tp76
a(Vtransmembrane transport
p77
I2520
tp78
a(Vcell motility
p79
I2495
tp80
a(Vnucleobase-containing compound catabolic process
p81
I2447
tp82
a(Vembryo development
p83
I2352
tp84
a(Vcytoskeletal protein binding
p85
I2301
tp86
a(Vprotein maturation
p87
I2287
tp88
a(Vprotein complex assembly
p89
I2213
tp90
a(Vcytoskeleton organization
p91
I2208
tp92
a(Vgrowth
p93
I2129
tp94
a(Vneurological system process
p95
I2064
tp96
a(Vsignal transducer activity
p97
I2040
tp98
a(VRNA binding
p99
I1930
tp100
a(Vmitochondrion
p101
I1863
tp102
a(Vcytoplasmic membrane-bounded vesicle
p103
I1842
tp104
a(Vcytoskeleton
p105
I1751
tp106
a(VGolgi apparatus
p107
I1726
tp108
a(Vcellular amino acid metabolic process
p109
I1688
tp110
a(Vlipid binding
p111
I1632
tp112
a(Vcell adhesion
p113
I1616
tp114
a(Vendosome
p115
I1611
tp116
a(Vmembrane organization
p117
I1536
tp118
a(Vpeptidase activity
p119
I1473
tp120
a(Vcell death
p121
I1472
tp122
a(Vendoplasmic reticulum
p123
I1463
tp124
a(Venzyme regulator activity
p125
I1433
tp126
a(VATPase activity
p127
I1402
tp128
a(Vcell-cell signaling
p129
I1357
tp130
a(Vcell proliferation
p131
I1339
tp132
a(Vligase activity
p133
I1339
tp134
a(Vmicrotubule organizing center
p135
I1298
tp136
a(Vtranscription factor binding
p137
I1264
tp138
a(Vcell morphogenesis
p139
I1228
tp140
a(Vnucleoplasm
p141
I1202
tp142
a(Vprotein binding transcription factor activity
p143
I1161
tp144
a(Vnucleic acid binding transcription factor activity
p145
I1069
tp146
a(Vsulfur compound metabolic process
p147
I957
tp148
a(Vstructural molecule activity
p149
I941
tp150
a(Vprotein targeting
p151
I933
tp152
a(Vphosphatase activity
p153
I887
tp154
a(Vsymbiosis, encompassing mutualism through parasitism
p155
I887
tp156
a(Vextracellular region
p157
I858
tp158
a(Vcofactor metabolic process
p159
I852
tp160
a(VmRNA processing
p161
I848
tp162
a(Vvacuole
p163
I834
tp164
a(Vtransferase activity, transferring acyl groups
p165
I820
tp166
a(Vcell cycle
p167
I738
tp168
a(Vgeneration of precursor metabolites and energy
p169
I732
tp170
a(Vextracellular space
p171
I699
tp172
a(Vcilium
p173
I672
tp174
a(Vextracellular matrix organization
p175
I667
tp176
a(Vtransferase activity, transferring glycosyl groups
p177
I652
tp178
a(Vcell junction organization
p179
I649
tp180
a(Vreproduction
p181
I631
tp182
a(Vcell division
p183
I566
tp184
a(Vhelicase activity
p185
I554
tp186
a(Vaging
p187
I536
tp188
a(Vnucleocytoplasmic transport
p189
I530
tp190
a(Vmethyltransferase activity
p191
I529
tp192
a(Vnuclease activity
p193
I524
tp194
a(Vlyase activity
p195
I503
tp196
a(VGTPase activity
p197
I487
tp198
a(Vlysosome
p199
I478
tp200
a(Vplastid
p201
I471
tp202
a(Vdevelopmental maturation
p203
I464
tp204
a(Vprotein folding
p205
I453
tp206
a(Vmitochondrion organization
p207
I433
tp208
a(Vchromosome
p209
I420
tp210
a(Vhistone binding
p211
I411
tp212
a(Vribonucleoprotein complex assembly
p213
I392
tp214
a(Vsecondary metabolic process
p215
I392
tp216
a(Vcytoskeleton-dependent intracellular transport
p217
I389
tp218
a(Vcirculatory system process
p219
I380
tp220
a(Vplasma membrane organization
p221
I371
tp222
a(VmRNA binding
p223
I346
tp224
a(Visomerase activity
p225
I336
tp226
a(Vhydrolase activity, acting on glycosyl bonds
p227
I328
tp228
a(Vhydrolase activity, acting on carbon-nitrogen (but not peptide) bonds
p229
I307
tp230
a(Vvacuolar transport
p231
I303
tp232
a(Vnuclear envelope
p233
I296
tp234
a(Vprotein binding, bridging
p235
I288
tp236
a(VtRNA metabolic process
p237
I283
tp238
a(Vexternal encapsulating structure
p239
I283
tp240
a(Vnucleotidyltransferase activity
p241
I283
tp242
a(Vcell wall
p243
I276
tp244
a(Vmitosis
p245
I274
tp246
a(Vchromosome segregation
p247
I263
tp248
a(Vperoxisome
p249
I255
tp250
a(Vsmall conjugating protein binding
p251
I245
tp252
a(Vproteinaceous extracellular matrix
p253
I241
tp254
a(Vcell wall organization or biogenesis
p255
I218
tp256
a(Vtranslation factor activity, nucleic acid binding
p257
I211
tp258
a(Vlipid particle
p259
I181
tp260
a(Vprotein transporter activity
p261
I176
tp262
a(Vintracellular
p263
I170
tp264
a(Vunfolded protein binding
p265
I165
tp266
a(Vtranslation
p267
I163
tp268
a(Vtransferase activity, transferring alkyl or aryl (other than methyl) groups
p269
I154
tp270
a(Vstructural constituent of ribosome
p271
I142
tp272
a(Vribosome
p273
I137
tp274
a(Vnuclear chromosome
p275
I112
tp276
a(Vpigmentation
p277
I90
tp278
a(Vribosome biogenesis
p279
I84
tp280
a(VrRNA binding
p281
I64
tp282
a(Vthylakoid
p283
I39
tp284
a(Vnitrogen cycle metabolic process
p285
I29
tp286
a(Vcell
p287
I21
tp288
a(Vtransposition
p289
I13
tp290
a(Vphotosynthesis
p291
I7
tp292
a(VRNA modification guide activity
p293
I2
tp294
aa(lp295
(g3
L6372L
tp296
a(g5
L4365L
tp297
a(g7
L2787L
tp298
a(g9
L21685L
tp299
a(g11
L26888L
tp300
a(g13
L5491L
tp301
a(g15
L5801L
tp302
a(g17
L18268L
tp303
a(g19
L5613L
tp304
a(g21
L21693L
tp305
a(g23
L22689L
tp306
a(g25
L21630L
tp307
a(g27
L7192L
tp308
a(g29
L5168L
tp309
a(g31
L7190L
tp310
a(g33
L1781L
tp311
a(g35
L13633L
tp312
a(g37
L13924L
tp313
a(g39
L5326L
tp314
a(g41
L4599L
tp315
a(g43
L12968L
tp316
a(g45
L20507L
tp317
a(g47
L4644L
tp318
a(g49
L10381L
tp319
a(g51
L13690L
tp320
a(g53
L4422L
tp321
a(g55
L4995L
tp322
a(g57
L4507L
tp323
a(g59
L26682L
tp324
a(g61
L28228L
tp325
a(g63
L2790L
tp326
a(g65
L4514L
tp327
a(g67
L21086L
tp328
a(g69
L31581L
tp329
a(g71
L4725L
tp330
a(g73
L10598L
tp331
a(g75
L10466L
tp332
a(g77
L29927L
tp333
a(g79
L26901L
tp334
a(g81
L18282L
tp335
a(g83
L7881L
tp336
a(g85
L6320L
tp337
a(g87
L28535L
tp338
a(g89
L5165L
tp339
a(g91
L5663L
tp340
a(g93
L20503L
tp341
a(g95
L27837L
tp342
a(g97
L3827L
tp343
a(g99
L2830L
tp344
a(g101
L4515L
tp345
a(g103
L10229L
tp346
a(g105
L4621L
tp347
a(g107
L4567L
tp348
a(g109
L5218L
tp349
a(g111
L6500L
tp350
a(g113
L5791L
tp351
a(g115
L4542L
tp352
a(g117
L30984L
tp353
a(g119
L6448L
tp354
a(g121
L6436L
tp355
a(g123
L4556L
tp356
a(g125
L14001L
tp357
a(g127
L10963L
tp358
a(g129
L5896L
tp359
a(g131
L6494L
tp360
a(g133
L10950L
tp361
a(g135
L4586L
tp362
a(g137
L6357L
tp363
a(g139
L594L
tp364
a(g141
L4439L
tp365
a(g143
L677L
tp366
a(g145
L759L
tp367
a(g147
L5471L
tp368
a(g149
L4118L
tp369
a(g151
L5302L
tp370
a(g153
L10870L
tp371
a(g155
L22810L
tp372
a(g157
L4366L
tp373
a(g159
L28144L
tp374
a(g161
L5112L
tp375
a(g163
L4546L
tp376
a(g165
L10829L
tp377
a(g167
L5695L
tp378
a(g169
L4838L
tp379
a(g171
L4405L
tp380
a(g173
L4684L
tp381
a(g175
L13967L
tp382
a(g177
L10840L
tp383
a(g179
L17965L
tp384
a(g181
L3L
tp385
a(g183
L28251L
tp386
a(g185
L3404L
tp387
a(g187
L6169L
tp388
a(g189
L5582L
tp389
a(g191
L6389L
tp390
a(g193
L3518L
tp391
a(g195
L10905L
tp392
a(g197
L2991L
tp393
a(g199
L4538L
tp394
a(g201
L7644L
tp395
a(g203
L13274L
tp396
a(g205
L5161L
tp397
a(g207
L5658L
tp398
a(g209
L4475L
tp399
a(g211
L20900L
tp400
a(g213
L13644L
tp401
a(g215
L12827L
tp402
a(g217
L14427L
tp403
a(g219
L2364L
tp404
a(g221
L5662L
tp405
a(g223
L2835L
tp406
a(g225
L10929L
tp407
a(g227
L10876L
tp408
a(g229
L10886L
tp409
a(g231
L5682L
tp410
a(g233
L4423L
tp411
a(g235
L14396L
tp412
a(g237
L5114L
tp413
a(g239
L14078L
tp414
a(g241
L10860L
tp415
a(g243
L4408L
tp416
a(g245
L5712L
tp417
a(g247
L5705L
tp418
a(g249
L4550L
tp419
a(g251
L15840L
tp420
a(g253
L4368L
tp421
a(g255
L33137L
tp422
a(g257
L6358L
tp423
a(g259
L4583L
tp424
a(g261
L6747L
tp425
a(g263
L4411L
tp426
a(g265
L28040L
tp427
a(g267
L5126L
tp428
a(g269
L10848L
tp429
a(g271
L2841L
tp430
a(g273
L4609L
tp431
a(g275
L201L
tp432
a(g277
L21900L
tp433
a(g279
L20770L
tp434
a(g281
L12918L
tp435
a(g283
L7683L
tp436
a(g285
L33512L
tp437
a(g287
L4412L
tp438
a(g289
L15852L
tp439
a(g291
L10192L
tp440
a(g293
L14288L
tp441
aaI805772
a.