(lp1
(lp2
(Vbiological_process
p3
I347715
tp4
a(Vcellular_component
p5
I115765
tp6
a(Vmolecular_function
p7
I95630
tp8
a(Vorganelle
p9
I30744
tp10
a(Vanatomical structure development
p11
I26218
tp12
a(Vtransport
p13
I19579
tp14
a(Vsignal transduction
p15
I15617
tp16
a(Vcellular nitrogen compound metabolic process
p17
I15418
tp18
a(Vprotein complex
p19
I12834
tp20
a(Vresponse to stress
p21
I12794
tp22
a(Vion binding
p23
I11618
tp24
a(Vsmall molecule metabolic process
p25
I11308
tp26
a(Vbiosynthetic process
p27
I10051
tp28
a(Vcellular protein modification process
p29
I9010
tp30
a(Vcatabolic process
p31
I7830
tp32
a(Vimmune system process
p33
I7044
tp34
a(Vcell differentiation
p35
I6177
tp36
a(Vcellular component assembly
p37
I5726
tp38
a(Vlipid metabolic process
p39
I5301
tp40
a(Vcytosol
p41
I5170
tp42
a(Venzyme binding
p43
I5135
tp44
a(Vtransmembrane transporter activity
p45
I4419
tp46
a(Vlocomotion
p47
I4307
tp48
a(Vplasma membrane
p49
I4216
tp50
a(Vanatomical structure formation involved in morphogenesis
p51
I3996
tp52
a(Vnucleolus
p53
I3981
tp54
a(Vvesicle-mediated transport
p55
I3906
tp56
a(Vnucleus
p57
I3815
tp58
a(VDNA metabolic process
p59
I3804
tp60
a(VDNA binding
p61
I3475
tp62
a(Vhomeostatic process
p63
I3319
tp64
a(Vchromosome organization
p65
I3299
tp66
a(Vcytoplasm
p67
I3269
tp68
a(Vtransmembrane transport
p69
I3151
tp70
a(Vmacromolecular complex assembly
p71
I3148
tp72
a(Voxidoreductase activity
p73
I3089
tp74
a(Vcell motility
p75
I3033
tp76
a(Vcarbohydrate metabolic process
p77
I3008
tp78
a(Vneurological system process
p79
I2889
tp80
a(Vprotein maturation
p81
I2825
tp82
a(Vcytoskeletal protein binding
p83
I2809
tp84
a(Vembryo development
p85
I2636
tp86
a(Vnucleobase-containing compound catabolic process
p87
I2634
tp88
a(Vcytoskeleton organization
p89
I2602
tp90
a(Vprotein complex assembly
p91
I2591
tp92
a(Vgrowth
p93
I2591
tp94
a(Vsignal transducer activity
p95
I2501
tp96
a(Vkinase activity
p97
I2487
tp98
a(VRNA binding
p99
I2117
tp100
a(Vcytoplasmic membrane-bounded vesicle
p101
I2112
tp102
a(VGolgi apparatus
p103
I2102
tp104
a(Vmitochondrion
p105
I2084
tp106
a(Vlipid binding
p107
I2048
tp108
a(Vcytoskeleton
p109
I2004
tp110
a(Vcellular amino acid metabolic process
p111
I2000
tp112
a(Vcell adhesion
p113
I1980
tp114
a(Vpeptidase activity
p115
I1832
tp116
a(Vendoplasmic reticulum
p117
I1783
tp118
a(Vmembrane organization
p119
I1772
tp120
a(Vcell-cell signaling
p121
I1730
tp122
a(Venzyme regulator activity
p123
I1684
tp124
a(Vendosome
p125
I1673
tp126
a(VATPase activity
p127
I1631
tp128
a(Vcell death
p129
I1621
tp130
a(Vligase activity
p131
I1608
tp132
a(Vcell proliferation
p133
I1588
tp134
a(Vtranscription factor binding
p135
I1487
tp136
a(Vnucleoplasm
p137
I1476
tp138
a(Vmicrotubule organizing center
p139
I1475
tp140
a(Vcell morphogenesis
p141
I1431
tp142
a(Vprotein binding transcription factor activity
p143
I1426
tp144
a(Vnucleic acid binding transcription factor activity
p145
I1344
tp146
a(Vextracellular region
p147
I1208
tp148
a(Vstructural molecule activity
p149
I1194
tp150
a(Vsulfur compound metabolic process
p151
I1194
tp152
a(Vextracellular space
p153
I1011
tp154
a(Vtransferase activity, transferring acyl groups
p155
I987
tp156
a(Vprotein targeting
p157
I977
tp158
a(Vextracellular matrix organization
p159
I976
tp160
a(Vcofactor metabolic process
p161
I955
tp162
a(Vsymbiosis, encompassing mutualism through parasitism
p163
I952
tp164
a(VmRNA processing
p165
I946
tp166
a(Vvacuole
p167
I937
tp168
a(Vphosphatase activity
p169
I889
tp170
a(Vcilium
p171
I882
tp172
a(Vgeneration of precursor metabolites and energy
p173
I814
tp174
a(Vcell cycle
p175
I764
tp176
a(Vtransferase activity, transferring glycosyl groups
p177
I749
tp178
a(Vcell junction organization
p179
I707
tp180
a(Vaging
p181
I669
tp182
a(Vreproduction
p183
I668
tp184
a(Vcell division
p185
I662
tp186
a(Vnucleocytoplasmic transport
p187
I646
tp188
a(Vhelicase activity
p189
I616
tp190
a(Vnuclease activity
p191
I593
tp192
a(Vlyase activity
p193
I592
tp194
a(Vmethyltransferase activity
p195
I587
tp196
a(Vcirculatory system process
p197
I586
tp198
a(Vlysosome
p199
I564
tp200
a(Vdevelopmental maturation
p201
I564
tp202
a(Vmitochondrion organization
p203
I522
tp204
a(Vplastid
p205
I497
tp206
a(Vchromosome
p207
I490
tp208
a(Vprotein folding
p209
I479
tp210
a(Vcytoskeleton-dependent intracellular transport
p211
I474
tp212
a(Vhistone binding
p213
I443
tp214
a(Vribonucleoprotein complex assembly
p215
I440
tp216
a(VGTPase activity
p217
I428
tp218
a(Vproteinaceous extracellular matrix
p219
I406
tp220
a(Vplasma membrane organization
p221
I400
tp222
a(Vsecondary metabolic process
p223
I395
tp224
a(Vnuclear envelope
p225
I388
tp226
a(VmRNA binding
p227
I385
tp228
a(Vhydrolase activity, acting on glycosyl bonds
p229
I361
tp230
a(Visomerase activity
p231
I360
tp232
a(Vhydrolase activity, acting on carbon-nitrogen (but not peptide) bonds
p233
I360
tp234
a(Vnucleotidyltransferase activity
p235
I358
tp236
a(Vmitosis
p237
I316
tp238
a(Vexternal encapsulating structure
p239
I315
tp240
a(Vvacuolar transport
p241
I305
tp242
a(Vchromosome segregation
p243
I302
tp244
a(Vcell wall
p245
I302
tp246
a(Vprotein binding, bridging
p247
I298
tp248
a(VtRNA metabolic process
p249
I277
tp250
a(Vsmall conjugating protein binding
p251
I267
tp252
a(Vperoxisome
p253
I255
tp254
a(Vcell wall organization or biogenesis
p255
I240
tp256
a(Vprotein transporter activity
p257
I218
tp258
a(Vtranslation factor activity, nucleic acid binding
p259
I210
tp260
a(Vunfolded protein binding
p261
I197
tp262
a(Vlipid particle
p263
I191
tp264
a(Vtranslation
p265
I186
tp266
a(Vstructural constituent of ribosome
p267
I173
tp268
a(Vintracellular
p269
I161
tp270
a(Vtransferase activity, transferring alkyl or aryl (other than methyl) groups
p271
I154
tp272
a(Vribosome
p273
I151
tp274
a(Vnuclear chromosome
p275
I146
tp276
a(Vpigmentation
p277
I122
tp278
a(Vribosome biogenesis
p279
I90
tp280
a(VrRNA binding
p281
I77
tp282
a(Vthylakoid
p283
I48
tp284
a(Vnitrogen cycle metabolic process
p285
I46
tp286
a(Vtransposition
p287
I39
tp288
a(Vcell
p289
I15
tp290
a(Vphotosynthesis
p291
I12
tp292
a(VRNA modification guide activity
p293
I4
tp294
aa(lp295
(g3
L6372L
tp296
a(g5
L4365L
tp297
a(g7
L2787L
tp298
a(g9
L21685L
tp299
a(g11
L26888L
tp300
a(g13
L5491L
tp301
a(g15
L5801L
tp302
a(g17
L18268L
tp303
a(g19
L21693L
tp304
a(g21
L5613L
tp305
a(g23
L21630L
tp306
a(g25
L22689L
tp307
a(g27
L7192L
tp308
a(g29
L5168L
tp309
a(g31
L7190L
tp310
a(g33
L1781L
tp311
a(g35
L13924L
tp312
a(g37
L13633L
tp313
a(g39
L5326L
tp314
a(g41
L4599L
tp315
a(g43
L12968L
tp316
a(g45
L13690L
tp317
a(g47
L20507L
tp318
a(g49
L4644L
tp319
a(g51
L26682L
tp320
a(g53
L4507L
tp321
a(g55
L10381L
tp322
a(g57
L4422L
tp323
a(g59
L4995L
tp324
a(g61
L2790L
tp325
a(g63
L21086L
tp326
a(g65
L28228L
tp327
a(g67
L4514L
tp328
a(g69
L29927L
tp329
a(g71
L31581L
tp330
a(g73
L10598L
tp331
a(g75
L26901L
tp332
a(g77
L4725L
tp333
a(g79
L27837L
tp334
a(g81
L28535L
tp335
a(g83
L6320L
tp336
a(g85
L7881L
tp337
a(g87
L18282L
tp338
a(g89
L5663L
tp339
a(g91
L5165L
tp340
a(g93
L20503L
tp341
a(g95
L3827L
tp342
a(g97
L10466L
tp343
a(g99
L2830L
tp344
a(g101
L10229L
tp345
a(g103
L4567L
tp346
a(g105
L4515L
tp347
a(g107
L6500L
tp348
a(g109
L4621L
tp349
a(g111
L5218L
tp350
a(g113
L5791L
tp351
a(g115
L6448L
tp352
a(g117
L4556L
tp353
a(g119
L30984L
tp354
a(g121
L5896L
tp355
a(g123
L14001L
tp356
a(g125
L4542L
tp357
a(g127
L10963L
tp358
a(g129
L6436L
tp359
a(g131
L10950L
tp360
a(g133
L6494L
tp361
a(g135
L6357L
tp362
a(g137
L4439L
tp363
a(g139
L4586L
tp364
a(g141
L594L
tp365
a(g143
L677L
tp366
a(g145
L759L
tp367
a(g147
L4366L
tp368
a(g149
L4118L
tp369
a(g151
L5471L
tp370
a(g153
L4405L
tp371
a(g155
L10829L
tp372
a(g157
L5302L
tp373
a(g159
L13967L
tp374
a(g161
L28144L
tp375
a(g163
L22810L
tp376
a(g165
L5112L
tp377
a(g167
L4546L
tp378
a(g169
L10870L
tp379
a(g171
L4684L
tp380
a(g173
L4838L
tp381
a(g175
L5695L
tp382
a(g177
L10840L
tp383
a(g179
L17965L
tp384
a(g181
L6169L
tp385
a(g183
L3L
tp386
a(g185
L28251L
tp387
a(g187
L5582L
tp388
a(g189
L3404L
tp389
a(g191
L3518L
tp390
a(g193
L10905L
tp391
a(g195
L6389L
tp392
a(g197
L2364L
tp393
a(g199
L4538L
tp394
a(g201
L13274L
tp395
a(g203
L5658L
tp396
a(g205
L7644L
tp397
a(g207
L4475L
tp398
a(g209
L5161L
tp399
a(g211
L14427L
tp400
a(g213
L20900L
tp401
a(g215
L13644L
tp402
a(g217
L2991L
tp403
a(g219
L4368L
tp404
a(g221
L5662L
tp405
a(g223
L12827L
tp406
a(g225
L4423L
tp407
a(g227
L2835L
tp408
a(g229
L10876L
tp409
a(g231
L10929L
tp410
a(g233
L10886L
tp411
a(g235
L10860L
tp412
a(g237
L5712L
tp413
a(g239
L14078L
tp414
a(g241
L5682L
tp415
a(g243
L5705L
tp416
a(g245
L4408L
tp417
a(g247
L14396L
tp418
a(g249
L5114L
tp419
a(g251
L15840L
tp420
a(g253
L4550L
tp421
a(g255
L33137L
tp422
a(g257
L6747L
tp423
a(g259
L6358L
tp424
a(g261
L28040L
tp425
a(g263
L4583L
tp426
a(g265
L5126L
tp427
a(g267
L2841L
tp428
a(g269
L4411L
tp429
a(g271
L10848L
tp430
a(g273
L4609L
tp431
a(g275
L201L
tp432
a(g277
L21900L
tp433
a(g279
L20770L
tp434
a(g281
L12918L
tp435
a(g283
L7683L
tp436
a(g285
L33512L
tp437
a(g287
L15852L
tp438
a(g289
L4412L
tp439
a(g291
L10192L
tp440
a(g293
L14288L
tp441
aaI941684
a.