(lp1
(lp2
(Vbiological_process
p3
I396363
tp4
a(Vcellular_component
p5
I130288
tp6
a(Vmolecular_function
p7
I107907
tp8
a(Vorganelle
p9
I34471
tp10
a(Vanatomical structure development
p11
I30392
tp12
a(Vtransport
p13
I21829
tp14
a(Vsignal transduction
p15
I17833
tp16
a(Vcellular nitrogen compound metabolic process
p17
I17786
tp18
a(Vresponse to stress
p19
I14877
tp20
a(Vprotein complex
p21
I14270
tp22
a(Vion binding
p23
I13209
tp24
a(Vsmall molecule metabolic process
p25
I12693
tp26
a(Vbiosynthetic process
p27
I11961
tp28
a(Vcellular protein modification process
p29
I10102
tp30
a(Vcatabolic process
p31
I9136
tp32
a(Vimmune system process
p33
I7905
tp34
a(Vcell differentiation
p35
I7069
tp36
a(Vcellular component assembly
p37
I6209
tp38
a(Vcytosol
p39
I5979
tp40
a(Vlipid metabolic process
p41
I5810
tp42
a(Venzyme binding
p43
I5705
tp44
a(Vplasma membrane
p45
I4861
tp46
a(Vtransmembrane transporter activity
p47
I4818
tp48
a(Vlocomotion
p49
I4765
tp50
a(Vanatomical structure formation involved in morphogenesis
p51
I4608
tp52
a(VDNA metabolic process
p53
I4380
tp54
a(Vnucleolus
p55
I4367
tp56
a(Vvesicle-mediated transport
p57
I4303
tp58
a(Vnucleus
p59
I4227
tp60
a(VDNA binding
p61
I3802
tp62
a(Vcarbohydrate metabolic process
p63
I3679
tp64
a(Vhomeostatic process
p65
I3677
tp66
a(Voxidoreductase activity
p67
I3650
tp68
a(Vchromosome organization
p69
I3586
tp70
a(Vcytoplasm
p71
I3551
tp72
a(Vmacromolecular complex assembly
p73
I3512
tp74
a(Vtransmembrane transport
p75
I3483
tp76
a(Vcell motility
p77
I3330
tp78
a(Vembryo development
p79
I3173
tp80
a(Vprotein maturation
p81
I3168
tp82
a(Vneurological system process
p83
I3161
tp84
a(Vgrowth
p85
I3129
tp86
a(Vnucleobase-containing compound catabolic process
p87
I3068
tp88
a(Vsignal transducer activity
p89
I3017
tp90
a(Vcytoskeletal protein binding
p91
I2938
tp92
a(Vprotein complex assembly
p93
I2864
tp94
a(Vkinase activity
p95
I2843
tp96
a(Vcytoskeleton organization
p97
I2764
tp98
a(VRNA binding
p99
I2631
tp100
a(VGolgi apparatus
p101
I2377
tp102
a(Vmitochondrion
p103
I2348
tp104
a(Vcellular amino acid metabolic process
p105
I2337
tp106
a(Vcytoplasmic membrane-bounded vesicle
p107
I2323
tp108
a(Vlipid binding
p109
I2291
tp110
a(Vcell adhesion
p111
I2199
tp112
a(Vcytoskeleton
p113
I2095
tp114
a(Vpeptidase activity
p115
I2079
tp116
a(Vendoplasmic reticulum
p117
I2000
tp118
a(Vcell-cell signaling
p119
I1934
tp120
a(Vmembrane organization
p121
I1888
tp122
a(Vcell death
p123
I1888
tp124
a(Vcell proliferation
p125
I1864
tp126
a(Venzyme regulator activity
p127
I1853
tp128
a(Vligase activity
p129
I1825
tp130
a(Vendosome
p131
I1806
tp132
a(VATPase activity
p133
I1703
tp134
a(Vmicrotubule organizing center
p135
I1664
tp136
a(Vnucleoplasm
p137
I1649
tp138
a(Vtranscription factor binding
p139
I1629
tp140
a(Vcell morphogenesis
p141
I1618
tp142
a(Vprotein binding transcription factor activity
p143
I1468
tp144
a(Vnucleic acid binding transcription factor activity
p145
I1430
tp146
a(Vextracellular region
p147
I1416
tp148
a(Vsulfur compound metabolic process
p149
I1394
tp150
a(Vstructural molecule activity
p151
I1340
tp152
a(Vprotein targeting
p153
I1203
tp154
a(Vcofactor metabolic process
p155
I1176
tp156
a(Vextracellular space
p157
I1155
tp158
a(Vextracellular matrix organization
p159
I1103
tp160
a(Vtransferase activity, transferring acyl groups
p161
I1079
tp162
a(VmRNA processing
p163
I1062
tp164
a(Vgeneration of precursor metabolites and energy
p165
I1046
tp166
a(Vvacuole
p167
I1039
tp168
a(Vsymbiosis, encompassing mutualism through parasitism
p169
I1029
tp170
a(Vcilium
p171
I1025
tp172
a(Vphosphatase activity
p173
I939
tp174
a(Vcell cycle
p175
I861
tp176
a(Vreproduction
p177
I810
tp178
a(Vtransferase activity, transferring glycosyl groups
p179
I783
tp180
a(Vaging
p181
I776
tp182
a(Vplastid
p183
I752
tp184
a(Vcell division
p185
I736
tp186
a(Vlyase activity
p187
I730
tp188
a(Vhelicase activity
p189
I729
tp190
a(Vnucleocytoplasmic transport
p191
I713
tp192
a(Vcell junction organization
p193
I696
tp194
a(Vnuclease activity
p195
I674
tp196
a(Vcirculatory system process
p197
I656
tp198
a(Vmethyltransferase activity
p199
I633
tp200
a(Vdevelopmental maturation
p201
I608
tp202
a(Vlysosome
p203
I594
tp204
a(Vprotein folding
p205
I574
tp206
a(Vmitochondrion organization
p207
I552
tp208
a(Vchromosome
p209
I536
tp210
a(Vcytoskeleton-dependent intracellular transport
p211
I521
tp212
a(Vribonucleoprotein complex assembly
p213
I515
tp214
a(Vsecondary metabolic process
p215
I506
tp216
a(VGTPase activity
p217
I496
tp218
a(Vexternal encapsulating structure
p219
I495
tp220
a(Vcell wall
p221
I482
tp222
a(Vproteinaceous extracellular matrix
p223
I470
tp224
a(Vhydrolase activity, acting on glycosyl bonds
p225
I445
tp226
a(Vnuclear envelope
p227
I445
tp228
a(Vhistone binding
p229
I443
tp230
a(VmRNA binding
p231
I442
tp232
a(Visomerase activity
p233
I435
tp234
a(Vplasma membrane organization
p235
I409
tp236
a(Vhydrolase activity, acting on carbon-nitrogen (but not peptide) bonds
p237
I383
tp238
a(Vnucleotidyltransferase activity
p239
I376
tp240
a(Vmitosis
p241
I350
tp242
a(Vchromosome segregation
p243
I346
tp244
a(VtRNA metabolic process
p245
I341
tp246
a(Vcell wall organization or biogenesis
p247
I331
tp248
a(Vprotein binding, bridging
p249
I330
tp250
a(Vvacuolar transport
p251
I322
tp252
a(Vperoxisome
p253
I316
tp254
a(Vsmall conjugating protein binding
p255
I303
tp256
a(Vstructural constituent of ribosome
p257
I299
tp258
a(Vtranslation factor activity, nucleic acid binding
p259
I285
tp260
a(Vprotein transporter activity
p261
I246
tp262
a(Vunfolded protein binding
p263
I241
tp264
a(Vlipid particle
p265
I233
tp266
a(Vribosome
p267
I217
tp268
a(Vtranslation
p269
I213
tp270
a(Vtransferase activity, transferring alkyl or aryl (other than methyl) groups
p271
I184
tp272
a(Vintracellular
p273
I175
tp274
a(Vnuclear chromosome
p275
I164
tp276
a(Vpigmentation
p277
I131
tp278
a(Vribosome biogenesis
p279
I128
tp280
a(VrRNA binding
p281
I100
tp282
a(Vthylakoid
p283
I97
tp284
a(Vnitrogen cycle metabolic process
p285
I49
tp286
a(Vtransposition
p287
I40
tp288
a(Vphotosynthesis
p289
I30
tp290
a(Vcell
p291
I16
tp292
a(VRNA modification guide activity
p293
I4
tp294
aa(lp295
(g3
L6372L
tp296
a(g5
L4365L
tp297
a(g7
L2787L
tp298
a(g9
L21685L
tp299
a(g11
L26888L
tp300
a(g13
L5491L
tp301
a(g15
L5801L
tp302
a(g17
L18268L
tp303
a(g19
L5613L
tp304
a(g21
L21693L
tp305
a(g23
L21630L
tp306
a(g25
L22689L
tp307
a(g27
L7192L
tp308
a(g29
L5168L
tp309
a(g31
L7190L
tp310
a(g33
L1781L
tp311
a(g35
L13924L
tp312
a(g37
L13633L
tp313
a(g39
L4599L
tp314
a(g41
L5326L
tp315
a(g43
L12968L
tp316
a(g45
L4644L
tp317
a(g47
L13690L
tp318
a(g49
L20507L
tp319
a(g51
L26682L
tp320
a(g53
L4995L
tp321
a(g55
L4507L
tp322
a(g57
L10381L
tp323
a(g59
L4422L
tp324
a(g61
L2790L
tp325
a(g63
L4725L
tp326
a(g65
L21086L
tp327
a(g67
L10598L
tp328
a(g69
L28228L
tp329
a(g71
L4514L
tp330
a(g73
L31581L
tp331
a(g75
L29927L
tp332
a(g77
L26901L
tp333
a(g79
L7881L
tp334
a(g81
L28535L
tp335
a(g83
L27837L
tp336
a(g85
L20503L
tp337
a(g87
L18282L
tp338
a(g89
L3827L
tp339
a(g91
L6320L
tp340
a(g93
L5165L
tp341
a(g95
L10466L
tp342
a(g97
L5663L
tp343
a(g99
L2830L
tp344
a(g101
L4567L
tp345
a(g103
L4515L
tp346
a(g105
L5218L
tp347
a(g107
L10229L
tp348
a(g109
L6500L
tp349
a(g111
L5791L
tp350
a(g113
L4621L
tp351
a(g115
L6448L
tp352
a(g117
L4556L
tp353
a(g119
L5896L
tp354
a(g121
L30984L
tp355
a(g123
L6436L
tp356
a(g125
L6494L
tp357
a(g127
L14001L
tp358
a(g129
L10950L
tp359
a(g131
L4542L
tp360
a(g133
L10963L
tp361
a(g135
L4586L
tp362
a(g137
L4439L
tp363
a(g139
L6357L
tp364
a(g141
L594L
tp365
a(g143
L677L
tp366
a(g145
L759L
tp367
a(g147
L4366L
tp368
a(g149
L5471L
tp369
a(g151
L4118L
tp370
a(g153
L5302L
tp371
a(g155
L28144L
tp372
a(g157
L4405L
tp373
a(g159
L13967L
tp374
a(g161
L10829L
tp375
a(g163
L5112L
tp376
a(g165
L4838L
tp377
a(g167
L4546L
tp378
a(g169
L22810L
tp379
a(g171
L4684L
tp380
a(g173
L10870L
tp381
a(g175
L5695L
tp382
a(g177
L3L
tp383
a(g179
L10840L
tp384
a(g181
L6169L
tp385
a(g183
L7644L
tp386
a(g185
L28251L
tp387
a(g187
L10905L
tp388
a(g189
L3404L
tp389
a(g191
L5582L
tp390
a(g193
L17965L
tp391
a(g195
L3518L
tp392
a(g197
L2364L
tp393
a(g199
L6389L
tp394
a(g201
L13274L
tp395
a(g203
L4538L
tp396
a(g205
L5161L
tp397
a(g207
L5658L
tp398
a(g209
L4475L
tp399
a(g211
L14427L
tp400
a(g213
L13644L
tp401
a(g215
L12827L
tp402
a(g217
L2991L
tp403
a(g219
L14078L
tp404
a(g221
L4408L
tp405
a(g223
L4368L
tp406
a(g225
L10876L
tp407
a(g227
L4423L
tp408
a(g229
L20900L
tp409
a(g231
L2835L
tp410
a(g233
L10929L
tp411
a(g235
L5662L
tp412
a(g237
L10886L
tp413
a(g239
L10860L
tp414
a(g241
L5712L
tp415
a(g243
L5705L
tp416
a(g245
L5114L
tp417
a(g247
L33137L
tp418
a(g249
L14396L
tp419
a(g251
L5682L
tp420
a(g253
L4550L
tp421
a(g255
L15840L
tp422
a(g257
L2841L
tp423
a(g259
L6358L
tp424
a(g261
L6747L
tp425
a(g263
L28040L
tp426
a(g265
L4583L
tp427
a(g267
L4609L
tp428
a(g269
L5126L
tp429
a(g271
L10848L
tp430
a(g273
L4411L
tp431
a(g275
L201L
tp432
a(g277
L21900L
tp433
a(g279
L20770L
tp434
a(g281
L12918L
tp435
a(g283
L7683L
tp436
a(g285
L33512L
tp437
a(g287
L15852L
tp438
a(g289
L10192L
tp439
a(g291
L4412L
tp440
a(g293
L14288L
tp441
aaI1068190
a.