(lp1
(lp2
(Vbiological_process
p3
I203665
tp4
a(Vcellular_component
p5
I68300
tp6
a(Vmolecular_function
p7
I57080
tp8
a(Vorganelle
p9
I18149
tp10
a(Vanatomical structure development
p11
I15175
tp12
a(Vtransport
p13
I11384
tp14
a(Vsignal transduction
p15
I9380
tp16
a(Vcellular nitrogen compound metabolic process
p17
I9335
tp18
a(Vprotein complex
p19
I7981
tp20
a(Vresponse to stress
p21
I7787
tp22
a(Vsmall molecule metabolic process
p23
I7077
tp24
a(Vion binding
p25
I6998
tp26
a(Vbiosynthetic process
p27
I6354
tp28
a(Vcellular protein modification process
p29
I5313
tp30
a(Vcatabolic process
p31
I4984
tp32
a(Vimmune system process
p33
I4296
tp34
a(Vcellular component assembly
p35
I3526
tp36
a(Vcell differentiation
p37
I3487
tp38
a(Vcytosol
p39
I3416
tp40
a(Vlipid metabolic process
p41
I3103
tp42
a(Venzyme binding
p43
I3080
tp44
a(Vplasma membrane
p45
I2626
tp46
a(Vnucleolus
p47
I2440
tp48
a(Vlocomotion
p49
I2421
tp50
a(Vtransmembrane transporter activity
p51
I2393
tp52
a(Vvesicle-mediated transport
p53
I2360
tp54
a(Vnucleus
p55
I2246
tp56
a(Vanatomical structure formation involved in morphogenesis
p57
I2194
tp58
a(VDNA binding
p59
I2174
tp60
a(Vmacromolecular complex assembly
p61
I2047
tp62
a(Vcarbohydrate metabolic process
p63
I1984
tp64
a(Voxidoreductase activity
p65
I1981
tp66
a(VDNA metabolic process
p67
I1972
tp68
a(Vhomeostatic process
p69
I1899
tp70
a(Vcytoplasm
p71
I1882
tp72
a(Vchromosome organization
p73
I1881
tp74
a(Vembryo development
p75
I1780
tp76
a(Vtransmembrane transport
p77
I1746
tp78
a(Vprotein maturation
p79
I1732
tp80
a(Vcell motility
p81
I1685
tp82
a(Vprotein complex assembly
p83
I1649
tp84
a(Vnucleobase-containing compound catabolic process
p85
I1635
tp86
a(Vcytoskeletal protein binding
p87
I1592
tp88
a(Vgrowth
p89
I1589
tp90
a(Vneurological system process
p91
I1575
tp92
a(VRNA binding
p93
I1542
tp94
a(Vcytoskeleton organization
p95
I1511
tp96
a(Vsignal transducer activity
p97
I1426
tp98
a(Vkinase activity
p99
I1405
tp100
a(Vcellular amino acid metabolic process
p101
I1392
tp102
a(Vmitochondrion
p103
I1336
tp104
a(Vcytoplasmic membrane-bounded vesicle
p105
I1246
tp106
a(VGolgi apparatus
p107
I1234
tp108
a(Vlipid binding
p109
I1167
tp110
a(Vpeptidase activity
p111
I1146
tp112
a(Vcytoskeleton
p113
I1099
tp114
a(Venzyme regulator activity
p115
I1078
tp116
a(Vcell adhesion
p117
I1072
tp118
a(Vendoplasmic reticulum
p119
I1054
tp120
a(Vcell death
p121
I1042
tp122
a(Vmembrane organization
p123
I1041
tp124
a(Vcell-cell signaling
p125
I994
tp126
a(Vcell proliferation
p127
I953
tp128
a(Vligase activity
p129
I952
tp130
a(Vendosome
p131
I951
tp132
a(Vtranscription factor binding
p133
I938
tp134
a(Vnucleoplasm
p135
I908
tp136
a(Vnucleic acid binding transcription factor activity
p137
I884
tp138
a(Vprotein binding transcription factor activity
p139
I866
tp140
a(Vmicrotubule organizing center
p141
I860
tp142
a(VATPase activity
p143
I851
tp144
a(Vstructural molecule activity
p145
I793
tp146
a(Vcell morphogenesis
p147
I793
tp148
a(Vsulfur compound metabolic process
p149
I761
tp150
a(Vextracellular region
p151
I729
tp152
a(Vprotein targeting
p153
I677
tp154
a(Vsymbiosis, encompassing mutualism through parasitism
p155
I671
tp156
a(Vgeneration of precursor metabolites and energy
p157
I660
tp158
a(Vcofactor metabolic process
p159
I648
tp160
a(VmRNA processing
p161
I632
tp162
a(Vextracellular space
p163
I610
tp164
a(Vtransferase activity, transferring acyl groups
p165
I596
tp166
a(Vvacuole
p167
I593
tp168
a(Vextracellular matrix organization
p169
I565
tp170
a(Vphosphatase activity
p171
I512
tp172
a(Vreproduction
p173
I487
tp174
a(Vcilium
p175
I453
tp176
a(Vcell cycle
p177
I453
tp178
a(Vnucleocytoplasmic transport
p179
I427
tp180
a(Vcell junction organization
p181
I418
tp182
a(Vlyase activity
p183
I404
tp184
a(Vtransferase activity, transferring glycosyl groups
p185
I387
tp186
a(Vcell division
p187
I385
tp188
a(Vprotein folding
p189
I384
tp190
a(Vplastid
p191
I383
tp192
a(Vaging
p193
I377
tp194
a(Vmethyltransferase activity
p195
I359
tp196
a(Vmitochondrion organization
p197
I353
tp198
a(Vlysosome
p199
I348
tp200
a(Vdevelopmental maturation
p201
I333
tp202
a(Vcirculatory system process
p203
I329
tp204
a(Vribonucleoprotein complex assembly
p205
I326
tp206
a(VGTPase activity
p207
I311
tp208
a(Vnuclease activity
p209
I311
tp210
a(Vhelicase activity
p211
I310
tp212
a(VmRNA binding
p213
I292
tp214
a(Vchromosome
p215
I283
tp216
a(Vcytoskeleton-dependent intracellular transport
p217
I275
tp218
a(Vsecondary metabolic process
p219
I269
tp220
a(Visomerase activity
p221
I267
tp222
a(Vhistone binding
p223
I260
tp224
a(Vexternal encapsulating structure
p225
I248
tp226
a(Vcell wall
p227
I242
tp228
a(Vhydrolase activity, acting on glycosyl bonds
p229
I233
tp230
a(Vnuclear envelope
p231
I222
tp232
a(Vhydrolase activity, acting on carbon-nitrogen (but not peptide) bonds
p233
I214
tp234
a(Vplasma membrane organization
p235
I211
tp236
a(Vproteinaceous extracellular matrix
p237
I194
tp238
a(Vvacuolar transport
p239
I192
tp240
a(Vnucleotidyltransferase activity
p241
I191
tp242
a(VtRNA metabolic process
p243
I190
tp244
a(Vprotein binding, bridging
p245
I189
tp246
a(Vstructural constituent of ribosome
p247
I186
tp248
a(Vmitosis
p249
I186
tp250
a(Vtranslation factor activity, nucleic acid binding
p251
I180
tp252
a(Vchromosome segregation
p253
I174
tp254
a(Vperoxisome
p255
I174
tp256
a(Vsmall conjugating protein binding
p257
I164
tp258
a(Vcell wall organization or biogenesis
p259
I159
tp260
a(Vunfolded protein binding
p261
I157
tp262
a(Vprotein transporter activity
p263
I141
tp264
a(Vtranslation
p265
I138
tp266
a(Vlipid particle
p267
I136
tp268
a(Vribosome
p269
I125
tp270
a(Vtransferase activity, transferring alkyl or aryl (other than methyl) groups
p271
I116
tp272
a(Vintracellular
p273
I103
tp274
a(Vnuclear chromosome
p275
I81
tp276
a(Vpigmentation
p277
I70
tp278
a(Vribosome biogenesis
p279
I65
tp280
a(VrRNA binding
p281
I60
tp282
a(Vnitrogen cycle metabolic process
p283
I33
tp284
a(Vthylakoid
p285
I33
tp286
a(Vphotosynthesis
p287
I13
tp288
a(Vtransposition
p289
I11
tp290
a(Vcell
p291
I6
tp292
a(VRNA modification guide activity
p293
I2
tp294
a(Vcytoplasmic chromosome
p295
I1
tp296
aa(lp297
(g3
L6372L
tp298
a(g5
L4365L
tp299
a(g7
L2787L
tp300
a(g9
L21685L
tp301
a(g11
L26888L
tp302
a(g13
L5491L
tp303
a(g15
L5801L
tp304
a(g17
L18268L
tp305
a(g19
L21693L
tp306
a(g21
L5613L
tp307
a(g23
L22689L
tp308
a(g25
L21630L
tp309
a(g27
L7192L
tp310
a(g29
L5168L
tp311
a(g31
L7190L
tp312
a(g33
L1781L
tp313
a(g35
L13633L
tp314
a(g37
L13924L
tp315
a(g39
L4599L
tp316
a(g41
L5326L
tp317
a(g43
L12968L
tp318
a(g45
L4644L
tp319
a(g47
L4507L
tp320
a(g49
L20507L
tp321
a(g51
L13690L
tp322
a(g53
L10381L
tp323
a(g55
L4422L
tp324
a(g57
L26682L
tp325
a(g59
L2790L
tp326
a(g61
L31581L
tp327
a(g63
L4725L
tp328
a(g65
L10598L
tp329
a(g67
L4995L
tp330
a(g69
L21086L
tp331
a(g71
L4514L
tp332
a(g73
L28228L
tp333
a(g75
L7881L
tp334
a(g77
L29927L
tp335
a(g79
L28535L
tp336
a(g81
L26901L
tp337
a(g83
L5165L
tp338
a(g85
L18282L
tp339
a(g87
L6320L
tp340
a(g89
L20503L
tp341
a(g91
L27837L
tp342
a(g93
L2830L
tp343
a(g95
L5663L
tp344
a(g97
L3827L
tp345
a(g99
L10466L
tp346
a(g101
L5218L
tp347
a(g103
L4515L
tp348
a(g105
L10229L
tp349
a(g107
L4567L
tp350
a(g109
L6500L
tp351
a(g111
L6448L
tp352
a(g113
L4621L
tp353
a(g115
L14001L
tp354
a(g117
L5791L
tp355
a(g119
L4556L
tp356
a(g121
L6436L
tp357
a(g123
L30984L
tp358
a(g125
L5896L
tp359
a(g127
L6494L
tp360
a(g129
L10950L
tp361
a(g131
L4542L
tp362
a(g133
L6357L
tp363
a(g135
L4439L
tp364
a(g137
L759L
tp365
a(g139
L677L
tp366
a(g141
L4586L
tp367
a(g143
L10963L
tp368
a(g145
L4118L
tp369
a(g147
L594L
tp370
a(g149
L5471L
tp371
a(g151
L4366L
tp372
a(g153
L5302L
tp373
a(g155
L22810L
tp374
a(g157
L4838L
tp375
a(g159
L28144L
tp376
a(g161
L5112L
tp377
a(g163
L4405L
tp378
a(g165
L10829L
tp379
a(g167
L4546L
tp380
a(g169
L13967L
tp381
a(g171
L10870L
tp382
a(g173
L3L
tp383
a(g175
L4684L
tp384
a(g177
L5695L
tp385
a(g179
L5582L
tp386
a(g181
L17965L
tp387
a(g183
L10905L
tp388
a(g185
L10840L
tp389
a(g187
L28251L
tp390
a(g189
L5161L
tp391
a(g191
L7644L
tp392
a(g193
L6169L
tp393
a(g195
L6389L
tp394
a(g197
L5658L
tp395
a(g199
L4538L
tp396
a(g201
L13274L
tp397
a(g203
L2364L
tp398
a(g205
L13644L
tp399
a(g207
L2991L
tp400
a(g209
L3518L
tp401
a(g211
L3404L
tp402
a(g213
L2835L
tp403
a(g215
L4475L
tp404
a(g217
L14427L
tp405
a(g219
L12827L
tp406
a(g221
L10929L
tp407
a(g223
L20900L
tp408
a(g225
L14078L
tp409
a(g227
L4408L
tp410
a(g229
L10876L
tp411
a(g231
L4423L
tp412
a(g233
L10886L
tp413
a(g235
L5662L
tp414
a(g237
L4368L
tp415
a(g239
L5682L
tp416
a(g241
L10860L
tp417
a(g243
L5114L
tp418
a(g245
L14396L
tp419
a(g247
L2841L
tp420
a(g249
L5712L
tp421
a(g251
L6358L
tp422
a(g253
L5705L
tp423
a(g255
L4550L
tp424
a(g257
L15840L
tp425
a(g259
L33137L
tp426
a(g261
L28040L
tp427
a(g263
L6747L
tp428
a(g265
L5126L
tp429
a(g267
L4583L
tp430
a(g269
L4609L
tp431
a(g271
L10848L
tp432
a(g273
L4411L
tp433
a(g275
L201L
tp434
a(g277
L21900L
tp435
a(g279
L20770L
tp436
a(g281
L12918L
tp437
a(g283
L33512L
tp438
a(g285
L7683L
tp439
a(g287
L10192L
tp440
a(g289
L15852L
tp441
a(g291
L4412L
tp442
a(g293
L14288L
tp443
a(g295
L202L
tp444
aaI559565
a.