(lp1
(lp2
(Vbiological_process
p3
I324862
tp4
a(Vcellular_component
p5
I106086
tp6
a(Vmolecular_function
p7
I87647
tp8
a(Vorganelle
p9
I27683
tp10
a(Vanatomical structure development
p11
I24693
tp12
a(Vtransport
p13
I18509
tp14
a(Vsignal transduction
p15
I14521
tp16
a(Vcellular nitrogen compound metabolic process
p17
I13541
tp18
a(Vresponse to stress
p19
I11524
tp20
a(Vprotein complex
p21
I11426
tp22
a(Vion binding
p23
I10726
tp24
a(Vsmall molecule metabolic process
p25
I10333
tp26
a(Vbiosynthetic process
p27
I9379
tp28
a(Vcellular protein modification process
p29
I7800
tp30
a(Vcatabolic process
p31
I6916
tp32
a(Vimmune system process
p33
I6248
tp34
a(Vcell differentiation
p35
I5598
tp36
a(Vcellular component assembly
p37
I5131
tp38
a(Vcytosol
p39
I4705
tp40
a(Vlipid metabolic process
p41
I4599
tp42
a(Venzyme binding
p43
I4477
tp44
a(Vtransmembrane transporter activity
p45
I4257
tp46
a(Vplasma membrane
p47
I4065
tp48
a(Vlocomotion
p49
I3817
tp50
a(Vanatomical structure formation involved in morphogenesis
p51
I3658
tp52
a(Vvesicle-mediated transport
p53
I3558
tp54
a(Vnucleus
p55
I3438
tp56
a(Vnucleolus
p57
I3408
tp58
a(Vsignal transducer activity
p59
I3204
tp60
a(VDNA binding
p61
I3141
tp62
a(VDNA metabolic process
p63
I3085
tp64
a(Vhomeostatic process
p65
I3059
tp66
a(Vcytoplasm
p67
I2994
tp68
a(Vtransmembrane transport
p69
I2962
tp70
a(Voxidoreductase activity
p71
I2859
tp72
a(Vchromosome organization
p73
I2839
tp74
a(Vmacromolecular complex assembly
p75
I2837
tp76
a(Vneurological system process
p77
I2807
tp78
a(Vcarbohydrate metabolic process
p79
I2780
tp80
a(Vcell motility
p81
I2693
tp82
a(Vembryo development
p83
I2487
tp84
a(Vprotein maturation
p85
I2452
tp86
a(Vgrowth
p87
I2448
tp88
a(Vcytoskeletal protein binding
p89
I2329
tp90
a(Vprotein complex assembly
p91
I2325
tp92
a(Vcytoskeleton organization
p93
I2216
tp94
a(Vnucleobase-containing compound catabolic process
p95
I2203
tp96
a(Vkinase activity
p97
I2114
tp98
a(Vcell-cell signaling
p99
I2037
tp100
a(Vcytoplasmic membrane-bounded vesicle
p101
I1994
tp102
a(VRNA binding
p103
I1947
tp104
a(Vcellular amino acid metabolic process
p105
I1938
tp106
a(Vlipid binding
p107
I1901
tp108
a(Vmitochondrion
p109
I1858
tp110
a(Vcell adhesion
p111
I1759
tp112
a(VGolgi apparatus
p113
I1745
tp114
a(Vpeptidase activity
p115
I1733
tp116
a(Vcytoskeleton
p117
I1671
tp118
a(Vendoplasmic reticulum
p119
I1599
tp120
a(Vmembrane organization
p121
I1541
tp122
a(Venzyme regulator activity
p123
I1508
tp124
a(Vcell proliferation
p125
I1467
tp126
a(Vcell death
p127
I1449
tp128
a(Vendosome
p129
I1448
tp130
a(Vligase activity
p131
I1377
tp132
a(Vtranscription factor binding
p133
I1347
tp134
a(Vmicrotubule organizing center
p135
I1296
tp136
a(Vcell morphogenesis
p137
I1291
tp138
a(Vprotein binding transcription factor activity
p139
I1268
tp140
a(Vnucleoplasm
p141
I1251
tp142
a(VATPase activity
p143
I1203
tp144
a(Vnucleic acid binding transcription factor activity
p145
I1203
tp146
a(Vextracellular region
p147
I1170
tp148
a(Vsulfur compound metabolic process
p149
I1131
tp150
a(Vstructural molecule activity
p151
I999
tp152
a(Vextracellular space
p153
I960
tp154
a(Vcofactor metabolic process
p155
I919
tp156
a(Vextracellular matrix organization
p157
I904
tp158
a(Vtransferase activity, transferring acyl groups
p159
I878
tp160
a(Vcirculatory system process
p161
I857
tp162
a(Vvacuole
p163
I855
tp164
a(VmRNA processing
p165
I839
tp166
a(Vsymbiosis, encompassing mutualism through parasitism
p167
I836
tp168
a(Vprotein targeting
p169
I829
tp170
a(Vphosphatase activity
p171
I826
tp172
a(Vcilium
p173
I795
tp174
a(Vgeneration of precursor metabolites and energy
p175
I781
tp176
a(Vtransferase activity, transferring glycosyl groups
p177
I687
tp178
a(Vcell cycle
p179
I685
tp180
a(Vcell junction organization
p181
I640
tp182
a(Vreproduction
p183
I620
tp184
a(Vlyase activity
p185
I600
tp186
a(Vnucleocytoplasmic transport
p187
I593
tp188
a(Vaging
p189
I574
tp190
a(Vcell division
p191
I569
tp192
a(Vmethyltransferase activity
p193
I553
tp194
a(Vlysosome
p195
I522
tp196
a(Vnuclease activity
p197
I506
tp198
a(Vhelicase activity
p199
I488
tp200
a(Vplastid
p201
I488
tp202
a(Vdevelopmental maturation
p203
I473
tp204
a(Vmitochondrion organization
p205
I470
tp206
a(Vprotein folding
p207
I449
tp208
a(VGTPase activity
p209
I431
tp210
a(Vcytoskeleton-dependent intracellular transport
p211
I417
tp212
a(Vribonucleoprotein complex assembly
p213
I408
tp214
a(Vproteinaceous extracellular matrix
p215
I407
tp216
a(Vchromosome
p217
I405
tp218
a(Vhistone binding
p219
I371
tp220
a(Visomerase activity
p221
I362
tp222
a(VmRNA binding
p223
I358
tp224
a(Vsecondary metabolic process
p225
I354
tp226
a(Vnuclear envelope
p227
I344
tp228
a(Vhydrolase activity, acting on glycosyl bonds
p229
I334
tp230
a(Vplasma membrane organization
p231
I331
tp232
a(Vhydrolase activity, acting on carbon-nitrogen (but not peptide) bonds
p233
I328
tp234
a(Vexternal encapsulating structure
p235
I305
tp236
a(Vcell wall
p237
I296
tp238
a(Vnucleotidyltransferase activity
p239
I280
tp240
a(Vmitosis
p241
I277
tp242
a(VtRNA metabolic process
p243
I268
tp244
a(Vvacuolar transport
p245
I266
tp246
a(Vchromosome segregation
p247
I262
tp248
a(Vperoxisome
p249
I256
tp250
a(Vprotein binding, bridging
p251
I231
tp252
a(Vsmall conjugating protein binding
p253
I220
tp254
a(Vcell wall organization or biogenesis
p255
I215
tp256
a(Vtranslation factor activity, nucleic acid binding
p257
I204
tp258
a(Vprotein transporter activity
p259
I199
tp260
a(Vlipid particle
p261
I187
tp262
a(Vunfolded protein binding
p263
I186
tp264
a(Vtranslation
p265
I184
tp266
a(Vstructural constituent of ribosome
p267
I168
tp268
a(Vribosome
p269
I161
tp270
a(Vtransferase activity, transferring alkyl or aryl (other than methyl) groups
p271
I154
tp272
a(Vintracellular
p273
I151
tp274
a(Vnuclear chromosome
p275
I115
tp276
a(Vpigmentation
p277
I101
tp278
a(VrRNA binding
p279
I80
tp280
a(Vribosome biogenesis
p281
I79
tp282
a(Vthylakoid
p283
I46
tp284
a(Vnitrogen cycle metabolic process
p285
I42
tp286
a(Vtransposition
p287
I14
tp288
a(Vcell
p289
I14
tp290
a(Vphotosynthesis
p291
I9
tp292
a(VRNA modification guide activity
p293
I3
tp294
aa(lp295
(g3
L6372L
tp296
a(g5
L4365L
tp297
a(g7
L2787L
tp298
a(g9
L21685L
tp299
a(g11
L26888L
tp300
a(g13
L5491L
tp301
a(g15
L5801L
tp302
a(g17
L18268L
tp303
a(g19
L5613L
tp304
a(g21
L21693L
tp305
a(g23
L21630L
tp306
a(g25
L22689L
tp307
a(g27
L7192L
tp308
a(g29
L5168L
tp309
a(g31
L7190L
tp310
a(g33
L1781L
tp311
a(g35
L13924L
tp312
a(g37
L13633L
tp313
a(g39
L4599L
tp314
a(g41
L5326L
tp315
a(g43
L12968L
tp316
a(g45
L13690L
tp317
a(g47
L4644L
tp318
a(g49
L20507L
tp319
a(g51
L26682L
tp320
a(g53
L10381L
tp321
a(g55
L4422L
tp322
a(g57
L4507L
tp323
a(g59
L3827L
tp324
a(g61
L2790L
tp325
a(g63
L4995L
tp326
a(g65
L21086L
tp327
a(g67
L4514L
tp328
a(g69
L29927L
tp329
a(g71
L10598L
tp330
a(g73
L28228L
tp331
a(g75
L31581L
tp332
a(g77
L27837L
tp333
a(g79
L4725L
tp334
a(g81
L26901L
tp335
a(g83
L7881L
tp336
a(g85
L28535L
tp337
a(g87
L20503L
tp338
a(g89
L6320L
tp339
a(g91
L5165L
tp340
a(g93
L5663L
tp341
a(g95
L18282L
tp342
a(g97
L10466L
tp343
a(g99
L5896L
tp344
a(g101
L10229L
tp345
a(g103
L2830L
tp346
a(g105
L5218L
tp347
a(g107
L6500L
tp348
a(g109
L4515L
tp349
a(g111
L5791L
tp350
a(g113
L4567L
tp351
a(g115
L6448L
tp352
a(g117
L4621L
tp353
a(g119
L4556L
tp354
a(g121
L30984L
tp355
a(g123
L14001L
tp356
a(g125
L6494L
tp357
a(g127
L6436L
tp358
a(g129
L4542L
tp359
a(g131
L10950L
tp360
a(g133
L6357L
tp361
a(g135
L4586L
tp362
a(g137
L594L
tp363
a(g139
L677L
tp364
a(g141
L4439L
tp365
a(g143
L10963L
tp366
a(g145
L759L
tp367
a(g147
L4366L
tp368
a(g149
L5471L
tp369
a(g151
L4118L
tp370
a(g153
L4405L
tp371
a(g155
L28144L
tp372
a(g157
L13967L
tp373
a(g159
L10829L
tp374
a(g161
L2364L
tp375
a(g163
L4546L
tp376
a(g165
L5112L
tp377
a(g167
L22810L
tp378
a(g169
L5302L
tp379
a(g171
L10870L
tp380
a(g173
L4684L
tp381
a(g175
L4838L
tp382
a(g177
L10840L
tp383
a(g179
L5695L
tp384
a(g181
L17965L
tp385
a(g183
L3L
tp386
a(g185
L10905L
tp387
a(g187
L5582L
tp388
a(g189
L6169L
tp389
a(g191
L28251L
tp390
a(g193
L6389L
tp391
a(g195
L4538L
tp392
a(g197
L3518L
tp393
a(g199
L3404L
tp394
a(g201
L7644L
tp395
a(g203
L13274L
tp396
a(g205
L5658L
tp397
a(g207
L5161L
tp398
a(g209
L2991L
tp399
a(g211
L14427L
tp400
a(g213
L13644L
tp401
a(g215
L4368L
tp402
a(g217
L4475L
tp403
a(g219
L20900L
tp404
a(g221
L10929L
tp405
a(g223
L2835L
tp406
a(g225
L12827L
tp407
a(g227
L4423L
tp408
a(g229
L10876L
tp409
a(g231
L5662L
tp410
a(g233
L10886L
tp411
a(g235
L14078L
tp412
a(g237
L4408L
tp413
a(g239
L10860L
tp414
a(g241
L5712L
tp415
a(g243
L5114L
tp416
a(g245
L5682L
tp417
a(g247
L5705L
tp418
a(g249
L4550L
tp419
a(g251
L14396L
tp420
a(g253
L15840L
tp421
a(g255
L33137L
tp422
a(g257
L6358L
tp423
a(g259
L6747L
tp424
a(g261
L4583L
tp425
a(g263
L28040L
tp426
a(g265
L5126L
tp427
a(g267
L2841L
tp428
a(g269
L4609L
tp429
a(g271
L10848L
tp430
a(g273
L4411L
tp431
a(g275
L201L
tp432
a(g277
L21900L
tp433
a(g279
L12918L
tp434
a(g281
L20770L
tp435
a(g283
L7683L
tp436
a(g285
L33512L
tp437
a(g287
L15852L
tp438
a(g289
L4412L
tp439
a(g291
L10192L
tp440
a(g293
L14288L
tp441
aaI866589
a.