(lp1
(lp2
(Vbiological_process
p3
I235529
tp4
a(Vcellular_component
p5
I76991
tp6
a(Vmolecular_function
p7
I65495
tp8
a(Vorganelle
p9
I20022
tp10
a(Vanatomical structure development
p11
I18119
tp12
a(Vtransport
p13
I12734
tp14
a(Vsignal transduction
p15
I10925
tp16
a(Vcellular nitrogen compound metabolic process
p17
I10489
tp18
a(Vprotein complex
p19
I8699
tp20
a(Vresponse to stress
p21
I8641
tp22
a(Vsmall molecule metabolic process
p23
I8197
tp24
a(Vion binding
p25
I7999
tp26
a(Vbiosynthetic process
p27
I7389
tp28
a(Vcellular protein modification process
p29
I6022
tp30
a(Vcatabolic process
p31
I5391
tp32
a(Vimmune system process
p33
I5000
tp34
a(Vcell differentiation
p35
I4340
tp36
a(Vcellular component assembly
p37
I3888
tp38
a(Vcytosol
p39
I3579
tp40
a(Vlipid metabolic process
p41
I3467
tp42
a(Venzyme binding
p43
I3450
tp44
a(Vlocomotion
p45
I2952
tp46
a(Vplasma membrane
p47
I2904
tp48
a(Vanatomical structure formation involved in morphogenesis
p49
I2744
tp50
a(Vtransmembrane transporter activity
p51
I2723
tp52
a(Vvesicle-mediated transport
p53
I2583
tp54
a(Vnucleus
p55
I2512
tp56
a(Vnucleolus
p57
I2493
tp58
a(VDNA metabolic process
p59
I2409
tp60
a(VDNA binding
p61
I2343
tp62
a(Voxidoreductase activity
p63
I2309
tp64
a(Vcytoplasm
p65
I2272
tp66
a(Vcarbohydrate metabolic process
p67
I2254
tp68
a(Vmacromolecular complex assembly
p69
I2151
tp70
a(Vcell motility
p71
I2147
tp72
a(Vhomeostatic process
p73
I2115
tp74
a(Vchromosome organization
p75
I2041
tp76
a(Vtransmembrane transport
p77
I1963
tp78
a(Vneurological system process
p79
I1942
tp80
a(Vkinase activity
p81
I1914
tp82
a(Vcytoskeletal protein binding
p83
I1865
tp84
a(Vprotein maturation
p85
I1860
tp86
a(Vembryo development
p87
I1854
tp88
a(Vgrowth
p89
I1836
tp90
a(Vnucleobase-containing compound catabolic process
p91
I1799
tp92
a(Vprotein complex assembly
p93
I1752
tp94
a(Vcytoskeleton organization
p95
I1744
tp96
a(Vsignal transducer activity
p97
I1686
tp98
a(Vcellular amino acid metabolic process
p99
I1651
tp100
a(VRNA binding
p101
I1507
tp102
a(Vmitochondrion
p103
I1426
tp104
a(Vcell adhesion
p105
I1425
tp106
a(Vcytoplasmic membrane-bounded vesicle
p107
I1318
tp108
a(Vcytoskeleton
p109
I1309
tp110
a(VGolgi apparatus
p111
I1301
tp112
a(Vlipid binding
p113
I1246
tp114
a(Vpeptidase activity
p115
I1207
tp116
a(VATPase activity
p117
I1189
tp118
a(Vmembrane organization
p119
I1182
tp120
a(Vendoplasmic reticulum
p121
I1155
tp122
a(Vcell death
p123
I1153
tp124
a(Vligase activity
p125
I1145
tp126
a(Venzyme regulator activity
p127
I1111
tp128
a(Vcell proliferation
p129
I1096
tp130
a(Vendosome
p131
I1086
tp132
a(Vcell-cell signaling
p133
I1074
tp134
a(Vtranscription factor binding
p135
I1014
tp136
a(Vprotein binding transcription factor activity
p137
I972
tp138
a(Vcell morphogenesis
p139
I962
tp140
a(Vnucleoplasm
p141
I951
tp142
a(Vmicrotubule organizing center
p143
I929
tp144
a(Vsulfur compound metabolic process
p145
I916
tp146
a(Vnucleic acid binding transcription factor activity
p147
I896
tp148
a(Vextracellular region
p149
I804
tp150
a(Vstructural molecule activity
p151
I795
tp152
a(Vcofactor metabolic process
p153
I754
tp154
a(Vextracellular space
p155
I661
tp156
a(Vextracellular matrix organization
p157
I652
tp158
a(Vsymbiosis, encompassing mutualism through parasitism
p159
I648
tp160
a(VmRNA processing
p161
I645
tp162
a(Vtransferase activity, transferring acyl groups
p163
I645
tp164
a(Vgeneration of precursor metabolites and energy
p165
I626
tp166
a(Vprotein targeting
p167
I621
tp168
a(Vvacuole
p169
I614
tp170
a(Vcilium
p171
I589
tp172
a(Vphosphatase activity
p173
I581
tp174
a(Vtransferase activity, transferring glycosyl groups
p175
I531
tp176
a(Vcell junction organization
p177
I513
tp178
a(Vcell cycle
p179
I510
tp180
a(Vlyase activity
p181
I480
tp182
a(Vreproduction
p183
I446
tp184
a(Vaging
p185
I436
tp186
a(Vcell division
p187
I434
tp188
a(Vnucleocytoplasmic transport
p189
I428
tp190
a(Vhelicase activity
p191
I426
tp192
a(Vmethyltransferase activity
p193
I401
tp194
a(Vnuclease activity
p195
I387
tp196
a(Vmitochondrion organization
p197
I377
tp198
a(Vlysosome
p199
I370
tp200
a(Vplastid
p201
I366
tp202
a(Vdevelopmental maturation
p203
I356
tp204
a(Vprotein folding
p205
I344
tp206
a(Vcirculatory system process
p207
I334
tp208
a(Vchromosome
p209
I320
tp210
a(Vribonucleoprotein complex assembly
p211
I319
tp212
a(VGTPase activity
p213
I308
tp214
a(Vcytoskeleton-dependent intracellular transport
p215
I284
tp216
a(Vhistone binding
p217
I284
tp218
a(Visomerase activity
p219
I281
tp220
a(VmRNA binding
p221
I280
tp222
a(Vhydrolase activity, acting on glycosyl bonds
p223
I274
tp224
a(Vsecondary metabolic process
p225
I267
tp226
a(Vhydrolase activity, acting on carbon-nitrogen (but not peptide) bonds
p227
I266
tp228
a(Vproteinaceous extracellular matrix
p229
I264
tp230
a(Vexternal encapsulating structure
p231
I254
tp232
a(Vnucleotidyltransferase activity
p233
I251
tp234
a(Vcell wall
p235
I246
tp236
a(Vnuclear envelope
p237
I246
tp238
a(Vplasma membrane organization
p239
I242
tp240
a(VtRNA metabolic process
p241
I236
tp242
a(Vprotein binding, bridging
p243
I199
tp244
a(Vchromosome segregation
p245
I195
tp246
a(Vmitosis
p247
I183
tp248
a(Vvacuolar transport
p249
I177
tp250
a(Vcell wall organization or biogenesis
p251
I174
tp252
a(Vperoxisome
p253
I170
tp254
a(Vprotein transporter activity
p255
I168
tp256
a(Vsmall conjugating protein binding
p257
I166
tp258
a(Vtranslation factor activity, nucleic acid binding
p259
I165
tp260
a(Vtranslation
p261
I160
tp262
a(Vunfolded protein binding
p263
I150
tp264
a(Vlipid particle
p265
I137
tp266
a(Vintracellular
p267
I134
tp268
a(Vtransferase activity, transferring alkyl or aryl (other than methyl) groups
p269
I120
tp270
a(Vribosome
p271
I117
tp272
a(Vstructural constituent of ribosome
p273
I115
tp274
a(Vpigmentation
p275
I86
tp276
a(Vnuclear chromosome
p277
I82
tp278
a(VrRNA binding
p279
I60
tp280
a(Vribosome biogenesis
p281
I43
tp282
a(Vthylakoid
p283
I31
tp284
a(Vnitrogen cycle metabolic process
p285
I29
tp286
a(Vtransposition
p287
I13
tp288
a(Vphotosynthesis
p289
I7
tp290
a(Vcell
p291
I7
tp292
a(VRNA modification guide activity
p293
I3
tp294
aa(lp295
(g3
L6372L
tp296
a(g5
L4365L
tp297
a(g7
L2787L
tp298
a(g9
L21685L
tp299
a(g11
L26888L
tp300
a(g13
L5491L
tp301
a(g15
L5801L
tp302
a(g17
L18268L
tp303
a(g19
L21693L
tp304
a(g21
L5613L
tp305
a(g23
L22689L
tp306
a(g25
L21630L
tp307
a(g27
L7192L
tp308
a(g29
L5168L
tp309
a(g31
L7190L
tp310
a(g33
L1781L
tp311
a(g35
L13924L
tp312
a(g37
L13633L
tp313
a(g39
L4599L
tp314
a(g41
L5326L
tp315
a(g43
L12968L
tp316
a(g45
L20507L
tp317
a(g47
L4644L
tp318
a(g49
L26682L
tp319
a(g51
L13690L
tp320
a(g53
L10381L
tp321
a(g55
L4422L
tp322
a(g57
L4507L
tp323
a(g59
L4995L
tp324
a(g61
L2790L
tp325
a(g63
L10598L
tp326
a(g65
L4514L
tp327
a(g67
L4725L
tp328
a(g69
L31581L
tp329
a(g71
L26901L
tp330
a(g73
L21086L
tp331
a(g75
L28228L
tp332
a(g77
L29927L
tp333
a(g79
L27837L
tp334
a(g81
L10466L
tp335
a(g83
L6320L
tp336
a(g85
L28535L
tp337
a(g87
L7881L
tp338
a(g89
L20503L
tp339
a(g91
L18282L
tp340
a(g93
L5165L
tp341
a(g95
L5663L
tp342
a(g97
L3827L
tp343
a(g99
L5218L
tp344
a(g101
L2830L
tp345
a(g103
L4515L
tp346
a(g105
L5791L
tp347
a(g107
L10229L
tp348
a(g109
L4621L
tp349
a(g111
L4567L
tp350
a(g113
L6500L
tp351
a(g115
L6448L
tp352
a(g117
L10963L
tp353
a(g119
L30984L
tp354
a(g121
L4556L
tp355
a(g123
L6436L
tp356
a(g125
L10950L
tp357
a(g127
L14001L
tp358
a(g129
L6494L
tp359
a(g131
L4542L
tp360
a(g133
L5896L
tp361
a(g135
L6357L
tp362
a(g137
L677L
tp363
a(g139
L594L
tp364
a(g141
L4439L
tp365
a(g143
L4586L
tp366
a(g145
L5471L
tp367
a(g147
L759L
tp368
a(g149
L4366L
tp369
a(g151
L4118L
tp370
a(g153
L28144L
tp371
a(g155
L4405L
tp372
a(g157
L13967L
tp373
a(g159
L22810L
tp374
a(g161
L5112L
tp375
a(g163
L10829L
tp376
a(g165
L4838L
tp377
a(g167
L5302L
tp378
a(g169
L4546L
tp379
a(g171
L4684L
tp380
a(g173
L10870L
tp381
a(g175
L10840L
tp382
a(g177
L17965L
tp383
a(g179
L5695L
tp384
a(g181
L10905L
tp385
a(g183
L3L
tp386
a(g185
L6169L
tp387
a(g187
L28251L
tp388
a(g189
L5582L
tp389
a(g191
L3404L
tp390
a(g193
L6389L
tp391
a(g195
L3518L
tp392
a(g197
L5658L
tp393
a(g199
L4538L
tp394
a(g201
L7644L
tp395
a(g203
L13274L
tp396
a(g205
L5161L
tp397
a(g207
L2364L
tp398
a(g209
L4475L
tp399
a(g211
L13644L
tp400
a(g213
L2991L
tp401
a(g215
L14427L
tp402
a(g217
L20900L
tp403
a(g219
L10929L
tp404
a(g221
L2835L
tp405
a(g223
L10876L
tp406
a(g225
L12827L
tp407
a(g227
L10886L
tp408
a(g229
L4368L
tp409
a(g231
L14078L
tp410
a(g233
L10860L
tp411
a(g235
L4408L
tp412
a(g237
L4423L
tp413
a(g239
L5662L
tp414
a(g241
L5114L
tp415
a(g243
L14396L
tp416
a(g245
L5705L
tp417
a(g247
L5712L
tp418
a(g249
L5682L
tp419
a(g251
L33137L
tp420
a(g253
L4550L
tp421
a(g255
L6747L
tp422
a(g257
L15840L
tp423
a(g259
L6358L
tp424
a(g261
L5126L
tp425
a(g263
L28040L
tp426
a(g265
L4583L
tp427
a(g267
L4411L
tp428
a(g269
L10848L
tp429
a(g271
L4609L
tp430
a(g273
L2841L
tp431
a(g275
L21900L
tp432
a(g277
L201L
tp433
a(g279
L12918L
tp434
a(g281
L20770L
tp435
a(g283
L7683L
tp436
a(g285
L33512L
tp437
a(g287
L15852L
tp438
a(g289
L10192L
tp439
a(g291
L4412L
tp440
a(g293
L14288L
tp441
aaI638041
a.