(lp1
(lp2
(Vbiological_process
p3
I195769
tp4
a(Vcellular_component
p5
I65977
tp6
a(Vmolecular_function
p7
I54793
tp8
a(Vorganelle
p9
I17686
tp10
a(Vanatomical structure development
p11
I14475
tp12
a(Vtransport
p13
I10906
tp14
a(Vcellular nitrogen compound metabolic process
p15
I9078
tp16
a(Vsignal transduction
p17
I8905
tp18
a(Vprotein complex
p19
I7679
tp20
a(Vresponse to stress
p21
I7468
tp22
a(Vsmall molecule metabolic process
p23
I6783
tp24
a(Vion binding
p25
I6676
tp26
a(Vbiosynthetic process
p27
I6015
tp28
a(Vcellular protein modification process
p29
I5297
tp30
a(Vcatabolic process
p31
I4805
tp32
a(Vimmune system process
p33
I4077
tp34
a(Vcellular component assembly
p35
I3345
tp36
a(Vcytosol
p37
I3272
tp38
a(Vcell differentiation
p39
I3240
tp40
a(Venzyme binding
p41
I2940
tp42
a(Vlipid metabolic process
p43
I2917
tp44
a(Vplasma membrane
p45
I2487
tp46
a(Vtransmembrane transporter activity
p47
I2358
tp48
a(Vlocomotion
p49
I2354
tp50
a(Vnucleolus
p51
I2353
tp52
a(Vvesicle-mediated transport
p53
I2181
tp54
a(Vnucleus
p55
I2174
tp56
a(Vanatomical structure formation involved in morphogenesis
p57
I2080
tp58
a(VDNA binding
p59
I2011
tp60
a(VDNA metabolic process
p61
I2011
tp62
a(Vchromosome organization
p63
I1949
tp64
a(Vcarbohydrate metabolic process
p65
I1912
tp66
a(Vmacromolecular complex assembly
p67
I1895
tp68
a(Voxidoreductase activity
p69
I1837
tp70
a(Vcytoplasm
p71
I1822
tp72
a(Vhomeostatic process
p73
I1784
tp74
a(Vtransmembrane transport
p75
I1711
tp76
a(Vprotein maturation
p77
I1710
tp78
a(Vembryo development
p79
I1687
tp80
a(Vcell motility
p81
I1628
tp82
a(Vcytoskeletal protein binding
p83
I1540
tp84
a(Vprotein complex assembly
p85
I1536
tp86
a(Vneurological system process
p87
I1534
tp88
a(Vnucleobase-containing compound catabolic process
p89
I1514
tp90
a(Vcytoskeleton organization
p91
I1508
tp92
a(Vgrowth
p93
I1498
tp94
a(VRNA binding
p95
I1472
tp96
a(Vkinase activity
p97
I1462
tp98
a(Vcellular amino acid metabolic process
p99
I1403
tp100
a(Vsignal transducer activity
p101
I1276
tp102
a(Vmitochondrion
p103
I1243
tp104
a(Vcytoplasmic membrane-bounded vesicle
p105
I1210
tp106
a(VGolgi apparatus
p107
I1202
tp108
a(Vpeptidase activity
p109
I1118
tp110
a(Vcytoskeleton
p111
I1096
tp112
a(Vlipid binding
p113
I1089
tp114
a(Vcell adhesion
p115
I1063
tp116
a(Vcell death
p117
I1015
tp118
a(Venzyme regulator activity
p119
I1010
tp120
a(Vendoplasmic reticulum
p121
I1007
tp122
a(Vmembrane organization
p123
I984
tp124
a(Vligase activity
p125
I983
tp126
a(Vendosome
p127
I934
tp128
a(Vcell-cell signaling
p129
I915
tp130
a(Vcell proliferation
p131
I911
tp132
a(Vtranscription factor binding
p133
I880
tp134
a(Vmicrotubule organizing center
p135
I876
tp136
a(Vnucleoplasm
p137
I874
tp138
a(VATPase activity
p139
I839
tp140
a(Vprotein binding transcription factor activity
p141
I801
tp142
a(Vnucleic acid binding transcription factor activity
p143
I785
tp144
a(Vcell morphogenesis
p145
I779
tp146
a(Vsulfur compound metabolic process
p147
I721
tp148
a(Vstructural molecule activity
p149
I687
tp150
a(Vextracellular region
p151
I663
tp152
a(Vcofactor metabolic process
p153
I641
tp154
a(VmRNA processing
p155
I629
tp156
a(Vsymbiosis, encompassing mutualism through parasitism
p157
I615
tp158
a(Vvacuole
p159
I588
tp160
a(Vgeneration of precursor metabolites and energy
p161
I572
tp162
a(Vprotein targeting
p163
I569
tp164
a(Vtransferase activity, transferring acyl groups
p165
I563
tp166
a(Vextracellular space
p167
I527
tp168
a(Vphosphatase activity
p169
I517
tp170
a(Vextracellular matrix organization
p171
I503
tp172
a(Vreproduction
p173
I460
tp174
a(Vcell cycle
p175
I458
tp176
a(Vcilium
p177
I447
tp178
a(Vnucleocytoplasmic transport
p179
I423
tp180
a(Vcell junction organization
p181
I421
tp182
a(Vcell division
p183
I395
tp184
a(Vtransferase activity, transferring glycosyl groups
p185
I382
tp186
a(Vmethyltransferase activity
p187
I372
tp188
a(Vlyase activity
p189
I369
tp190
a(Vaging
p191
I363
tp192
a(Vhelicase activity
p193
I343
tp194
a(Vlysosome
p195
I339
tp196
a(Vprotein folding
p197
I338
tp198
a(Vnuclease activity
p199
I334
tp200
a(Vplastid
p201
I331
tp202
a(Vmitochondrion organization
p203
I327
tp204
a(Vdevelopmental maturation
p205
I309
tp206
a(Vcirculatory system process
p207
I301
tp208
a(Vchromosome
p209
I294
tp210
a(Vribonucleoprotein complex assembly
p211
I283
tp212
a(VGTPase activity
p213
I280
tp214
a(VmRNA binding
p215
I273
tp216
a(Vcytoskeleton-dependent intracellular transport
p217
I263
tp218
a(Vhistone binding
p219
I261
tp220
a(Vsecondary metabolic process
p221
I254
tp222
a(Visomerase activity
p223
I227
tp224
a(Vhydrolase activity, acting on carbon-nitrogen (but not peptide) bonds
p225
I221
tp226
a(Vexternal encapsulating structure
p227
I220
tp228
a(Vnuclear envelope
p229
I219
tp230
a(Vhydrolase activity, acting on glycosyl bonds
p231
I215
tp232
a(Vcell wall
p233
I214
tp234
a(VtRNA metabolic process
p235
I213
tp236
a(Vplasma membrane organization
p237
I211
tp238
a(Vmitosis
p239
I183
tp240
a(Vchromosome segregation
p241
I182
tp242
a(Vvacuolar transport
p243
I180
tp244
a(Vnucleotidyltransferase activity
p245
I178
tp246
a(Vproteinaceous extracellular matrix
p247
I170
tp248
a(Vsmall conjugating protein binding
p249
I168
tp250
a(Vprotein binding, bridging
p251
I165
tp252
a(Vperoxisome
p253
I155
tp254
a(Vtranslation factor activity, nucleic acid binding
p255
I151
tp256
a(Vcell wall organization or biogenesis
p257
I146
tp258
a(Vunfolded protein binding
p259
I140
tp260
a(Vprotein transporter activity
p261
I131
tp262
a(Vtranslation
p263
I128
tp264
a(Vlipid particle
p265
I116
tp266
a(Vstructural constituent of ribosome
p267
I114
tp268
a(Vribosome
p269
I107
tp270
a(Vtransferase activity, transferring alkyl or aryl (other than methyl) groups
p271
I107
tp272
a(Vintracellular
p273
I104
tp274
a(Vnuclear chromosome
p275
I82
tp276
a(Vpigmentation
p277
I63
tp278
a(Vribosome biogenesis
p279
I53
tp280
a(VrRNA binding
p281
I50
tp282
a(Vthylakoid
p283
I30
tp284
a(Vnitrogen cycle metabolic process
p285
I25
tp286
a(Vtransposition
p287
I11
tp288
a(Vcell
p289
I7
tp290
a(Vphotosynthesis
p291
I6
tp292
a(VRNA modification guide activity
p293
I2
tp294
aa(lp295
(g3
L6372L
tp296
a(g5
L4365L
tp297
a(g7
L2787L
tp298
a(g9
L21685L
tp299
a(g11
L26888L
tp300
a(g13
L5491L
tp301
a(g15
L18268L
tp302
a(g17
L5801L
tp303
a(g19
L21693L
tp304
a(g21
L5613L
tp305
a(g23
L22689L
tp306
a(g25
L21630L
tp307
a(g27
L7192L
tp308
a(g29
L5168L
tp309
a(g31
L7190L
tp310
a(g33
L1781L
tp311
a(g35
L13633L
tp312
a(g37
L4599L
tp313
a(g39
L13924L
tp314
a(g41
L12968L
tp315
a(g43
L5326L
tp316
a(g45
L4644L
tp317
a(g47
L13690L
tp318
a(g49
L20507L
tp319
a(g51
L4507L
tp320
a(g53
L10381L
tp321
a(g55
L4422L
tp322
a(g57
L26682L
tp323
a(g59
L2790L
tp324
a(g61
L4995L
tp325
a(g63
L28228L
tp326
a(g65
L4725L
tp327
a(g67
L31581L
tp328
a(g69
L10598L
tp329
a(g71
L4514L
tp330
a(g73
L21086L
tp331
a(g75
L29927L
tp332
a(g77
L28535L
tp333
a(g79
L7881L
tp334
a(g81
L26901L
tp335
a(g83
L6320L
tp336
a(g85
L5165L
tp337
a(g87
L27837L
tp338
a(g89
L18282L
tp339
a(g91
L5663L
tp340
a(g93
L20503L
tp341
a(g95
L2830L
tp342
a(g97
L10466L
tp343
a(g99
L5218L
tp344
a(g101
L3827L
tp345
a(g103
L4515L
tp346
a(g105
L10229L
tp347
a(g107
L4567L
tp348
a(g109
L6448L
tp349
a(g111
L4621L
tp350
a(g113
L6500L
tp351
a(g115
L5791L
tp352
a(g117
L6436L
tp353
a(g119
L14001L
tp354
a(g121
L4556L
tp355
a(g123
L30984L
tp356
a(g125
L10950L
tp357
a(g127
L4542L
tp358
a(g129
L5896L
tp359
a(g131
L6494L
tp360
a(g133
L6357L
tp361
a(g135
L4586L
tp362
a(g137
L4439L
tp363
a(g139
L10963L
tp364
a(g141
L677L
tp365
a(g143
L759L
tp366
a(g145
L594L
tp367
a(g147
L5471L
tp368
a(g149
L4118L
tp369
a(g151
L4366L
tp370
a(g153
L28144L
tp371
a(g155
L5112L
tp372
a(g157
L22810L
tp373
a(g159
L4546L
tp374
a(g161
L4838L
tp375
a(g163
L5302L
tp376
a(g165
L10829L
tp377
a(g167
L4405L
tp378
a(g169
L10870L
tp379
a(g171
L13967L
tp380
a(g173
L3L
tp381
a(g175
L5695L
tp382
a(g177
L4684L
tp383
a(g179
L5582L
tp384
a(g181
L17965L
tp385
a(g183
L28251L
tp386
a(g185
L10840L
tp387
a(g187
L6389L
tp388
a(g189
L10905L
tp389
a(g191
L6169L
tp390
a(g193
L3404L
tp391
a(g195
L4538L
tp392
a(g197
L5161L
tp393
a(g199
L3518L
tp394
a(g201
L7644L
tp395
a(g203
L5658L
tp396
a(g205
L13274L
tp397
a(g207
L2364L
tp398
a(g209
L4475L
tp399
a(g211
L13644L
tp400
a(g213
L2991L
tp401
a(g215
L2835L
tp402
a(g217
L14427L
tp403
a(g219
L20900L
tp404
a(g221
L12827L
tp405
a(g223
L10929L
tp406
a(g225
L10886L
tp407
a(g227
L14078L
tp408
a(g229
L4423L
tp409
a(g231
L10876L
tp410
a(g233
L4408L
tp411
a(g235
L5114L
tp412
a(g237
L5662L
tp413
a(g239
L5712L
tp414
a(g241
L5705L
tp415
a(g243
L5682L
tp416
a(g245
L10860L
tp417
a(g247
L4368L
tp418
a(g249
L15840L
tp419
a(g251
L14396L
tp420
a(g253
L4550L
tp421
a(g255
L6358L
tp422
a(g257
L33137L
tp423
a(g259
L28040L
tp424
a(g261
L6747L
tp425
a(g263
L5126L
tp426
a(g265
L4583L
tp427
a(g267
L2841L
tp428
a(g269
L4609L
tp429
a(g271
L10848L
tp430
a(g273
L4411L
tp431
a(g275
L201L
tp432
a(g277
L21900L
tp433
a(g279
L20770L
tp434
a(g281
L12918L
tp435
a(g283
L7683L
tp436
a(g285
L33512L
tp437
a(g287
L15852L
tp438
a(g289
L4412L
tp439
a(g291
L10192L
tp440
a(g293
L14288L
tp441
aaI537513
a.