(lp1
(lp2
(Vbiological_process
p3
I275838
tp4
a(Vcellular_component
p5
I92497
tp6
a(Vmolecular_function
p7
I77671
tp8
a(Vorganelle
p9
I24221
tp10
a(Vanatomical structure development
p11
I20610
tp12
a(Vtransport
p13
I15573
tp14
a(Vsignal transduction
p15
I12865
tp16
a(Vcellular nitrogen compound metabolic process
p17
I12149
tp18
a(Vprotein complex
p19
I10740
tp20
a(Vresponse to stress
p21
I10290
tp22
a(Vion binding
p23
I9626
tp24
a(Vsmall molecule metabolic process
p25
I9311
tp26
a(Vbiosynthetic process
p27
I8076
tp28
a(Vcellular protein modification process
p29
I7212
tp30
a(Vcatabolic process
p31
I6422
tp32
a(Vimmune system process
p33
I5714
tp34
a(Vcellular component assembly
p35
I4771
tp36
a(Vcell differentiation
p37
I4764
tp38
a(Vcytosol
p39
I4535
tp40
a(Venzyme binding
p41
I4295
tp42
a(Vlipid metabolic process
p43
I4163
tp44
a(Vplasma membrane
p45
I3497
tp46
a(Vlocomotion
p47
I3491
tp48
a(Vtransmembrane transporter activity
p49
I3288
tp50
a(Vnucleolus
p51
I3227
tp52
a(Vvesicle-mediated transport
p53
I3192
tp54
a(Vanatomical structure formation involved in morphogenesis
p55
I3169
tp56
a(Vnucleus
p57
I3021
tp58
a(VDNA binding
p59
I2909
tp60
a(VDNA metabolic process
p61
I2794
tp62
a(Vmacromolecular complex assembly
p63
I2735
tp64
a(Vhomeostatic process
p65
I2688
tp66
a(Vcarbohydrate metabolic process
p67
I2683
tp68
a(Vchromosome organization
p69
I2631
tp70
a(Voxidoreductase activity
p71
I2533
tp72
a(Vcell motility
p73
I2525
tp74
a(Vcytoplasm
p75
I2507
tp76
a(Vtransmembrane transport
p77
I2452
tp78
a(Vneurological system process
p79
I2380
tp80
a(Vprotein maturation
p81
I2293
tp82
a(Vcytoskeletal protein binding
p83
I2246
tp84
a(Vembryo development
p85
I2240
tp86
a(Vprotein complex assembly
p87
I2189
tp88
a(Vcytoskeleton organization
p89
I2168
tp90
a(Vgrowth
p91
I2138
tp92
a(Vnucleobase-containing compound catabolic process
p93
I2096
tp94
a(Vsignal transducer activity
p95
I2035
tp96
a(Vkinase activity
p97
I1998
tp98
a(VRNA binding
p99
I1866
tp100
a(Vcellular amino acid metabolic process
p101
I1801
tp102
a(Vcytoplasmic membrane-bounded vesicle
p103
I1729
tp104
a(Vmitochondrion
p105
I1721
tp106
a(VGolgi apparatus
p107
I1675
tp108
a(Vlipid binding
p109
I1611
tp110
a(Vcell adhesion
p111
I1563
tp112
a(Vcytoskeleton
p113
I1525
tp114
a(Vmembrane organization
p115
I1503
tp116
a(Vpeptidase activity
p117
I1484
tp118
a(Venzyme regulator activity
p119
I1477
tp120
a(Vendoplasmic reticulum
p121
I1421
tp122
a(Vcell-cell signaling
p123
I1363
tp124
a(Vendosome
p125
I1327
tp126
a(Vcell death
p127
I1312
tp128
a(Vligase activity
p129
I1304
tp130
a(Vcell proliferation
p131
I1286
tp132
a(Vtranscription factor binding
p133
I1273
tp134
a(VATPase activity
p135
I1268
tp136
a(Vprotein binding transcription factor activity
p137
I1186
tp138
a(Vmicrotubule organizing center
p139
I1182
tp140
a(Vnucleoplasm
p141
I1172
tp142
a(Vcell morphogenesis
p143
I1121
tp144
a(Vnucleic acid binding transcription factor activity
p145
I1098
tp146
a(Vstructural molecule activity
p147
I1054
tp148
a(Vsulfur compound metabolic process
p149
I1026
tp150
a(Vextracellular region
p151
I933
tp152
a(Vcofactor metabolic process
p153
I849
tp154
a(Vextracellular space
p155
I839
tp156
a(Vextracellular matrix organization
p157
I823
tp158
a(Vsymbiosis, encompassing mutualism through parasitism
p159
I818
tp160
a(VmRNA processing
p161
I814
tp162
a(Vprotein targeting
p163
I798
tp164
a(Vgeneration of precursor metabolites and energy
p165
I796
tp166
a(Vtransferase activity, transferring acyl groups
p167
I793
tp168
a(Vvacuole
p169
I744
tp170
a(Vphosphatase activity
p171
I694
tp172
a(Vcilium
p173
I689
tp174
a(Vcell junction organization
p175
I585
tp176
a(Vnucleocytoplasmic transport
p177
I576
tp178
a(Vcell cycle
p179
I564
tp180
a(Vtransferase activity, transferring glycosyl groups
p181
I562
tp182
a(Vreproduction
p183
I561
tp184
a(Vaging
p185
I556
tp186
a(Vlyase activity
p187
I528
tp188
a(Vcell division
p189
I484
tp190
a(Vhelicase activity
p191
I473
tp192
a(Vmethyltransferase activity
p193
I470
tp194
a(Vmitochondrion organization
p195
I469
tp196
a(Vcirculatory system process
p197
I460
tp198
a(Vplastid
p199
I456
tp200
a(Vdevelopmental maturation
p201
I456
tp202
a(Vlysosome
p203
I448
tp204
a(Vprotein folding
p205
I445
tp206
a(Vribonucleoprotein complex assembly
p207
I431
tp208
a(Vnuclease activity
p209
I418
tp210
a(Vcytoskeleton-dependent intracellular transport
p211
I403
tp212
a(VGTPase activity
p213
I367
tp214
a(Vhistone binding
p215
I359
tp216
a(Vchromosome
p217
I356
tp218
a(VmRNA binding
p219
I351
tp220
a(Vsecondary metabolic process
p221
I338
tp222
a(Visomerase activity
p223
I320
tp224
a(Vhydrolase activity, acting on glycosyl bonds
p225
I316
tp226
a(Vnuclear envelope
p227
I316
tp228
a(Vplasma membrane organization
p229
I306
tp230
a(Vproteinaceous extracellular matrix
p231
I305
tp232
a(Vhydrolase activity, acting on carbon-nitrogen (but not peptide) bonds
p233
I290
tp234
a(Vexternal encapsulating structure
p235
I280
tp236
a(Vcell wall
p237
I271
tp238
a(Vprotein binding, bridging
p239
I253
tp240
a(VtRNA metabolic process
p241
I252
tp242
a(Vnucleotidyltransferase activity
p243
I252
tp244
a(Vvacuolar transport
p245
I246
tp246
a(Vchromosome segregation
p247
I239
tp248
a(Vsmall conjugating protein binding
p249
I232
tp250
a(Vmitosis
p251
I226
tp252
a(Vperoxisome
p253
I222
tp254
a(Vcell wall organization or biogenesis
p255
I201
tp256
a(Vtranslation factor activity, nucleic acid binding
p257
I199
tp258
a(Vunfolded protein binding
p259
I190
tp260
a(Vprotein transporter activity
p261
I187
tp262
a(Vlipid particle
p263
I168
tp264
a(Vstructural constituent of ribosome
p265
I158
tp266
a(Vtranslation
p267
I156
tp268
a(Vribosome
p269
I136
tp270
a(Vintracellular
p271
I134
tp272
a(Vtransferase activity, transferring alkyl or aryl (other than methyl) groups
p273
I127
tp274
a(Vnuclear chromosome
p275
I103
tp276
a(Vpigmentation
p277
I88
tp278
a(Vribosome biogenesis
p279
I67
tp280
a(VrRNA binding
p281
I63
tp282
a(Vnitrogen cycle metabolic process
p283
I44
tp284
a(Vthylakoid
p285
I39
tp286
a(Vcell
p287
I13
tp288
a(Vtransposition
p289
I12
tp290
a(Vphotosynthesis
p291
I10
tp292
a(VRNA modification guide activity
p293
I2
tp294
aa(lp295
(g3
L6372L
tp296
a(g5
L4365L
tp297
a(g7
L2787L
tp298
a(g9
L21685L
tp299
a(g11
L26888L
tp300
a(g13
L5491L
tp301
a(g15
L5801L
tp302
a(g17
L18268L
tp303
a(g19
L21693L
tp304
a(g21
L5613L
tp305
a(g23
L21630L
tp306
a(g25
L22689L
tp307
a(g27
L7192L
tp308
a(g29
L5168L
tp309
a(g31
L7190L
tp310
a(g33
L1781L
tp311
a(g35
L13633L
tp312
a(g37
L13924L
tp313
a(g39
L4599L
tp314
a(g41
L12968L
tp315
a(g43
L5326L
tp316
a(g45
L4644L
tp317
a(g47
L20507L
tp318
a(g49
L13690L
tp319
a(g51
L4507L
tp320
a(g53
L10381L
tp321
a(g55
L26682L
tp322
a(g57
L4422L
tp323
a(g59
L2790L
tp324
a(g61
L4995L
tp325
a(g63
L31581L
tp326
a(g65
L21086L
tp327
a(g67
L4725L
tp328
a(g69
L28228L
tp329
a(g71
L10598L
tp330
a(g73
L26901L
tp331
a(g75
L4514L
tp332
a(g77
L29927L
tp333
a(g79
L27837L
tp334
a(g81
L28535L
tp335
a(g83
L6320L
tp336
a(g85
L7881L
tp337
a(g87
L5165L
tp338
a(g89
L5663L
tp339
a(g91
L20503L
tp340
a(g93
L18282L
tp341
a(g95
L3827L
tp342
a(g97
L10466L
tp343
a(g99
L2830L
tp344
a(g101
L5218L
tp345
a(g103
L10229L
tp346
a(g105
L4515L
tp347
a(g107
L4567L
tp348
a(g109
L6500L
tp349
a(g111
L5791L
tp350
a(g113
L4621L
tp351
a(g115
L30984L
tp352
a(g117
L6448L
tp353
a(g119
L14001L
tp354
a(g121
L4556L
tp355
a(g123
L5896L
tp356
a(g125
L4542L
tp357
a(g127
L6436L
tp358
a(g129
L10950L
tp359
a(g131
L6494L
tp360
a(g133
L6357L
tp361
a(g135
L10963L
tp362
a(g137
L677L
tp363
a(g139
L4586L
tp364
a(g141
L4439L
tp365
a(g143
L594L
tp366
a(g145
L759L
tp367
a(g147
L4118L
tp368
a(g149
L5471L
tp369
a(g151
L4366L
tp370
a(g153
L28144L
tp371
a(g155
L4405L
tp372
a(g157
L13967L
tp373
a(g159
L22810L
tp374
a(g161
L5112L
tp375
a(g163
L5302L
tp376
a(g165
L4838L
tp377
a(g167
L10829L
tp378
a(g169
L4546L
tp379
a(g171
L10870L
tp380
a(g173
L4684L
tp381
a(g175
L17965L
tp382
a(g177
L5582L
tp383
a(g179
L5695L
tp384
a(g181
L10840L
tp385
a(g183
L3L
tp386
a(g185
L6169L
tp387
a(g187
L10905L
tp388
a(g189
L28251L
tp389
a(g191
L3404L
tp390
a(g193
L6389L
tp391
a(g195
L5658L
tp392
a(g197
L2364L
tp393
a(g199
L7644L
tp394
a(g201
L13274L
tp395
a(g203
L4538L
tp396
a(g205
L5161L
tp397
a(g207
L13644L
tp398
a(g209
L3518L
tp399
a(g211
L14427L
tp400
a(g213
L2991L
tp401
a(g215
L20900L
tp402
a(g217
L4475L
tp403
a(g219
L2835L
tp404
a(g221
L12827L
tp405
a(g223
L10929L
tp406
a(g225
L10876L
tp407
a(g227
L4423L
tp408
a(g229
L5662L
tp409
a(g231
L4368L
tp410
a(g233
L10886L
tp411
a(g235
L14078L
tp412
a(g237
L4408L
tp413
a(g239
L14396L
tp414
a(g241
L5114L
tp415
a(g243
L10860L
tp416
a(g245
L5682L
tp417
a(g247
L5705L
tp418
a(g249
L15840L
tp419
a(g251
L5712L
tp420
a(g253
L4550L
tp421
a(g255
L33137L
tp422
a(g257
L6358L
tp423
a(g259
L28040L
tp424
a(g261
L6747L
tp425
a(g263
L4583L
tp426
a(g265
L2841L
tp427
a(g267
L5126L
tp428
a(g269
L4609L
tp429
a(g271
L4411L
tp430
a(g273
L10848L
tp431
a(g275
L201L
tp432
a(g277
L21900L
tp433
a(g279
L20770L
tp434
a(g281
L12918L
tp435
a(g283
L33512L
tp436
a(g285
L7683L
tp437
a(g287
L4412L
tp438
a(g289
L15852L
tp439
a(g291
L10192L
tp440
a(g293
L14288L
tp441
aaI755945
a.