(lp1
(lp2
(Vbiological_process
p3
I312614
tp4
a(Vcellular_component
p5
I103293
tp6
a(Vmolecular_function
p7
I85607
tp8
a(Vorganelle
p9
I27356
tp10
a(Vanatomical structure development
p11
I23700
tp12
a(Vtransport
p13
I17365
tp14
a(Vsignal transduction
p15
I14546
tp16
a(Vcellular nitrogen compound metabolic process
p17
I13245
tp18
a(Vprotein complex
p19
I11659
tp20
a(Vresponse to stress
p21
I11437
tp22
a(Vion binding
p23
I10356
tp24
a(Vsmall molecule metabolic process
p25
I9833
tp26
a(Vbiosynthetic process
p27
I8799
tp28
a(Vcellular protein modification process
p29
I8109
tp30
a(Vcatabolic process
p31
I6859
tp32
a(Vimmune system process
p33
I6604
tp34
a(Vcell differentiation
p35
I5606
tp36
a(Vcellular component assembly
p37
I5091
tp38
a(Venzyme binding
p39
I4749
tp40
a(Vcytosol
p41
I4737
tp42
a(Vlipid metabolic process
p43
I4648
tp44
a(Vlocomotion
p45
I3889
tp46
a(Vplasma membrane
p47
I3831
tp48
a(Vtransmembrane transporter activity
p49
I3771
tp50
a(Vvesicle-mediated transport
p51
I3534
tp52
a(Vnucleolus
p53
I3532
tp54
a(Vanatomical structure formation involved in morphogenesis
p55
I3470
tp56
a(Vnucleus
p57
I3440
tp58
a(VDNA binding
p59
I3133
tp60
a(VDNA metabolic process
p61
I3012
tp62
a(Vhomeostatic process
p63
I3012
tp64
a(Vcytoplasm
p65
I2940
tp66
a(Vchromosome organization
p67
I2838
tp68
a(Vmacromolecular complex assembly
p69
I2827
tp70
a(Voxidoreductase activity
p71
I2803
tp72
a(Vtransmembrane transport
p73
I2787
tp74
a(Vcell motility
p75
I2736
tp76
a(Vcarbohydrate metabolic process
p77
I2707
tp78
a(Vneurological system process
p79
I2678
tp80
a(Vprotein maturation
p81
I2584
tp82
a(Vcytoskeletal protein binding
p83
I2518
tp84
a(Vembryo development
p85
I2404
tp86
a(Vgrowth
p87
I2339
tp88
a(Vprotein complex assembly
p89
I2312
tp90
a(Vsignal transducer activity
p91
I2297
tp92
a(Vnucleobase-containing compound catabolic process
p93
I2255
tp94
a(Vkinase activity
p95
I2255
tp96
a(Vcytoskeleton organization
p97
I2233
tp98
a(VRNA binding
p99
I1986
tp100
a(Vmitochondrion
p101
I1885
tp102
a(Vcytoplasmic membrane-bounded vesicle
p103
I1874
tp104
a(Vlipid binding
p105
I1859
tp106
a(VGolgi apparatus
p107
I1839
tp108
a(Vcellular amino acid metabolic process
p109
I1779
tp110
a(Vcell adhesion
p111
I1752
tp112
a(Vcytoskeleton
p113
I1741
tp114
a(Venzyme regulator activity
p115
I1613
tp116
a(Vendoplasmic reticulum
p117
I1595
tp118
a(Vpeptidase activity
p119
I1590
tp120
a(Vcell-cell signaling
p121
I1589
tp122
a(Vmembrane organization
p123
I1584
tp124
a(Vendosome
p125
I1532
tp126
a(Vligase activity
p127
I1510
tp128
a(Vcell death
p129
I1505
tp130
a(Vcell proliferation
p131
I1501
tp132
a(Vtranscription factor binding
p133
I1384
tp134
a(VATPase activity
p135
I1308
tp136
a(Vprotein binding transcription factor activity
p137
I1307
tp138
a(Vmicrotubule organizing center
p139
I1294
tp140
a(Vnucleoplasm
p141
I1266
tp142
a(Vnucleic acid binding transcription factor activity
p143
I1248
tp144
a(Vcell morphogenesis
p145
I1238
tp146
a(Vextracellular region
p147
I1028
tp148
a(Vsulfur compound metabolic process
p149
I1003
tp150
a(Vstructural molecule activity
p151
I983
tp152
a(Vextracellular space
p153
I910
tp154
a(Vsymbiosis, encompassing mutualism through parasitism
p155
I896
tp156
a(Vprotein targeting
p157
I873
tp158
a(Vcofactor metabolic process
p159
I872
tp160
a(VmRNA processing
p161
I851
tp162
a(Vvacuole
p163
I851
tp164
a(Vtransferase activity, transferring acyl groups
p165
I851
tp166
a(Vextracellular matrix organization
p167
I839
tp168
a(Vphosphatase activity
p169
I819
tp170
a(Vgeneration of precursor metabolites and energy
p171
I808
tp172
a(Vcilium
p173
I762
tp174
a(Vcell cycle
p175
I688
tp176
a(Vcell junction organization
p177
I636
tp178
a(Vtransferase activity, transferring glycosyl groups
p179
I630
tp180
a(Vnucleocytoplasmic transport
p181
I616
tp182
a(Vreproduction
p183
I613
tp184
a(Vaging
p185
I572
tp186
a(Vcell division
p187
I559
tp188
a(Vdevelopmental maturation
p189
I537
tp190
a(Vcirculatory system process
p191
I528
tp192
a(Vmethyltransferase activity
p193
I520
tp194
a(Vlysosome
p195
I519
tp196
a(Vlyase activity
p197
I516
tp198
a(Vhelicase activity
p199
I514
tp200
a(Vmitochondrion organization
p201
I513
tp202
a(Vnuclease activity
p203
I483
tp204
a(Vplastid
p205
I469
tp206
a(Vprotein folding
p207
I447
tp208
a(Vcytoskeleton-dependent intracellular transport
p209
I439
tp210
a(Vribonucleoprotein complex assembly
p211
I408
tp212
a(VGTPase activity
p213
I397
tp214
a(Vchromosome
p215
I397
tp216
a(Vhistone binding
p217
I395
tp218
a(VmRNA binding
p219
I357
tp220
a(Vsecondary metabolic process
p221
I353
tp222
a(Vplasma membrane organization
p223
I344
tp224
a(Vhydrolase activity, acting on glycosyl bonds
p225
I342
tp226
a(Vnuclear envelope
p227
I341
tp228
a(Vproteinaceous extracellular matrix
p229
I336
tp230
a(Visomerase activity
p231
I318
tp232
a(Vhydrolase activity, acting on carbon-nitrogen (but not peptide) bonds
p233
I312
tp234
a(Vvacuolar transport
p235
I283
tp236
a(Vexternal encapsulating structure
p237
I277
tp238
a(Vprotein binding, bridging
p239
I275
tp240
a(Vmitosis
p241
I270
tp242
a(Vcell wall
p243
I267
tp244
a(Vnucleotidyltransferase activity
p245
I255
tp246
a(Vchromosome segregation
p247
I252
tp248
a(Vperoxisome
p249
I244
tp250
a(VtRNA metabolic process
p251
I238
tp252
a(Vsmall conjugating protein binding
p253
I233
tp254
a(Vcell wall organization or biogenesis
p255
I214
tp256
a(Vtranslation factor activity, nucleic acid binding
p257
I195
tp258
a(Vprotein transporter activity
p259
I189
tp260
a(Vunfolded protein binding
p261
I179
tp262
a(Vtranslation
p263
I169
tp264
a(Vlipid particle
p265
I169
tp266
a(Vintracellular
p267
I162
tp268
a(Vribosome
p269
I154
tp270
a(Vtransferase activity, transferring alkyl or aryl (other than methyl) groups
p271
I142
tp272
a(Vstructural constituent of ribosome
p273
I139
tp274
a(Vnuclear chromosome
p275
I109
tp276
a(Vpigmentation
p277
I104
tp278
a(Vribosome biogenesis
p279
I74
tp280
a(VrRNA binding
p281
I66
tp282
a(Vthylakoid
p283
I44
tp284
a(Vnitrogen cycle metabolic process
p285
I41
tp286
a(Vtransposition
p287
I16
tp288
a(Vphotosynthesis
p289
I15
tp290
a(Vcell
p291
I10
tp292
a(VRNA modification guide activity
p293
I2
tp294
aa(lp295
(g3
L6372L
tp296
a(g5
L4365L
tp297
a(g7
L2787L
tp298
a(g9
L21685L
tp299
a(g11
L26888L
tp300
a(g13
L5491L
tp301
a(g15
L5801L
tp302
a(g17
L18268L
tp303
a(g19
L21693L
tp304
a(g21
L5613L
tp305
a(g23
L21630L
tp306
a(g25
L22689L
tp307
a(g27
L7192L
tp308
a(g29
L5168L
tp309
a(g31
L7190L
tp310
a(g33
L1781L
tp311
a(g35
L13924L
tp312
a(g37
L13633L
tp313
a(g39
L12968L
tp314
a(g41
L4599L
tp315
a(g43
L5326L
tp316
a(g45
L20507L
tp317
a(g47
L4644L
tp318
a(g49
L13690L
tp319
a(g51
L10381L
tp320
a(g53
L4507L
tp321
a(g55
L26682L
tp322
a(g57
L4422L
tp323
a(g59
L2790L
tp324
a(g61
L4995L
tp325
a(g63
L21086L
tp326
a(g65
L4514L
tp327
a(g67
L28228L
tp328
a(g69
L31581L
tp329
a(g71
L10598L
tp330
a(g73
L29927L
tp331
a(g75
L26901L
tp332
a(g77
L4725L
tp333
a(g79
L27837L
tp334
a(g81
L28535L
tp335
a(g83
L6320L
tp336
a(g85
L7881L
tp337
a(g87
L20503L
tp338
a(g89
L5165L
tp339
a(g91
L3827L
tp340
a(g93
L18282L
tp341
a(g95
L10466L
tp342
a(g97
L5663L
tp343
a(g99
L2830L
tp344
a(g101
L4515L
tp345
a(g103
L10229L
tp346
a(g105
L6500L
tp347
a(g107
L4567L
tp348
a(g109
L5218L
tp349
a(g111
L5791L
tp350
a(g113
L4621L
tp351
a(g115
L14001L
tp352
a(g117
L4556L
tp353
a(g119
L6448L
tp354
a(g121
L5896L
tp355
a(g123
L30984L
tp356
a(g125
L4542L
tp357
a(g127
L10950L
tp358
a(g129
L6436L
tp359
a(g131
L6494L
tp360
a(g133
L6357L
tp361
a(g135
L10963L
tp362
a(g137
L677L
tp363
a(g139
L4586L
tp364
a(g141
L4439L
tp365
a(g143
L759L
tp366
a(g145
L594L
tp367
a(g147
L4366L
tp368
a(g149
L5471L
tp369
a(g151
L4118L
tp370
a(g153
L4405L
tp371
a(g155
L22810L
tp372
a(g157
L5302L
tp373
a(g159
L28144L
tp374
a(g161
L5112L
tp375
a(g163
L4546L
tp376
a(g165
L10829L
tp377
a(g167
L13967L
tp378
a(g169
L10870L
tp379
a(g171
L4838L
tp380
a(g173
L4684L
tp381
a(g175
L5695L
tp382
a(g177
L17965L
tp383
a(g179
L10840L
tp384
a(g181
L5582L
tp385
a(g183
L3L
tp386
a(g185
L6169L
tp387
a(g187
L28251L
tp388
a(g189
L13274L
tp389
a(g191
L2364L
tp390
a(g193
L6389L
tp391
a(g195
L4538L
tp392
a(g197
L10905L
tp393
a(g199
L3404L
tp394
a(g201
L5658L
tp395
a(g203
L3518L
tp396
a(g205
L7644L
tp397
a(g207
L5161L
tp398
a(g209
L14427L
tp399
a(g211
L13644L
tp400
a(g213
L2991L
tp401
a(g215
L4475L
tp402
a(g217
L20900L
tp403
a(g219
L2835L
tp404
a(g221
L12827L
tp405
a(g223
L5662L
tp406
a(g225
L10876L
tp407
a(g227
L4423L
tp408
a(g229
L4368L
tp409
a(g231
L10929L
tp410
a(g233
L10886L
tp411
a(g235
L5682L
tp412
a(g237
L14078L
tp413
a(g239
L14396L
tp414
a(g241
L5712L
tp415
a(g243
L4408L
tp416
a(g245
L10860L
tp417
a(g247
L5705L
tp418
a(g249
L4550L
tp419
a(g251
L5114L
tp420
a(g253
L15840L
tp421
a(g255
L33137L
tp422
a(g257
L6358L
tp423
a(g259
L6747L
tp424
a(g261
L28040L
tp425
a(g263
L5126L
tp426
a(g265
L4583L
tp427
a(g267
L4411L
tp428
a(g269
L4609L
tp429
a(g271
L10848L
tp430
a(g273
L2841L
tp431
a(g275
L201L
tp432
a(g277
L21900L
tp433
a(g279
L20770L
tp434
a(g281
L12918L
tp435
a(g283
L7683L
tp436
a(g285
L33512L
tp437
a(g287
L15852L
tp438
a(g289
L10192L
tp439
a(g291
L4412L
tp440
a(g293
L14288L
tp441
aaI843361
a.