(lp1
(lp2
(Vbiological_process
p3
I326385
tp4
a(Vcellular_component
p5
I110168
tp6
a(Vmolecular_function
p7
I91825
tp8
a(Vorganelle
p9
I29307
tp10
a(Vanatomical structure development
p11
I24309
tp12
a(Vtransport
p13
I18166
tp14
a(Vsignal transduction
p15
I15024
tp16
a(Vcellular nitrogen compound metabolic process
p17
I14678
tp18
a(Vprotein complex
p19
I12710
tp20
a(Vresponse to stress
p21
I12193
tp22
a(Vion binding
p23
I11477
tp24
a(Vsmall molecule metabolic process
p25
I10857
tp26
a(Vbiosynthetic process
p27
I9706
tp28
a(Vcellular protein modification process
p29
I8517
tp30
a(Vcatabolic process
p31
I7606
tp32
a(Vimmune system process
p33
I6580
tp34
a(Vcell differentiation
p35
I5722
tp36
a(Vcellular component assembly
p37
I5636
tp38
a(Vcytosol
p39
I5375
tp40
a(Venzyme binding
p41
I5000
tp42
a(Vlipid metabolic process
p43
I4978
tp44
a(Vplasma membrane
p45
I4090
tp46
a(Vlocomotion
p47
I4083
tp48
a(Vnucleolus
p49
I3976
tp50
a(Vvesicle-mediated transport
p51
I3846
tp52
a(Vtransmembrane transporter activity
p53
I3759
tp54
a(Vanatomical structure formation involved in morphogenesis
p55
I3695
tp56
a(Vnucleus
p57
I3583
tp58
a(VDNA binding
p59
I3382
tp60
a(VDNA metabolic process
p61
I3370
tp62
a(Vchromosome organization
p63
I3198
tp64
a(Vhomeostatic process
p65
I3189
tp66
a(Vmacromolecular complex assembly
p67
I3115
tp68
a(Voxidoreductase activity
p69
I3081
tp70
a(Vcytoplasm
p71
I3036
tp72
a(Vcarbohydrate metabolic process
p73
I2937
tp74
a(Vcell motility
p75
I2915
tp76
a(Vneurological system process
p77
I2840
tp78
a(Vtransmembrane transport
p79
I2767
tp80
a(Vcytoskeletal protein binding
p81
I2766
tp82
a(Vembryo development
p83
I2654
tp84
a(Vprotein maturation
p85
I2654
tp86
a(Vcytoskeleton organization
p87
I2571
tp88
a(Vnucleobase-containing compound catabolic process
p89
I2548
tp90
a(Vprotein complex assembly
p91
I2509
tp92
a(Vgrowth
p93
I2494
tp94
a(Vsignal transducer activity
p95
I2462
tp96
a(Vkinase activity
p97
I2389
tp98
a(VRNA binding
p99
I2257
tp100
a(Vlipid binding
p101
I2073
tp102
a(Vcytoplasmic membrane-bounded vesicle
p103
I2056
tp104
a(Vmitochondrion
p105
I2053
tp106
a(Vcellular amino acid metabolic process
p107
I2052
tp108
a(VGolgi apparatus
p109
I2036
tp110
a(Vcytoskeleton
p111
I1874
tp112
a(Vcell adhesion
p113
I1808
tp114
a(Vpeptidase activity
p115
I1725
tp116
a(Vendoplasmic reticulum
p117
I1723
tp118
a(Vmembrane organization
p119
I1714
tp120
a(Venzyme regulator activity
p121
I1713
tp122
a(Vcell-cell signaling
p123
I1644
tp124
a(Vendosome
p125
I1623
tp126
a(Vcell death
p127
I1614
tp128
a(Vligase activity
p129
I1521
tp130
a(Vcell proliferation
p131
I1519
tp132
a(Vtranscription factor binding
p133
I1467
tp134
a(Vmicrotubule organizing center
p135
I1459
tp136
a(Vnucleoplasm
p137
I1435
tp138
a(VATPase activity
p139
I1431
tp140
a(Vprotein binding transcription factor activity
p141
I1391
tp142
a(Vnucleic acid binding transcription factor activity
p143
I1358
tp144
a(Vcell morphogenesis
p145
I1272
tp146
a(Vstructural molecule activity
p147
I1236
tp148
a(Vsulfur compound metabolic process
p149
I1180
tp150
a(Vextracellular region
p151
I1087
tp152
a(Vprotein targeting
p153
I1036
tp154
a(Vcofactor metabolic process
p155
I988
tp156
a(Vextracellular space
p157
I974
tp158
a(VmRNA processing
p159
I969
tp160
a(Vtransferase activity, transferring acyl groups
p161
I958
tp162
a(Vextracellular matrix organization
p163
I943
tp164
a(Vsymbiosis, encompassing mutualism through parasitism
p165
I939
tp166
a(Vgeneration of precursor metabolites and energy
p167
I912
tp168
a(Vvacuole
p169
I892
tp170
a(Vphosphatase activity
p171
I818
tp172
a(Vcilium
p173
I814
tp174
a(Vcell cycle
p175
I715
tp176
a(Vcell junction organization
p177
I693
tp178
a(Vreproduction
p179
I679
tp180
a(Vnucleocytoplasmic transport
p181
I670
tp182
a(Vaging
p183
I669
tp184
a(Vtransferase activity, transferring glycosyl groups
p185
I648
tp186
a(Vcell division
p187
I618
tp188
a(Vcirculatory system process
p189
I589
tp190
a(Vlyase activity
p191
I581
tp192
a(Vmethyltransferase activity
p193
I562
tp194
a(Vplastid
p195
I556
tp196
a(Vdevelopmental maturation
p197
I536
tp198
a(Vhelicase activity
p199
I535
tp200
a(Vlysosome
p201
I535
tp202
a(Vmitochondrion organization
p203
I531
tp204
a(Vnuclease activity
p205
I525
tp206
a(Vprotein folding
p207
I494
tp208
a(Vcytoskeleton-dependent intracellular transport
p209
I483
tp210
a(Vribonucleoprotein complex assembly
p211
I478
tp212
a(Vchromosome
p213
I448
tp214
a(Vhistone binding
p215
I438
tp216
a(VGTPase activity
p217
I431
tp218
a(VmRNA binding
p219
I411
tp220
a(Vsecondary metabolic process
p221
I400
tp222
a(Vnuclear envelope
p223
I389
tp224
a(Visomerase activity
p225
I380
tp226
a(Vexternal encapsulating structure
p227
I364
tp228
a(Vproteinaceous extracellular matrix
p229
I356
tp230
a(Vcell wall
p231
I354
tp232
a(Vplasma membrane organization
p233
I344
tp234
a(Vhydrolase activity, acting on carbon-nitrogen (but not peptide) bonds
p235
I338
tp236
a(Vhydrolase activity, acting on glycosyl bonds
p237
I331
tp238
a(Vvacuolar transport
p239
I312
tp240
a(Vmitosis
p241
I306
tp242
a(VtRNA metabolic process
p243
I298
tp244
a(Vnucleotidyltransferase activity
p245
I298
tp246
a(Vprotein binding, bridging
p247
I295
tp248
a(Vchromosome segregation
p249
I285
tp250
a(Vperoxisome
p251
I270
tp252
a(Vcell wall organization or biogenesis
p253
I257
tp254
a(Vsmall conjugating protein binding
p255
I256
tp256
a(Vstructural constituent of ribosome
p257
I250
tp258
a(Vtranslation factor activity, nucleic acid binding
p259
I249
tp260
a(Vprotein transporter activity
p261
I218
tp262
a(Vunfolded protein binding
p263
I208
tp264
a(Vlipid particle
p265
I197
tp266
a(Vtranslation
p267
I191
tp268
a(Vribosome
p269
I172
tp270
a(Vtransferase activity, transferring alkyl or aryl (other than methyl) groups
p271
I158
tp272
a(Vintracellular
p273
I145
tp274
a(Vnuclear chromosome
p275
I131
tp276
a(Vpigmentation
p277
I105
tp278
a(Vribosome biogenesis
p279
I104
tp280
a(VrRNA binding
p281
I88
tp282
a(Vthylakoid
p283
I48
tp284
a(Vnitrogen cycle metabolic process
p285
I41
tp286
a(Vtransposition
p287
I19
tp288
a(Vphotosynthesis
p289
I11
tp290
a(Vcell
p291
I11
tp292
a(VRNA modification guide activity
p293
I2
tp294
aa(lp295
(g3
L6372L
tp296
a(g5
L4365L
tp297
a(g7
L2787L
tp298
a(g9
L21685L
tp299
a(g11
L26888L
tp300
a(g13
L5491L
tp301
a(g15
L5801L
tp302
a(g17
L18268L
tp303
a(g19
L21693L
tp304
a(g21
L5613L
tp305
a(g23
L21630L
tp306
a(g25
L22689L
tp307
a(g27
L7192L
tp308
a(g29
L5168L
tp309
a(g31
L7190L
tp310
a(g33
L1781L
tp311
a(g35
L13924L
tp312
a(g37
L13633L
tp313
a(g39
L4599L
tp314
a(g41
L12968L
tp315
a(g43
L5326L
tp316
a(g45
L4644L
tp317
a(g47
L20507L
tp318
a(g49
L4507L
tp319
a(g51
L10381L
tp320
a(g53
L13690L
tp321
a(g55
L26682L
tp322
a(g57
L4422L
tp323
a(g59
L2790L
tp324
a(g61
L4995L
tp325
a(g63
L28228L
tp326
a(g65
L21086L
tp327
a(g67
L31581L
tp328
a(g69
L10598L
tp329
a(g71
L4514L
tp330
a(g73
L4725L
tp331
a(g75
L26901L
tp332
a(g77
L27837L
tp333
a(g79
L29927L
tp334
a(g81
L6320L
tp335
a(g83
L7881L
tp336
a(g85
L28535L
tp337
a(g87
L5663L
tp338
a(g89
L18282L
tp339
a(g91
L5165L
tp340
a(g93
L20503L
tp341
a(g95
L3827L
tp342
a(g97
L10466L
tp343
a(g99
L2830L
tp344
a(g101
L6500L
tp345
a(g103
L10229L
tp346
a(g105
L4515L
tp347
a(g107
L5218L
tp348
a(g109
L4567L
tp349
a(g111
L4621L
tp350
a(g113
L5791L
tp351
a(g115
L6448L
tp352
a(g117
L4556L
tp353
a(g119
L30984L
tp354
a(g121
L14001L
tp355
a(g123
L5896L
tp356
a(g125
L4542L
tp357
a(g127
L6436L
tp358
a(g129
L10950L
tp359
a(g131
L6494L
tp360
a(g133
L6357L
tp361
a(g135
L4586L
tp362
a(g137
L4439L
tp363
a(g139
L10963L
tp364
a(g141
L677L
tp365
a(g143
L759L
tp366
a(g145
L594L
tp367
a(g147
L4118L
tp368
a(g149
L5471L
tp369
a(g151
L4366L
tp370
a(g153
L5302L
tp371
a(g155
L28144L
tp372
a(g157
L4405L
tp373
a(g159
L5112L
tp374
a(g161
L10829L
tp375
a(g163
L13967L
tp376
a(g165
L22810L
tp377
a(g167
L4838L
tp378
a(g169
L4546L
tp379
a(g171
L10870L
tp380
a(g173
L4684L
tp381
a(g175
L5695L
tp382
a(g177
L17965L
tp383
a(g179
L3L
tp384
a(g181
L5582L
tp385
a(g183
L6169L
tp386
a(g185
L10840L
tp387
a(g187
L28251L
tp388
a(g189
L2364L
tp389
a(g191
L10905L
tp390
a(g193
L6389L
tp391
a(g195
L7644L
tp392
a(g197
L13274L
tp393
a(g199
L3404L
tp394
a(g201
L4538L
tp395
a(g203
L5658L
tp396
a(g205
L3518L
tp397
a(g207
L5161L
tp398
a(g209
L14427L
tp399
a(g211
L13644L
tp400
a(g213
L4475L
tp401
a(g215
L20900L
tp402
a(g217
L2991L
tp403
a(g219
L2835L
tp404
a(g221
L12827L
tp405
a(g223
L4423L
tp406
a(g225
L10929L
tp407
a(g227
L14078L
tp408
a(g229
L4368L
tp409
a(g231
L4408L
tp410
a(g233
L5662L
tp411
a(g235
L10886L
tp412
a(g237
L10876L
tp413
a(g239
L5682L
tp414
a(g241
L5712L
tp415
a(g243
L5114L
tp416
a(g245
L10860L
tp417
a(g247
L14396L
tp418
a(g249
L5705L
tp419
a(g251
L4550L
tp420
a(g253
L33137L
tp421
a(g255
L15840L
tp422
a(g257
L2841L
tp423
a(g259
L6358L
tp424
a(g261
L6747L
tp425
a(g263
L28040L
tp426
a(g265
L4583L
tp427
a(g267
L5126L
tp428
a(g269
L4609L
tp429
a(g271
L10848L
tp430
a(g273
L4411L
tp431
a(g275
L201L
tp432
a(g277
L21900L
tp433
a(g279
L20770L
tp434
a(g281
L12918L
tp435
a(g283
L7683L
tp436
a(g285
L33512L
tp437
a(g287
L15852L
tp438
a(g289
L10192L
tp439
a(g291
L4412L
tp440
a(g293
L14288L
tp441
aaI895698
a.