(lp1
(lp2
(Vbiological_process
p3
I344224
tp4
a(Vcellular_component
p5
I114047
tp6
a(Vmolecular_function
p7
I95432
tp8
a(Vorganelle
p9
I30187
tp10
a(Vanatomical structure development
p11
I26140
tp12
a(Vtransport
p13
I19053
tp14
a(Vsignal transduction
p15
I15879
tp16
a(Vcellular nitrogen compound metabolic process
p17
I14776
tp18
a(Vprotein complex
p19
I13019
tp20
a(Vresponse to stress
p21
I12634
tp22
a(Vion binding
p23
I11695
tp24
a(Vsmall molecule metabolic process
p25
I10786
tp26
a(Vbiosynthetic process
p27
I9430
tp28
a(Vcellular protein modification process
p29
I8969
tp30
a(Vcatabolic process
p31
I7607
tp32
a(Vimmune system process
p33
I7085
tp34
a(Vcell differentiation
p35
I6223
tp36
a(Vcellular component assembly
p37
I5770
tp38
a(Vcytosol
p39
I5345
tp40
a(Venzyme binding
p41
I5309
tp42
a(Vlipid metabolic process
p43
I5063
tp44
a(Vlocomotion
p45
I4442
tp46
a(Vplasma membrane
p47
I4129
tp48
a(Vtransmembrane transporter activity
p49
I4117
tp50
a(Vanatomical structure formation involved in morphogenesis
p51
I4005
tp52
a(Vnucleolus
p53
I3966
tp54
a(Vvesicle-mediated transport
p55
I3954
tp56
a(Vnucleus
p57
I3784
tp58
a(VDNA metabolic process
p59
I3541
tp60
a(VDNA binding
p61
I3507
tp62
a(Vhomeostatic process
p63
I3331
tp64
a(Vcytoplasm
p65
I3294
tp66
a(Vchromosome organization
p67
I3279
tp68
a(Vmacromolecular complex assembly
p69
I3173
tp70
a(Vcell motility
p71
I3171
tp72
a(Voxidoreductase activity
p73
I3024
tp74
a(Vtransmembrane transport
p75
I3001
tp76
a(Vneurological system process
p77
I2946
tp78
a(Vcarbohydrate metabolic process
p79
I2919
tp80
a(Vcytoskeletal protein binding
p81
I2800
tp82
a(Vprotein maturation
p83
I2734
tp84
a(Vembryo development
p85
I2660
tp86
a(Vgrowth
p87
I2601
tp88
a(Vprotein complex assembly
p89
I2598
tp90
a(Vkinase activity
p91
I2593
tp92
a(Vsignal transducer activity
p93
I2582
tp94
a(Vnucleobase-containing compound catabolic process
p95
I2568
tp96
a(Vcytoskeleton organization
p97
I2563
tp98
a(VRNA binding
p99
I2138
tp100
a(VGolgi apparatus
p101
I2103
tp102
a(Vlipid binding
p103
I2098
tp104
a(Vcell adhesion
p105
I2097
tp106
a(Vcytoplasmic membrane-bounded vesicle
p107
I2094
tp108
a(Vmitochondrion
p109
I2064
tp110
a(Vcellular amino acid metabolic process
p111
I1958
tp112
a(Vcytoskeleton
p113
I1929
tp114
a(Vmembrane organization
p115
I1782
tp116
a(Vpeptidase activity
p117
I1767
tp118
a(Vcell-cell signaling
p119
I1753
tp120
a(Vendoplasmic reticulum
p121
I1737
tp122
a(Venzyme regulator activity
p123
I1727
tp124
a(Vendosome
p125
I1717
tp126
a(Vligase activity
p127
I1691
tp128
a(Vcell proliferation
p129
I1639
tp130
a(Vcell death
p131
I1633
tp132
a(VATPase activity
p133
I1542
tp134
a(Vtranscription factor binding
p135
I1522
tp136
a(Vmicrotubule organizing center
p137
I1466
tp138
a(Vcell morphogenesis
p139
I1448
tp140
a(Vnucleoplasm
p141
I1445
tp142
a(Vprotein binding transcription factor activity
p143
I1438
tp144
a(Vnucleic acid binding transcription factor activity
p145
I1396
tp146
a(Vstructural molecule activity
p147
I1149
tp148
a(Vextracellular region
p149
I1133
tp150
a(Vsulfur compound metabolic process
p151
I1073
tp152
a(Vextracellular space
p153
I991
tp154
a(Vcofactor metabolic process
p155
I983
tp156
a(Vsymbiosis, encompassing mutualism through parasitism
p157
I969
tp158
a(Vprotein targeting
p159
I955
tp160
a(Vextracellular matrix organization
p161
I943
tp162
a(VmRNA processing
p163
I934
tp164
a(Vtransferase activity, transferring acyl groups
p165
I918
tp166
a(Vvacuole
p167
I891
tp168
a(Vcilium
p169
I880
tp170
a(Vphosphatase activity
p171
I873
tp172
a(Vgeneration of precursor metabolites and energy
p173
I860
tp174
a(Vcell cycle
p175
I758
tp176
a(Vcell junction organization
p177
I743
tp178
a(Vreproduction
p179
I703
tp180
a(Vnucleocytoplasmic transport
p181
I689
tp182
a(Vaging
p183
I682
tp184
a(Vtransferase activity, transferring glycosyl groups
p185
I681
tp186
a(Vcell division
p187
I641
tp188
a(Vhelicase activity
p189
I598
tp190
a(Vcirculatory system process
p191
I579
tp192
a(Vdevelopmental maturation
p193
I572
tp194
a(Vlyase activity
p195
I567
tp196
a(Vnuclease activity
p197
I566
tp198
a(Vmethyltransferase activity
p199
I561
tp200
a(Vmitochondrion organization
p201
I549
tp202
a(Vlysosome
p203
I540
tp204
a(Vcytoskeleton-dependent intracellular transport
p205
I506
tp206
a(Vprotein folding
p207
I488
tp208
a(Vplastid
p209
I483
tp210
a(Vhistone binding
p211
I454
tp212
a(Vribonucleoprotein complex assembly
p213
I449
tp214
a(Vchromosome
p215
I446
tp216
a(VGTPase activity
p217
I413
tp218
a(Vsecondary metabolic process
p219
I394
tp220
a(Vnuclear envelope
p221
I388
tp222
a(Vproteinaceous extracellular matrix
p223
I388
tp224
a(Vplasma membrane organization
p225
I386
tp226
a(VmRNA binding
p227
I377
tp228
a(Visomerase activity
p229
I356
tp230
a(Vhydrolase activity, acting on carbon-nitrogen (but not peptide) bonds
p231
I339
tp232
a(Vhydrolase activity, acting on glycosyl bonds
p233
I326
tp234
a(Vvacuolar transport
p235
I311
tp236
a(Vnucleotidyltransferase activity
p237
I311
tp238
a(Vprotein binding, bridging
p239
I308
tp240
a(Vmitosis
p241
I308
tp242
a(Vexternal encapsulating structure
p243
I303
tp244
a(Vcell wall
p245
I292
tp246
a(Vchromosome segregation
p247
I279
tp248
a(Vsmall conjugating protein binding
p249
I273
tp250
a(VtRNA metabolic process
p251
I267
tp252
a(Vperoxisome
p253
I250
tp254
a(Vprotein transporter activity
p255
I246
tp256
a(Vcell wall organization or biogenesis
p257
I236
tp258
a(Vtranslation factor activity, nucleic acid binding
p259
I208
tp260
a(Vunfolded protein binding
p261
I196
tp262
a(Vlipid particle
p263
I192
tp264
a(Vtranslation
p265
I176
tp266
a(Vstructural constituent of ribosome
p267
I157
tp268
a(Vtransferase activity, transferring alkyl or aryl (other than methyl) groups
p269
I156
tp270
a(Vribosome
p271
I153
tp272
a(Vintracellular
p273
I152
tp274
a(Vnuclear chromosome
p275
I118
tp276
a(Vpigmentation
p277
I117
tp278
a(Vribosome biogenesis
p279
I91
tp280
a(VrRNA binding
p281
I68
tp282
a(Vnitrogen cycle metabolic process
p283
I44
tp284
a(Vthylakoid
p285
I44
tp286
a(Vcell
p287
I18
tp288
a(Vtransposition
p289
I15
tp290
a(Vphotosynthesis
p291
I11
tp292
a(VRNA modification guide activity
p293
I2
tp294
aa(lp295
(g3
L6372L
tp296
a(g5
L4365L
tp297
a(g7
L2787L
tp298
a(g9
L21685L
tp299
a(g11
L26888L
tp300
a(g13
L5491L
tp301
a(g15
L5801L
tp302
a(g17
L18268L
tp303
a(g19
L21693L
tp304
a(g21
L5613L
tp305
a(g23
L21630L
tp306
a(g25
L22689L
tp307
a(g27
L7192L
tp308
a(g29
L5168L
tp309
a(g31
L7190L
tp310
a(g33
L1781L
tp311
a(g35
L13924L
tp312
a(g37
L13633L
tp313
a(g39
L4599L
tp314
a(g41
L12968L
tp315
a(g43
L5326L
tp316
a(g45
L20507L
tp317
a(g47
L4644L
tp318
a(g49
L13690L
tp319
a(g51
L26682L
tp320
a(g53
L4507L
tp321
a(g55
L10381L
tp322
a(g57
L4422L
tp323
a(g59
L4995L
tp324
a(g61
L2790L
tp325
a(g63
L21086L
tp326
a(g65
L4514L
tp327
a(g67
L28228L
tp328
a(g69
L31581L
tp329
a(g71
L26901L
tp330
a(g73
L10598L
tp331
a(g75
L29927L
tp332
a(g77
L27837L
tp333
a(g79
L4725L
tp334
a(g81
L6320L
tp335
a(g83
L28535L
tp336
a(g85
L7881L
tp337
a(g87
L20503L
tp338
a(g89
L5165L
tp339
a(g91
L10466L
tp340
a(g93
L3827L
tp341
a(g95
L18282L
tp342
a(g97
L5663L
tp343
a(g99
L2830L
tp344
a(g101
L4567L
tp345
a(g103
L6500L
tp346
a(g105
L5791L
tp347
a(g107
L10229L
tp348
a(g109
L4515L
tp349
a(g111
L5218L
tp350
a(g113
L4621L
tp351
a(g115
L30984L
tp352
a(g117
L6448L
tp353
a(g119
L5896L
tp354
a(g121
L4556L
tp355
a(g123
L14001L
tp356
a(g125
L4542L
tp357
a(g127
L10950L
tp358
a(g129
L6494L
tp359
a(g131
L6436L
tp360
a(g133
L10963L
tp361
a(g135
L6357L
tp362
a(g137
L4586L
tp363
a(g139
L594L
tp364
a(g141
L4439L
tp365
a(g143
L677L
tp366
a(g145
L759L
tp367
a(g147
L4118L
tp368
a(g149
L4366L
tp369
a(g151
L5471L
tp370
a(g153
L4405L
tp371
a(g155
L28144L
tp372
a(g157
L22810L
tp373
a(g159
L5302L
tp374
a(g161
L13967L
tp375
a(g163
L5112L
tp376
a(g165
L10829L
tp377
a(g167
L4546L
tp378
a(g169
L4684L
tp379
a(g171
L10870L
tp380
a(g173
L4838L
tp381
a(g175
L5695L
tp382
a(g177
L17965L
tp383
a(g179
L3L
tp384
a(g181
L5582L
tp385
a(g183
L6169L
tp386
a(g185
L10840L
tp387
a(g187
L28251L
tp388
a(g189
L3404L
tp389
a(g191
L2364L
tp390
a(g193
L13274L
tp391
a(g195
L10905L
tp392
a(g197
L3518L
tp393
a(g199
L6389L
tp394
a(g201
L5658L
tp395
a(g203
L4538L
tp396
a(g205
L14427L
tp397
a(g207
L5161L
tp398
a(g209
L7644L
tp399
a(g211
L20900L
tp400
a(g213
L13644L
tp401
a(g215
L4475L
tp402
a(g217
L2991L
tp403
a(g219
L12827L
tp404
a(g221
L4423L
tp405
a(g223
L4368L
tp406
a(g225
L5662L
tp407
a(g227
L2835L
tp408
a(g229
L10929L
tp409
a(g231
L10886L
tp410
a(g233
L10876L
tp411
a(g235
L5682L
tp412
a(g237
L10860L
tp413
a(g239
L14396L
tp414
a(g241
L5712L
tp415
a(g243
L14078L
tp416
a(g245
L4408L
tp417
a(g247
L5705L
tp418
a(g249
L15840L
tp419
a(g251
L5114L
tp420
a(g253
L4550L
tp421
a(g255
L6747L
tp422
a(g257
L33137L
tp423
a(g259
L6358L
tp424
a(g261
L28040L
tp425
a(g263
L4583L
tp426
a(g265
L5126L
tp427
a(g267
L2841L
tp428
a(g269
L10848L
tp429
a(g271
L4609L
tp430
a(g273
L4411L
tp431
a(g275
L201L
tp432
a(g277
L21900L
tp433
a(g279
L20770L
tp434
a(g281
L12918L
tp435
a(g283
L33512L
tp436
a(g285
L7683L
tp437
a(g287
L4412L
tp438
a(g289
L15852L
tp439
a(g291
L10192L
tp440
a(g293
L14288L
tp441
aaI932615
a.