(lp1
(lp2
(Vbiological_process
p3
I334215
tp4
a(Vcellular_component
p5
I110998
tp6
a(Vmolecular_function
p7
I92378
tp8
a(Vorganelle
p9
I29196
tp10
a(Vanatomical structure development
p11
I25188
tp12
a(Vtransport
p13
I18961
tp14
a(Vcellular nitrogen compound metabolic process
p15
I14955
tp16
a(Vsignal transduction
p17
I14933
tp18
a(Vresponse to stress
p19
I12359
tp20
a(Vprotein complex
p21
I12096
tp22
a(Vion binding
p23
I11401
tp24
a(Vsmall molecule metabolic process
p25
I11366
tp26
a(Vbiosynthetic process
p27
I10013
tp28
a(Vcellular protein modification process
p29
I8310
tp30
a(Vcatabolic process
p31
I7717
tp32
a(Vimmune system process
p33
I6998
tp34
a(Vcell differentiation
p35
I5538
tp36
a(Vcellular component assembly
p37
I5423
tp38
a(Vcytosol
p39
I4995
tp40
a(Vlipid metabolic process
p41
I4950
tp42
a(Venzyme binding
p43
I4785
tp44
a(Vtransmembrane transporter activity
p45
I4389
tp46
a(Vplasma membrane
p47
I4065
tp48
a(Vlocomotion
p49
I4063
tp50
a(Vvesicle-mediated transport
p51
I3647
tp52
a(Vnucleolus
p53
I3641
tp54
a(VDNA metabolic process
p55
I3547
tp56
a(Vnucleus
p57
I3542
tp58
a(Vanatomical structure formation involved in morphogenesis
p59
I3475
tp60
a(Vcytoplasm
p61
I3327
tp62
a(Voxidoreductase activity
p63
I3273
tp64
a(VDNA binding
p65
I3173
tp66
a(Vhomeostatic process
p67
I3120
tp68
a(Vchromosome organization
p69
I3075
tp70
a(Vcarbohydrate metabolic process
p71
I3054
tp72
a(Vmacromolecular complex assembly
p73
I3033
tp74
a(Vtransmembrane transport
p75
I3032
tp76
a(Vcell motility
p77
I2816
tp78
a(Vneurological system process
p79
I2770
tp80
a(Vprotein maturation
p81
I2738
tp82
a(Vcytoskeletal protein binding
p83
I2723
tp84
a(Vembryo development
p85
I2627
tp86
a(Vkinase activity
p87
I2591
tp88
a(Vnucleobase-containing compound catabolic process
p89
I2577
tp90
a(Vprotein complex assembly
p91
I2472
tp92
a(Vgrowth
p93
I2448
tp94
a(Vsignal transducer activity
p95
I2425
tp96
a(Vcytoskeleton organization
p97
I2399
tp98
a(Vcellular amino acid metabolic process
p99
I2264
tp100
a(VRNA binding
p101
I2155
tp102
a(VGolgi apparatus
p103
I2043
tp104
a(Vcytoplasmic membrane-bounded vesicle
p105
I1928
tp106
a(Vcytoskeleton
p107
I1927
tp108
a(Vcell adhesion
p109
I1926
tp110
a(Vmitochondrion
p111
I1921
tp112
a(Vlipid binding
p113
I1813
tp114
a(Vpeptidase activity
p115
I1790
tp116
a(VATPase activity
p117
I1669
tp118
a(Vmembrane organization
p119
I1622
tp120
a(Vendoplasmic reticulum
p121
I1613
tp122
a(Vcell-cell signaling
p123
I1605
tp124
a(Vcell death
p125
I1584
tp126
a(Venzyme regulator activity
p127
I1562
tp128
a(Vligase activity
p129
I1542
tp130
a(Vcell proliferation
p131
I1525
tp132
a(Vendosome
p133
I1505
tp134
a(Vmicrotubule organizing center
p135
I1349
tp136
a(Vtranscription factor binding
p137
I1319
tp138
a(Vnucleoplasm
p139
I1293
tp140
a(Vcell morphogenesis
p141
I1291
tp142
a(Vprotein binding transcription factor activity
p143
I1191
tp144
a(Vsulfur compound metabolic process
p145
I1181
tp146
a(Vnucleic acid binding transcription factor activity
p147
I1140
tp148
a(Vstructural molecule activity
p149
I1089
tp150
a(Vextracellular region
p151
I1062
tp152
a(Vcofactor metabolic process
p153
I1019
tp154
a(Vextracellular matrix organization
p155
I1002
tp156
a(Vtransferase activity, transferring acyl groups
p157
I943
tp158
a(Vextracellular space
p159
I940
tp160
a(VmRNA processing
p161
I916
tp162
a(Vcilium
p163
I905
tp164
a(Vsymbiosis, encompassing mutualism through parasitism
p165
I893
tp166
a(Vprotein targeting
p167
I883
tp168
a(Vvacuole
p169
I876
tp170
a(Vgeneration of precursor metabolites and energy
p171
I862
tp172
a(Vphosphatase activity
p173
I821
tp174
a(Vcell cycle
p175
I812
tp176
a(Vlyase activity
p177
I707
tp178
a(Vtransferase activity, transferring glycosyl groups
p179
I702
tp180
a(Vreproduction
p181
I682
tp182
a(Vhelicase activity
p183
I677
tp184
a(Vcell division
p185
I646
tp186
a(Vcell junction organization
p187
I634
tp188
a(Vaging
p189
I634
tp190
a(Vnucleocytoplasmic transport
p191
I604
tp192
a(Vmethyltransferase activity
p193
I572
tp194
a(Vnuclease activity
p195
I572
tp196
a(Vdevelopmental maturation
p197
I553
tp198
a(Vcirculatory system process
p199
I539
tp200
a(Vplastid
p201
I533
tp202
a(Vmitochondrion organization
p203
I507
tp204
a(Vlysosome
p205
I496
tp206
a(Vcytoskeleton-dependent intracellular transport
p207
I492
tp208
a(Vprotein folding
p209
I479
tp210
a(Vribonucleoprotein complex assembly
p211
I448
tp212
a(Vchromosome
p213
I428
tp214
a(VGTPase activity
p215
I418
tp216
a(Visomerase activity
p217
I413
tp218
a(Vhistone binding
p219
I395
tp220
a(Vplasma membrane organization
p221
I389
tp222
a(VmRNA binding
p223
I387
tp224
a(Vsecondary metabolic process
p225
I386
tp226
a(Vhydrolase activity, acting on glycosyl bonds
p227
I381
tp228
a(Vproteinaceous extracellular matrix
p229
I378
tp230
a(Vnuclear envelope
p231
I377
tp232
a(Vexternal encapsulating structure
p233
I368
tp234
a(Vcell wall
p235
I355
tp236
a(Vnucleotidyltransferase activity
p237
I354
tp238
a(VtRNA metabolic process
p239
I351
tp240
a(Vhydrolase activity, acting on carbon-nitrogen (but not peptide) bonds
p241
I348
tp242
a(Vchromosome segregation
p243
I278
tp244
a(Vmitosis
p245
I274
tp246
a(Vvacuolar transport
p247
I272
tp248
a(Vprotein binding, bridging
p249
I262
tp250
a(Vperoxisome
p251
I249
tp252
a(Vcell wall organization or biogenesis
p253
I235
tp254
a(Vsmall conjugating protein binding
p255
I235
tp256
a(Vtranslation factor activity, nucleic acid binding
p257
I222
tp258
a(Vunfolded protein binding
p259
I210
tp260
a(Vprotein transporter activity
p261
I208
tp262
a(Vtranslation
p263
I191
tp264
a(Vlipid particle
p265
I190
tp266
a(Vstructural constituent of ribosome
p267
I181
tp268
a(Vtransferase activity, transferring alkyl or aryl (other than methyl) groups
p269
I172
tp270
a(Vribosome
p271
I165
tp272
a(Vintracellular
p273
I154
tp274
a(Vnuclear chromosome
p275
I119
tp276
a(Vpigmentation
p277
I111
tp278
a(VrRNA binding
p279
I86
tp280
a(Vribosome biogenesis
p281
I79
tp282
a(Vthylakoid
p283
I55
tp284
a(Vnitrogen cycle metabolic process
p285
I52
tp286
a(Vtransposition
p287
I16
tp288
a(Vphotosynthesis
p289
I15
tp290
a(Vcell
p291
I11
tp292
a(VRNA modification guide activity
p293
I2
tp294
aa(lp295
(g3
L6372L
tp296
a(g5
L4365L
tp297
a(g7
L2787L
tp298
a(g9
L21685L
tp299
a(g11
L26888L
tp300
a(g13
L5491L
tp301
a(g15
L18268L
tp302
a(g17
L5801L
tp303
a(g19
L5613L
tp304
a(g21
L21693L
tp305
a(g23
L21630L
tp306
a(g25
L22689L
tp307
a(g27
L7192L
tp308
a(g29
L5168L
tp309
a(g31
L7190L
tp310
a(g33
L1781L
tp311
a(g35
L13924L
tp312
a(g37
L13633L
tp313
a(g39
L4599L
tp314
a(g41
L5326L
tp315
a(g43
L12968L
tp316
a(g45
L13690L
tp317
a(g47
L4644L
tp318
a(g49
L20507L
tp319
a(g51
L10381L
tp320
a(g53
L4507L
tp321
a(g55
L4995L
tp322
a(g57
L4422L
tp323
a(g59
L26682L
tp324
a(g61
L4514L
tp325
a(g63
L10598L
tp326
a(g65
L2790L
tp327
a(g67
L21086L
tp328
a(g69
L28228L
tp329
a(g71
L4725L
tp330
a(g73
L31581L
tp331
a(g75
L29927L
tp332
a(g77
L26901L
tp333
a(g79
L27837L
tp334
a(g81
L28535L
tp335
a(g83
L6320L
tp336
a(g85
L7881L
tp337
a(g87
L10466L
tp338
a(g89
L18282L
tp339
a(g91
L5165L
tp340
a(g93
L20503L
tp341
a(g95
L3827L
tp342
a(g97
L5663L
tp343
a(g99
L5218L
tp344
a(g101
L2830L
tp345
a(g103
L4567L
tp346
a(g105
L10229L
tp347
a(g107
L4621L
tp348
a(g109
L5791L
tp349
a(g111
L4515L
tp350
a(g113
L6500L
tp351
a(g115
L6448L
tp352
a(g117
L10963L
tp353
a(g119
L30984L
tp354
a(g121
L4556L
tp355
a(g123
L5896L
tp356
a(g125
L6436L
tp357
a(g127
L14001L
tp358
a(g129
L10950L
tp359
a(g131
L6494L
tp360
a(g133
L4542L
tp361
a(g135
L4586L
tp362
a(g137
L6357L
tp363
a(g139
L4439L
tp364
a(g141
L594L
tp365
a(g143
L677L
tp366
a(g145
L5471L
tp367
a(g147
L759L
tp368
a(g149
L4118L
tp369
a(g151
L4366L
tp370
a(g153
L28144L
tp371
a(g155
L13967L
tp372
a(g157
L10829L
tp373
a(g159
L4405L
tp374
a(g161
L5112L
tp375
a(g163
L4684L
tp376
a(g165
L22810L
tp377
a(g167
L5302L
tp378
a(g169
L4546L
tp379
a(g171
L4838L
tp380
a(g173
L10870L
tp381
a(g175
L5695L
tp382
a(g177
L10905L
tp383
a(g179
L10840L
tp384
a(g181
L3L
tp385
a(g183
L3404L
tp386
a(g185
L28251L
tp387
a(g187
L17965L
tp388
a(g189
L6169L
tp389
a(g191
L5582L
tp390
a(g193
L6389L
tp391
a(g195
L3518L
tp392
a(g197
L13274L
tp393
a(g199
L2364L
tp394
a(g201
L7644L
tp395
a(g203
L5658L
tp396
a(g205
L4538L
tp397
a(g207
L14427L
tp398
a(g209
L5161L
tp399
a(g211
L13644L
tp400
a(g213
L4475L
tp401
a(g215
L2991L
tp402
a(g217
L10929L
tp403
a(g219
L20900L
tp404
a(g221
L5662L
tp405
a(g223
L2835L
tp406
a(g225
L12827L
tp407
a(g227
L10876L
tp408
a(g229
L4368L
tp409
a(g231
L4423L
tp410
a(g233
L14078L
tp411
a(g235
L4408L
tp412
a(g237
L10860L
tp413
a(g239
L5114L
tp414
a(g241
L10886L
tp415
a(g243
L5705L
tp416
a(g245
L5712L
tp417
a(g247
L5682L
tp418
a(g249
L14396L
tp419
a(g251
L4550L
tp420
a(g253
L33137L
tp421
a(g255
L15840L
tp422
a(g257
L6358L
tp423
a(g259
L28040L
tp424
a(g261
L6747L
tp425
a(g263
L5126L
tp426
a(g265
L4583L
tp427
a(g267
L2841L
tp428
a(g269
L10848L
tp429
a(g271
L4609L
tp430
a(g273
L4411L
tp431
a(g275
L201L
tp432
a(g277
L21900L
tp433
a(g279
L12918L
tp434
a(g281
L20770L
tp435
a(g283
L7683L
tp436
a(g285
L33512L
tp437
a(g287
L15852L
tp438
a(g289
L10192L
tp439
a(g291
L4412L
tp440
a(g293
L14288L
tp441
aaI904847
a.