(lp1
(lp2
(Vbiological_process
p3
I256124
tp4
a(Vcellular_component
p5
I85326
tp6
a(Vmolecular_function
p7
I70502
tp8
a(Vorganelle
p9
I22640
tp10
a(Vanatomical structure development
p11
I18956
tp12
a(Vtransport
p13
I14530
tp14
a(Vcellular nitrogen compound metabolic process
p15
I11840
tp16
a(Vsignal transduction
p17
I11492
tp18
a(Vprotein complex
p19
I9740
tp20
a(Vresponse to stress
p21
I9479
tp22
a(Vsmall molecule metabolic process
p23
I8994
tp24
a(Vion binding
p25
I8324
tp26
a(Vbiosynthetic process
p27
I8262
tp28
a(Vcellular protein modification process
p29
I6688
tp30
a(Vcatabolic process
p31
I6130
tp32
a(Vimmune system process
p33
I4954
tp34
a(Vcell differentiation
p35
I4361
tp36
a(Vcellular component assembly
p37
I4200
tp38
a(Vlipid metabolic process
p39
I4179
tp40
a(Vcytosol
p41
I4046
tp42
a(Venzyme binding
p43
I3690
tp44
a(Vplasma membrane
p45
I3155
tp46
a(Vtransmembrane transporter activity
p47
I3153
tp48
a(Vlocomotion
p49
I2913
tp50
a(Vnucleolus
p51
I2909
tp52
a(Vvesicle-mediated transport
p53
I2848
tp54
a(Vnucleus
p55
I2804
tp56
a(Voxidoreductase activity
p57
I2705
tp58
a(Vanatomical structure formation involved in morphogenesis
p59
I2682
tp60
a(VDNA metabolic process
p61
I2664
tp62
a(Vchromosome organization
p63
I2582
tp64
a(VDNA binding
p65
I2559
tp66
a(Vcarbohydrate metabolic process
p67
I2445
tp68
a(Vcytoplasm
p69
I2411
tp70
a(Vhomeostatic process
p71
I2399
tp72
a(Vmacromolecular complex assembly
p73
I2366
tp74
a(Vtransmembrane transport
p75
I2274
tp76
a(Vembryo development
p77
I2095
tp78
a(Vsignal transducer activity
p79
I2089
tp80
a(Vneurological system process
p81
I2045
tp82
a(Vprotein maturation
p83
I2024
tp84
a(Vcell motility
p85
I1977
tp86
a(Vgrowth
p87
I1968
tp88
a(Vcytoskeletal protein binding
p89
I1966
tp90
a(Vnucleobase-containing compound catabolic process
p91
I1963
tp92
a(Vprotein complex assembly
p93
I1908
tp94
a(Vcytoskeleton organization
p95
I1902
tp96
a(Vkinase activity
p97
I1798
tp98
a(VRNA binding
p99
I1763
tp100
a(Vcellular amino acid metabolic process
p101
I1683
tp102
a(Vmitochondrion
p103
I1669
tp104
a(Vcytoplasmic membrane-bounded vesicle
p105
I1527
tp106
a(VGolgi apparatus
p107
I1445
tp108
a(Vlipid binding
p109
I1409
tp110
a(Vcell-cell signaling
p111
I1371
tp112
a(Vendoplasmic reticulum
p113
I1363
tp114
a(Vcytoskeleton
p115
I1356
tp116
a(Vpeptidase activity
p117
I1315
tp118
a(Venzyme regulator activity
p119
I1269
tp120
a(Vcell adhesion
p121
I1263
tp122
a(Vcell death
p123
I1261
tp124
a(Vmembrane organization
p125
I1258
tp126
a(Vendosome
p127
I1189
tp128
a(Vligase activity
p129
I1162
tp130
a(Vtranscription factor binding
p131
I1149
tp132
a(Vcell proliferation
p133
I1117
tp134
a(Vmicrotubule organizing center
p135
I1107
tp136
a(Vnucleoplasm
p137
I1092
tp138
a(VATPase activity
p139
I1049
tp140
a(Vprotein binding transcription factor activity
p141
I1036
tp142
a(Vnucleic acid binding transcription factor activity
p143
I1012
tp144
a(Vcell morphogenesis
p145
I966
tp146
a(Vsulfur compound metabolic process
p147
I869
tp148
a(Vextracellular region
p149
I834
tp150
a(Vcofactor metabolic process
p151
I824
tp152
a(Vstructural molecule activity
p153
I814
tp154
a(Vtransferase activity, transferring acyl groups
p155
I808
tp156
a(Vsymbiosis, encompassing mutualism through parasitism
p157
I743
tp158
a(VmRNA processing
p159
I735
tp160
a(Vgeneration of precursor metabolites and energy
p161
I734
tp162
a(Vprotein targeting
p163
I716
tp164
a(Vphosphatase activity
p165
I700
tp166
a(Vcell cycle
p167
I684
tp168
a(Vcilium
p169
I682
tp170
a(Vvacuole
p171
I665
tp172
a(Vtransferase activity, transferring glycosyl groups
p173
I633
tp174
a(Vextracellular space
p175
I621
tp176
a(Vextracellular matrix organization
p177
I589
tp178
a(Vreproduction
p179
I568
tp180
a(Vcell division
p181
I517
tp182
a(Vcell junction organization
p183
I515
tp184
a(Vlyase activity
p185
I514
tp186
a(Vnucleocytoplasmic transport
p187
I484
tp188
a(Vaging
p189
I468
tp190
a(Vmethyltransferase activity
p191
I467
tp192
a(Vcirculatory system process
p193
I461
tp194
a(Vmitochondrion organization
p195
I433
tp196
a(Vnuclease activity
p197
I426
tp198
a(Vplastid
p199
I417
tp200
a(Vprotein folding
p201
I406
tp202
a(Vhelicase activity
p203
I403
tp204
a(Vlysosome
p205
I386
tp206
a(Vcytoskeleton-dependent intracellular transport
p207
I382
tp208
a(Vchromosome
p209
I372
tp210
a(VGTPase activity
p211
I362
tp212
a(Vdevelopmental maturation
p213
I361
tp214
a(Vribonucleoprotein complex assembly
p215
I353
tp216
a(Vsecondary metabolic process
p217
I337
tp218
a(Vhistone binding
p219
I325
tp220
a(VmRNA binding
p221
I323
tp222
a(Vnuclear envelope
p223
I315
tp224
a(Visomerase activity
p225
I304
tp226
a(Vhydrolase activity, acting on glycosyl bonds
p227
I274
tp228
a(Vplasma membrane organization
p229
I274
tp230
a(Vhydrolase activity, acting on carbon-nitrogen (but not peptide) bonds
p231
I270
tp232
a(VtRNA metabolic process
p233
I269
tp234
a(Vexternal encapsulating structure
p235
I261
tp236
a(Vcell wall
p237
I255
tp238
a(Vnucleotidyltransferase activity
p239
I245
tp240
a(Vchromosome segregation
p241
I237
tp242
a(Vvacuolar transport
p243
I234
tp244
a(Vmitosis
p245
I227
tp246
a(Vperoxisome
p247
I211
tp248
a(Vproteinaceous extracellular matrix
p249
I200
tp250
a(Vprotein binding, bridging
p251
I195
tp252
a(Vcell wall organization or biogenesis
p253
I195
tp254
a(Vsmall conjugating protein binding
p255
I195
tp256
a(Vtranslation factor activity, nucleic acid binding
p257
I190
tp258
a(Vtranslation
p259
I168
tp260
a(Vunfolded protein binding
p261
I165
tp262
a(Vstructural constituent of ribosome
p263
I164
tp264
a(Vlipid particle
p265
I159
tp266
a(Vprotein transporter activity
p267
I157
tp268
a(Vtransferase activity, transferring alkyl or aryl (other than methyl) groups
p269
I151
tp270
a(Vribosome
p271
I134
tp272
a(Vintracellular
p273
I131
tp274
a(Vnuclear chromosome
p275
I97
tp276
a(Vpigmentation
p277
I80
tp278
a(Vribosome biogenesis
p279
I73
tp280
a(VrRNA binding
p281
I66
tp282
a(Vthylakoid
p283
I41
tp284
a(Vnitrogen cycle metabolic process
p285
I30
tp286
a(Vtransposition
p287
I11
tp288
a(Vphotosynthesis
p289
I10
tp290
a(Vcell
p291
I8
tp292
a(VRNA modification guide activity
p293
I4
tp294
aa(lp295
(g3
L6372L
tp296
a(g5
L4365L
tp297
a(g7
L2787L
tp298
a(g9
L21685L
tp299
a(g11
L26888L
tp300
a(g13
L5491L
tp301
a(g15
L18268L
tp302
a(g17
L5801L
tp303
a(g19
L21693L
tp304
a(g21
L5613L
tp305
a(g23
L22689L
tp306
a(g25
L21630L
tp307
a(g27
L7192L
tp308
a(g29
L5168L
tp309
a(g31
L7190L
tp310
a(g33
L1781L
tp311
a(g35
L13924L
tp312
a(g37
L13633L
tp313
a(g39
L5326L
tp314
a(g41
L4599L
tp315
a(g43
L12968L
tp316
a(g45
L4644L
tp317
a(g47
L13690L
tp318
a(g49
L20507L
tp319
a(g51
L4507L
tp320
a(g53
L10381L
tp321
a(g55
L4422L
tp322
a(g57
L10598L
tp323
a(g59
L26682L
tp324
a(g61
L4995L
tp325
a(g63
L28228L
tp326
a(g65
L2790L
tp327
a(g67
L4725L
tp328
a(g69
L4514L
tp329
a(g71
L21086L
tp330
a(g73
L31581L
tp331
a(g75
L29927L
tp332
a(g77
L7881L
tp333
a(g79
L3827L
tp334
a(g81
L27837L
tp335
a(g83
L28535L
tp336
a(g85
L26901L
tp337
a(g87
L20503L
tp338
a(g89
L6320L
tp339
a(g91
L18282L
tp340
a(g93
L5165L
tp341
a(g95
L5663L
tp342
a(g97
L10466L
tp343
a(g99
L2830L
tp344
a(g101
L5218L
tp345
a(g103
L4515L
tp346
a(g105
L10229L
tp347
a(g107
L4567L
tp348
a(g109
L6500L
tp349
a(g111
L5896L
tp350
a(g113
L4556L
tp351
a(g115
L4621L
tp352
a(g117
L6448L
tp353
a(g119
L14001L
tp354
a(g121
L5791L
tp355
a(g123
L6436L
tp356
a(g125
L30984L
tp357
a(g127
L4542L
tp358
a(g129
L10950L
tp359
a(g131
L6357L
tp360
a(g133
L6494L
tp361
a(g135
L4586L
tp362
a(g137
L4439L
tp363
a(g139
L10963L
tp364
a(g141
L677L
tp365
a(g143
L759L
tp366
a(g145
L594L
tp367
a(g147
L5471L
tp368
a(g149
L4366L
tp369
a(g151
L28144L
tp370
a(g153
L4118L
tp371
a(g155
L10829L
tp372
a(g157
L22810L
tp373
a(g159
L5112L
tp374
a(g161
L4838L
tp375
a(g163
L5302L
tp376
a(g165
L10870L
tp377
a(g167
L5695L
tp378
a(g169
L4684L
tp379
a(g171
L4546L
tp380
a(g173
L10840L
tp381
a(g175
L4405L
tp382
a(g177
L13967L
tp383
a(g179
L3L
tp384
a(g181
L28251L
tp385
a(g183
L17965L
tp386
a(g185
L10905L
tp387
a(g187
L5582L
tp388
a(g189
L6169L
tp389
a(g191
L6389L
tp390
a(g193
L2364L
tp391
a(g195
L5658L
tp392
a(g197
L3518L
tp393
a(g199
L7644L
tp394
a(g201
L5161L
tp395
a(g203
L3404L
tp396
a(g205
L4538L
tp397
a(g207
L14427L
tp398
a(g209
L4475L
tp399
a(g211
L2991L
tp400
a(g213
L13274L
tp401
a(g215
L13644L
tp402
a(g217
L12827L
tp403
a(g219
L20900L
tp404
a(g221
L2835L
tp405
a(g223
L4423L
tp406
a(g225
L10929L
tp407
a(g227
L10876L
tp408
a(g229
L5662L
tp409
a(g231
L10886L
tp410
a(g233
L5114L
tp411
a(g235
L14078L
tp412
a(g237
L4408L
tp413
a(g239
L10860L
tp414
a(g241
L5705L
tp415
a(g243
L5682L
tp416
a(g245
L5712L
tp417
a(g247
L4550L
tp418
a(g249
L4368L
tp419
a(g251
L14396L
tp420
a(g253
L33137L
tp421
a(g255
L15840L
tp422
a(g257
L6358L
tp423
a(g259
L5126L
tp424
a(g261
L28040L
tp425
a(g263
L2841L
tp426
a(g265
L4583L
tp427
a(g267
L6747L
tp428
a(g269
L10848L
tp429
a(g271
L4609L
tp430
a(g273
L4411L
tp431
a(g275
L201L
tp432
a(g277
L21900L
tp433
a(g279
L20770L
tp434
a(g281
L12918L
tp435
a(g283
L7683L
tp436
a(g285
L33512L
tp437
a(g287
L15852L
tp438
a(g289
L10192L
tp439
a(g291
L4412L
tp440
a(g293
L14288L
tp441
aaI696823
a.