(lp1
(lp2
(Vbiological_process
p3
I275154
tp4
a(Vcellular_component
p5
I95914
tp6
a(Vmolecular_function
p7
I81152
tp8
a(Vorganelle
p9
I25360
tp10
a(Vanatomical structure development
p11
I20563
tp12
a(Vtransport
p13
I16404
tp14
a(Vcellular nitrogen compound metabolic process
p15
I13127
tp16
a(Vsignal transduction
p17
I12544
tp18
a(Vprotein complex
p19
I10734
tp20
a(Vion binding
p21
I9962
tp22
a(Vresponse to stress
p23
I9861
tp24
a(Vsmall molecule metabolic process
p25
I9470
tp26
a(Vbiosynthetic process
p27
I8289
tp28
a(Vcellular protein modification process
p29
I7384
tp30
a(Vcatabolic process
p31
I6519
tp32
a(Vimmune system process
p33
I5511
tp34
a(Vcell differentiation
p35
I4715
tp36
a(Vcellular component assembly
p37
I4676
tp38
a(Vcytosol
p39
I4672
tp40
a(Vlipid metabolic process
p41
I4299
tp42
a(Venzyme binding
p43
I4142
tp44
a(Vtransmembrane transporter activity
p45
I3826
tp46
a(Vplasma membrane
p47
I3715
tp48
a(Vnucleus
p49
I3374
tp50
a(Vnucleolus
p51
I3369
tp52
a(Vvesicle-mediated transport
p53
I3172
tp54
a(Vlocomotion
p55
I3153
tp56
a(VDNA metabolic process
p57
I3142
tp58
a(Vcytoplasm
p59
I3012
tp60
a(Vanatomical structure formation involved in morphogenesis
p61
I2982
tp62
a(VDNA binding
p63
I2962
tp64
a(Vtransmembrane transport
p65
I2903
tp66
a(Vchromosome organization
p67
I2731
tp68
a(Voxidoreductase activity
p69
I2710
tp70
a(Vmacromolecular complex assembly
p71
I2663
tp72
a(Vhomeostatic process
p73
I2608
tp74
a(Vcarbohydrate metabolic process
p75
I2546
tp76
a(Vprotein maturation
p77
I2367
tp78
a(Vneurological system process
p79
I2300
tp80
a(Vcell motility
p81
I2246
tp82
a(Vembryo development
p83
I2208
tp84
a(Vnucleobase-containing compound catabolic process
p85
I2196
tp86
a(Vcytoskeletal protein binding
p87
I2190
tp88
a(Vprotein complex assembly
p89
I2150
tp90
a(Vkinase activity
p91
I2100
tp92
a(Vcytoskeleton organization
p93
I2087
tp94
a(Vsignal transducer activity
p95
I2052
tp96
a(Vgrowth
p97
I1913
tp98
a(VRNA binding
p99
I1908
tp100
a(Vcellular amino acid metabolic process
p101
I1803
tp102
a(Vmitochondrion
p103
I1780
tp104
a(Vlipid binding
p105
I1707
tp106
a(Vcytoplasmic membrane-bounded vesicle
p107
I1685
tp108
a(Vpeptidase activity
p109
I1671
tp110
a(VGolgi apparatus
p111
I1650
tp112
a(Vcytoskeleton
p113
I1561
tp114
a(Vendoplasmic reticulum
p115
I1466
tp116
a(Venzyme regulator activity
p117
I1465
tp118
a(Vmembrane organization
p119
I1456
tp120
a(Vcell adhesion
p121
I1451
tp122
a(Vcell-cell signaling
p123
I1443
tp124
a(Vendosome
p125
I1356
tp126
a(Vligase activity
p127
I1315
tp128
a(Vcell death
p129
I1275
tp130
a(Vnucleoplasm
p131
I1272
tp132
a(Vtranscription factor binding
p133
I1260
tp134
a(Vcell proliferation
p135
I1238
tp136
a(Vmicrotubule organizing center
p137
I1230
tp138
a(VATPase activity
p139
I1201
tp140
a(Vnucleic acid binding transcription factor activity
p141
I1164
tp142
a(Vprotein binding transcription factor activity
p143
I1136
tp144
a(Vextracellular region
p145
I1031
tp146
a(Vcell morphogenesis
p147
I1029
tp148
a(Vsulfur compound metabolic process
p149
I1019
tp150
a(Vstructural molecule activity
p151
I928
tp152
a(Vcofactor metabolic process
p153
I880
tp154
a(VmRNA processing
p155
I850
tp156
a(Vsymbiosis, encompassing mutualism through parasitism
p157
I844
tp158
a(Vtransferase activity, transferring acyl groups
p159
I830
tp160
a(Vextracellular space
p161
I816
tp162
a(Vphosphatase activity
p163
I798
tp164
a(Vprotein targeting
p165
I787
tp166
a(Vgeneration of precursor metabolites and energy
p167
I777
tp168
a(Vextracellular matrix organization
p169
I773
tp170
a(Vvacuole
p171
I744
tp172
a(Vcilium
p173
I686
tp174
a(Vtransferase activity, transferring glycosyl groups
p175
I627
tp176
a(Vcell cycle
p177
I622
tp178
a(Vnucleocytoplasmic transport
p179
I601
tp180
a(Vcell junction organization
p181
I552
tp182
a(Vlyase activity
p183
I538
tp184
a(Vreproduction
p185
I531
tp186
a(Vmethyltransferase activity
p187
I526
tp188
a(Vaging
p189
I521
tp190
a(Vcell division
p191
I490
tp192
a(Vhelicase activity
p193
I476
tp194
a(Vlysosome
p195
I475
tp196
a(Vcirculatory system process
p197
I467
tp198
a(Vnuclease activity
p199
I457
tp200
a(Vmitochondrion organization
p201
I448
tp202
a(Vprotein folding
p203
I442
tp204
a(Vdevelopmental maturation
p205
I409
tp206
a(Vribonucleoprotein complex assembly
p207
I408
tp208
a(VGTPase activity
p209
I400
tp210
a(Vcytoskeleton-dependent intracellular transport
p211
I392
tp212
a(Vplastid
p213
I390
tp214
a(Vhistone binding
p215
I381
tp216
a(Vchromosome
p217
I381
tp218
a(Vhydrolase activity, acting on glycosyl bonds
p219
I332
tp220
a(VmRNA binding
p221
I331
tp222
a(Visomerase activity
p223
I329
tp224
a(Vplasma membrane organization
p225
I324
tp226
a(Vhydrolase activity, acting on carbon-nitrogen (but not peptide) bonds
p227
I305
tp228
a(Vsecondary metabolic process
p229
I303
tp230
a(Vproteinaceous extracellular matrix
p231
I300
tp232
a(Vnucleotidyltransferase activity
p233
I288
tp234
a(Vnuclear envelope
p235
I287
tp236
a(VtRNA metabolic process
p237
I248
tp238
a(Vprotein binding, bridging
p239
I246
tp240
a(Vmitosis
p241
I246
tp242
a(Vchromosome segregation
p243
I234
tp244
a(Vvacuolar transport
p245
I232
tp246
a(Vperoxisome
p247
I231
tp248
a(Vexternal encapsulating structure
p249
I211
tp250
a(Vtranslation factor activity, nucleic acid binding
p251
I203
tp252
a(Vcell wall
p253
I203
tp254
a(Vsmall conjugating protein binding
p255
I203
tp256
a(Vprotein transporter activity
p257
I187
tp258
a(Vunfolded protein binding
p259
I187
tp260
a(Vintracellular
p261
I181
tp262
a(Vtranslation
p263
I168
tp264
a(Vstructural constituent of ribosome
p265
I159
tp266
a(Vtransferase activity, transferring alkyl or aryl (other than methyl) groups
p267
I158
tp268
a(Vlipid particle
p269
I156
tp270
a(Vcell wall organization or biogenesis
p271
I148
tp272
a(Vribosome
p273
I128
tp274
a(Vnuclear chromosome
p275
I112
tp276
a(Vpigmentation
p277
I85
tp278
a(Vribosome biogenesis
p279
I75
tp280
a(VrRNA binding
p281
I63
tp282
a(Vthylakoid
p283
I37
tp284
a(Vnitrogen cycle metabolic process
p285
I35
tp286
a(Vtransposition
p287
I17
tp288
a(Vcell
p289
I13
tp290
a(Vphotosynthesis
p291
I6
tp292
a(VRNA modification guide activity
p293
I2
tp294
aa(lp295
(g3
L6372L
tp296
a(g5
L4365L
tp297
a(g7
L2787L
tp298
a(g9
L21685L
tp299
a(g11
L26888L
tp300
a(g13
L5491L
tp301
a(g15
L18268L
tp302
a(g17
L5801L
tp303
a(g19
L21693L
tp304
a(g21
L21630L
tp305
a(g23
L5613L
tp306
a(g25
L22689L
tp307
a(g27
L7192L
tp308
a(g29
L5168L
tp309
a(g31
L7190L
tp310
a(g33
L1781L
tp311
a(g35
L13924L
tp312
a(g37
L13633L
tp313
a(g39
L4599L
tp314
a(g41
L5326L
tp315
a(g43
L12968L
tp316
a(g45
L13690L
tp317
a(g47
L4644L
tp318
a(g49
L4422L
tp319
a(g51
L4507L
tp320
a(g53
L10381L
tp321
a(g55
L20507L
tp322
a(g57
L4995L
tp323
a(g59
L4514L
tp324
a(g61
L26682L
tp325
a(g63
L2790L
tp326
a(g65
L29927L
tp327
a(g67
L28228L
tp328
a(g69
L10598L
tp329
a(g71
L31581L
tp330
a(g73
L21086L
tp331
a(g75
L4725L
tp332
a(g77
L28535L
tp333
a(g79
L27837L
tp334
a(g81
L26901L
tp335
a(g83
L7881L
tp336
a(g85
L18282L
tp337
a(g87
L6320L
tp338
a(g89
L5165L
tp339
a(g91
L10466L
tp340
a(g93
L5663L
tp341
a(g95
L3827L
tp342
a(g97
L20503L
tp343
a(g99
L2830L
tp344
a(g101
L5218L
tp345
a(g103
L4515L
tp346
a(g105
L6500L
tp347
a(g107
L10229L
tp348
a(g109
L6448L
tp349
a(g111
L4567L
tp350
a(g113
L4621L
tp351
a(g115
L4556L
tp352
a(g117
L14001L
tp353
a(g119
L30984L
tp354
a(g121
L5791L
tp355
a(g123
L5896L
tp356
a(g125
L4542L
tp357
a(g127
L10950L
tp358
a(g129
L6436L
tp359
a(g131
L4439L
tp360
a(g133
L6357L
tp361
a(g135
L6494L
tp362
a(g137
L4586L
tp363
a(g139
L10963L
tp364
a(g141
L759L
tp365
a(g143
L677L
tp366
a(g145
L4366L
tp367
a(g147
L594L
tp368
a(g149
L5471L
tp369
a(g151
L4118L
tp370
a(g153
L28144L
tp371
a(g155
L5112L
tp372
a(g157
L22810L
tp373
a(g159
L10829L
tp374
a(g161
L4405L
tp375
a(g163
L10870L
tp376
a(g165
L5302L
tp377
a(g167
L4838L
tp378
a(g169
L13967L
tp379
a(g171
L4546L
tp380
a(g173
L4684L
tp381
a(g175
L10840L
tp382
a(g177
L5695L
tp383
a(g179
L5582L
tp384
a(g181
L17965L
tp385
a(g183
L10905L
tp386
a(g185
L3L
tp387
a(g187
L6389L
tp388
a(g189
L6169L
tp389
a(g191
L28251L
tp390
a(g193
L3404L
tp391
a(g195
L4538L
tp392
a(g197
L2364L
tp393
a(g199
L3518L
tp394
a(g201
L5658L
tp395
a(g203
L5161L
tp396
a(g205
L13274L
tp397
a(g207
L13644L
tp398
a(g209
L2991L
tp399
a(g211
L14427L
tp400
a(g213
L7644L
tp401
a(g215
L20900L
tp402
a(g217
L4475L
tp403
a(g219
L10876L
tp404
a(g221
L2835L
tp405
a(g223
L10929L
tp406
a(g225
L5662L
tp407
a(g227
L10886L
tp408
a(g229
L12827L
tp409
a(g231
L4368L
tp410
a(g233
L10860L
tp411
a(g235
L4423L
tp412
a(g237
L5114L
tp413
a(g239
L14396L
tp414
a(g241
L5712L
tp415
a(g243
L5705L
tp416
a(g245
L5682L
tp417
a(g247
L4550L
tp418
a(g249
L14078L
tp419
a(g251
L6358L
tp420
a(g253
L4408L
tp421
a(g255
L15840L
tp422
a(g257
L6747L
tp423
a(g259
L28040L
tp424
a(g261
L4411L
tp425
a(g263
L5126L
tp426
a(g265
L2841L
tp427
a(g267
L10848L
tp428
a(g269
L4583L
tp429
a(g271
L33137L
tp430
a(g273
L4609L
tp431
a(g275
L201L
tp432
a(g277
L21900L
tp433
a(g279
L20770L
tp434
a(g281
L12918L
tp435
a(g283
L7683L
tp436
a(g285
L33512L
tp437
a(g287
L15852L
tp438
a(g289
L4412L
tp439
a(g291
L10192L
tp440
a(g293
L14288L
tp441
aaI766921
a.