(lp1
(lp2
(Vbiological_process
p3
I122978
tp4
a(Vcellular_component
p5
I45615
tp6
a(Vmolecular_function
p7
I38352
tp8
a(Vorganelle
p9
I12284
tp10
a(Vanatomical structure development
p11
I8974
tp12
a(Vtransport
p13
I7892
tp14
a(Vcellular nitrogen compound metabolic process
p15
I7000
tp16
a(Vsignal transduction
p17
I5656
tp18
a(Vprotein complex
p19
I5142
tp20
a(Vion binding
p21
I4724
tp22
a(Vsmall molecule metabolic process
p23
I4542
tp24
a(Vresponse to stress
p25
I4347
tp26
a(Vbiosynthetic process
p27
I4153
tp28
a(Vcellular protein modification process
p29
I3461
tp30
a(Vcatabolic process
p31
I3215
tp32
a(Vimmune system process
p33
I2549
tp34
a(Vcytosol
p35
I2365
tp36
a(Vcellular component assembly
p37
I2121
tp38
a(Vcell differentiation
p39
I2043
tp40
a(Vlipid metabolic process
p41
I2034
tp42
a(Vtransmembrane transporter activity
p43
I1829
tp44
a(Vnucleus
p45
I1800
tp46
a(Venzyme binding
p47
I1787
tp48
a(Vplasma membrane
p49
I1775
tp50
a(VDNA metabolic process
p51
I1713
tp52
a(Vnucleolus
p53
I1692
tp54
a(Vcytoplasm
p55
I1578
tp56
a(Vtransmembrane transport
p57
I1512
tp58
a(Vvesicle-mediated transport
p59
I1488
tp60
a(Vchromosome organization
p61
I1340
tp62
a(VDNA binding
p63
I1327
tp64
a(Vlocomotion
p65
I1319
tp66
a(Voxidoreductase activity
p67
I1277
tp68
a(Vanatomical structure formation involved in morphogenesis
p69
I1270
tp70
a(Vmacromolecular complex assembly
p71
I1258
tp72
a(Vnucleobase-containing compound catabolic process
p73
I1204
tp74
a(Vhomeostatic process
p75
I1190
tp76
a(Vcarbohydrate metabolic process
p77
I1169
tp78
a(Vprotein maturation
p79
I1119
tp80
a(Vembryo development
p81
I1084
tp82
a(Vkinase activity
p83
I1025
tp84
a(Vprotein complex assembly
p85
I993
tp86
a(Vneurological system process
p87
I987
tp88
a(VRNA binding
p89
I959
tp90
a(Vcytoskeletal protein binding
p91
I933
tp92
a(Vcell motility
p93
I930
tp94
a(Vsignal transducer activity
p95
I919
tp96
a(Vcytoskeleton organization
p97
I917
tp98
a(Vmitochondrion
p99
I871
tp100
a(Vcellular amino acid metabolic process
p101
I871
tp102
a(Vpeptidase activity
p103
I843
tp104
a(Vlipid binding
p105
I813
tp106
a(Vgrowth
p107
I804
tp108
a(VGolgi apparatus
p109
I781
tp110
a(Vcytoplasmic membrane-bounded vesicle
p111
I769
tp112
a(Vcytoskeleton
p113
I716
tp114
a(Vendoplasmic reticulum
p115
I687
tp116
a(Vnucleoplasm
p117
I682
tp118
a(Vcell-cell signaling
p119
I663
tp120
a(Venzyme regulator activity
p121
I650
tp122
a(Vmembrane organization
p123
I647
tp124
a(Vendosome
p125
I626
tp126
a(VATPase activity
p127
I592
tp128
a(Vmicrotubule organizing center
p129
I588
tp130
a(Vligase activity
p131
I586
tp132
a(Vcell death
p133
I560
tp134
a(Vtranscription factor binding
p135
I556
tp136
a(Vcell adhesion
p137
I543
tp138
a(Vcell proliferation
p139
I518
tp140
a(Vextracellular region
p141
I508
tp142
a(Vnucleic acid binding transcription factor activity
p143
I487
tp144
a(Vprotein binding transcription factor activity
p145
I484
tp146
a(Vsulfur compound metabolic process
p147
I482
tp148
a(Vprotein targeting
p149
I462
tp150
a(Vstructural molecule activity
p151
I458
tp152
a(VmRNA processing
p153
I439
tp154
a(Vcofactor metabolic process
p155
I425
tp156
a(Vsymbiosis, encompassing mutualism through parasitism
p157
I420
tp158
a(Vcell morphogenesis
p159
I419
tp160
a(Vgeneration of precursor metabolites and energy
p161
I402
tp162
a(Vphosphatase activity
p163
I394
tp164
a(Vtransferase activity, transferring acyl groups
p165
I372
tp166
a(Vextracellular space
p167
I354
tp168
a(Vvacuole
p169
I333
tp170
a(Vcilium
p171
I332
tp172
a(Vextracellular matrix organization
p173
I327
tp174
a(Vtransferase activity, transferring glycosyl groups
p175
I318
tp176
a(Vnucleocytoplasmic transport
p177
I307
tp178
a(Vcell cycle
p179
I296
tp180
a(Vmethyltransferase activity
p181
I257
tp182
a(Vlyase activity
p183
I255
tp184
a(Vreproduction
p185
I246
tp186
a(Vhelicase activity
p187
I241
tp188
a(Vprotein folding
p189
I239
tp190
a(Vaging
p191
I233
tp192
a(Vnuclease activity
p193
I219
tp194
a(Vribonucleoprotein complex assembly
p195
I216
tp196
a(Vlysosome
p197
I215
tp198
a(Vcirculatory system process
p199
I210
tp200
a(VGTPase activity
p201
I207
tp202
a(Vmitochondrion organization
p203
I204
tp204
a(Vplastid
p205
I204
tp206
a(Vcell junction organization
p207
I201
tp208
a(Vcell division
p209
I194
tp210
a(Vcytoskeleton-dependent intracellular transport
p211
I189
tp212
a(Vchromosome
p213
I184
tp214
a(Vhistone binding
p215
I176
tp216
a(Visomerase activity
p217
I164
tp218
a(Vdevelopmental maturation
p219
I154
tp220
a(Vstructural constituent of ribosome
p221
I153
tp222
a(Vnucleotidyltransferase activity
p223
I152
tp224
a(Vplasma membrane organization
p225
I150
tp226
a(Vhydrolase activity, acting on glycosyl bonds
p227
I149
tp228
a(Vproteinaceous extracellular matrix
p229
I140
tp230
a(VmRNA binding
p231
I139
tp232
a(Vhydrolase activity, acting on carbon-nitrogen (but not peptide) bonds
p233
I134
tp234
a(Vmitosis
p235
I131
tp236
a(Vnuclear envelope
p237
I124
tp238
a(Vsecondary metabolic process
p239
I123
tp240
a(VtRNA metabolic process
p241
I121
tp242
a(Vtranslation factor activity, nucleic acid binding
p243
I117
tp244
a(Vperoxisome
p245
I113
tp246
a(Vchromosome segregation
p247
I109
tp248
a(Vvacuolar transport
p249
I108
tp250
a(Vunfolded protein binding
p251
I105
tp252
a(Vprotein binding, bridging
p253
I102
tp254
a(Vexternal encapsulating structure
p255
I99
tp256
a(Vcell wall
p257
I97
tp258
a(Vintracellular
p259
I93
tp260
a(Vtransferase activity, transferring alkyl or aryl (other than methyl) groups
p261
I91
tp262
a(Vprotein transporter activity
p263
I86
tp264
a(Vtranslation
p265
I84
tp266
a(Vsmall conjugating protein binding
p267
I78
tp268
a(Vlipid particle
p269
I71
tp270
a(Vcell wall organization or biogenesis
p271
I66
tp272
a(Vnuclear chromosome
p273
I64
tp274
a(Vribosome
p275
I64
tp276
a(Vribosome biogenesis
p277
I63
tp278
a(Vpigmentation
p279
I40
tp280
a(VrRNA binding
p281
I34
tp282
a(Vthylakoid
p283
I14
tp284
a(Vnitrogen cycle metabolic process
p285
I13
tp286
a(Vcell
p287
I7
tp288
a(Vtransposition
p289
I6
tp290
a(Vphotosynthesis
p291
I1
tp292
a(VRNA modification guide activity
p293
I1
tp294
aa(lp295
(g3
L6372L
tp296
a(g5
L4365L
tp297
a(g7
L2787L
tp298
a(g9
L21685L
tp299
a(g11
L26888L
tp300
a(g13
L5491L
tp301
a(g15
L18268L
tp302
a(g17
L5801L
tp303
a(g19
L21693L
tp304
a(g21
L21630L
tp305
a(g23
L22689L
tp306
a(g25
L5613L
tp307
a(g27
L7192L
tp308
a(g29
L5168L
tp309
a(g31
L7190L
tp310
a(g33
L1781L
tp311
a(g35
L4599L
tp312
a(g37
L13633L
tp313
a(g39
L13924L
tp314
a(g41
L5326L
tp315
a(g43
L13690L
tp316
a(g45
L4422L
tp317
a(g47
L12968L
tp318
a(g49
L4644L
tp319
a(g51
L4995L
tp320
a(g53
L4507L
tp321
a(g55
L4514L
tp322
a(g57
L29927L
tp323
a(g59
L10381L
tp324
a(g61
L28228L
tp325
a(g63
L2790L
tp326
a(g65
L20507L
tp327
a(g67
L10598L
tp328
a(g69
L26682L
tp329
a(g71
L31581L
tp330
a(g73
L18282L
tp331
a(g75
L21086L
tp332
a(g77
L4725L
tp333
a(g79
L28535L
tp334
a(g81
L7881L
tp335
a(g83
L10466L
tp336
a(g85
L5165L
tp337
a(g87
L27837L
tp338
a(g89
L2830L
tp339
a(g91
L6320L
tp340
a(g93
L26901L
tp341
a(g95
L3827L
tp342
a(g97
L5663L
tp343
a(g99
L4515L
tp344
a(g101
L5218L
tp345
a(g103
L6448L
tp346
a(g105
L6500L
tp347
a(g107
L20503L
tp348
a(g109
L4567L
tp349
a(g111
L10229L
tp350
a(g113
L4621L
tp351
a(g115
L4556L
tp352
a(g117
L4439L
tp353
a(g119
L5896L
tp354
a(g121
L14001L
tp355
a(g123
L30984L
tp356
a(g125
L4542L
tp357
a(g127
L10963L
tp358
a(g129
L4586L
tp359
a(g131
L10950L
tp360
a(g133
L6436L
tp361
a(g135
L6357L
tp362
a(g137
L5791L
tp363
a(g139
L6494L
tp364
a(g141
L4366L
tp365
a(g143
L759L
tp366
a(g145
L677L
tp367
a(g147
L5471L
tp368
a(g149
L5302L
tp369
a(g151
L4118L
tp370
a(g153
L5112L
tp371
a(g155
L28144L
tp372
a(g157
L22810L
tp373
a(g159
L594L
tp374
a(g161
L4838L
tp375
a(g163
L10870L
tp376
a(g165
L10829L
tp377
a(g167
L4405L
tp378
a(g169
L4546L
tp379
a(g171
L4684L
tp380
a(g173
L13967L
tp381
a(g175
L10840L
tp382
a(g177
L5582L
tp383
a(g179
L5695L
tp384
a(g181
L6389L
tp385
a(g183
L10905L
tp386
a(g185
L3L
tp387
a(g187
L3404L
tp388
a(g189
L5161L
tp389
a(g191
L6169L
tp390
a(g193
L3518L
tp391
a(g195
L13644L
tp392
a(g197
L4538L
tp393
a(g199
L2364L
tp394
a(g201
L2991L
tp395
a(g203
L5658L
tp396
a(g205
L7644L
tp397
a(g207
L17965L
tp398
a(g209
L28251L
tp399
a(g211
L14427L
tp400
a(g213
L4475L
tp401
a(g215
L20900L
tp402
a(g217
L10929L
tp403
a(g219
L13274L
tp404
a(g221
L2841L
tp405
a(g223
L10860L
tp406
a(g225
L5662L
tp407
a(g227
L10876L
tp408
a(g229
L4368L
tp409
a(g231
L2835L
tp410
a(g233
L10886L
tp411
a(g235
L5712L
tp412
a(g237
L4423L
tp413
a(g239
L12827L
tp414
a(g241
L5114L
tp415
a(g243
L6358L
tp416
a(g245
L4550L
tp417
a(g247
L5705L
tp418
a(g249
L5682L
tp419
a(g251
L28040L
tp420
a(g253
L14396L
tp421
a(g255
L14078L
tp422
a(g257
L4408L
tp423
a(g259
L4411L
tp424
a(g261
L10848L
tp425
a(g263
L6747L
tp426
a(g265
L5126L
tp427
a(g267
L15840L
tp428
a(g269
L4583L
tp429
a(g271
L33137L
tp430
a(g273
L201L
tp431
a(g275
L4609L
tp432
a(g277
L20770L
tp433
a(g279
L21900L
tp434
a(g281
L12918L
tp435
a(g283
L7683L
tp436
a(g285
L33512L
tp437
a(g287
L4412L
tp438
a(g289
L15852L
tp439
a(g291
L10192L
tp440
a(g293
L14288L
tp441
aaI355676
a.