(lp1
(lp2
(Vbiological_process
p3
I339141
tp4
a(Vcellular_component
p5
I115142
tp6
a(Vmolecular_function
p7
I95659
tp8
a(Vorganelle
p9
I30525
tp10
a(Vanatomical structure development
p11
I26047
tp12
a(Vtransport
p13
I19519
tp14
a(Vcellular nitrogen compound metabolic process
p15
I16143
tp16
a(Vsignal transduction
p17
I15205
tp18
a(Vresponse to stress
p19
I12314
tp20
a(Vprotein complex
p21
I12250
tp22
a(Vion binding
p23
I11753
tp24
a(Vsmall molecule metabolic process
p25
I11013
tp26
a(Vbiosynthetic process
p27
I10372
tp28
a(Vcellular protein modification process
p29
I8730
tp30
a(Vcatabolic process
p31
I7877
tp32
a(Vimmune system process
p33
I6622
tp34
a(Vcell differentiation
p35
I6088
tp36
a(Vcytosol
p37
I5325
tp38
a(Vcellular component assembly
p39
I5231
tp40
a(Vlipid metabolic process
p41
I5145
tp42
a(Venzyme binding
p43
I4773
tp44
a(Vtransmembrane transporter activity
p45
I4440
tp46
a(Vplasma membrane
p47
I4314
tp48
a(VDNA metabolic process
p49
I4190
tp50
a(Vnucleus
p51
I3971
tp52
a(Vanatomical structure formation involved in morphogenesis
p53
I3938
tp54
a(Vnucleolus
p55
I3904
tp56
a(Vlocomotion
p57
I3890
tp58
a(Vvesicle-mediated transport
p59
I3733
tp60
a(Vcytoplasm
p61
I3399
tp62
a(Vtransmembrane transport
p63
I3372
tp64
a(VDNA binding
p65
I3242
tp66
a(Voxidoreductase activity
p67
I3230
tp68
a(Vhomeostatic process
p69
I3197
tp70
a(Vchromosome organization
p71
I3181
tp72
a(Vcarbohydrate metabolic process
p73
I3085
tp74
a(Vmacromolecular complex assembly
p75
I2973
tp76
a(Vnucleobase-containing compound catabolic process
p77
I2782
tp78
a(Vcell motility
p79
I2750
tp80
a(Vsignal transducer activity
p81
I2745
tp82
a(Vprotein maturation
p83
I2743
tp84
a(Vneurological system process
p85
I2717
tp86
a(Vembryo development
p87
I2647
tp88
a(Vkinase activity
p89
I2551
tp90
a(Vgrowth
p91
I2546
tp92
a(Vcytoskeletal protein binding
p93
I2444
tp94
a(Vprotein complex assembly
p95
I2414
tp96
a(Vcytoskeleton organization
p97
I2325
tp98
a(VRNA binding
p99
I2201
tp100
a(Vlipid binding
p101
I2090
tp102
a(VGolgi apparatus
p103
I2043
tp104
a(Vmitochondrion
p105
I2042
tp106
a(Vcellular amino acid metabolic process
p107
I2000
tp108
a(Vcytoplasmic membrane-bounded vesicle
p109
I1996
tp110
a(Vpeptidase activity
p111
I1964
tp112
a(Vcytoskeleton
p113
I1814
tp114
a(Vcell adhesion
p115
I1774
tp116
a(Vcell-cell signaling
p117
I1751
tp118
a(Vendoplasmic reticulum
p119
I1742
tp120
a(Vmembrane organization
p121
I1616
tp122
a(Vendosome
p123
I1576
tp124
a(Venzyme regulator activity
p125
I1562
tp126
a(Vligase activity
p127
I1538
tp128
a(Vcell proliferation
p129
I1538
tp130
a(Vcell death
p131
I1537
tp132
a(Vnucleoplasm
p133
I1517
tp134
a(VATPase activity
p135
I1500
tp136
a(Vmicrotubule organizing center
p137
I1466
tp138
a(Vtranscription factor binding
p139
I1355
tp140
a(Vcell morphogenesis
p141
I1345
tp142
a(Vextracellular region
p143
I1335
tp144
a(Vsulfur compound metabolic process
p145
I1227
tp146
a(Vprotein binding transcription factor activity
p147
I1186
tp148
a(Vnucleic acid binding transcription factor activity
p149
I1176
tp150
a(Vstructural molecule activity
p151
I1128
tp152
a(Vprotein targeting
p153
I1072
tp154
a(Vextracellular space
p155
I1017
tp156
a(Vcofactor metabolic process
p157
I1014
tp158
a(Vextracellular matrix organization
p159
I964
tp160
a(Vcilium
p161
I957
tp162
a(Vtransferase activity, transferring acyl groups
p163
I933
tp164
a(VmRNA processing
p165
I914
tp166
a(Vgeneration of precursor metabolites and energy
p167
I877
tp168
a(Vvacuole
p169
I877
tp170
a(Vsymbiosis, encompassing mutualism through parasitism
p171
I849
tp172
a(Vphosphatase activity
p173
I847
tp174
a(Vcell cycle
p175
I749
tp176
a(Vtransferase activity, transferring glycosyl groups
p177
I744
tp178
a(Vaging
p179
I663
tp180
a(Vhelicase activity
p181
I663
tp182
a(Vnucleocytoplasmic transport
p183
I636
tp184
a(Vlyase activity
p185
I636
tp186
a(Vreproduction
p187
I623
tp188
a(Vplastid
p189
I614
tp190
a(Vcirculatory system process
p191
I591
tp192
a(Vcell division
p193
I590
tp194
a(Vnuclease activity
p195
I587
tp196
a(Vmethyltransferase activity
p197
I551
tp198
a(Vcell junction organization
p199
I522
tp200
a(Vlysosome
p201
I513
tp202
a(Vdevelopmental maturation
p203
I485
tp204
a(Vprotein folding
p205
I474
tp206
a(Vcytoskeleton-dependent intracellular transport
p207
I461
tp208
a(Vchromosome
p209
I459
tp210
a(Vproteinaceous extracellular matrix
p211
I450
tp212
a(Vribonucleoprotein complex assembly
p213
I445
tp214
a(Vmitochondrion organization
p215
I432
tp216
a(VGTPase activity
p217
I432
tp218
a(Vsecondary metabolic process
p219
I401
tp220
a(Vhydrolase activity, acting on glycosyl bonds
p221
I399
tp222
a(Vhistone binding
p223
I388
tp224
a(Vexternal encapsulating structure
p225
I388
tp226
a(Vcell wall
p227
I379
tp228
a(Vnuclear envelope
p229
I378
tp230
a(Visomerase activity
p231
I370
tp232
a(Vplasma membrane organization
p233
I363
tp234
a(Vnucleotidyltransferase activity
p235
I360
tp236
a(VmRNA binding
p237
I321
tp238
a(Vhydrolase activity, acting on carbon-nitrogen (but not peptide) bonds
p239
I320
tp240
a(Vstructural constituent of ribosome
p241
I304
tp242
a(Vmitosis
p243
I304
tp244
a(Vperoxisome
p245
I285
tp246
a(Vchromosome segregation
p247
I282
tp248
a(VtRNA metabolic process
p249
I281
tp250
a(Vprotein binding, bridging
p251
I272
tp252
a(Vcell wall organization or biogenesis
p253
I271
tp254
a(Vvacuolar transport
p255
I256
tp256
a(Vtranslation factor activity, nucleic acid binding
p257
I244
tp258
a(Vsmall conjugating protein binding
p259
I242
tp260
a(Vunfolded protein binding
p261
I208
tp262
a(Vprotein transporter activity
p263
I207
tp264
a(Vlipid particle
p265
I195
tp266
a(Vtranslation
p267
I181
tp268
a(Vintracellular
p269
I176
tp270
a(Vribosome
p271
I175
tp272
a(Vtransferase activity, transferring alkyl or aryl (other than methyl) groups
p273
I166
tp274
a(Vnuclear chromosome
p275
I154
tp276
a(Vribosome biogenesis
p277
I131
tp278
a(Vpigmentation
p279
I112
tp280
a(VrRNA binding
p281
I85
tp282
a(Vthylakoid
p283
I84
tp284
a(Vnitrogen cycle metabolic process
p285
I38
tp286
a(Vtransposition
p287
I35
tp288
a(Vphotosynthesis
p289
I24
tp290
a(Vcell
p291
I17
tp292
a(VRNA modification guide activity
p293
I2
tp294
aa(lp295
(g3
L6372L
tp296
a(g5
L4365L
tp297
a(g7
L2787L
tp298
a(g9
L21685L
tp299
a(g11
L26888L
tp300
a(g13
L5491L
tp301
a(g15
L18268L
tp302
a(g17
L5801L
tp303
a(g19
L5613L
tp304
a(g21
L21693L
tp305
a(g23
L21630L
tp306
a(g25
L22689L
tp307
a(g27
L7192L
tp308
a(g29
L5168L
tp309
a(g31
L7190L
tp310
a(g33
L1781L
tp311
a(g35
L13924L
tp312
a(g37
L4599L
tp313
a(g39
L13633L
tp314
a(g41
L5326L
tp315
a(g43
L12968L
tp316
a(g45
L13690L
tp317
a(g47
L4644L
tp318
a(g49
L4995L
tp319
a(g51
L4422L
tp320
a(g53
L26682L
tp321
a(g55
L4507L
tp322
a(g57
L20507L
tp323
a(g59
L10381L
tp324
a(g61
L4514L
tp325
a(g63
L29927L
tp326
a(g65
L2790L
tp327
a(g67
L10598L
tp328
a(g69
L21086L
tp329
a(g71
L28228L
tp330
a(g73
L4725L
tp331
a(g75
L31581L
tp332
a(g77
L18282L
tp333
a(g79
L26901L
tp334
a(g81
L3827L
tp335
a(g83
L28535L
tp336
a(g85
L27837L
tp337
a(g87
L7881L
tp338
a(g89
L10466L
tp339
a(g91
L20503L
tp340
a(g93
L6320L
tp341
a(g95
L5165L
tp342
a(g97
L5663L
tp343
a(g99
L2830L
tp344
a(g101
L6500L
tp345
a(g103
L4567L
tp346
a(g105
L4515L
tp347
a(g107
L5218L
tp348
a(g109
L10229L
tp349
a(g111
L6448L
tp350
a(g113
L4621L
tp351
a(g115
L5791L
tp352
a(g117
L5896L
tp353
a(g119
L4556L
tp354
a(g121
L30984L
tp355
a(g123
L4542L
tp356
a(g125
L14001L
tp357
a(g127
L10950L
tp358
a(g129
L6494L
tp359
a(g131
L6436L
tp360
a(g133
L4439L
tp361
a(g135
L10963L
tp362
a(g137
L4586L
tp363
a(g139
L6357L
tp364
a(g141
L594L
tp365
a(g143
L4366L
tp366
a(g145
L5471L
tp367
a(g147
L677L
tp368
a(g149
L759L
tp369
a(g151
L4118L
tp370
a(g153
L5302L
tp371
a(g155
L4405L
tp372
a(g157
L28144L
tp373
a(g159
L13967L
tp374
a(g161
L4684L
tp375
a(g163
L10829L
tp376
a(g165
L5112L
tp377
a(g167
L4838L
tp378
a(g169
L4546L
tp379
a(g171
L22810L
tp380
a(g173
L10870L
tp381
a(g175
L5695L
tp382
a(g177
L10840L
tp383
a(g179
L6169L
tp384
a(g181
L3404L
tp385
a(g183
L5582L
tp386
a(g185
L10905L
tp387
a(g187
L3L
tp388
a(g189
L7644L
tp389
a(g191
L2364L
tp390
a(g193
L28251L
tp391
a(g195
L3518L
tp392
a(g197
L6389L
tp393
a(g199
L17965L
tp394
a(g201
L4538L
tp395
a(g203
L13274L
tp396
a(g205
L5161L
tp397
a(g207
L14427L
tp398
a(g209
L4475L
tp399
a(g211
L4368L
tp400
a(g213
L13644L
tp401
a(g215
L5658L
tp402
a(g217
L2991L
tp403
a(g219
L12827L
tp404
a(g221
L10876L
tp405
a(g223
L20900L
tp406
a(g225
L14078L
tp407
a(g227
L4408L
tp408
a(g229
L4423L
tp409
a(g231
L10929L
tp410
a(g233
L5662L
tp411
a(g235
L10860L
tp412
a(g237
L2835L
tp413
a(g239
L10886L
tp414
a(g241
L2841L
tp415
a(g243
L5712L
tp416
a(g245
L4550L
tp417
a(g247
L5705L
tp418
a(g249
L5114L
tp419
a(g251
L14396L
tp420
a(g253
L33137L
tp421
a(g255
L5682L
tp422
a(g257
L6358L
tp423
a(g259
L15840L
tp424
a(g261
L28040L
tp425
a(g263
L6747L
tp426
a(g265
L4583L
tp427
a(g267
L5126L
tp428
a(g269
L4411L
tp429
a(g271
L4609L
tp430
a(g273
L10848L
tp431
a(g275
L201L
tp432
a(g277
L20770L
tp433
a(g279
L21900L
tp434
a(g281
L12918L
tp435
a(g283
L7683L
tp436
a(g285
L33512L
tp437
a(g287
L15852L
tp438
a(g289
L10192L
tp439
a(g291
L4412L
tp440
a(g293
L14288L
tp441
aaI927055
a.