(lp1
(lp2
(Vbiological_process
p3
I146443
tp4
a(Vcellular_component
p5
I53154
tp6
a(Vmolecular_function
p7
I44832
tp8
a(Vorganelle
p9
I14203
tp10
a(Vanatomical structure development
p11
I10830
tp12
a(Vtransport
p13
I9074
tp14
a(Vcellular nitrogen compound metabolic process
p15
I7692
tp16
a(Vsignal transduction
p17
I6752
tp18
a(Vprotein complex
p19
I5961
tp20
a(Vion binding
p21
I5542
tp22
a(Vsmall molecule metabolic process
p23
I5397
tp24
a(Vresponse to stress
p25
I5224
tp26
a(Vbiosynthetic process
p27
I4765
tp28
a(Vcellular protein modification process
p29
I3941
tp30
a(Vcatabolic process
p31
I3725
tp32
a(Vimmune system process
p33
I3013
tp34
a(Vcytosol
p35
I2762
tp36
a(Vcellular component assembly
p37
I2548
tp38
a(Vcell differentiation
p39
I2506
tp40
a(Vlipid metabolic process
p41
I2438
tp42
a(Venzyme binding
p43
I2148
tp44
a(Vplasma membrane
p45
I2079
tp46
a(Vtransmembrane transporter activity
p47
I2015
tp48
a(Vnucleus
p49
I1990
tp50
a(Vnucleolus
p51
I1977
tp52
a(Vvesicle-mediated transport
p53
I1790
tp54
a(VDNA metabolic process
p55
I1782
tp56
a(Vcytoplasm
p57
I1730
tp58
a(Vtransmembrane transport
p59
I1635
tp60
a(VDNA binding
p61
I1614
tp62
a(Voxidoreductase activity
p63
I1561
tp64
a(Vlocomotion
p65
I1546
tp66
a(Vanatomical structure formation involved in morphogenesis
p67
I1524
tp68
a(Vmacromolecular complex assembly
p69
I1508
tp70
a(Vchromosome organization
p71
I1476
tp72
a(Vhomeostatic process
p73
I1419
tp74
a(Vcarbohydrate metabolic process
p75
I1390
tp76
a(Vnucleobase-containing compound catabolic process
p77
I1349
tp78
a(Vprotein maturation
p79
I1307
tp80
a(Vembryo development
p81
I1254
tp82
a(Vprotein complex assembly
p83
I1199
tp84
a(Vsignal transducer activity
p85
I1154
tp86
a(Vneurological system process
p87
I1131
tp88
a(Vkinase activity
p89
I1113
tp90
a(VRNA binding
p91
I1112
tp92
a(Vcell motility
p93
I1105
tp94
a(Vcytoskeletal protein binding
p95
I1098
tp96
a(Vcytoskeleton organization
p97
I1072
tp98
a(Vcellular amino acid metabolic process
p99
I1055
tp100
a(Vpeptidase activity
p101
I1031
tp102
a(Vmitochondrion
p103
I1030
tp104
a(Vgrowth
p105
I1006
tp106
a(Vlipid binding
p107
I966
tp108
a(Vcytoplasmic membrane-bounded vesicle
p109
I919
tp110
a(VGolgi apparatus
p111
I900
tp112
a(Vcytoskeleton
p113
I818
tp114
a(Vcell-cell signaling
p115
I811
tp116
a(Vendoplasmic reticulum
p117
I796
tp118
a(Venzyme regulator activity
p119
I787
tp120
a(Vnucleoplasm
p121
I776
tp122
a(Vmembrane organization
p123
I769
tp124
a(Vendosome
p125
I721
tp126
a(Vcell death
p127
I691
tp128
a(Vligase activity
p129
I665
tp130
a(Vtranscription factor binding
p131
I664
tp132
a(Vmicrotubule organizing center
p133
I662
tp134
a(Vextracellular region
p135
I648
tp136
a(VATPase activity
p137
I648
tp138
a(Vcell adhesion
p139
I647
tp140
a(Vnucleic acid binding transcription factor activity
p141
I630
tp142
a(Vcell proliferation
p143
I627
tp144
a(Vsulfur compound metabolic process
p145
I594
tp146
a(Vprotein binding transcription factor activity
p147
I584
tp148
a(Vstructural molecule activity
p149
I581
tp150
a(Vprotein targeting
p151
I546
tp152
a(Vcell morphogenesis
p153
I520
tp154
a(Vgeneration of precursor metabolites and energy
p155
I491
tp156
a(Vsymbiosis, encompassing mutualism through parasitism
p157
I491
tp158
a(Vcofactor metabolic process
p159
I486
tp160
a(VmRNA processing
p161
I484
tp162
a(Vextracellular space
p163
I472
tp164
a(Vtransferase activity, transferring acyl groups
p165
I450
tp166
a(Vvacuole
p167
I431
tp168
a(Vextracellular matrix organization
p169
I426
tp170
a(Vphosphatase activity
p171
I420
tp172
a(Vcilium
p173
I385
tp174
a(Vnucleocytoplasmic transport
p175
I350
tp176
a(Vtransferase activity, transferring glycosyl groups
p177
I348
tp178
a(Vcell cycle
p179
I341
tp180
a(Vlyase activity
p181
I310
tp182
a(Vreproduction
p183
I300
tp184
a(Vprotein folding
p185
I284
tp186
a(Vmethyltransferase activity
p187
I277
tp188
a(Vlysosome
p189
I267
tp190
a(Vaging
p191
I264
tp192
a(Vcirculatory system process
p193
I264
tp194
a(Vribonucleoprotein complex assembly
p195
I256
tp196
a(VGTPase activity
p197
I247
tp198
a(Vplastid
p199
I245
tp200
a(Vcell junction organization
p201
I244
tp202
a(Vhelicase activity
p203
I244
tp204
a(Vcell division
p205
I239
tp206
a(Vmitochondrion organization
p207
I233
tp208
a(Vnuclease activity
p209
I224
tp210
a(Vcytoskeleton-dependent intracellular transport
p211
I215
tp212
a(Vdevelopmental maturation
p213
I210
tp214
a(Vchromosome
p215
I206
tp216
a(Vhistone binding
p217
I205
tp218
a(Visomerase activity
p219
I202
tp220
a(Vstructural constituent of ribosome
p221
I191
tp222
a(Vhydrolase activity, acting on glycosyl bonds
p223
I187
tp224
a(Vnucleotidyltransferase activity
p225
I175
tp226
a(Vproteinaceous extracellular matrix
p227
I174
tp228
a(VmRNA binding
p229
I171
tp230
a(Vplasma membrane organization
p231
I165
tp232
a(Vsecondary metabolic process
p233
I164
tp234
a(Vnuclear envelope
p235
I155
tp236
a(Vhydrolase activity, acting on carbon-nitrogen (but not peptide) bonds
p237
I151
tp238
a(Vperoxisome
p239
I143
tp240
a(Vexternal encapsulating structure
p241
I141
tp242
a(Vmitosis
p243
I140
tp244
a(Vtranslation factor activity, nucleic acid binding
p245
I139
tp246
a(Vcell wall
p247
I139
tp248
a(Vprotein binding, bridging
p249
I131
tp250
a(VtRNA metabolic process
p251
I130
tp252
a(Vvacuolar transport
p253
I126
tp254
a(Vunfolded protein binding
p255
I124
tp256
a(Vchromosome segregation
p257
I110
tp258
a(Vtranslation
p259
I106
tp260
a(Vintracellular
p261
I104
tp262
a(Vsmall conjugating protein binding
p263
I103
tp264
a(Vprotein transporter activity
p265
I102
tp266
a(Vcell wall organization or biogenesis
p267
I99
tp268
a(Vlipid particle
p269
I98
tp270
a(Vtransferase activity, transferring alkyl or aryl (other than methyl) groups
p271
I98
tp272
a(Vribosome
p273
I83
tp274
a(Vnuclear chromosome
p275
I71
tp276
a(Vribosome biogenesis
p277
I68
tp278
a(Vpigmentation
p279
I51
tp280
a(VrRNA binding
p281
I45
tp282
a(Vnitrogen cycle metabolic process
p283
I22
tp284
a(Vthylakoid
p285
I20
tp286
a(Vcell
p287
I7
tp288
a(Vphotosynthesis
p289
I7
tp290
a(Vtransposition
p291
I6
tp292
a(Vcytoplasmic chromosome
p293
I1
tp294
aa(lp295
(g3
L6372L
tp296
a(g5
L4365L
tp297
a(g7
L2787L
tp298
a(g9
L21685L
tp299
a(g11
L26888L
tp300
a(g13
L5491L
tp301
a(g15
L18268L
tp302
a(g17
L5801L
tp303
a(g19
L21693L
tp304
a(g21
L21630L
tp305
a(g23
L22689L
tp306
a(g25
L5613L
tp307
a(g27
L7192L
tp308
a(g29
L5168L
tp309
a(g31
L7190L
tp310
a(g33
L1781L
tp311
a(g35
L4599L
tp312
a(g37
L13633L
tp313
a(g39
L13924L
tp314
a(g41
L5326L
tp315
a(g43
L12968L
tp316
a(g45
L4644L
tp317
a(g47
L13690L
tp318
a(g49
L4422L
tp319
a(g51
L4507L
tp320
a(g53
L10381L
tp321
a(g55
L4995L
tp322
a(g57
L4514L
tp323
a(g59
L29927L
tp324
a(g61
L2790L
tp325
a(g63
L10598L
tp326
a(g65
L20507L
tp327
a(g67
L26682L
tp328
a(g69
L31581L
tp329
a(g71
L28228L
tp330
a(g73
L21086L
tp331
a(g75
L4725L
tp332
a(g77
L18282L
tp333
a(g79
L28535L
tp334
a(g81
L7881L
tp335
a(g83
L5165L
tp336
a(g85
L3827L
tp337
a(g87
L27837L
tp338
a(g89
L10466L
tp339
a(g91
L2830L
tp340
a(g93
L26901L
tp341
a(g95
L6320L
tp342
a(g97
L5663L
tp343
a(g99
L5218L
tp344
a(g101
L6448L
tp345
a(g103
L4515L
tp346
a(g105
L20503L
tp347
a(g107
L6500L
tp348
a(g109
L10229L
tp349
a(g111
L4567L
tp350
a(g113
L4621L
tp351
a(g115
L5896L
tp352
a(g117
L4556L
tp353
a(g119
L14001L
tp354
a(g121
L4439L
tp355
a(g123
L30984L
tp356
a(g125
L4542L
tp357
a(g127
L6436L
tp358
a(g129
L10950L
tp359
a(g131
L6357L
tp360
a(g133
L4586L
tp361
a(g135
L4366L
tp362
a(g137
L10963L
tp363
a(g139
L5791L
tp364
a(g141
L759L
tp365
a(g143
L6494L
tp366
a(g145
L5471L
tp367
a(g147
L677L
tp368
a(g149
L4118L
tp369
a(g151
L5302L
tp370
a(g153
L594L
tp371
a(g155
L4838L
tp372
a(g157
L22810L
tp373
a(g159
L28144L
tp374
a(g161
L5112L
tp375
a(g163
L4405L
tp376
a(g165
L10829L
tp377
a(g167
L4546L
tp378
a(g169
L13967L
tp379
a(g171
L10870L
tp380
a(g173
L4684L
tp381
a(g175
L5582L
tp382
a(g177
L10840L
tp383
a(g179
L5695L
tp384
a(g181
L10905L
tp385
a(g183
L3L
tp386
a(g185
L5161L
tp387
a(g187
L6389L
tp388
a(g189
L4538L
tp389
a(g191
L6169L
tp390
a(g193
L2364L
tp391
a(g195
L13644L
tp392
a(g197
L2991L
tp393
a(g199
L7644L
tp394
a(g201
L17965L
tp395
a(g203
L3404L
tp396
a(g205
L28251L
tp397
a(g207
L5658L
tp398
a(g209
L3518L
tp399
a(g211
L14427L
tp400
a(g213
L13274L
tp401
a(g215
L4475L
tp402
a(g217
L20900L
tp403
a(g219
L10929L
tp404
a(g221
L2841L
tp405
a(g223
L10876L
tp406
a(g225
L10860L
tp407
a(g227
L4368L
tp408
a(g229
L2835L
tp409
a(g231
L5662L
tp410
a(g233
L12827L
tp411
a(g235
L4423L
tp412
a(g237
L10886L
tp413
a(g239
L4550L
tp414
a(g241
L14078L
tp415
a(g243
L5712L
tp416
a(g245
L6358L
tp417
a(g247
L4408L
tp418
a(g249
L14396L
tp419
a(g251
L5114L
tp420
a(g253
L5682L
tp421
a(g255
L28040L
tp422
a(g257
L5705L
tp423
a(g259
L5126L
tp424
a(g261
L4411L
tp425
a(g263
L15840L
tp426
a(g265
L6747L
tp427
a(g267
L33137L
tp428
a(g269
L4583L
tp429
a(g271
L10848L
tp430
a(g273
L4609L
tp431
a(g275
L201L
tp432
a(g277
L20770L
tp433
a(g279
L21900L
tp434
a(g281
L12918L
tp435
a(g283
L33512L
tp436
a(g285
L7683L
tp437
a(g287
L4412L
tp438
a(g289
L10192L
tp439
a(g291
L15852L
tp440
a(g293
L202L
tp441
aaI418430
a.