(lp1
(lp2
(Vbiological_process
p3
I178307
tp4
a(Vcellular_component
p5
I61845
tp6
a(Vmolecular_function
p7
I53247
tp8
a(Vorganelle
p9
I16076
tp10
a(Vanatomical structure development
p11
I13774
tp12
a(Vtransport
p13
I10424
tp14
a(Vcellular nitrogen compound metabolic process
p15
I8846
tp16
a(Vsignal transduction
p17
I8297
tp18
a(Vprotein complex
p19
I6679
tp20
a(Vion binding
p21
I6543
tp22
a(Vsmall molecule metabolic process
p23
I6517
tp24
a(Vresponse to stress
p25
I6078
tp26
a(Vbiosynthetic process
p27
I5800
tp28
a(Vcellular protein modification process
p29
I4650
tp30
a(Vcatabolic process
p31
I4132
tp32
a(Vimmune system process
p33
I3717
tp34
a(Vcell differentiation
p35
I3359
tp36
a(Vcytosol
p37
I2925
tp38
a(Vcellular component assembly
p39
I2910
tp40
a(Vlipid metabolic process
p41
I2802
tp42
a(Venzyme binding
p43
I2518
tp44
a(Vplasma membrane
p45
I2357
tp46
a(Vtransmembrane transporter activity
p47
I2345
tp48
a(Vnucleus
p49
I2256
tp50
a(VDNA metabolic process
p51
I2219
tp52
a(Vcytoplasm
p53
I2120
tp54
a(Vlocomotion
p55
I2077
tp56
a(Vanatomical structure formation involved in morphogenesis
p57
I2074
tp58
a(Vnucleolus
p59
I2030
tp60
a(Vvesicle-mediated transport
p61
I2013
tp62
a(Voxidoreductase activity
p63
I1889
tp64
a(Vtransmembrane transport
p65
I1852
tp66
a(VDNA binding
p67
I1783
tp68
a(Vcarbohydrate metabolic process
p69
I1660
tp70
a(Vchromosome organization
p71
I1636
tp72
a(Vhomeostatic process
p73
I1635
tp74
a(Vkinase activity
p75
I1622
tp76
a(Vmacromolecular complex assembly
p77
I1612
tp78
a(Vcell motility
p79
I1567
tp80
a(Vnucleobase-containing compound catabolic process
p81
I1513
tp82
a(Vneurological system process
p83
I1498
tp84
a(Vprotein maturation
p85
I1435
tp86
a(Vsignal transducer activity
p87
I1414
tp88
a(Vcytoskeletal protein binding
p89
I1371
tp90
a(Vembryo development
p91
I1328
tp92
a(Vcellular amino acid metabolic process
p93
I1314
tp94
a(Vcytoskeleton organization
p95
I1305
tp96
a(Vprotein complex assembly
p97
I1302
tp98
a(Vgrowth
p99
I1253
tp100
a(Vmitochondrion
p101
I1120
tp102
a(Vpeptidase activity
p103
I1092
tp104
a(VRNA binding
p105
I1077
tp106
a(Vlipid binding
p107
I1045
tp108
a(Vcytoskeleton
p109
I1028
tp110
a(Vcell adhesion
p111
I1000
tp112
a(Vcytoplasmic membrane-bounded vesicle
p113
I991
tp114
a(VATPase activity
p115
I986
tp116
a(VGolgi apparatus
p117
I967
tp118
a(Vmembrane organization
p119
I910
tp120
a(Vendoplasmic reticulum
p121
I897
tp122
a(Vcell-cell signaling
p123
I891
tp124
a(Vligase activity
p125
I858
tp126
a(Vendosome
p127
I856
tp128
a(Venzyme regulator activity
p129
I820
tp130
a(Vnucleoplasm
p131
I819
tp132
a(Vcell death
p133
I802
tp134
a(Vcell proliferation
p135
I770
tp136
a(Vsulfur compound metabolic process
p137
I749
tp138
a(Vtranscription factor binding
p139
I740
tp140
a(Vmicrotubule organizing center
p141
I731
tp142
a(Vextracellular region
p143
I723
tp144
a(Vprotein binding transcription factor activity
p145
I690
tp146
a(Vcell morphogenesis
p147
I689
tp148
a(Vnucleic acid binding transcription factor activity
p149
I642
tp150
a(Vcofactor metabolic process
p151
I592
tp152
a(Vstructural molecule activity
p153
I583
tp154
a(Vextracellular space
p155
I523
tp156
a(Vcilium
p157
I521
tp158
a(Vextracellular matrix organization
p159
I513
tp160
a(Vtransferase activity, transferring acyl groups
p161
I499
tp162
a(VmRNA processing
p163
I497
tp164
a(Vtransferase activity, transferring glycosyl groups
p165
I492
tp166
a(Vprotein targeting
p167
I490
tp168
a(Vphosphatase activity
p169
I489
tp170
a(Vsymbiosis, encompassing mutualism through parasitism
p171
I468
tp172
a(Vgeneration of precursor metabolites and energy
p173
I457
tp174
a(Vvacuole
p175
I452
tp176
a(Vcell cycle
p177
I398
tp178
a(Vlyase activity
p179
I386
tp180
a(Vhelicase activity
p181
I360
tp182
a(Vnucleocytoplasmic transport
p183
I351
tp184
a(Vcell junction organization
p185
I339
tp186
a(Vaging
p187
I323
tp188
a(Vmethyltransferase activity
p189
I319
tp190
a(Vnuclease activity
p191
I300
tp192
a(Vlysosome
p193
I289
tp194
a(Vcell division
p195
I288
tp196
a(Vcirculatory system process
p197
I269
tp198
a(Vreproduction
p199
I259
tp200
a(Vmitochondrion organization
p201
I257
tp202
a(Vribonucleoprotein complex assembly
p203
I249
tp204
a(VGTPase activity
p205
I244
tp206
a(Vproteinaceous extracellular matrix
p207
I244
tp208
a(Vprotein folding
p209
I244
tp210
a(Vchromosome
p211
I243
tp212
a(Vnucleotidyltransferase activity
p213
I235
tp214
a(Vdevelopmental maturation
p215
I233
tp216
a(Vhistone binding
p217
I229
tp218
a(Vhydrolase activity, acting on glycosyl bonds
p219
I228
tp220
a(Vplastid
p221
I228
tp222
a(Vcytoskeleton-dependent intracellular transport
p223
I224
tp224
a(Visomerase activity
p225
I216
tp226
a(Vhydrolase activity, acting on carbon-nitrogen (but not peptide) bonds
p227
I203
tp228
a(Vplasma membrane organization
p229
I196
tp230
a(Vnuclear envelope
p231
I179
tp232
a(VtRNA metabolic process
p233
I176
tp234
a(Vsecondary metabolic process
p235
I162
tp236
a(VmRNA binding
p237
I159
tp238
a(Vexternal encapsulating structure
p239
I147
tp240
a(Vcell wall
p241
I143
tp242
a(Vprotein binding, bridging
p243
I141
tp244
a(Vperoxisome
p245
I139
tp246
a(Vmitosis
p247
I137
tp248
a(Vintracellular
p249
I135
tp250
a(Vchromosome segregation
p251
I131
tp252
a(Vprotein transporter activity
p253
I129
tp254
a(Vtranslation
p255
I128
tp256
a(Vtranslation factor activity, nucleic acid binding
p257
I124
tp258
a(Vstructural constituent of ribosome
p259
I120
tp260
a(Vunfolded protein binding
p261
I117
tp262
a(Vcell wall organization or biogenesis
p263
I114
tp264
a(Vvacuolar transport
p265
I111
tp266
a(Vsmall conjugating protein binding
p267
I105
tp268
a(Vtransferase activity, transferring alkyl or aryl (other than methyl) groups
p269
I102
tp270
a(Vlipid particle
p271
I99
tp272
a(Vribosome
p273
I75
tp274
a(Vnuclear chromosome
p275
I72
tp276
a(Vpigmentation
p277
I67
tp278
a(Vribosome biogenesis
p279
I46
tp280
a(VrRNA binding
p281
I45
tp282
a(Vnitrogen cycle metabolic process
p283
I18
tp284
a(Vthylakoid
p285
I18
tp286
a(Vtransposition
p287
I8
tp288
a(Vcell
p289
I8
tp290
a(Vphotosynthesis
p291
I1
tp292
a(VRNA modification guide activity
p293
I1
tp294
aa(lp295
(g3
L6372L
tp296
a(g5
L4365L
tp297
a(g7
L2787L
tp298
a(g9
L21685L
tp299
a(g11
L26888L
tp300
a(g13
L5491L
tp301
a(g15
L18268L
tp302
a(g17
L5801L
tp303
a(g19
L21693L
tp304
a(g21
L21630L
tp305
a(g23
L22689L
tp306
a(g25
L5613L
tp307
a(g27
L7192L
tp308
a(g29
L5168L
tp309
a(g31
L7190L
tp310
a(g33
L1781L
tp311
a(g35
L13924L
tp312
a(g37
L4599L
tp313
a(g39
L13633L
tp314
a(g41
L5326L
tp315
a(g43
L12968L
tp316
a(g45
L4644L
tp317
a(g47
L13690L
tp318
a(g49
L4422L
tp319
a(g51
L4995L
tp320
a(g53
L4514L
tp321
a(g55
L20507L
tp322
a(g57
L26682L
tp323
a(g59
L4507L
tp324
a(g61
L10381L
tp325
a(g63
L10598L
tp326
a(g65
L29927L
tp327
a(g67
L2790L
tp328
a(g69
L4725L
tp329
a(g71
L28228L
tp330
a(g73
L21086L
tp331
a(g75
L10466L
tp332
a(g77
L31581L
tp333
a(g79
L26901L
tp334
a(g81
L18282L
tp335
a(g83
L27837L
tp336
a(g85
L28535L
tp337
a(g87
L3827L
tp338
a(g89
L6320L
tp339
a(g91
L7881L
tp340
a(g93
L5218L
tp341
a(g95
L5663L
tp342
a(g97
L5165L
tp343
a(g99
L20503L
tp344
a(g101
L4515L
tp345
a(g103
L6448L
tp346
a(g105
L2830L
tp347
a(g107
L6500L
tp348
a(g109
L4621L
tp349
a(g111
L5791L
tp350
a(g113
L10229L
tp351
a(g115
L10963L
tp352
a(g117
L4567L
tp353
a(g119
L30984L
tp354
a(g121
L4556L
tp355
a(g123
L5896L
tp356
a(g125
L10950L
tp357
a(g127
L4542L
tp358
a(g129
L14001L
tp359
a(g131
L4439L
tp360
a(g133
L6436L
tp361
a(g135
L6494L
tp362
a(g137
L5471L
tp363
a(g139
L6357L
tp364
a(g141
L4586L
tp365
a(g143
L4366L
tp366
a(g145
L677L
tp367
a(g147
L594L
tp368
a(g149
L759L
tp369
a(g151
L28144L
tp370
a(g153
L4118L
tp371
a(g155
L4405L
tp372
a(g157
L4684L
tp373
a(g159
L13967L
tp374
a(g161
L10829L
tp375
a(g163
L5112L
tp376
a(g165
L10840L
tp377
a(g167
L5302L
tp378
a(g169
L10870L
tp379
a(g171
L22810L
tp380
a(g173
L4838L
tp381
a(g175
L4546L
tp382
a(g177
L5695L
tp383
a(g179
L10905L
tp384
a(g181
L3404L
tp385
a(g183
L5582L
tp386
a(g185
L17965L
tp387
a(g187
L6169L
tp388
a(g189
L6389L
tp389
a(g191
L3518L
tp390
a(g193
L4538L
tp391
a(g195
L28251L
tp392
a(g197
L2364L
tp393
a(g199
L3L
tp394
a(g201
L5658L
tp395
a(g203
L13644L
tp396
a(g205
L2991L
tp397
a(g207
L4368L
tp398
a(g209
L5161L
tp399
a(g211
L4475L
tp400
a(g213
L10860L
tp401
a(g215
L13274L
tp402
a(g217
L20900L
tp403
a(g219
L10876L
tp404
a(g221
L7644L
tp405
a(g223
L14427L
tp406
a(g225
L10929L
tp407
a(g227
L10886L
tp408
a(g229
L5662L
tp409
a(g231
L4423L
tp410
a(g233
L5114L
tp411
a(g235
L12827L
tp412
a(g237
L2835L
tp413
a(g239
L14078L
tp414
a(g241
L4408L
tp415
a(g243
L14396L
tp416
a(g245
L4550L
tp417
a(g247
L5712L
tp418
a(g249
L4411L
tp419
a(g251
L5705L
tp420
a(g253
L6747L
tp421
a(g255
L5126L
tp422
a(g257
L6358L
tp423
a(g259
L2841L
tp424
a(g261
L28040L
tp425
a(g263
L33137L
tp426
a(g265
L5682L
tp427
a(g267
L15840L
tp428
a(g269
L10848L
tp429
a(g271
L4583L
tp430
a(g273
L4609L
tp431
a(g275
L201L
tp432
a(g277
L21900L
tp433
a(g279
L20770L
tp434
a(g281
L12918L
tp435
a(g283
L33512L
tp436
a(g285
L7683L
tp437
a(g287
L15852L
tp438
a(g289
L4412L
tp439
a(g291
L10192L
tp440
a(g293
L14288L
tp441
aaI496906
a.