(lp1
(lp2
(Vbiological_process
p3
I360771
tp4
a(Vcellular_component
p5
I127191
tp6
a(Vmolecular_function
p7
I104312
tp8
a(Vorganelle
p9
I34779
tp10
a(Vanatomical structure development
p11
I24778
tp12
a(Vtransport
p13
I22392
tp14
a(Vcellular nitrogen compound metabolic process
p15
I18663
tp16
a(Vsignal transduction
p17
I15985
tp18
a(Vresponse to stress
p19
I14139
tp20
a(Vprotein complex
p21
I13896
tp22
a(Vsmall molecule metabolic process
p23
I13102
tp24
a(Vbiosynthetic process
p25
I13035
tp26
a(Vion binding
p27
I12782
tp28
a(Vcellular protein modification process
p29
I10299
tp30
a(Vcatabolic process
p31
I9353
tp32
a(Vimmune system process
p33
I6962
tp34
a(Vcytosol
p35
I6165
tp36
a(Vcellular component assembly
p37
I6097
tp38
a(Vlipid metabolic process
p39
I6072
tp40
a(Vcell differentiation
p41
I5696
tp42
a(Venzyme binding
p43
I5257
tp44
a(Vtransmembrane transporter activity
p45
I5013
tp46
a(Vplasma membrane
p47
I4930
tp48
a(VDNA metabolic process
p49
I4669
tp50
a(Vnucleus
p51
I4586
tp52
a(Vnucleolus
p53
I4228
tp54
a(Vvesicle-mediated transport
p55
I4177
tp56
a(Vcarbohydrate metabolic process
p57
I4085
tp58
a(Vcytoplasm
p59
I3826
tp60
a(Vlocomotion
p61
I3803
tp62
a(Vtransmembrane transport
p63
I3729
tp64
a(Vchromosome organization
p65
I3725
tp66
a(Voxidoreductase activity
p67
I3714
tp68
a(Vanatomical structure formation involved in morphogenesis
p69
I3568
tp70
a(Vmacromolecular complex assembly
p71
I3473
tp72
a(Vkinase activity
p73
I3424
tp74
a(Vhomeostatic process
p75
I3345
tp76
a(VDNA binding
p77
I3245
tp78
a(Vnucleobase-containing compound catabolic process
p79
I3225
tp80
a(Vcytoskeletal protein binding
p81
I2951
tp82
a(Vprotein maturation
p83
I2879
tp84
a(Vembryo development
p85
I2840
tp86
a(Vgrowth
p87
I2839
tp88
a(Vprotein complex assembly
p89
I2816
tp90
a(Vcytoskeleton organization
p91
I2762
tp92
a(Vcell motility
p93
I2677
tp94
a(Vneurological system process
p95
I2535
tp96
a(VRNA binding
p97
I2510
tp98
a(Vmitochondrion
p99
I2437
tp100
a(Vcellular amino acid metabolic process
p101
I2417
tp102
a(VGolgi apparatus
p103
I2233
tp104
a(Vcytoskeleton
p105
I2148
tp106
a(VATPase activity
p107
I2126
tp108
a(Vsignal transducer activity
p109
I2095
tp110
a(Vpeptidase activity
p111
I2042
tp112
a(Vlipid binding
p113
I2020
tp114
a(Vcytoplasmic membrane-bounded vesicle
p115
I2000
tp116
a(Vendoplasmic reticulum
p117
I1904
tp118
a(Vmembrane organization
p119
I1837
tp120
a(Vmicrotubule organizing center
p121
I1785
tp122
a(Vcell-cell signaling
p123
I1768
tp124
a(Vligase activity
p125
I1760
tp126
a(Vendosome
p127
I1724
tp128
a(Venzyme regulator activity
p129
I1632
tp130
a(Vnucleoplasm
p131
I1626
tp132
a(Vcell death
p133
I1590
tp134
a(Vcell adhesion
p135
I1576
tp136
a(Vcell morphogenesis
p137
I1461
tp138
a(Vcell proliferation
p139
I1411
tp140
a(Vsulfur compound metabolic process
p141
I1397
tp142
a(Vtranscription factor binding
p143
I1368
tp144
a(Vcofactor metabolic process
p145
I1348
tp146
a(Vextracellular region
p147
I1346
tp148
a(Vprotein targeting
p149
I1334
tp150
a(Vprotein binding transcription factor activity
p151
I1195
tp152
a(Vstructural molecule activity
p153
I1169
tp154
a(Vcilium
p155
I1130
tp156
a(Vtransferase activity, transferring acyl groups
p157
I1126
tp158
a(VmRNA processing
p159
I1098
tp160
a(Vgeneration of precursor metabolites and energy
p161
I1069
tp162
a(Vvacuole
p163
I1063
tp164
a(Vnucleic acid binding transcription factor activity
p165
I1063
tp166
a(Vcell cycle
p167
I1034
tp168
a(Vphosphatase activity
p169
I1015
tp170
a(Vplastid
p171
I962
tp172
a(Vsymbiosis, encompassing mutualism through parasitism
p173
I949
tp174
a(Vhelicase activity
p175
I894
tp176
a(Vtransferase activity, transferring glycosyl groups
p177
I847
tp178
a(Vextracellular space
p179
I819
tp180
a(Vlyase activity
p181
I811
tp182
a(Vreproduction
p183
I793
tp184
a(Vnucleocytoplasmic transport
p185
I792
tp186
a(Vextracellular matrix organization
p187
I774
tp188
a(Vmethyltransferase activity
p189
I715
tp190
a(Vcell division
p191
I705
tp192
a(Vprotein folding
p193
I653
tp194
a(Vaging
p195
I641
tp196
a(Vcytoskeleton-dependent intracellular transport
p197
I616
tp198
a(Vnuclease activity
p199
I613
tp200
a(Vcell junction organization
p201
I575
tp202
a(Vdevelopmental maturation
p203
I554
tp204
a(Vcirculatory system process
p205
I553
tp206
a(Vchromosome
p207
I549
tp208
a(Visomerase activity
p209
I537
tp210
a(Vlysosome
p211
I527
tp212
a(Vribonucleoprotein complex assembly
p213
I523
tp214
a(Vsecondary metabolic process
p215
I517
tp216
a(Vhydrolase activity, acting on glycosyl bonds
p217
I504
tp218
a(Vexternal encapsulating structure
p219
I498
tp220
a(Vmitochondrion organization
p221
I493
tp222
a(Vcell wall
p223
I491
tp224
a(VGTPase activity
p225
I480
tp226
a(Vnuclear envelope
p227
I460
tp228
a(Vnucleotidyltransferase activity
p229
I440
tp230
a(VmRNA binding
p231
I417
tp232
a(Vcell wall organization or biogenesis
p233
I410
tp234
a(Vhistone binding
p235
I402
tp236
a(Vplasma membrane organization
p237
I402
tp238
a(Vperoxisome
p239
I376
tp240
a(Vhydrolase activity, acting on carbon-nitrogen (but not peptide) bonds
p241
I363
tp242
a(Vchromosome segregation
p243
I362
tp244
a(Vmitosis
p245
I347
tp246
a(Vprotein binding, bridging
p247
I339
tp248
a(Vvacuolar transport
p249
I330
tp250
a(VtRNA metabolic process
p251
I329
tp252
a(Vproteinaceous extracellular matrix
p253
I309
tp254
a(Vsmall conjugating protein binding
p255
I273
tp256
a(Vtranslation factor activity, nucleic acid binding
p257
I270
tp258
a(Vstructural constituent of ribosome
p259
I258
tp260
a(Vtranslation
p261
I254
tp262
a(Vunfolded protein binding
p263
I250
tp264
a(Vintracellular
p265
I212
tp266
a(Vprotein transporter activity
p267
I205
tp268
a(Vlipid particle
p269
I205
tp270
a(Vtransferase activity, transferring alkyl or aryl (other than methyl) groups
p271
I194
tp272
a(Vribosome
p273
I189
tp274
a(Vnuclear chromosome
p275
I154
tp276
a(Vribosome biogenesis
p277
I148
tp278
a(Vpigmentation
p279
I131
tp280
a(Vthylakoid
p281
I130
tp282
a(VrRNA binding
p283
I83
tp284
a(Vnitrogen cycle metabolic process
p285
I51
tp286
a(Vtransposition
p287
I44
tp288
a(Vphotosynthesis
p289
I36
tp290
a(Vcell
p291
I11
tp292
a(Vcytoplasmic chromosome
p293
I6
tp294
a(VRNA modification guide activity
p295
I2
tp296
aa(lp297
(g3
L6372L
tp298
a(g5
L4365L
tp299
a(g7
L2787L
tp300
a(g9
L21685L
tp301
a(g11
L26888L
tp302
a(g13
L5491L
tp303
a(g15
L18268L
tp304
a(g17
L5801L
tp305
a(g19
L5613L
tp306
a(g21
L21693L
tp307
a(g23
L22689L
tp308
a(g25
L7192L
tp309
a(g27
L21630L
tp310
a(g29
L5168L
tp311
a(g31
L7190L
tp312
a(g33
L1781L
tp313
a(g35
L4599L
tp314
a(g37
L13633L
tp315
a(g39
L5326L
tp316
a(g41
L13924L
tp317
a(g43
L12968L
tp318
a(g45
L13690L
tp319
a(g47
L4644L
tp320
a(g49
L4995L
tp321
a(g51
L4422L
tp322
a(g53
L4507L
tp323
a(g55
L10381L
tp324
a(g57
L4725L
tp325
a(g59
L4514L
tp326
a(g61
L20507L
tp327
a(g63
L29927L
tp328
a(g65
L28228L
tp329
a(g67
L10598L
tp330
a(g69
L26682L
tp331
a(g71
L31581L
tp332
a(g73
L10466L
tp333
a(g75
L21086L
tp334
a(g77
L2790L
tp335
a(g79
L18282L
tp336
a(g81
L6320L
tp337
a(g83
L28535L
tp338
a(g85
L7881L
tp339
a(g87
L20503L
tp340
a(g89
L5165L
tp341
a(g91
L5663L
tp342
a(g93
L26901L
tp343
a(g95
L27837L
tp344
a(g97
L2830L
tp345
a(g99
L4515L
tp346
a(g101
L5218L
tp347
a(g103
L4567L
tp348
a(g105
L4621L
tp349
a(g107
L10963L
tp350
a(g109
L3827L
tp351
a(g111
L6448L
tp352
a(g113
L6500L
tp353
a(g115
L10229L
tp354
a(g117
L4556L
tp355
a(g119
L30984L
tp356
a(g121
L4586L
tp357
a(g123
L5896L
tp358
a(g125
L10950L
tp359
a(g127
L4542L
tp360
a(g129
L14001L
tp361
a(g131
L4439L
tp362
a(g133
L6436L
tp363
a(g135
L5791L
tp364
a(g137
L594L
tp365
a(g139
L6494L
tp366
a(g141
L5471L
tp367
a(g143
L6357L
tp368
a(g145
L28144L
tp369
a(g147
L4366L
tp370
a(g149
L5302L
tp371
a(g151
L677L
tp372
a(g153
L4118L
tp373
a(g155
L4684L
tp374
a(g157
L10829L
tp375
a(g159
L5112L
tp376
a(g161
L4838L
tp377
a(g163
L4546L
tp378
a(g165
L759L
tp379
a(g167
L5695L
tp380
a(g169
L10870L
tp381
a(g171
L7644L
tp382
a(g173
L22810L
tp383
a(g175
L3404L
tp384
a(g177
L10840L
tp385
a(g179
L4405L
tp386
a(g181
L10905L
tp387
a(g183
L3L
tp388
a(g185
L5582L
tp389
a(g187
L13967L
tp390
a(g189
L6389L
tp391
a(g191
L28251L
tp392
a(g193
L5161L
tp393
a(g195
L6169L
tp394
a(g197
L14427L
tp395
a(g199
L3518L
tp396
a(g201
L17965L
tp397
a(g203
L13274L
tp398
a(g205
L2364L
tp399
a(g207
L4475L
tp400
a(g209
L10929L
tp401
a(g211
L4538L
tp402
a(g213
L13644L
tp403
a(g215
L12827L
tp404
a(g217
L10876L
tp405
a(g219
L14078L
tp406
a(g221
L5658L
tp407
a(g223
L4408L
tp408
a(g225
L2991L
tp409
a(g227
L4423L
tp410
a(g229
L10860L
tp411
a(g231
L2835L
tp412
a(g233
L33137L
tp413
a(g235
L20900L
tp414
a(g237
L5662L
tp415
a(g239
L4550L
tp416
a(g241
L10886L
tp417
a(g243
L5705L
tp418
a(g245
L5712L
tp419
a(g247
L14396L
tp420
a(g249
L5682L
tp421
a(g251
L5114L
tp422
a(g253
L4368L
tp423
a(g255
L15840L
tp424
a(g257
L6358L
tp425
a(g259
L2841L
tp426
a(g261
L5126L
tp427
a(g263
L28040L
tp428
a(g265
L4411L
tp429
a(g267
L6747L
tp430
a(g269
L4583L
tp431
a(g271
L10848L
tp432
a(g273
L4609L
tp433
a(g275
L201L
tp434
a(g277
L20770L
tp435
a(g279
L21900L
tp436
a(g281
L7683L
tp437
a(g283
L12918L
tp438
a(g285
L33512L
tp439
a(g287
L15852L
tp440
a(g289
L10192L
tp441
a(g291
L4412L
tp442
a(g293
L202L
tp443
a(g295
L14288L
tp444
aaI1011424
a.