(lp1
(lp2
(Vbiological_process
p3
I287002
tp4
a(Vcellular_component
p5
I98901
tp6
a(Vmolecular_function
p7
I83184
tp8
a(Vorganelle
p9
I26241
tp10
a(Vanatomical structure development
p11
I21795
tp12
a(Vtransport
p13
I16743
tp14
a(Vsignal transduction
p15
I13251
tp16
a(Vcellular nitrogen compound metabolic process
p17
I13133
tp18
a(Vprotein complex
p19
I10999
tp20
a(Vion binding
p21
I10239
tp22
a(Vresponse to stress
p23
I10071
tp24
a(Vsmall molecule metabolic process
p25
I9106
tp26
a(Vbiosynthetic process
p27
I7841
tp28
a(Vcellular protein modification process
p29
I7597
tp30
a(Vcatabolic process
p31
I6348
tp32
a(Vimmune system process
p33
I5802
tp34
a(Vcell differentiation
p35
I5242
tp36
a(Vcellular component assembly
p37
I4792
tp38
a(Vcytosol
p39
I4691
tp40
a(Vlipid metabolic process
p41
I4398
tp42
a(Venzyme binding
p43
I4377
tp44
a(Vtransmembrane transporter activity
p45
I3739
tp46
a(Vplasma membrane
p47
I3582
tp48
a(Vlocomotion
p49
I3567
tp50
a(Vnucleus
p51
I3528
tp52
a(Vnucleolus
p53
I3503
tp54
a(Vvesicle-mediated transport
p55
I3384
tp56
a(VDNA metabolic process
p57
I3351
tp58
a(Vanatomical structure formation involved in morphogenesis
p59
I3335
tp60
a(Vcytoplasm
p61
I3142
tp62
a(VDNA binding
p63
I2947
tp64
a(Vtransmembrane transport
p65
I2890
tp66
a(Vchromosome organization
p67
I2874
tp68
a(Vhomeostatic process
p69
I2851
tp70
a(Vmacromolecular complex assembly
p71
I2634
tp72
a(Voxidoreductase activity
p73
I2604
tp74
a(Vcell motility
p75
I2591
tp76
a(Vneurological system process
p77
I2502
tp78
a(Vcarbohydrate metabolic process
p79
I2325
tp80
a(Vsignal transducer activity
p81
I2310
tp82
a(Vprotein maturation
p83
I2309
tp84
a(Vcytoskeletal protein binding
p85
I2306
tp86
a(Vkinase activity
p87
I2301
tp88
a(Vnucleobase-containing compound catabolic process
p89
I2282
tp90
a(Vprotein complex assembly
p91
I2148
tp92
a(Vembryo development
p93
I2134
tp94
a(Vcytoskeleton organization
p95
I2124
tp96
a(Vgrowth
p97
I2018
tp98
a(Vlipid binding
p99
I1897
tp100
a(VGolgi apparatus
p101
I1769
tp102
a(Vcytoplasmic membrane-bounded vesicle
p103
I1767
tp104
a(Vmitochondrion
p105
I1758
tp106
a(VRNA binding
p107
I1708
tp108
a(Vcell adhesion
p109
I1672
tp110
a(Vpeptidase activity
p111
I1652
tp112
a(Vcytoskeleton
p113
I1648
tp114
a(Vcellular amino acid metabolic process
p115
I1621
tp116
a(Vcell-cell signaling
p117
I1570
tp118
a(Vmembrane organization
p119
I1510
tp120
a(Vendosome
p121
I1487
tp122
a(Vendoplasmic reticulum
p123
I1479
tp124
a(Venzyme regulator activity
p125
I1436
tp126
a(Vligase activity
p127
I1404
tp128
a(VATPase activity
p129
I1339
tp130
a(Vnucleoplasm
p131
I1313
tp132
a(Vcell proliferation
p133
I1313
tp134
a(Vcell death
p135
I1282
tp136
a(Vmicrotubule organizing center
p137
I1268
tp138
a(Vtranscription factor binding
p139
I1248
tp140
a(Vcell morphogenesis
p141
I1175
tp142
a(Vprotein binding transcription factor activity
p143
I1156
tp144
a(Vnucleic acid binding transcription factor activity
p145
I1142
tp146
a(Vextracellular region
p147
I1052
tp148
a(Vstructural molecule activity
p149
I937
tp150
a(Vsulfur compound metabolic process
p151
I906
tp152
a(Vextracellular space
p153
I853
tp154
a(Vprotein targeting
p155
I824
tp156
a(Vcofactor metabolic process
p157
I821
tp158
a(Vcilium
p159
I812
tp160
a(Vextracellular matrix organization
p161
I804
tp162
a(Vsymbiosis, encompassing mutualism through parasitism
p163
I789
tp164
a(VmRNA processing
p165
I786
tp166
a(Vphosphatase activity
p167
I781
tp168
a(Vtransferase activity, transferring acyl groups
p169
I772
tp170
a(Vvacuole
p171
I729
tp172
a(Vgeneration of precursor metabolites and energy
p173
I691
tp174
a(Vcell cycle
p175
I646
tp176
a(Vtransferase activity, transferring glycosyl groups
p177
I642
tp178
a(Vnucleocytoplasmic transport
p179
I612
tp180
a(Vaging
p181
I569
tp182
a(Vcell junction organization
p183
I569
tp184
a(Vhelicase activity
p185
I532
tp186
a(Vreproduction
p187
I516
tp188
a(Vcirculatory system process
p189
I514
tp190
a(Vcell division
p191
I495
tp192
a(Vmethyltransferase activity
p193
I479
tp194
a(Vnuclease activity
p195
I479
tp196
a(Vlyase activity
p197
I473
tp198
a(Vlysosome
p199
I459
tp200
a(Vdevelopmental maturation
p201
I449
tp202
a(Vcytoskeleton-dependent intracellular transport
p203
I446
tp204
a(Vmitochondrion organization
p205
I429
tp206
a(Vhistone binding
p207
I399
tp208
a(Vprotein folding
p209
I388
tp210
a(Vribonucleoprotein complex assembly
p211
I379
tp212
a(Vchromosome
p213
I369
tp214
a(Vproteinaceous extracellular matrix
p215
I368
tp216
a(VGTPase activity
p217
I349
tp218
a(Vplastid
p219
I345
tp220
a(Vplasma membrane organization
p221
I340
tp222
a(Vnuclear envelope
p223
I321
tp224
a(Vnucleotidyltransferase activity
p225
I295
tp226
a(Visomerase activity
p227
I291
tp228
a(Vsecondary metabolic process
p229
I289
tp230
a(Vhydrolase activity, acting on glycosyl bonds
p231
I280
tp232
a(Vhydrolase activity, acting on carbon-nitrogen (but not peptide) bonds
p233
I276
tp234
a(Vmitosis
p235
I262
tp236
a(VmRNA binding
p237
I256
tp238
a(Vprotein binding, bridging
p239
I250
tp240
a(Vvacuolar transport
p241
I245
tp242
a(Vperoxisome
p243
I219
tp244
a(Vchromosome segregation
p245
I215
tp246
a(Vsmall conjugating protein binding
p247
I212
tp248
a(Vprotein transporter activity
p249
I207
tp250
a(VtRNA metabolic process
p251
I207
tp252
a(Vexternal encapsulating structure
p253
I196
tp254
a(Vcell wall
p255
I189
tp256
a(Vcell wall organization or biogenesis
p257
I176
tp258
a(Vtranslation factor activity, nucleic acid binding
p259
I167
tp260
a(Vunfolded protein binding
p261
I163
tp262
a(Vstructural constituent of ribosome
p263
I162
tp264
a(Vlipid particle
p265
I154
tp266
a(Vintracellular
p267
I153
tp268
a(Vtranslation
p269
I144
tp270
a(Vtransferase activity, transferring alkyl or aryl (other than methyl) groups
p271
I138
tp272
a(Vribosome
p273
I111
tp274
a(Vnuclear chromosome
p275
I108
tp276
a(Vpigmentation
p277
I98
tp278
a(Vribosome biogenesis
p279
I94
tp280
a(VrRNA binding
p281
I53
tp282
a(Vnitrogen cycle metabolic process
p283
I33
tp284
a(Vthylakoid
p285
I31
tp286
a(Vcell
p287
I19
tp288
a(Vtransposition
p289
I10
tp290
a(Vphotosynthesis
p291
I5
tp292
aa(lp293
(g3
L6372L
tp294
a(g5
L4365L
tp295
a(g7
L2787L
tp296
a(g9
L21685L
tp297
a(g11
L26888L
tp298
a(g13
L5491L
tp299
a(g15
L5801L
tp300
a(g17
L18268L
tp301
a(g19
L21693L
tp302
a(g21
L21630L
tp303
a(g23
L5613L
tp304
a(g25
L22689L
tp305
a(g27
L7192L
tp306
a(g29
L5168L
tp307
a(g31
L7190L
tp308
a(g33
L1781L
tp309
a(g35
L13924L
tp310
a(g37
L13633L
tp311
a(g39
L4599L
tp312
a(g41
L5326L
tp313
a(g43
L12968L
tp314
a(g45
L13690L
tp315
a(g47
L4644L
tp316
a(g49
L20507L
tp317
a(g51
L4422L
tp318
a(g53
L4507L
tp319
a(g55
L10381L
tp320
a(g57
L4995L
tp321
a(g59
L26682L
tp322
a(g61
L4514L
tp323
a(g63
L2790L
tp324
a(g65
L29927L
tp325
a(g67
L28228L
tp326
a(g69
L21086L
tp327
a(g71
L31581L
tp328
a(g73
L10598L
tp329
a(g75
L26901L
tp330
a(g77
L27837L
tp331
a(g79
L4725L
tp332
a(g81
L3827L
tp333
a(g83
L28535L
tp334
a(g85
L6320L
tp335
a(g87
L10466L
tp336
a(g89
L18282L
tp337
a(g91
L5165L
tp338
a(g93
L7881L
tp339
a(g95
L5663L
tp340
a(g97
L20503L
tp341
a(g99
L6500L
tp342
a(g101
L4567L
tp343
a(g103
L10229L
tp344
a(g105
L4515L
tp345
a(g107
L2830L
tp346
a(g109
L5791L
tp347
a(g111
L6448L
tp348
a(g113
L4621L
tp349
a(g115
L5218L
tp350
a(g117
L5896L
tp351
a(g119
L30984L
tp352
a(g121
L4542L
tp353
a(g123
L4556L
tp354
a(g125
L14001L
tp355
a(g127
L10950L
tp356
a(g129
L10963L
tp357
a(g131
L4439L
tp358
a(g133
L6494L
tp359
a(g135
L6436L
tp360
a(g137
L4586L
tp361
a(g139
L6357L
tp362
a(g141
L594L
tp363
a(g143
L677L
tp364
a(g145
L759L
tp365
a(g147
L4366L
tp366
a(g149
L4118L
tp367
a(g151
L5471L
tp368
a(g153
L4405L
tp369
a(g155
L5302L
tp370
a(g157
L28144L
tp371
a(g159
L4684L
tp372
a(g161
L13967L
tp373
a(g163
L22810L
tp374
a(g165
L5112L
tp375
a(g167
L10870L
tp376
a(g169
L10829L
tp377
a(g171
L4546L
tp378
a(g173
L4838L
tp379
a(g175
L5695L
tp380
a(g177
L10840L
tp381
a(g179
L5582L
tp382
a(g181
L6169L
tp383
a(g183
L17965L
tp384
a(g185
L3404L
tp385
a(g187
L3L
tp386
a(g189
L2364L
tp387
a(g191
L28251L
tp388
a(g193
L6389L
tp389
a(g195
L3518L
tp390
a(g197
L10905L
tp391
a(g199
L4538L
tp392
a(g201
L13274L
tp393
a(g203
L14427L
tp394
a(g205
L5658L
tp395
a(g207
L20900L
tp396
a(g209
L5161L
tp397
a(g211
L13644L
tp398
a(g213
L4475L
tp399
a(g215
L4368L
tp400
a(g217
L2991L
tp401
a(g219
L7644L
tp402
a(g221
L5662L
tp403
a(g223
L4423L
tp404
a(g225
L10860L
tp405
a(g227
L10929L
tp406
a(g229
L12827L
tp407
a(g231
L10876L
tp408
a(g233
L10886L
tp409
a(g235
L5712L
tp410
a(g237
L2835L
tp411
a(g239
L14396L
tp412
a(g241
L5682L
tp413
a(g243
L4550L
tp414
a(g245
L5705L
tp415
a(g247
L15840L
tp416
a(g249
L6747L
tp417
a(g251
L5114L
tp418
a(g253
L14078L
tp419
a(g255
L4408L
tp420
a(g257
L33137L
tp421
a(g259
L6358L
tp422
a(g261
L28040L
tp423
a(g263
L2841L
tp424
a(g265
L4583L
tp425
a(g267
L4411L
tp426
a(g269
L5126L
tp427
a(g271
L10848L
tp428
a(g273
L4609L
tp429
a(g275
L201L
tp430
a(g277
L21900L
tp431
a(g279
L20770L
tp432
a(g281
L12918L
tp433
a(g283
L33512L
tp434
a(g285
L7683L
tp435
a(g287
L4412L
tp436
a(g289
L15852L
tp437
a(g291
L10192L
tp438
aaI791480
a.