(lp1
(lp2
(Vbiological_process
p3
I276993
tp4
a(Vcellular_component
p5
I95852
tp6
a(Vmolecular_function
p7
I80130
tp8
a(Vorganelle
p9
I25250
tp10
a(Vanatomical structure development
p11
I20843
tp12
a(Vtransport
p13
I16651
tp14
a(Vcellular nitrogen compound metabolic process
p15
I13312
tp16
a(Vsignal transduction
p17
I12305
tp18
a(Vprotein complex
p19
I10076
tp20
a(Vion binding
p21
I9945
tp22
a(Vresponse to stress
p23
I9796
tp24
a(Vsmall molecule metabolic process
p25
I9686
tp26
a(Vbiosynthetic process
p27
I8424
tp28
a(Vcellular protein modification process
p29
I6938
tp30
a(Vcatabolic process
p31
I6458
tp32
a(Vimmune system process
p33
I5715
tp34
a(Vcell differentiation
p35
I4557
tp36
a(Vcellular component assembly
p37
I4445
tp38
a(Vcytosol
p39
I4341
tp40
a(Vlipid metabolic process
p41
I4285
tp42
a(Vtransmembrane transporter activity
p43
I4011
tp44
a(Venzyme binding
p45
I3853
tp46
a(Vplasma membrane
p47
I3518
tp48
a(VDNA metabolic process
p49
I3357
tp50
a(Vnucleus
p51
I3286
tp52
a(Vlocomotion
p53
I3188
tp54
a(Vnucleolus
p55
I3178
tp56
a(Vcytoplasm
p57
I3175
tp58
a(Vvesicle-mediated transport
p59
I3077
tp60
a(Vtransmembrane transport
p61
I2921
tp62
a(Voxidoreductase activity
p63
I2853
tp64
a(Vanatomical structure formation involved in morphogenesis
p65
I2805
tp66
a(Vchromosome organization
p67
I2670
tp68
a(Vhomeostatic process
p69
I2640
tp70
a(VDNA binding
p71
I2613
tp72
a(Vmacromolecular complex assembly
p73
I2494
tp74
a(Vcarbohydrate metabolic process
p75
I2460
tp76
a(Vneurological system process
p77
I2326
tp78
a(Vprotein maturation
p79
I2313
tp80
a(Vkinase activity
p81
I2299
tp82
a(Vnucleobase-containing compound catabolic process
p83
I2291
tp84
a(Vcell motility
p85
I2236
tp86
a(Vcytoskeletal protein binding
p87
I2229
tp88
a(Vsignal transducer activity
p89
I2153
tp90
a(Vembryo development
p91
I2101
tp92
a(Vprotein complex assembly
p93
I2022
tp94
a(Vcytoskeleton organization
p95
I1960
tp96
a(Vcellular amino acid metabolic process
p97
I1927
tp98
a(Vgrowth
p99
I1865
tp100
a(VRNA binding
p101
I1725
tp102
a(VGolgi apparatus
p103
I1709
tp104
a(Vpeptidase activity
p105
I1675
tp106
a(Vcytoskeleton
p107
I1646
tp108
a(Vmitochondrion
p109
I1615
tp110
a(Vlipid binding
p111
I1612
tp112
a(Vcytoplasmic membrane-bounded vesicle
p113
I1601
tp114
a(Vcell adhesion
p115
I1501
tp116
a(VATPase activity
p117
I1466
tp118
a(Vcell-cell signaling
p119
I1422
tp120
a(Vendoplasmic reticulum
p121
I1355
tp122
a(Vmembrane organization
p123
I1350
tp124
a(Vendosome
p125
I1275
tp126
a(Venzyme regulator activity
p127
I1271
tp128
a(Vligase activity
p129
I1255
tp130
a(Vcell death
p131
I1233
tp132
a(Vcell proliferation
p133
I1199
tp134
a(Vnucleoplasm
p135
I1161
tp136
a(Vmicrotubule organizing center
p137
I1151
tp138
a(Vtranscription factor binding
p139
I1045
tp140
a(Vcell morphogenesis
p141
I1018
tp142
a(Vsulfur compound metabolic process
p143
I1014
tp144
a(Vextracellular region
p145
I981
tp146
a(Vprotein binding transcription factor activity
p147
I909
tp148
a(Vnucleic acid binding transcription factor activity
p149
I886
tp150
a(Vstructural molecule activity
p151
I877
tp152
a(Vextracellular matrix organization
p153
I863
tp154
a(Vcofactor metabolic process
p155
I857
tp156
a(Vcilium
p157
I837
tp158
a(Vextracellular space
p159
I802
tp160
a(Vtransferase activity, transferring acyl groups
p161
I797
tp162
a(VmRNA processing
p163
I768
tp164
a(Vprotein targeting
p165
I752
tp166
a(Vphosphatase activity
p167
I729
tp168
a(Vvacuole
p169
I714
tp170
a(Vsymbiosis, encompassing mutualism through parasitism
p171
I713
tp172
a(Vcell cycle
p173
I700
tp174
a(Vgeneration of precursor metabolites and energy
p175
I693
tp176
a(Vtransferase activity, transferring glycosyl groups
p177
I663
tp178
a(Vlyase activity
p179
I613
tp180
a(Vhelicase activity
p181
I611
tp182
a(Vnucleocytoplasmic transport
p183
I527
tp184
a(Vaging
p185
I521
tp186
a(Vcell division
p187
I500
tp188
a(Vreproduction
p189
I495
tp190
a(Vmethyltransferase activity
p191
I490
tp192
a(Vnuclease activity
p193
I485
tp194
a(Vcirculatory system process
p195
I474
tp196
a(Vcell junction organization
p197
I460
tp198
a(Vcytoskeleton-dependent intracellular transport
p199
I432
tp200
a(Vdevelopmental maturation
p201
I430
tp202
a(Vlysosome
p203
I415
tp204
a(Vplastid
p205
I395
tp206
a(Vmitochondrion organization
p207
I387
tp208
a(Vprotein folding
p209
I379
tp210
a(Vribonucleoprotein complex assembly
p211
I378
tp212
a(Vproteinaceous extracellular matrix
p213
I358
tp214
a(VGTPase activity
p215
I354
tp216
a(Vchromosome
p217
I351
tp218
a(Visomerase activity
p219
I348
tp220
a(Vplasma membrane organization
p221
I343
tp222
a(Vhistone binding
p223
I340
tp224
a(Vnucleotidyltransferase activity
p225
I338
tp226
a(Vhydrolase activity, acting on glycosyl bonds
p227
I335
tp228
a(Vnuclear envelope
p229
I310
tp230
a(VtRNA metabolic process
p231
I291
tp232
a(Vhydrolase activity, acting on carbon-nitrogen (but not peptide) bonds
p233
I285
tp234
a(Vsecondary metabolic process
p235
I281
tp236
a(VmRNA binding
p237
I266
tp238
a(Vexternal encapsulating structure
p239
I261
tp240
a(Vcell wall
p241
I252
tp242
a(Vmitosis
p243
I228
tp244
a(Vperoxisome
p245
I218
tp246
a(Vchromosome segregation
p247
I214
tp248
a(Vvacuolar transport
p249
I206
tp250
a(Vprotein binding, bridging
p251
I204
tp252
a(Vstructural constituent of ribosome
p253
I186
tp254
a(Vtranslation factor activity, nucleic acid binding
p255
I181
tp256
a(Vunfolded protein binding
p257
I177
tp258
a(Vcell wall organization or biogenesis
p259
I175
tp260
a(Vsmall conjugating protein binding
p261
I174
tp262
a(Vprotein transporter activity
p263
I169
tp264
a(Vtranslation
p265
I159
tp266
a(Vintracellular
p267
I155
tp268
a(Vtransferase activity, transferring alkyl or aryl (other than methyl) groups
p269
I154
tp270
a(Vlipid particle
p271
I152
tp272
a(Vribosome
p273
I123
tp274
a(Vnuclear chromosome
p275
I109
tp276
a(Vpigmentation
p277
I92
tp278
a(Vribosome biogenesis
p279
I82
tp280
a(VrRNA binding
p281
I71
tp282
a(Vthylakoid
p283
I42
tp284
a(Vnitrogen cycle metabolic process
p285
I41
tp286
a(Vcell
p287
I12
tp288
a(Vtransposition
p289
I11
tp290
a(Vphotosynthesis
p291
I9
tp292
aa(lp293
(g3
L6372L
tp294
a(g5
L4365L
tp295
a(g7
L2787L
tp296
a(g9
L21685L
tp297
a(g11
L26888L
tp298
a(g13
L5491L
tp299
a(g15
L18268L
tp300
a(g17
L5801L
tp301
a(g19
L21693L
tp302
a(g21
L21630L
tp303
a(g23
L5613L
tp304
a(g25
L22689L
tp305
a(g27
L7192L
tp306
a(g29
L5168L
tp307
a(g31
L7190L
tp308
a(g33
L1781L
tp309
a(g35
L13924L
tp310
a(g37
L13633L
tp311
a(g39
L4599L
tp312
a(g41
L5326L
tp313
a(g43
L13690L
tp314
a(g45
L12968L
tp315
a(g47
L4644L
tp316
a(g49
L4995L
tp317
a(g51
L4422L
tp318
a(g53
L20507L
tp319
a(g55
L4507L
tp320
a(g57
L4514L
tp321
a(g59
L10381L
tp322
a(g61
L29927L
tp323
a(g63
L10598L
tp324
a(g65
L26682L
tp325
a(g67
L28228L
tp326
a(g69
L21086L
tp327
a(g71
L2790L
tp328
a(g73
L31581L
tp329
a(g75
L4725L
tp330
a(g77
L27837L
tp331
a(g79
L28535L
tp332
a(g81
L10466L
tp333
a(g83
L18282L
tp334
a(g85
L26901L
tp335
a(g87
L6320L
tp336
a(g89
L3827L
tp337
a(g91
L7881L
tp338
a(g93
L5165L
tp339
a(g95
L5663L
tp340
a(g97
L5218L
tp341
a(g99
L20503L
tp342
a(g101
L2830L
tp343
a(g103
L4567L
tp344
a(g105
L6448L
tp345
a(g107
L4621L
tp346
a(g109
L4515L
tp347
a(g111
L6500L
tp348
a(g113
L10229L
tp349
a(g115
L5791L
tp350
a(g117
L10963L
tp351
a(g119
L5896L
tp352
a(g121
L4556L
tp353
a(g123
L30984L
tp354
a(g125
L4542L
tp355
a(g127
L14001L
tp356
a(g129
L10950L
tp357
a(g131
L6436L
tp358
a(g133
L6494L
tp359
a(g135
L4439L
tp360
a(g137
L4586L
tp361
a(g139
L6357L
tp362
a(g141
L594L
tp363
a(g143
L5471L
tp364
a(g145
L4366L
tp365
a(g147
L677L
tp366
a(g149
L759L
tp367
a(g151
L4118L
tp368
a(g153
L13967L
tp369
a(g155
L28144L
tp370
a(g157
L4684L
tp371
a(g159
L4405L
tp372
a(g161
L10829L
tp373
a(g163
L5112L
tp374
a(g165
L5302L
tp375
a(g167
L10870L
tp376
a(g169
L4546L
tp377
a(g171
L22810L
tp378
a(g173
L5695L
tp379
a(g175
L4838L
tp380
a(g177
L10840L
tp381
a(g179
L10905L
tp382
a(g181
L3404L
tp383
a(g183
L5582L
tp384
a(g185
L6169L
tp385
a(g187
L28251L
tp386
a(g189
L3L
tp387
a(g191
L6389L
tp388
a(g193
L3518L
tp389
a(g195
L2364L
tp390
a(g197
L17965L
tp391
a(g199
L14427L
tp392
a(g201
L13274L
tp393
a(g203
L4538L
tp394
a(g205
L7644L
tp395
a(g207
L5658L
tp396
a(g209
L5161L
tp397
a(g211
L13644L
tp398
a(g213
L4368L
tp399
a(g215
L2991L
tp400
a(g217
L4475L
tp401
a(g219
L10929L
tp402
a(g221
L5662L
tp403
a(g223
L20900L
tp404
a(g225
L10860L
tp405
a(g227
L10876L
tp406
a(g229
L4423L
tp407
a(g231
L5114L
tp408
a(g233
L10886L
tp409
a(g235
L12827L
tp410
a(g237
L2835L
tp411
a(g239
L14078L
tp412
a(g241
L4408L
tp413
a(g243
L5712L
tp414
a(g245
L4550L
tp415
a(g247
L5705L
tp416
a(g249
L5682L
tp417
a(g251
L14396L
tp418
a(g253
L2841L
tp419
a(g255
L6358L
tp420
a(g257
L28040L
tp421
a(g259
L33137L
tp422
a(g261
L15840L
tp423
a(g263
L6747L
tp424
a(g265
L5126L
tp425
a(g267
L4411L
tp426
a(g269
L10848L
tp427
a(g271
L4583L
tp428
a(g273
L4609L
tp429
a(g275
L201L
tp430
a(g277
L21900L
tp431
a(g279
L20770L
tp432
a(g281
L12918L
tp433
a(g283
L7683L
tp434
a(g285
L33512L
tp435
a(g287
L4412L
tp436
a(g289
L15852L
tp437
a(g291
L10192L
tp438
aaI763712
a.