(lp1
(lp2
(Vbiological_process
p3
I198902
tp4
a(Vcellular_component
p5
I70180
tp6
a(Vmolecular_function
p7
I58254
tp8
a(Vorganelle
p9
I18694
tp10
a(Vanatomical structure development
p11
I14611
tp12
a(Vtransport
p13
I12220
tp14
a(Vcellular nitrogen compound metabolic process
p15
I10197
tp16
a(Vsignal transduction
p17
I8864
tp18
a(Vprotein complex
p19
I7720
tp20
a(Vsmall molecule metabolic process
p21
I7314
tp22
a(Vresponse to stress
p23
I6916
tp24
a(Vion binding
p25
I6868
tp26
a(Vbiosynthetic process
p27
I6673
tp28
a(Vcellular protein modification process
p29
I5316
tp30
a(Vcatabolic process
p31
I4871
tp32
a(Vimmune system process
p33
I3671
tp34
a(Vlipid metabolic process
p35
I3514
tp36
a(Vcytosol
p37
I3392
tp38
a(Vcell differentiation
p39
I3380
tp40
a(Vcellular component assembly
p41
I3222
tp42
a(Vtransmembrane transporter activity
p43
I2775
tp44
a(Venzyme binding
p45
I2758
tp46
a(Vplasma membrane
p47
I2608
tp48
a(Vnucleus
p49
I2548
tp50
a(VDNA metabolic process
p51
I2474
tp52
a(Vnucleolus
p53
I2446
tp54
a(Voxidoreductase activity
p55
I2285
tp56
a(Vvesicle-mediated transport
p57
I2278
tp58
a(Vcytoplasm
p59
I2259
tp60
a(Vchromosome organization
p61
I2177
tp62
a(Vtransmembrane transport
p63
I2163
tp64
a(Vlocomotion
p65
I2038
tp66
a(Vanatomical structure formation involved in morphogenesis
p67
I2012
tp68
a(VDNA binding
p69
I1999
tp70
a(Vhomeostatic process
p71
I1919
tp72
a(Vcarbohydrate metabolic process
p73
I1851
tp74
a(Vmacromolecular complex assembly
p75
I1827
tp76
a(Vsignal transducer activity
p77
I1817
tp78
a(Vnucleobase-containing compound catabolic process
p79
I1677
tp80
a(Vneurological system process
p81
I1601
tp82
a(Vprotein maturation
p83
I1599
tp84
a(Vembryo development
p85
I1569
tp86
a(Vkinase activity
p87
I1506
tp88
a(Vcytoskeletal protein binding
p89
I1472
tp90
a(Vcytoskeleton organization
p91
I1463
tp92
a(Vprotein complex assembly
p93
I1458
tp94
a(Vcell motility
p95
I1397
tp96
a(Vgrowth
p97
I1385
tp98
a(Vmitochondrion
p99
I1363
tp100
a(Vcellular amino acid metabolic process
p101
I1346
tp102
a(VRNA binding
p103
I1333
tp104
a(Vlipid binding
p105
I1208
tp106
a(Vpeptidase activity
p107
I1200
tp108
a(Vcytoplasmic membrane-bounded vesicle
p109
I1200
tp110
a(Vcell-cell signaling
p111
I1188
tp112
a(VGolgi apparatus
p113
I1111
tp114
a(Vendoplasmic reticulum
p115
I1105
tp116
a(Vcytoskeleton
p117
I1075
tp118
a(Vmembrane organization
p119
I986
tp120
a(Venzyme regulator activity
p121
I978
tp122
a(Vnucleoplasm
p123
I960
tp124
a(Vendosome
p125
I959
tp126
a(Vcell death
p127
I910
tp128
a(Vmicrotubule organizing center
p129
I909
tp130
a(Vligase activity
p131
I875
tp132
a(Vtranscription factor binding
p133
I875
tp134
a(VATPase activity
p135
I846
tp136
a(Vcell adhesion
p137
I838
tp138
a(Vcell proliferation
p139
I791
tp140
a(Vnucleic acid binding transcription factor activity
p141
I758
tp142
a(Vprotein binding transcription factor activity
p143
I754
tp144
a(Vextracellular region
p145
I753
tp146
a(Vsulfur compound metabolic process
p147
I702
tp148
a(Vcell morphogenesis
p149
I693
tp150
a(Vcofactor metabolic process
p151
I662
tp152
a(Vtransferase activity, transferring acyl groups
p153
I662
tp154
a(Vcilium
p155
I614
tp156
a(Vphosphatase activity
p157
I608
tp158
a(Vstructural molecule activity
p159
I602
tp160
a(Vtransferase activity, transferring glycosyl groups
p161
I594
tp162
a(VmRNA processing
p163
I587
tp164
a(Vprotein targeting
p165
I585
tp166
a(Vcell cycle
p167
I572
tp168
a(Vgeneration of precursor metabolites and energy
p169
I565
tp170
a(Vsymbiosis, encompassing mutualism through parasitism
p171
I563
tp172
a(Vvacuole
p173
I503
tp174
a(Vextracellular space
p175
I483
tp176
a(Vextracellular matrix organization
p177
I450
tp178
a(Vlyase activity
p179
I420
tp180
a(Vnucleocytoplasmic transport
p181
I407
tp182
a(Vcirculatory system process
p183
I396
tp184
a(Vmethyltransferase activity
p185
I385
tp186
a(Vreproduction
p187
I381
tp188
a(Vcell division
p189
I371
tp190
a(Vaging
p191
I355
tp192
a(Vcell junction organization
p193
I341
tp194
a(Vnuclease activity
p195
I339
tp196
a(Vhelicase activity
p197
I337
tp198
a(Vcytoskeleton-dependent intracellular transport
p199
I322
tp200
a(Vmitochondrion organization
p201
I313
tp202
a(Vprotein folding
p203
I306
tp204
a(Vlysosome
p205
I305
tp206
a(VGTPase activity
p207
I298
tp208
a(Vchromosome
p209
I295
tp210
a(Vribonucleoprotein complex assembly
p211
I283
tp212
a(Vplastid
p213
I279
tp214
a(Vhistone binding
p215
I270
tp216
a(Vnuclear envelope
p217
I248
tp218
a(Visomerase activity
p219
I239
tp220
a(Vdevelopmental maturation
p221
I238
tp222
a(Vsecondary metabolic process
p223
I232
tp224
a(Vnucleotidyltransferase activity
p225
I229
tp226
a(Vhydrolase activity, acting on glycosyl bonds
p227
I228
tp228
a(Vplasma membrane organization
p229
I228
tp230
a(VtRNA metabolic process
p231
I209
tp232
a(Vhydrolase activity, acting on carbon-nitrogen (but not peptide) bonds
p233
I207
tp234
a(VmRNA binding
p235
I202
tp236
a(Vmitosis
p237
I181
tp238
a(Vproteinaceous extracellular matrix
p239
I180
tp240
a(Vperoxisome
p241
I180
tp242
a(Vchromosome segregation
p243
I173
tp244
a(Vstructural constituent of ribosome
p245
I169
tp246
a(Vvacuolar transport
p247
I168
tp248
a(Vexternal encapsulating structure
p249
I154
tp250
a(Vcell wall
p251
I152
tp252
a(Vtranslation factor activity, nucleic acid binding
p253
I149
tp254
a(Vprotein binding, bridging
p255
I137
tp256
a(Vtranslation
p257
I136
tp258
a(Vcell wall organization or biogenesis
p259
I135
tp260
a(Vsmall conjugating protein binding
p261
I134
tp262
a(Vtransferase activity, transferring alkyl or aryl (other than methyl) groups
p263
I133
tp264
a(Vunfolded protein binding
p265
I132
tp266
a(Vintracellular
p267
I132
tp268
a(Vlipid particle
p269
I121
tp270
a(Vprotein transporter activity
p271
I118
tp272
a(Vribosome
p273
I92
tp274
a(Vnuclear chromosome
p275
I87
tp276
a(Vribosome biogenesis
p277
I76
tp278
a(Vpigmentation
p279
I61
tp280
a(VrRNA binding
p281
I51
tp282
a(Vthylakoid
p283
I28
tp284
a(Vnitrogen cycle metabolic process
p285
I19
tp286
a(Vcell
p287
I9
tp288
a(Vtransposition
p289
I6
tp290
a(Vphotosynthesis
p291
I4
tp292
a(VRNA modification guide activity
p293
I2
tp294
aa(lp295
(g3
L6372L
tp296
a(g5
L4365L
tp297
a(g7
L2787L
tp298
a(g9
L21685L
tp299
a(g11
L26888L
tp300
a(g13
L5491L
tp301
a(g15
L18268L
tp302
a(g17
L5801L
tp303
a(g19
L21693L
tp304
a(g21
L22689L
tp305
a(g23
L5613L
tp306
a(g25
L21630L
tp307
a(g27
L7192L
tp308
a(g29
L5168L
tp309
a(g31
L7190L
tp310
a(g33
L1781L
tp311
a(g35
L5326L
tp312
a(g37
L4599L
tp313
a(g39
L13924L
tp314
a(g41
L13633L
tp315
a(g43
L13690L
tp316
a(g45
L12968L
tp317
a(g47
L4644L
tp318
a(g49
L4422L
tp319
a(g51
L4995L
tp320
a(g53
L4507L
tp321
a(g55
L10598L
tp322
a(g57
L10381L
tp323
a(g59
L4514L
tp324
a(g61
L28228L
tp325
a(g63
L29927L
tp326
a(g65
L20507L
tp327
a(g67
L26682L
tp328
a(g69
L2790L
tp329
a(g71
L21086L
tp330
a(g73
L4725L
tp331
a(g75
L31581L
tp332
a(g77
L3827L
tp333
a(g79
L18282L
tp334
a(g81
L27837L
tp335
a(g83
L28535L
tp336
a(g85
L7881L
tp337
a(g87
L10466L
tp338
a(g89
L6320L
tp339
a(g91
L5663L
tp340
a(g93
L5165L
tp341
a(g95
L26901L
tp342
a(g97
L20503L
tp343
a(g99
L4515L
tp344
a(g101
L5218L
tp345
a(g103
L2830L
tp346
a(g105
L6500L
tp347
a(g107
L6448L
tp348
a(g109
L10229L
tp349
a(g111
L5896L
tp350
a(g113
L4567L
tp351
a(g115
L4556L
tp352
a(g117
L4621L
tp353
a(g119
L30984L
tp354
a(g121
L14001L
tp355
a(g123
L4439L
tp356
a(g125
L4542L
tp357
a(g127
L6436L
tp358
a(g129
L4586L
tp359
a(g131
L10950L
tp360
a(g133
L6357L
tp361
a(g135
L10963L
tp362
a(g137
L5791L
tp363
a(g139
L6494L
tp364
a(g141
L759L
tp365
a(g143
L677L
tp366
a(g145
L4366L
tp367
a(g147
L5471L
tp368
a(g149
L594L
tp369
a(g151
L28144L
tp370
a(g153
L10829L
tp371
a(g155
L4684L
tp372
a(g157
L10870L
tp373
a(g159
L4118L
tp374
a(g161
L10840L
tp375
a(g163
L5112L
tp376
a(g165
L5302L
tp377
a(g167
L5695L
tp378
a(g169
L4838L
tp379
a(g171
L22810L
tp380
a(g173
L4546L
tp381
a(g175
L4405L
tp382
a(g177
L13967L
tp383
a(g179
L10905L
tp384
a(g181
L5582L
tp385
a(g183
L2364L
tp386
a(g185
L6389L
tp387
a(g187
L3L
tp388
a(g189
L28251L
tp389
a(g191
L6169L
tp390
a(g193
L17965L
tp391
a(g195
L3518L
tp392
a(g197
L3404L
tp393
a(g199
L14427L
tp394
a(g201
L5658L
tp395
a(g203
L5161L
tp396
a(g205
L4538L
tp397
a(g207
L2991L
tp398
a(g209
L4475L
tp399
a(g211
L13644L
tp400
a(g213
L7644L
tp401
a(g215
L20900L
tp402
a(g217
L4423L
tp403
a(g219
L10929L
tp404
a(g221
L13274L
tp405
a(g223
L12827L
tp406
a(g225
L10860L
tp407
a(g227
L10876L
tp408
a(g229
L5662L
tp409
a(g231
L5114L
tp410
a(g233
L10886L
tp411
a(g235
L2835L
tp412
a(g237
L5712L
tp413
a(g239
L4368L
tp414
a(g241
L4550L
tp415
a(g243
L5705L
tp416
a(g245
L2841L
tp417
a(g247
L5682L
tp418
a(g249
L14078L
tp419
a(g251
L4408L
tp420
a(g253
L6358L
tp421
a(g255
L14396L
tp422
a(g257
L5126L
tp423
a(g259
L33137L
tp424
a(g261
L15840L
tp425
a(g263
L10848L
tp426
a(g265
L28040L
tp427
a(g267
L4411L
tp428
a(g269
L4583L
tp429
a(g271
L6747L
tp430
a(g273
L4609L
tp431
a(g275
L201L
tp432
a(g277
L20770L
tp433
a(g279
L21900L
tp434
a(g281
L12918L
tp435
a(g283
L7683L
tp436
a(g285
L33512L
tp437
a(g287
L4412L
tp438
a(g289
L15852L
tp439
a(g291
L10192L
tp440
a(g293
L14288L
tp441
aaI555688
a.